---
triple:          'x86_64-apple-darwin'
binary-path:     '/Users/noahlynaugh/Desktop/Coding/Studio_PLND/Digital-Effect-Controller/DEC/VST_Plugin/vst3sdk/build/VST3/Release/adelay.vst3/Contents/MacOS/adelay'
relocations:
  - { offset: 0x43, size: 0x8, addend: 0x0, symName: __ZN9Steinberg3Vst20IDelayTestController3iidE, symObjAddr: 0x22BC8, symBinAddr: 0x33AF0, symSize: 0x0 }
  - { offset: 0x9B, size: 0x8, addend: 0x0, symName: __ZN9Steinberg3VstL24IDelayTestController_iidE, symObjAddr: 0x8E0, symBinAddr: 0x2BC10, symSize: 0x0 }
  - { offset: 0x389F, size: 0x8, addend: 0x0, symName: __ZN9Steinberg4FUIDD1Ev, symObjAddr: 0x0, symBinAddr: 0x2200, symSize: 0x10 }
  - { offset: 0x75E8, size: 0x8, addend: 0x0, symName: __ZN9Steinberg3Vst16ADelayController10initializeEPNS_8FUnknownE, symObjAddr: 0x10, symBinAddr: 0x2210, symSize: 0x80 }
  - { offset: 0x764C, size: 0x8, addend: 0x0, symName: __ZThn16_N9Steinberg3Vst16ADelayController10initializeEPNS_8FUnknownE, symObjAddr: 0x90, symBinAddr: 0x2290, symSize: 0x90 }
  - { offset: 0x7691, size: 0x8, addend: 0x0, symName: __ZThn48_N9Steinberg3Vst16ADelayController10initializeEPNS_8FUnknownE, symObjAddr: 0x120, symBinAddr: 0x2320, symSize: 0x90 }
  - { offset: 0x76D6, size: 0x8, addend: 0x0, symName: __ZN9Steinberg3Vst16ADelayController17setComponentStateEPNS_8IBStreamE, symObjAddr: 0x1B0, symBinAddr: 0x23B0, symSize: 0xB0 }
  - { offset: 0x785C, size: 0x8, addend: 0x0, symName: __ZThn48_N9Steinberg3Vst16ADelayController17setComponentStateEPNS_8IBStreamE, symObjAddr: 0x260, symBinAddr: 0x2460, symSize: 0xB0 }
  - { offset: 0x78DA, size: 0x8, addend: 0x0, symName: __ZN9Steinberg3Vst16ADelayController6doTestEv, symObjAddr: 0x310, symBinAddr: 0x2510, symSize: 0x10 }
  - { offset: 0x78FD, size: 0x8, addend: 0x0, symName: __ZThn112_N9Steinberg3Vst16ADelayController6doTestEv, symObjAddr: 0x320, symBinAddr: 0x2520, symSize: 0x10 }
  - { offset: 0x796B, size: 0x8, addend: 0x0, symName: __ZN9Steinberg3Vst16ADelayController14queryInterfaceEPKcPPv, symObjAddr: 0x330, symBinAddr: 0x2530, symSize: 0xF0 }
  - { offset: 0x7B77, size: 0x8, addend: 0x0, symName: __ZN9Steinberg3Vst16ADelayController6addRefEv, symObjAddr: 0x420, symBinAddr: 0x2620, symSize: 0x10 }
  - { offset: 0x7BF6, size: 0x8, addend: 0x0, symName: __ZN9Steinberg3Vst16ADelayController7releaseEv, symObjAddr: 0x430, symBinAddr: 0x2630, symSize: 0x10 }
  - { offset: 0x7C4D, size: 0x8, addend: 0x0, symName: __ZN9Steinberg7FObject6updateEPNS_8FUnknownEi, symObjAddr: 0x440, symBinAddr: 0x2640, symSize: 0x10 }
  - { offset: 0x7D24, size: 0x8, addend: 0x0, symName: __ZN9Steinberg3Vst16ADelayControllerD1Ev, symObjAddr: 0x450, symBinAddr: 0x2650, symSize: 0xA0 }
  - { offset: 0x7E09, size: 0x8, addend: 0x0, symName: __ZN9Steinberg3Vst16ADelayControllerD0Ev, symObjAddr: 0x4F0, symBinAddr: 0x26F0, symSize: 0xA0 }
  - { offset: 0x7EE4, size: 0x8, addend: 0x0, symName: __ZNK9Steinberg3Vst16ADelayController3isAEv, symObjAddr: 0x590, symBinAddr: 0x2790, symSize: 0x10 }
  - { offset: 0x7F07, size: 0x8, addend: 0x0, symName: __ZNK9Steinberg3Vst16ADelayController3isAEPKc, symObjAddr: 0x5A0, symBinAddr: 0x27A0, symSize: 0x10 }
  - { offset: 0x7FFD, size: 0x8, addend: 0x0, symName: __ZNK9Steinberg3Vst16ADelayController8isTypeOfEPKcb, symObjAddr: 0x5B0, symBinAddr: 0x27B0, symSize: 0x90 }
  - { offset: 0x819F, size: 0x8, addend: 0x0, symName: __ZN9Steinberg7FObject10updateDoneEi, symObjAddr: 0x640, symBinAddr: 0x2840, symSize: 0x10 }
  - { offset: 0x81CB, size: 0x8, addend: 0x0, symName: __ZN9Steinberg7FObject15isEqualInstanceEPNS_8FUnknownE, symObjAddr: 0x650, symBinAddr: 0x2850, symSize: 0x10 }
  - { offset: 0x81FB, size: 0x8, addend: 0x0, symName: __ZN9Steinberg3Vst14EditController10createViewEPKc, symObjAddr: 0x660, symBinAddr: 0x2860, symSize: 0x10 }
  - { offset: 0x8227, size: 0x8, addend: 0x0, symName: __ZN9Steinberg3Vst14EditController11setKnobModeEi, symObjAddr: 0x670, symBinAddr: 0x2870, symSize: 0x20 }
  - { offset: 0x824D, size: 0x8, addend: 0x0, symName: __ZN9Steinberg3Vst14EditController8openHelpEh, symObjAddr: 0x690, symBinAddr: 0x2890, symSize: 0x10 }
  - { offset: 0x8279, size: 0x8, addend: 0x0, symName: __ZN9Steinberg3Vst14EditController12openAboutBoxEh, symObjAddr: 0x6A0, symBinAddr: 0x28A0, symSize: 0x10 }
  - { offset: 0x82A5, size: 0x8, addend: 0x0, symName: __ZN9Steinberg3Vst14EditController15editorDestroyedEPNS0_10EditorViewE, symObjAddr: 0x6B0, symBinAddr: 0x28B0, symSize: 0x10 }
  - { offset: 0x82D1, size: 0x8, addend: 0x0, symName: __ZN9Steinberg3Vst14EditController14editorAttachedEPNS0_10EditorViewE, symObjAddr: 0x6C0, symBinAddr: 0x28C0, symSize: 0x10 }
  - { offset: 0x82FD, size: 0x8, addend: 0x0, symName: __ZN9Steinberg3Vst14EditController13editorRemovedEPNS0_10EditorViewE, symObjAddr: 0x6D0, symBinAddr: 0x28D0, symSize: 0x10 }
  - { offset: 0x8329, size: 0x8, addend: 0x0, symName: __ZN9Steinberg3Vst14EditController18getParameterObjectEj, symObjAddr: 0x6E0, symBinAddr: 0x28E0, symSize: 0x10 }
  - { offset: 0x835B, size: 0x8, addend: 0x0, symName: __ZThn16_N9Steinberg3Vst16ADelayController14queryInterfaceEPKcPPv, symObjAddr: 0x6F0, symBinAddr: 0x28F0, symSize: 0x10 }
  - { offset: 0x83A1, size: 0x8, addend: 0x0, symName: __ZThn16_N9Steinberg3Vst16ADelayController6addRefEv, symObjAddr: 0x700, symBinAddr: 0x2900, symSize: 0x10 }
  - { offset: 0x841E, size: 0x8, addend: 0x0, symName: __ZThn16_N9Steinberg3Vst16ADelayController7releaseEv, symObjAddr: 0x710, symBinAddr: 0x2910, symSize: 0x10 }
  - { offset: 0x8487, size: 0x8, addend: 0x0, symName: __ZThn24_N9Steinberg3Vst16ADelayController14queryInterfaceEPKcPPv, symObjAddr: 0x720, symBinAddr: 0x2920, symSize: 0x10 }
  - { offset: 0x84B9, size: 0x8, addend: 0x0, symName: __ZThn24_N9Steinberg3Vst16ADelayController6addRefEv, symObjAddr: 0x730, symBinAddr: 0x2930, symSize: 0x10 }
  - { offset: 0x8522, size: 0x8, addend: 0x0, symName: __ZThn24_N9Steinberg3Vst16ADelayController7releaseEv, symObjAddr: 0x740, symBinAddr: 0x2940, symSize: 0x10 }
  - { offset: 0x858B, size: 0x8, addend: 0x0, symName: __ZThn48_N9Steinberg3Vst16ADelayController14queryInterfaceEPKcPPv, symObjAddr: 0x750, symBinAddr: 0x2950, symSize: 0x10 }
  - { offset: 0x85BD, size: 0x8, addend: 0x0, symName: __ZThn48_N9Steinberg3Vst16ADelayController6addRefEv, symObjAddr: 0x760, symBinAddr: 0x2960, symSize: 0x10 }
  - { offset: 0x8626, size: 0x8, addend: 0x0, symName: __ZThn48_N9Steinberg3Vst16ADelayController7releaseEv, symObjAddr: 0x770, symBinAddr: 0x2970, symSize: 0x10 }
  - { offset: 0x868F, size: 0x8, addend: 0x0, symName: __ZThn48_N9Steinberg3Vst14EditController10createViewEPKc, symObjAddr: 0x780, symBinAddr: 0x2980, symSize: 0x10 }
  - { offset: 0x86A4, size: 0x8, addend: 0x0, symName: __ZThn56_N9Steinberg3Vst16ADelayController14queryInterfaceEPKcPPv, symObjAddr: 0x790, symBinAddr: 0x2990, symSize: 0x10 }
  - { offset: 0x86D6, size: 0x8, addend: 0x0, symName: __ZThn56_N9Steinberg3Vst16ADelayController6addRefEv, symObjAddr: 0x7A0, symBinAddr: 0x29A0, symSize: 0x10 }
  - { offset: 0x873F, size: 0x8, addend: 0x0, symName: __ZThn56_N9Steinberg3Vst16ADelayController7releaseEv, symObjAddr: 0x7B0, symBinAddr: 0x29B0, symSize: 0x10 }
  - { offset: 0x87C7, size: 0x8, addend: 0x0, symName: __ZThn56_N9Steinberg3Vst14EditController11setKnobModeEi, symObjAddr: 0x7C0, symBinAddr: 0x29C0, symSize: 0x20 }
  - { offset: 0x8801, size: 0x8, addend: 0x0, symName: __ZThn56_N9Steinberg3Vst14EditController8openHelpEh, symObjAddr: 0x7E0, symBinAddr: 0x29E0, symSize: 0x10 }
  - { offset: 0x8816, size: 0x8, addend: 0x0, symName: __ZThn56_N9Steinberg3Vst14EditController12openAboutBoxEh, symObjAddr: 0x7F0, symBinAddr: 0x29F0, symSize: 0x10 }
  - { offset: 0x882B, size: 0x8, addend: 0x0, symName: __ZThn112_N9Steinberg3Vst16ADelayController14queryInterfaceEPKcPPv, symObjAddr: 0x800, symBinAddr: 0x2A00, symSize: 0x10 }
  - { offset: 0x885D, size: 0x8, addend: 0x0, symName: __ZThn112_N9Steinberg3Vst16ADelayController6addRefEv, symObjAddr: 0x810, symBinAddr: 0x2A10, symSize: 0x10 }
  - { offset: 0x88C6, size: 0x8, addend: 0x0, symName: __ZThn112_N9Steinberg3Vst16ADelayController7releaseEv, symObjAddr: 0x820, symBinAddr: 0x2A20, symSize: 0x10 }
  - { offset: 0x892F, size: 0x8, addend: 0x0, symName: __ZN9Steinberg4FUIDD0Ev, symObjAddr: 0x840, symBinAddr: 0x2A40, symSize: 0xA }
  - { offset: 0xABF9, size: 0x8, addend: 0x0, symName: __ZN9Steinberg3Vst15ADelayProcessorC2Ev, symObjAddr: 0x0, symBinAddr: 0x2A80, symSize: 0xF0 }
  - { offset: 0xAC7A, size: 0x8, addend: 0x0, symName: __ZN9Steinberg3VstL19ADelayControllerUIDE, symObjAddr: 0x1280, symBinAddr: 0x2BCA0, symSize: 0x0 }
  - { offset: 0x10691, size: 0x8, addend: 0x0, symName: __ZN9Steinberg3Vst15ADelayProcessorC2Ev, symObjAddr: 0x0, symBinAddr: 0x2A80, symSize: 0xF0 }
  - { offset: 0x10724, size: 0x8, addend: 0x0, symName: __ZN9Steinberg3Vst9ComponentD2Ev, symObjAddr: 0xD10, symBinAddr: 0x3760, symSize: 0x1F0 }
  - { offset: 0x10D7A, size: 0x8, addend: 0x0, symName: __ZN9Steinberg3Vst15ADelayProcessorC1Ev, symObjAddr: 0xF0, symBinAddr: 0x2B70, symSize: 0xF0 }
  - { offset: 0x10E2D, size: 0x8, addend: 0x0, symName: __ZN9Steinberg3Vst15ADelayProcessor10initializeEPNS_8FUnknownE, symObjAddr: 0x1E0, symBinAddr: 0x2C60, symSize: 0x60 }
  - { offset: 0x10E8C, size: 0x8, addend: 0x0, symName: __ZThn16_N9Steinberg3Vst15ADelayProcessor10initializeEPNS_8FUnknownE, symObjAddr: 0x240, symBinAddr: 0x2CC0, symSize: 0x60 }
  - { offset: 0x10ECF, size: 0x8, addend: 0x0, symName: __ZThn48_N9Steinberg3Vst15ADelayProcessor10initializeEPNS_8FUnknownE, symObjAddr: 0x2A0, symBinAddr: 0x2D20, symSize: 0x60 }
  - { offset: 0x10F12, size: 0x8, addend: 0x0, symName: __ZN9Steinberg3Vst15ADelayProcessor18setBusArrangementsEPyiS2_i, symObjAddr: 0x300, symBinAddr: 0x2D80, symSize: 0x30 }
  - { offset: 0x10F93, size: 0x8, addend: 0x0, symName: __ZThn272_N9Steinberg3Vst15ADelayProcessor18setBusArrangementsEPyiS2_i, symObjAddr: 0x330, symBinAddr: 0x2DB0, symSize: 0x40 }
  - { offset: 0x10FAC, size: 0x8, addend: 0x0, symName: __ZThn272_N9Steinberg3Vst15ADelayProcessor18setBusArrangementsEPyiS2_i, symObjAddr: 0x330, symBinAddr: 0x2DB0, symSize: 0x40 }
  - { offset: 0x10FCF, size: 0x8, addend: 0x0, symName: __ZN9Steinberg3Vst15ADelayProcessor9setActiveEh, symObjAddr: 0x370, symBinAddr: 0x2DF0, symSize: 0x180 }
  - { offset: 0x1112E, size: 0x8, addend: 0x0, symName: __ZThn48_N9Steinberg3Vst15ADelayProcessor9setActiveEh, symObjAddr: 0x4F0, symBinAddr: 0x2F70, symSize: 0x10 }
  - { offset: 0x11159, size: 0x8, addend: 0x0, symName: __ZN9Steinberg3Vst15ADelayProcessor7processERNS0_11ProcessDataE, symObjAddr: 0x500, symBinAddr: 0x2F80, symSize: 0x2A0 }
  - { offset: 0x113B0, size: 0x8, addend: 0x0, symName: __ZThn272_N9Steinberg3Vst15ADelayProcessor7processERNS0_11ProcessDataE, symObjAddr: 0x7A0, symBinAddr: 0x3220, symSize: 0x20 }
  - { offset: 0x113DB, size: 0x8, addend: 0x0, symName: __ZN9Steinberg3Vst15ADelayProcessor8setStateEPNS_8IBStreamE, symObjAddr: 0x7C0, symBinAddr: 0x3240, symSize: 0x80 }
  - { offset: 0x11468, size: 0x8, addend: 0x0, symName: __ZThn48_N9Steinberg3Vst15ADelayProcessor8setStateEPNS_8IBStreamE, symObjAddr: 0x840, symBinAddr: 0x32C0, symSize: 0x80 }
  - { offset: 0x11481, size: 0x8, addend: 0x0, symName: __ZThn48_N9Steinberg3Vst15ADelayProcessor8setStateEPNS_8IBStreamE, symObjAddr: 0x840, symBinAddr: 0x32C0, symSize: 0x80 }
  - { offset: 0x114B5, size: 0x8, addend: 0x0, symName: __ZN9Steinberg3Vst15ADelayProcessor8getStateEPNS_8IBStreamE, symObjAddr: 0x8C0, symBinAddr: 0x3340, symSize: 0x50 }
  - { offset: 0x11513, size: 0x8, addend: 0x0, symName: __ZThn48_N9Steinberg3Vst15ADelayProcessor8getStateEPNS_8IBStreamE, symObjAddr: 0x910, symBinAddr: 0x3390, symSize: 0x50 }
  - { offset: 0x115B0, size: 0x8, addend: 0x0, symName: __ZN9Steinberg3Vst11AudioEffect14queryInterfaceEPKcPPv, symObjAddr: 0x960, symBinAddr: 0x33E0, symSize: 0xF0 }
  - { offset: 0x117CE, size: 0x8, addend: 0x0, symName: __ZN9Steinberg3Vst11AudioEffect6addRefEv, symObjAddr: 0xA50, symBinAddr: 0x34D0, symSize: 0x10 }
  - { offset: 0x1184D, size: 0x8, addend: 0x0, symName: __ZN9Steinberg3Vst11AudioEffect7releaseEv, symObjAddr: 0xA60, symBinAddr: 0x34E0, symSize: 0x10 }
  - { offset: 0x118BE, size: 0x8, addend: 0x0, symName: __ZN9Steinberg3Vst15ADelayProcessorD1Ev, symObjAddr: 0xA80, symBinAddr: 0x34F0, symSize: 0x10 }
  - { offset: 0x11944, size: 0x8, addend: 0x0, symName: __ZN9Steinberg3Vst15ADelayProcessorD0Ev, symObjAddr: 0xA90, symBinAddr: 0x3500, symSize: 0x20 }
  - { offset: 0x119D8, size: 0x8, addend: 0x0, symName: __ZNK9Steinberg3Vst11AudioEffect3isAEv, symObjAddr: 0xAB0, symBinAddr: 0x3520, symSize: 0x10 }
  - { offset: 0x119FB, size: 0x8, addend: 0x0, symName: __ZNK9Steinberg3Vst11AudioEffect3isAEPKc, symObjAddr: 0xAC0, symBinAddr: 0x3530, symSize: 0x10 }
  - { offset: 0x11AF1, size: 0x8, addend: 0x0, symName: __ZNK9Steinberg3Vst11AudioEffect8isTypeOfEPKcb, symObjAddr: 0xAD0, symBinAddr: 0x3540, symSize: 0x90 }
  - { offset: 0x11C93, size: 0x8, addend: 0x0, symName: __ZN9Steinberg3Vst11AudioEffect17getLatencySamplesEv, symObjAddr: 0xB80, symBinAddr: 0x35D0, symSize: 0x10 }
  - { offset: 0x11CB6, size: 0x8, addend: 0x0, symName: __ZN9Steinberg3Vst11AudioEffect14getTailSamplesEv, symObjAddr: 0xB90, symBinAddr: 0x35E0, symSize: 0x10 }
  - { offset: 0x11CD9, size: 0x8, addend: 0x0, symName: __ZThn16_N9Steinberg3Vst11AudioEffect14queryInterfaceEPKcPPv, symObjAddr: 0xBA0, symBinAddr: 0x35F0, symSize: 0x10 }
  - { offset: 0x11D1F, size: 0x8, addend: 0x0, symName: __ZThn16_N9Steinberg3Vst11AudioEffect6addRefEv, symObjAddr: 0xBB0, symBinAddr: 0x3600, symSize: 0x10 }
  - { offset: 0x11D9C, size: 0x8, addend: 0x0, symName: __ZThn16_N9Steinberg3Vst11AudioEffect7releaseEv, symObjAddr: 0xBC0, symBinAddr: 0x3610, symSize: 0x10 }
  - { offset: 0x11E05, size: 0x8, addend: 0x0, symName: __ZThn24_N9Steinberg3Vst11AudioEffect14queryInterfaceEPKcPPv, symObjAddr: 0xBD0, symBinAddr: 0x3620, symSize: 0x10 }
  - { offset: 0x11E37, size: 0x8, addend: 0x0, symName: __ZThn24_N9Steinberg3Vst11AudioEffect6addRefEv, symObjAddr: 0xBE0, symBinAddr: 0x3630, symSize: 0x10 }
  - { offset: 0x11EA0, size: 0x8, addend: 0x0, symName: __ZThn24_N9Steinberg3Vst11AudioEffect7releaseEv, symObjAddr: 0xBF0, symBinAddr: 0x3640, symSize: 0x10 }
  - { offset: 0x11F09, size: 0x8, addend: 0x0, symName: __ZThn48_N9Steinberg3Vst11AudioEffect14queryInterfaceEPKcPPv, symObjAddr: 0xC00, symBinAddr: 0x3650, symSize: 0x10 }
  - { offset: 0x11F3B, size: 0x8, addend: 0x0, symName: __ZThn48_N9Steinberg3Vst11AudioEffect6addRefEv, symObjAddr: 0xC10, symBinAddr: 0x3660, symSize: 0x10 }
  - { offset: 0x11FA4, size: 0x8, addend: 0x0, symName: __ZThn48_N9Steinberg3Vst11AudioEffect7releaseEv, symObjAddr: 0xC20, symBinAddr: 0x3670, symSize: 0x10 }
  - { offset: 0x1200D, size: 0x8, addend: 0x0, symName: __ZThn272_N9Steinberg3Vst11AudioEffect14queryInterfaceEPKcPPv, symObjAddr: 0xC30, symBinAddr: 0x3680, symSize: 0x20 }
  - { offset: 0x1203F, size: 0x8, addend: 0x0, symName: __ZThn272_N9Steinberg3Vst11AudioEffect6addRefEv, symObjAddr: 0xC50, symBinAddr: 0x36A0, symSize: 0x20 }
  - { offset: 0x120A8, size: 0x8, addend: 0x0, symName: __ZThn272_N9Steinberg3Vst11AudioEffect7releaseEv, symObjAddr: 0xC70, symBinAddr: 0x36C0, symSize: 0x20 }
  - { offset: 0x12111, size: 0x8, addend: 0x0, symName: __ZThn272_N9Steinberg3Vst11AudioEffect17getLatencySamplesEv, symObjAddr: 0xC90, symBinAddr: 0x36E0, symSize: 0x10 }
  - { offset: 0x12126, size: 0x8, addend: 0x0, symName: __ZThn272_N9Steinberg3Vst11AudioEffect14getTailSamplesEv, symObjAddr: 0xCA0, symBinAddr: 0x36F0, symSize: 0x10 }
  - { offset: 0x1213B, size: 0x8, addend: 0x0, symName: __ZThn280_N9Steinberg3Vst11AudioEffect14queryInterfaceEPKcPPv, symObjAddr: 0xCB0, symBinAddr: 0x3700, symSize: 0x20 }
  - { offset: 0x1216D, size: 0x8, addend: 0x0, symName: __ZThn280_N9Steinberg3Vst11AudioEffect6addRefEv, symObjAddr: 0xCD0, symBinAddr: 0x3720, symSize: 0x20 }
  - { offset: 0x121D6, size: 0x8, addend: 0x0, symName: __ZThn280_N9Steinberg3Vst11AudioEffect7releaseEv, symObjAddr: 0xCF0, symBinAddr: 0x3740, symSize: 0x20 }
  - { offset: 0x14173, size: 0x8, addend: 0x0, symName: __ZN9Steinberg3VstL9InitTestsE, symObjAddr: 0x25BC1, symBinAddr: 0x34AA0, symSize: 0x0 }
  - { offset: 0x1973D, size: 0x8, addend: 0x0, symName: '__ZNSt3__110__function6__funcIN9Steinberg3Vst3$_0ENS_9allocatorIS4_EEFvvEED1Ev', symObjAddr: 0x0, symBinAddr: 0x3950, symSize: 0x10 }
  - { offset: 0x19764, size: 0x8, addend: 0x0, symName: '__ZNSt3__110__function6__funcIN9Steinberg3Vst3$_0ENS_9allocatorIS4_EEFvvEED0Ev', symObjAddr: 0x10, symBinAddr: 0x3960, symSize: 0x10 }
  - { offset: 0x19840, size: 0x8, addend: 0x0, symName: '__ZNKSt3__110__function6__funcIN9Steinberg3Vst3$_0ENS_9allocatorIS4_EEFvvEE7__cloneEv', symObjAddr: 0x20, symBinAddr: 0x3970, symSize: 0x20 }
  - { offset: 0x1998F, size: 0x8, addend: 0x0, symName: '__ZNKSt3__110__function6__funcIN9Steinberg3Vst3$_0ENS_9allocatorIS4_EEFvvEE7__cloneEPNS0_6__baseIS7_EE', symObjAddr: 0x40, symBinAddr: 0x3990, symSize: 0x10 }
  - { offset: 0x199FE, size: 0x8, addend: 0x0, symName: '__ZNSt3__110__function6__funcIN9Steinberg3Vst3$_0ENS_9allocatorIS4_EEFvvEE7destroyEv', symObjAddr: 0x50, symBinAddr: 0x39A0, symSize: 0x10 }
  - { offset: 0x19A4C, size: 0x8, addend: 0x0, symName: '__ZNSt3__110__function6__funcIN9Steinberg3Vst3$_0ENS_9allocatorIS4_EEFvvEE18destroy_deallocateEv', symObjAddr: 0x60, symBinAddr: 0x39B0, symSize: 0x10 }
  - { offset: 0x19DF0, size: 0x8, addend: 0x0, symName: '__ZNSt3__110__function6__funcIN9Steinberg3Vst3$_0ENS_9allocatorIS4_EEFvvEEclEv', symObjAddr: 0x70, symBinAddr: 0x39C0, symSize: 0xC0 }
  - { offset: 0x1A0B6, size: 0x8, addend: 0x0, symName: '__ZNKSt3__110__function6__funcIN9Steinberg3Vst3$_0ENS_9allocatorIS4_EEFvvEE6targetERKSt9type_info', symObjAddr: 0x130, symBinAddr: 0x3A80, symSize: 0x20 }
  - { offset: 0x1A129, size: 0x8, addend: 0x0, symName: '__ZNKSt3__110__function6__funcIN9Steinberg3Vst3$_0ENS_9allocatorIS4_EEFvvEE11target_typeEv', symObjAddr: 0x150, symBinAddr: 0x3AA0, symSize: 0x10 }
  - { offset: 0x1A14C, size: 0x8, addend: 0x0, symName: '__ZNSt3__110__function6__funcIZNK9Steinberg3Vst3$_0clEvEUlPNS2_8FUnknownEPNS2_11ITestResultEE_NS_9allocatorIS9_EEFbS6_S8_EED1Ev', symObjAddr: 0x170, symBinAddr: 0x3AB0, symSize: 0x10 }
  - { offset: 0x1A173, size: 0x8, addend: 0x0, symName: '__ZNSt3__110__function6__funcIZNK9Steinberg3Vst3$_0clEvEUlPNS2_8FUnknownEPNS2_11ITestResultEE_NS_9allocatorIS9_EEFbS6_S8_EED0Ev', symObjAddr: 0x180, symBinAddr: 0x3AC0, symSize: 0x10 }
  - { offset: 0x1A227, size: 0x8, addend: 0x0, symName: '__ZNKSt3__110__function6__funcIZNK9Steinberg3Vst3$_0clEvEUlPNS2_8FUnknownEPNS2_11ITestResultEE_NS_9allocatorIS9_EEFbS6_S8_EE7__cloneEv', symObjAddr: 0x190, symBinAddr: 0x3AD0, symSize: 0x20 }
  - { offset: 0x1A376, size: 0x8, addend: 0x0, symName: '__ZNKSt3__110__function6__funcIZNK9Steinberg3Vst3$_0clEvEUlPNS2_8FUnknownEPNS2_11ITestResultEE_NS_9allocatorIS9_EEFbS6_S8_EE7__cloneEPNS0_6__baseISC_EE', symObjAddr: 0x1B0, symBinAddr: 0x3AF0, symSize: 0x10 }
  - { offset: 0x1A3E5, size: 0x8, addend: 0x0, symName: '__ZNSt3__110__function6__funcIZNK9Steinberg3Vst3$_0clEvEUlPNS2_8FUnknownEPNS2_11ITestResultEE_NS_9allocatorIS9_EEFbS6_S8_EE7destroyEv', symObjAddr: 0x1C0, symBinAddr: 0x3B00, symSize: 0x10 }
  - { offset: 0x1A433, size: 0x8, addend: 0x0, symName: '__ZNSt3__110__function6__funcIZNK9Steinberg3Vst3$_0clEvEUlPNS2_8FUnknownEPNS2_11ITestResultEE_NS_9allocatorIS9_EEFbS6_S8_EE18destroy_deallocateEv', symObjAddr: 0x1D0, symBinAddr: 0x3B10, symSize: 0x10 }
  - { offset: 0x1A6D6, size: 0x8, addend: 0x0, symName: '__ZNSt3__110__function6__funcIZNK9Steinberg3Vst3$_0clEvEUlPNS2_8FUnknownEPNS2_11ITestResultEE_NS_9allocatorIS9_EEFbS6_S8_EEclEOS6_OS8_', symObjAddr: 0x1E0, symBinAddr: 0x3B20, symSize: 0x160 }
  - { offset: 0x1A93C, size: 0x8, addend: 0x0, symName: '__ZNKSt3__110__function6__funcIZNK9Steinberg3Vst3$_0clEvEUlPNS2_8FUnknownEPNS2_11ITestResultEE_NS_9allocatorIS9_EEFbS6_S8_EE6targetERKSt9type_info', symObjAddr: 0x340, symBinAddr: 0x3C80, symSize: 0x20 }
  - { offset: 0x1A9AF, size: 0x8, addend: 0x0, symName: '__ZNKSt3__110__function6__funcIZNK9Steinberg3Vst3$_0clEvEUlPNS2_8FUnknownEPNS2_11ITestResultEE_NS_9allocatorIS9_EEFbS6_S8_EE11target_typeEv', symObjAddr: 0x360, symBinAddr: 0x3CA0, symSize: 0xD }
  - { offset: 0x1C8A9, size: 0x8, addend: 0x0, symName: _GetPluginFactory, symObjAddr: 0x0, symBinAddr: 0x3D70, symSize: 0x60 }
  - { offset: 0x1C8B7, size: 0x8, addend: 0x0, symName: _GetPluginFactory, symObjAddr: 0x0, symBinAddr: 0x3D70, symSize: 0x60 }
  - { offset: 0x1C8DD, size: 0x8, addend: 0x0, symName: __ZZ16GetPluginFactoryE7factory, symObjAddr: 0x319D0, symBinAddr: 0x34AA8, symSize: 0x0 }
  - { offset: 0x206ED, size: 0x8, addend: 0x0, symName: __ZN11FactoryData11factoryInfoE, symObjAddr: 0xF48, symBinAddr: 0x2BFF0, symSize: 0x0 }
  - { offset: 0x20700, size: 0x8, addend: 0x0, symName: __ZN11FactoryData10classInfosE, symObjAddr: 0x840, symBinAddr: 0x30C80, symSize: 0x0 }
  - { offset: 0x207A2, size: 0x8, addend: 0x0, symName: __ZN9Steinberg13PluginFactoryI11FactoryDataED1Ev, symObjAddr: 0x60, symBinAddr: 0x3DD0, symSize: 0x10 }
  - { offset: 0x207CB, size: 0x8, addend: 0x0, symName: __ZN9Steinberg13PluginFactoryI11FactoryDataED0Ev, symObjAddr: 0x70, symBinAddr: 0x3DE0, symSize: 0x10 }
  - { offset: 0x207F4, size: 0x8, addend: 0x0, symName: __ZN9Steinberg12FUnknownImpl6Detail14NonDestroyable15destroyInstanceEv, symObjAddr: 0x80, symBinAddr: 0x3DF0, symSize: 0x10 }
  - { offset: 0x20957, size: 0x8, addend: 0x0, symName: __ZN9Steinberg12FUnknownImpl14ImplementsImplINS0_6Detail17QueryInterfaceEndINS2_14NonDestroyableEEENS0_8DirectlyIJNS_15IPluginFactory2EEEENS0_10IndirectlyIJNS_14IPluginFactoryEEEEE14queryInterfaceEPKcPPv, symObjAddr: 0x90, symBinAddr: 0x3E00, symSize: 0x90 }
  - { offset: 0x20A91, size: 0x8, addend: 0x0, symName: __ZN9Steinberg12FUnknownImpl14ImplementsImplINS0_6Detail17QueryInterfaceEndINS2_14NonDestroyableEEENS0_8DirectlyIJNS_15IPluginFactory2EEEENS0_10IndirectlyIJNS_14IPluginFactoryEEEEE6addRefEv, symObjAddr: 0x120, symBinAddr: 0x3E90, symSize: 0x10 }
  - { offset: 0x20AB4, size: 0x8, addend: 0x0, symName: __ZN9Steinberg12FUnknownImpl14ImplementsImplINS0_6Detail17QueryInterfaceEndINS2_14NonDestroyableEEENS0_8DirectlyIJNS_15IPluginFactory2EEEENS0_10IndirectlyIJNS_14IPluginFactoryEEEEE7releaseEv, symObjAddr: 0x130, symBinAddr: 0x3EA0, symSize: 0x10 }
  - { offset: 0x20AD7, size: 0x8, addend: 0x0, symName: __ZN9Steinberg13PluginFactoryI11FactoryDataE14getFactoryInfoEPNS_12PFactoryInfoE, symObjAddr: 0x140, symBinAddr: 0x3EB0, symSize: 0x30 }
  - { offset: 0x20B01, size: 0x8, addend: 0x0, symName: __ZN9Steinberg13PluginFactoryI11FactoryDataE12countClassesEv, symObjAddr: 0x170, symBinAddr: 0x3EE0, symSize: 0x10 }
  - { offset: 0x20B48, size: 0x8, addend: 0x0, symName: __ZN9Steinberg13PluginFactoryI11FactoryDataE12getClassInfoEiPNS_10PClassInfoE, symObjAddr: 0x180, symBinAddr: 0x3EF0, symSize: 0xB0 }
  - { offset: 0x20F2A, size: 0x8, addend: 0x0, symName: __ZN9Steinberg13PluginFactoryI11FactoryDataE14createInstanceEPKcS4_PPv, symObjAddr: 0x230, symBinAddr: 0x3FA0, symSize: 0x1E0 }
  - { offset: 0x210FB, size: 0x8, addend: 0x0, symName: __ZN9Steinberg13PluginFactoryI11FactoryDataE13getClassInfo2EiPNS_11PClassInfo2E, symObjAddr: 0x410, symBinAddr: 0x4180, symSize: 0x40 }
  - { offset: 0x21184, size: 0x8, addend: 0x0, symName: __ZThn8_N9Steinberg12FUnknownImpl14ImplementsImplINS0_6Detail17QueryInterfaceEndINS2_14NonDestroyableEEENS0_8DirectlyIJNS_15IPluginFactory2EEEENS0_10IndirectlyIJNS_14IPluginFactoryEEEEE14queryInterfaceEPKcPPv, symObjAddr: 0x450, symBinAddr: 0x41C0, symSize: 0x90 }
  - { offset: 0x212D2, size: 0x8, addend: 0x0, symName: __ZThn8_N9Steinberg12FUnknownImpl14ImplementsImplINS0_6Detail17QueryInterfaceEndINS2_14NonDestroyableEEENS0_8DirectlyIJNS_15IPluginFactory2EEEENS0_10IndirectlyIJNS_14IPluginFactoryEEEEE6addRefEv, symObjAddr: 0x4E0, symBinAddr: 0x4250, symSize: 0x10 }
  - { offset: 0x212E9, size: 0x8, addend: 0x0, symName: __ZThn8_N9Steinberg12FUnknownImpl14ImplementsImplINS0_6Detail17QueryInterfaceEndINS2_14NonDestroyableEEENS0_8DirectlyIJNS_15IPluginFactory2EEEENS0_10IndirectlyIJNS_14IPluginFactoryEEEEE7releaseEv, symObjAddr: 0x4F0, symBinAddr: 0x4260, symSize: 0x10 }
  - { offset: 0x2131E, size: 0x8, addend: 0x0, symName: __ZThn8_N9Steinberg13PluginFactoryI11FactoryDataE14getFactoryInfoEPNS_12PFactoryInfoE, symObjAddr: 0x500, symBinAddr: 0x4270, symSize: 0x30 }
  - { offset: 0x21337, size: 0x8, addend: 0x0, symName: __ZThn8_N9Steinberg13PluginFactoryI11FactoryDataE14getFactoryInfoEPNS_12PFactoryInfoE, symObjAddr: 0x500, symBinAddr: 0x4270, symSize: 0x30 }
  - { offset: 0x2135A, size: 0x8, addend: 0x0, symName: __ZThn8_N9Steinberg13PluginFactoryI11FactoryDataE12countClassesEv, symObjAddr: 0x530, symBinAddr: 0x42A0, symSize: 0x10 }
  - { offset: 0x2136F, size: 0x8, addend: 0x0, symName: __ZThn8_N9Steinberg13PluginFactoryI11FactoryDataE12getClassInfoEiPNS_10PClassInfoE, symObjAddr: 0x540, symBinAddr: 0x42B0, symSize: 0x10 }
  - { offset: 0x213A1, size: 0x8, addend: 0x0, symName: __ZThn8_N9Steinberg13PluginFactoryI11FactoryDataE14createInstanceEPKcS4_PPv, symObjAddr: 0x550, symBinAddr: 0x42C0, symSize: 0x10 }
  - { offset: 0x21404, size: 0x8, addend: 0x0, symName: __ZThn8_N9Steinberg13PluginFactoryI11FactoryDataE13getClassInfo2EiPNS_11PClassInfo2E, symObjAddr: 0x560, symBinAddr: 0x42D0, symSize: 0x40 }
  - { offset: 0x21471, size: 0x8, addend: 0x0, symName: __ZN9Steinberg3Vst15ADelayProcessor14createInstanceEPv, symObjAddr: 0x5A0, symBinAddr: 0x4310, symSize: 0x40 }
  - { offset: 0x2148F, size: 0x8, addend: 0x0, symName: __ZN9Steinberg3Vst16ADelayController14createInstanceEPv, symObjAddr: 0x5E0, symBinAddr: 0x4350, symSize: 0xA6 }
  - { offset: 0x2329F, size: 0x8, addend: 0x0, symName: _ghInst, symObjAddr: 0x1A5C0, symBinAddr: 0x33B10, symSize: 0x0 }
  - { offset: 0x232CA, size: 0x8, addend: 0x0, symName: _bundleRefCounter, symObjAddr: 0x1A5C8, symBinAddr: 0x33B18, symSize: 0x0 }
  - { offset: 0x232E7, size: 0x8, addend: 0x0, symName: _moduleHandle, symObjAddr: 0x1A5D0, symBinAddr: 0x33B20, symSize: 0x0 }
  - { offset: 0x232FE, size: 0x8, addend: 0x0, symName: _gPath, symObjAddr: 0x1A5E0, symBinAddr: 0x33B30, symSize: 0x0 }
  - { offset: 0x23330, size: 0x8, addend: 0x0, symName: _gBundleRefs, symObjAddr: 0x1ADE0, symBinAddr: 0x34330, symSize: 0x0 }
  - { offset: 0x27421, size: 0x8, addend: 0x0, symName: __ZNSt3__120__throw_length_errorB8ne180100EPKc, symObjAddr: 0x300, symBinAddr: 0x4700, symSize: 0x50 }
  - { offset: 0x28215, size: 0x8, addend: 0x0, symName: __ZSt28__throw_bad_array_new_lengthB8ne180100v, symObjAddr: 0x380, symBinAddr: 0x4780, symSize: 0x31 }
  - { offset: 0x2868A, size: 0x8, addend: 0x0, symName: __ZNSt3__16vectorIP10__CFBundleNS_9allocatorIS2_EEED1B8ne180100Ev, symObjAddr: 0x0, symBinAddr: 0x4400, symSize: 0x20 }
  - { offset: 0x28B59, size: 0x8, addend: 0x0, symName: _bundleEntry, symObjAddr: 0x20, symBinAddr: 0x4420, symSize: 0x240 }
  - { offset: 0x290A5, size: 0x8, addend: 0x0, symName: _bundleExit, symObjAddr: 0x260, symBinAddr: 0x4660, symSize: 0x90 }
  - { offset: 0x2914D, size: 0x8, addend: 0x0, symName: __ZNKSt3__16vectorIP10__CFBundleNS_9allocatorIS2_EEE20__throw_length_errorB8ne180100Ev, symObjAddr: 0x2F0, symBinAddr: 0x46F0, symSize: 0x10 }
  - { offset: 0x29176, size: 0x8, addend: 0x0, symName: __ZNSt3__120__throw_length_errorB8ne180100EPKc, symObjAddr: 0x300, symBinAddr: 0x4700, symSize: 0x50 }
  - { offset: 0x291A2, size: 0x8, addend: 0x0, symName: _bundleExit, symObjAddr: 0x260, symBinAddr: 0x4660, symSize: 0x90 }
  - { offset: 0x2925D, size: 0x8, addend: 0x0, symName: __ZNSt12length_errorC1B8ne180100EPKc, symObjAddr: 0x350, symBinAddr: 0x4750, symSize: 0x30 }
  - { offset: 0x2B0E9, size: 0x8, addend: 0x0, symName: __ZN9Steinberg3VstL19InitRingbufferTestsE, symObjAddr: 0x49F17, symBinAddr: 0x34AC0, symSize: 0x0 }
  - { offset: 0x31FD5, size: 0x8, addend: 0x0, symName: '__ZNSt3__110__function6__funcIN9Steinberg3Vst3$_0ENS_9allocatorIS4_EEFvvEED1Ev', symObjAddr: 0x0, symBinAddr: 0x4800, symSize: 0x10 }
  - { offset: 0x31FFC, size: 0x8, addend: 0x0, symName: '__ZNSt3__110__function6__funcIN9Steinberg3Vst3$_0ENS_9allocatorIS4_EEFvvEED0Ev', symObjAddr: 0x10, symBinAddr: 0x4810, symSize: 0x10 }
  - { offset: 0x320D8, size: 0x8, addend: 0x0, symName: '__ZNKSt3__110__function6__funcIN9Steinberg3Vst3$_0ENS_9allocatorIS4_EEFvvEE7__cloneEv', symObjAddr: 0x20, symBinAddr: 0x4820, symSize: 0x20 }
  - { offset: 0x32227, size: 0x8, addend: 0x0, symName: '__ZNKSt3__110__function6__funcIN9Steinberg3Vst3$_0ENS_9allocatorIS4_EEFvvEE7__cloneEPNS0_6__baseIS7_EE', symObjAddr: 0x40, symBinAddr: 0x4840, symSize: 0x10 }
  - { offset: 0x32296, size: 0x8, addend: 0x0, symName: '__ZNSt3__110__function6__funcIN9Steinberg3Vst3$_0ENS_9allocatorIS4_EEFvvEE7destroyEv', symObjAddr: 0x50, symBinAddr: 0x4850, symSize: 0x10 }
  - { offset: 0x322E4, size: 0x8, addend: 0x0, symName: '__ZNSt3__110__function6__funcIN9Steinberg3Vst3$_0ENS_9allocatorIS4_EEFvvEE18destroy_deallocateEv', symObjAddr: 0x60, symBinAddr: 0x4860, symSize: 0x10 }
  - { offset: 0x32A28, size: 0x8, addend: 0x0, symName: '__ZNSt3__110__function6__funcIN9Steinberg3Vst3$_0ENS_9allocatorIS4_EEFvvEEclEv', symObjAddr: 0x70, symBinAddr: 0x4870, symSize: 0x160 }
  - { offset: 0x32FCB, size: 0x8, addend: 0x0, symName: '__ZNKSt3__110__function6__funcIN9Steinberg3Vst3$_0ENS_9allocatorIS4_EEFvvEE6targetERKSt9type_info', symObjAddr: 0x1D0, symBinAddr: 0x49D0, symSize: 0x20 }
  - { offset: 0x3303E, size: 0x8, addend: 0x0, symName: '__ZNKSt3__110__function6__funcIN9Steinberg3Vst3$_0ENS_9allocatorIS4_EEFvvEE11target_typeEv', symObjAddr: 0x1F0, symBinAddr: 0x49F0, symSize: 0x10 }
  - { offset: 0x33061, size: 0x8, addend: 0x0, symName: '__ZNSt3__110__function6__funcIZNK9Steinberg3Vst3$_0clEvEUlPNS2_11ITestResultEE_NS_9allocatorIS7_EEFbS6_EED1Ev', symObjAddr: 0x250, symBinAddr: 0x4A00, symSize: 0x10 }
  - { offset: 0x33088, size: 0x8, addend: 0x0, symName: '__ZNSt3__110__function6__funcIZNK9Steinberg3Vst3$_0clEvEUlPNS2_11ITestResultEE_NS_9allocatorIS7_EEFbS6_EED0Ev', symObjAddr: 0x260, symBinAddr: 0x4A10, symSize: 0x10 }
  - { offset: 0x3313C, size: 0x8, addend: 0x0, symName: '__ZNKSt3__110__function6__funcIZNK9Steinberg3Vst3$_0clEvEUlPNS2_11ITestResultEE_NS_9allocatorIS7_EEFbS6_EE7__cloneEv', symObjAddr: 0x270, symBinAddr: 0x4A20, symSize: 0x20 }
  - { offset: 0x3328B, size: 0x8, addend: 0x0, symName: '__ZNKSt3__110__function6__funcIZNK9Steinberg3Vst3$_0clEvEUlPNS2_11ITestResultEE_NS_9allocatorIS7_EEFbS6_EE7__cloneEPNS0_6__baseISA_EE', symObjAddr: 0x290, symBinAddr: 0x4A40, symSize: 0x10 }
  - { offset: 0x332FA, size: 0x8, addend: 0x0, symName: '__ZNSt3__110__function6__funcIZNK9Steinberg3Vst3$_0clEvEUlPNS2_11ITestResultEE_NS_9allocatorIS7_EEFbS6_EE7destroyEv', symObjAddr: 0x2A0, symBinAddr: 0x4A50, symSize: 0x10 }
  - { offset: 0x33348, size: 0x8, addend: 0x0, symName: '__ZNSt3__110__function6__funcIZNK9Steinberg3Vst3$_0clEvEUlPNS2_11ITestResultEE_NS_9allocatorIS7_EEFbS6_EE18destroy_deallocateEv', symObjAddr: 0x2B0, symBinAddr: 0x4A60, symSize: 0x10 }
  - { offset: 0x337B0, size: 0x8, addend: 0x0, symName: '__ZNSt3__110__function6__funcIZNK9Steinberg3Vst3$_0clEvEUlPNS2_11ITestResultEE_NS_9allocatorIS7_EEFbS6_EEclEOS6_', symObjAddr: 0x2C0, symBinAddr: 0x4A70, symSize: 0x190 }
  - { offset: 0x33F3F, size: 0x8, addend: 0x0, symName: __ZNSt3__16vectorIjNS_9allocatorIjEEE8__appendEm, symObjAddr: 0x480, symBinAddr: 0x4C30, symSize: 0x200 }
  - { offset: 0x344CE, size: 0x8, addend: 0x0, symName: '__ZNKSt3__110__function6__funcIZNK9Steinberg3Vst3$_0clEvEUlPNS2_11ITestResultEE_NS_9allocatorIS7_EEFbS6_EE6targetERKSt9type_info', symObjAddr: 0x450, symBinAddr: 0x4C00, symSize: 0x20 }
  - { offset: 0x34541, size: 0x8, addend: 0x0, symName: '__ZNKSt3__110__function6__funcIZNK9Steinberg3Vst3$_0clEvEUlPNS2_11ITestResultEE_NS_9allocatorIS7_EEFbS6_EE11target_typeEv', symObjAddr: 0x470, symBinAddr: 0x4C20, symSize: 0x10 }
  - { offset: 0x348BF, size: 0x8, addend: 0x0, symName: __ZNKSt3__16vectorIjNS_9allocatorIjEEE20__throw_length_errorB8ne180100Ev, symObjAddr: 0x680, symBinAddr: 0x4E30, symSize: 0x10 }
  - { offset: 0x34954, size: 0x8, addend: 0x0, symName: '__ZNSt3__110__function6__funcIZNK9Steinberg3Vst3$_0clEvEUlPNS2_11ITestResultEE0_NS_9allocatorIS7_EEFbS6_EED1Ev', symObjAddr: 0x710, symBinAddr: 0x4E40, symSize: 0x10 }
  - { offset: 0x3497B, size: 0x8, addend: 0x0, symName: '__ZNSt3__110__function6__funcIZNK9Steinberg3Vst3$_0clEvEUlPNS2_11ITestResultEE0_NS_9allocatorIS7_EEFbS6_EED0Ev', symObjAddr: 0x720, symBinAddr: 0x4E50, symSize: 0x10 }
  - { offset: 0x34A2F, size: 0x8, addend: 0x0, symName: '__ZNKSt3__110__function6__funcIZNK9Steinberg3Vst3$_0clEvEUlPNS2_11ITestResultEE0_NS_9allocatorIS7_EEFbS6_EE7__cloneEv', symObjAddr: 0x730, symBinAddr: 0x4E60, symSize: 0x20 }
  - { offset: 0x34B7E, size: 0x8, addend: 0x0, symName: '__ZNKSt3__110__function6__funcIZNK9Steinberg3Vst3$_0clEvEUlPNS2_11ITestResultEE0_NS_9allocatorIS7_EEFbS6_EE7__cloneEPNS0_6__baseISA_EE', symObjAddr: 0x750, symBinAddr: 0x4E80, symSize: 0x10 }
  - { offset: 0x34BED, size: 0x8, addend: 0x0, symName: '__ZNSt3__110__function6__funcIZNK9Steinberg3Vst3$_0clEvEUlPNS2_11ITestResultEE0_NS_9allocatorIS7_EEFbS6_EE7destroyEv', symObjAddr: 0x760, symBinAddr: 0x4E90, symSize: 0x10 }
  - { offset: 0x34C3B, size: 0x8, addend: 0x0, symName: '__ZNSt3__110__function6__funcIZNK9Steinberg3Vst3$_0clEvEUlPNS2_11ITestResultEE0_NS_9allocatorIS7_EEFbS6_EE18destroy_deallocateEv', symObjAddr: 0x770, symBinAddr: 0x4EA0, symSize: 0x10 }
  - { offset: 0x34E10, size: 0x8, addend: 0x0, symName: '__ZNSt3__110__function6__funcIZNK9Steinberg3Vst3$_0clEvEUlPNS2_11ITestResultEE0_NS_9allocatorIS7_EEFbS6_EEclEOS6_', symObjAddr: 0x780, symBinAddr: 0x4EB0, symSize: 0x270 }
  - { offset: 0x358BE, size: 0x8, addend: 0x0, symName: '__ZNKSt3__110__function6__funcIZNK9Steinberg3Vst3$_0clEvEUlPNS2_11ITestResultEE0_NS_9allocatorIS7_EEFbS6_EE6targetERKSt9type_info', symObjAddr: 0x9F0, symBinAddr: 0x5120, symSize: 0x20 }
  - { offset: 0x35931, size: 0x8, addend: 0x0, symName: '__ZNKSt3__110__function6__funcIZNK9Steinberg3Vst3$_0clEvEUlPNS2_11ITestResultEE0_NS_9allocatorIS7_EEFbS6_EE11target_typeEv', symObjAddr: 0xA10, symBinAddr: 0x5140, symSize: 0x10 }
  - { offset: 0x35954, size: 0x8, addend: 0x0, symName: '__ZNSt3__110__function6__funcIZNK9Steinberg3Vst3$_0clEvEUlPNS2_11ITestResultEE1_NS_9allocatorIS7_EEFbS6_EED1Ev', symObjAddr: 0xA20, symBinAddr: 0x5150, symSize: 0x10 }
  - { offset: 0x3597B, size: 0x8, addend: 0x0, symName: '__ZNSt3__110__function6__funcIZNK9Steinberg3Vst3$_0clEvEUlPNS2_11ITestResultEE1_NS_9allocatorIS7_EEFbS6_EED0Ev', symObjAddr: 0xA30, symBinAddr: 0x5160, symSize: 0x10 }
  - { offset: 0x35A2F, size: 0x8, addend: 0x0, symName: '__ZNKSt3__110__function6__funcIZNK9Steinberg3Vst3$_0clEvEUlPNS2_11ITestResultEE1_NS_9allocatorIS7_EEFbS6_EE7__cloneEv', symObjAddr: 0xA40, symBinAddr: 0x5170, symSize: 0x20 }
  - { offset: 0x35B7E, size: 0x8, addend: 0x0, symName: '__ZNKSt3__110__function6__funcIZNK9Steinberg3Vst3$_0clEvEUlPNS2_11ITestResultEE1_NS_9allocatorIS7_EEFbS6_EE7__cloneEPNS0_6__baseISA_EE', symObjAddr: 0xA60, symBinAddr: 0x5190, symSize: 0x10 }
  - { offset: 0x35BED, size: 0x8, addend: 0x0, symName: '__ZNSt3__110__function6__funcIZNK9Steinberg3Vst3$_0clEvEUlPNS2_11ITestResultEE1_NS_9allocatorIS7_EEFbS6_EE7destroyEv', symObjAddr: 0xA70, symBinAddr: 0x51A0, symSize: 0x10 }
  - { offset: 0x35C3B, size: 0x8, addend: 0x0, symName: '__ZNSt3__110__function6__funcIZNK9Steinberg3Vst3$_0clEvEUlPNS2_11ITestResultEE1_NS_9allocatorIS7_EEFbS6_EE18destroy_deallocateEv', symObjAddr: 0xA80, symBinAddr: 0x51B0, symSize: 0x10 }
  - { offset: 0x35DF2, size: 0x8, addend: 0x0, symName: '__ZNSt3__110__function6__funcIZNK9Steinberg3Vst3$_0clEvEUlPNS2_11ITestResultEE1_NS_9allocatorIS7_EEFbS6_EEclEOS6_', symObjAddr: 0xA90, symBinAddr: 0x51C0, symSize: 0x100 }
  - { offset: 0x362E0, size: 0x8, addend: 0x0, symName: '__ZNKSt3__110__function6__funcIZNK9Steinberg3Vst3$_0clEvEUlPNS2_11ITestResultEE1_NS_9allocatorIS7_EEFbS6_EE6targetERKSt9type_info', symObjAddr: 0xB90, symBinAddr: 0x52C0, symSize: 0x20 }
  - { offset: 0x36353, size: 0x8, addend: 0x0, symName: '__ZNKSt3__110__function6__funcIZNK9Steinberg3Vst3$_0clEvEUlPNS2_11ITestResultEE1_NS_9allocatorIS7_EEFbS6_EE11target_typeEv', symObjAddr: 0xBB0, symBinAddr: 0x52E0, symSize: 0xD }
  - { offset: 0x383CF, size: 0x8, addend: 0x0, symName: __ZN9Steinberg3VstL22InitVersionParserTestsE, symObjAddr: 0x49D1D, symBinAddr: 0x34AC1, symSize: 0x0 }
  - { offset: 0x3F543, size: 0x8, addend: 0x0, symName: '__ZNSt3__110__function6__funcIN9Steinberg3Vst3$_0ENS_9allocatorIS4_EEFvvEED1Ev', symObjAddr: 0x0, symBinAddr: 0x53B0, symSize: 0x10 }
  - { offset: 0x3F56A, size: 0x8, addend: 0x0, symName: '__ZNSt3__110__function6__funcIN9Steinberg3Vst3$_0ENS_9allocatorIS4_EEFvvEED0Ev', symObjAddr: 0x10, symBinAddr: 0x53C0, symSize: 0x10 }
  - { offset: 0x3F646, size: 0x8, addend: 0x0, symName: '__ZNKSt3__110__function6__funcIN9Steinberg3Vst3$_0ENS_9allocatorIS4_EEFvvEE7__cloneEv', symObjAddr: 0x20, symBinAddr: 0x53D0, symSize: 0x20 }
  - { offset: 0x3F795, size: 0x8, addend: 0x0, symName: '__ZNKSt3__110__function6__funcIN9Steinberg3Vst3$_0ENS_9allocatorIS4_EEFvvEE7__cloneEPNS0_6__baseIS7_EE', symObjAddr: 0x40, symBinAddr: 0x53F0, symSize: 0x10 }
  - { offset: 0x3F804, size: 0x8, addend: 0x0, symName: '__ZNSt3__110__function6__funcIN9Steinberg3Vst3$_0ENS_9allocatorIS4_EEFvvEE7destroyEv', symObjAddr: 0x50, symBinAddr: 0x5400, symSize: 0x10 }
  - { offset: 0x3F852, size: 0x8, addend: 0x0, symName: '__ZNSt3__110__function6__funcIN9Steinberg3Vst3$_0ENS_9allocatorIS4_EEFvvEE18destroy_deallocateEv', symObjAddr: 0x60, symBinAddr: 0x5410, symSize: 0x10 }
  - { offset: 0x40336, size: 0x8, addend: 0x0, symName: '__ZNSt3__110__function6__funcIN9Steinberg3Vst3$_0ENS_9allocatorIS4_EEFvvEEclEv', symObjAddr: 0x70, symBinAddr: 0x5420, symSize: 0x1F0 }
  - { offset: 0x40BE5, size: 0x8, addend: 0x0, symName: '__ZNKSt3__110__function6__funcIN9Steinberg3Vst3$_0ENS_9allocatorIS4_EEFvvEE6targetERKSt9type_info', symObjAddr: 0x260, symBinAddr: 0x5610, symSize: 0x20 }
  - { offset: 0x40C58, size: 0x8, addend: 0x0, symName: '__ZNKSt3__110__function6__funcIN9Steinberg3Vst3$_0ENS_9allocatorIS4_EEFvvEE11target_typeEv', symObjAddr: 0x280, symBinAddr: 0x5630, symSize: 0x10 }
  - { offset: 0x40C7B, size: 0x8, addend: 0x0, symName: '__ZNSt3__110__function6__funcIZNK9Steinberg3Vst3$_0clEvEUlPNS2_11ITestResultEE_NS_9allocatorIS7_EEFbS6_EED1Ev', symObjAddr: 0x290, symBinAddr: 0x5640, symSize: 0x10 }
  - { offset: 0x40CA2, size: 0x8, addend: 0x0, symName: '__ZNSt3__110__function6__funcIZNK9Steinberg3Vst3$_0clEvEUlPNS2_11ITestResultEE_NS_9allocatorIS7_EEFbS6_EED0Ev', symObjAddr: 0x2A0, symBinAddr: 0x5650, symSize: 0x10 }
  - { offset: 0x40D56, size: 0x8, addend: 0x0, symName: '__ZNKSt3__110__function6__funcIZNK9Steinberg3Vst3$_0clEvEUlPNS2_11ITestResultEE_NS_9allocatorIS7_EEFbS6_EE7__cloneEv', symObjAddr: 0x2B0, symBinAddr: 0x5660, symSize: 0x20 }
  - { offset: 0x40EA5, size: 0x8, addend: 0x0, symName: '__ZNKSt3__110__function6__funcIZNK9Steinberg3Vst3$_0clEvEUlPNS2_11ITestResultEE_NS_9allocatorIS7_EEFbS6_EE7__cloneEPNS0_6__baseISA_EE', symObjAddr: 0x2D0, symBinAddr: 0x5680, symSize: 0x10 }
  - { offset: 0x40F14, size: 0x8, addend: 0x0, symName: '__ZNSt3__110__function6__funcIZNK9Steinberg3Vst3$_0clEvEUlPNS2_11ITestResultEE_NS_9allocatorIS7_EEFbS6_EE7destroyEv', symObjAddr: 0x2E0, symBinAddr: 0x5690, symSize: 0x10 }
  - { offset: 0x40F62, size: 0x8, addend: 0x0, symName: '__ZNSt3__110__function6__funcIZNK9Steinberg3Vst3$_0clEvEUlPNS2_11ITestResultEE_NS_9allocatorIS7_EEFbS6_EE18destroy_deallocateEv', symObjAddr: 0x2F0, symBinAddr: 0x56A0, symSize: 0x10 }
  - { offset: 0x410C1, size: 0x8, addend: 0x0, symName: '__ZNSt3__110__function6__funcIZNK9Steinberg3Vst3$_0clEvEUlPNS2_11ITestResultEE_NS_9allocatorIS7_EEFbS6_EEclEOS6_', symObjAddr: 0x300, symBinAddr: 0x56B0, symSize: 0x60 }
  - { offset: 0x41185, size: 0x8, addend: 0x0, symName: __ZN4VST37Version5parseENSt3__117basic_string_viewIcNS1_11char_traitsIcEEEE, symObjAddr: 0x390, symBinAddr: 0x5740, symSize: 0x160 }
  - { offset: 0x416A5, size: 0x8, addend: 0x0, symName: '__ZNKSt3__110__function6__funcIZNK9Steinberg3Vst3$_0clEvEUlPNS2_11ITestResultEE_NS_9allocatorIS7_EEFbS6_EE6targetERKSt9type_info', symObjAddr: 0x360, symBinAddr: 0x5710, symSize: 0x20 }
  - { offset: 0x41718, size: 0x8, addend: 0x0, symName: '__ZNKSt3__110__function6__funcIZNK9Steinberg3Vst3$_0clEvEUlPNS2_11ITestResultEE_NS_9allocatorIS7_EEFbS6_EE11target_typeEv', symObjAddr: 0x380, symBinAddr: 0x5730, symSize: 0x10 }
  - { offset: 0x419E3, size: 0x8, addend: 0x0, symName: '__ZNSt3__110__function6__funcIZNK9Steinberg3Vst3$_0clEvEUlPNS2_11ITestResultEE0_NS_9allocatorIS7_EEFbS6_EED1Ev', symObjAddr: 0x4F0, symBinAddr: 0x58A0, symSize: 0x10 }
  - { offset: 0x41A0A, size: 0x8, addend: 0x0, symName: '__ZNSt3__110__function6__funcIZNK9Steinberg3Vst3$_0clEvEUlPNS2_11ITestResultEE0_NS_9allocatorIS7_EEFbS6_EED0Ev', symObjAddr: 0x500, symBinAddr: 0x58B0, symSize: 0x10 }
  - { offset: 0x41ABE, size: 0x8, addend: 0x0, symName: '__ZNKSt3__110__function6__funcIZNK9Steinberg3Vst3$_0clEvEUlPNS2_11ITestResultEE0_NS_9allocatorIS7_EEFbS6_EE7__cloneEv', symObjAddr: 0x510, symBinAddr: 0x58C0, symSize: 0x20 }
  - { offset: 0x41C0D, size: 0x8, addend: 0x0, symName: '__ZNKSt3__110__function6__funcIZNK9Steinberg3Vst3$_0clEvEUlPNS2_11ITestResultEE0_NS_9allocatorIS7_EEFbS6_EE7__cloneEPNS0_6__baseISA_EE', symObjAddr: 0x530, symBinAddr: 0x58E0, symSize: 0x10 }
  - { offset: 0x41C7C, size: 0x8, addend: 0x0, symName: '__ZNSt3__110__function6__funcIZNK9Steinberg3Vst3$_0clEvEUlPNS2_11ITestResultEE0_NS_9allocatorIS7_EEFbS6_EE7destroyEv', symObjAddr: 0x540, symBinAddr: 0x58F0, symSize: 0x10 }
  - { offset: 0x41CCA, size: 0x8, addend: 0x0, symName: '__ZNSt3__110__function6__funcIZNK9Steinberg3Vst3$_0clEvEUlPNS2_11ITestResultEE0_NS_9allocatorIS7_EEFbS6_EE18destroy_deallocateEv', symObjAddr: 0x550, symBinAddr: 0x5900, symSize: 0x10 }
  - { offset: 0x41E29, size: 0x8, addend: 0x0, symName: '__ZNSt3__110__function6__funcIZNK9Steinberg3Vst3$_0clEvEUlPNS2_11ITestResultEE0_NS_9allocatorIS7_EEFbS6_EEclEOS6_', symObjAddr: 0x560, symBinAddr: 0x5910, symSize: 0x60 }
  - { offset: 0x41EED, size: 0x8, addend: 0x0, symName: '__ZNKSt3__110__function6__funcIZNK9Steinberg3Vst3$_0clEvEUlPNS2_11ITestResultEE0_NS_9allocatorIS7_EEFbS6_EE6targetERKSt9type_info', symObjAddr: 0x5C0, symBinAddr: 0x5970, symSize: 0x20 }
  - { offset: 0x41F60, size: 0x8, addend: 0x0, symName: '__ZNKSt3__110__function6__funcIZNK9Steinberg3Vst3$_0clEvEUlPNS2_11ITestResultEE0_NS_9allocatorIS7_EEFbS6_EE11target_typeEv', symObjAddr: 0x5E0, symBinAddr: 0x5990, symSize: 0x10 }
  - { offset: 0x41F83, size: 0x8, addend: 0x0, symName: '__ZNSt3__110__function6__funcIZNK9Steinberg3Vst3$_0clEvEUlPNS2_11ITestResultEE1_NS_9allocatorIS7_EEFbS6_EED1Ev', symObjAddr: 0x5F0, symBinAddr: 0x59A0, symSize: 0x10 }
  - { offset: 0x41FAA, size: 0x8, addend: 0x0, symName: '__ZNSt3__110__function6__funcIZNK9Steinberg3Vst3$_0clEvEUlPNS2_11ITestResultEE1_NS_9allocatorIS7_EEFbS6_EED0Ev', symObjAddr: 0x600, symBinAddr: 0x59B0, symSize: 0x10 }
  - { offset: 0x4205E, size: 0x8, addend: 0x0, symName: '__ZNKSt3__110__function6__funcIZNK9Steinberg3Vst3$_0clEvEUlPNS2_11ITestResultEE1_NS_9allocatorIS7_EEFbS6_EE7__cloneEv', symObjAddr: 0x610, symBinAddr: 0x59C0, symSize: 0x20 }
  - { offset: 0x421AD, size: 0x8, addend: 0x0, symName: '__ZNKSt3__110__function6__funcIZNK9Steinberg3Vst3$_0clEvEUlPNS2_11ITestResultEE1_NS_9allocatorIS7_EEFbS6_EE7__cloneEPNS0_6__baseISA_EE', symObjAddr: 0x630, symBinAddr: 0x59E0, symSize: 0x10 }
  - { offset: 0x4221C, size: 0x8, addend: 0x0, symName: '__ZNSt3__110__function6__funcIZNK9Steinberg3Vst3$_0clEvEUlPNS2_11ITestResultEE1_NS_9allocatorIS7_EEFbS6_EE7destroyEv', symObjAddr: 0x640, symBinAddr: 0x59F0, symSize: 0x10 }
  - { offset: 0x4226A, size: 0x8, addend: 0x0, symName: '__ZNSt3__110__function6__funcIZNK9Steinberg3Vst3$_0clEvEUlPNS2_11ITestResultEE1_NS_9allocatorIS7_EEFbS6_EE18destroy_deallocateEv', symObjAddr: 0x650, symBinAddr: 0x5A00, symSize: 0x10 }
  - { offset: 0x423C9, size: 0x8, addend: 0x0, symName: '__ZNSt3__110__function6__funcIZNK9Steinberg3Vst3$_0clEvEUlPNS2_11ITestResultEE1_NS_9allocatorIS7_EEFbS6_EEclEOS6_', symObjAddr: 0x660, symBinAddr: 0x5A10, symSize: 0x60 }
  - { offset: 0x4248D, size: 0x8, addend: 0x0, symName: '__ZNKSt3__110__function6__funcIZNK9Steinberg3Vst3$_0clEvEUlPNS2_11ITestResultEE1_NS_9allocatorIS7_EEFbS6_EE6targetERKSt9type_info', symObjAddr: 0x6C0, symBinAddr: 0x5A70, symSize: 0x20 }
  - { offset: 0x42500, size: 0x8, addend: 0x0, symName: '__ZNKSt3__110__function6__funcIZNK9Steinberg3Vst3$_0clEvEUlPNS2_11ITestResultEE1_NS_9allocatorIS7_EEFbS6_EE11target_typeEv', symObjAddr: 0x6E0, symBinAddr: 0x5A90, symSize: 0x10 }
  - { offset: 0x42523, size: 0x8, addend: 0x0, symName: '__ZNSt3__110__function6__funcIZNK9Steinberg3Vst3$_0clEvEUlPNS2_11ITestResultEE2_NS_9allocatorIS7_EEFbS6_EED1Ev', symObjAddr: 0x6F0, symBinAddr: 0x5AA0, symSize: 0x10 }
  - { offset: 0x4254A, size: 0x8, addend: 0x0, symName: '__ZNSt3__110__function6__funcIZNK9Steinberg3Vst3$_0clEvEUlPNS2_11ITestResultEE2_NS_9allocatorIS7_EEFbS6_EED0Ev', symObjAddr: 0x700, symBinAddr: 0x5AB0, symSize: 0x10 }
  - { offset: 0x425FE, size: 0x8, addend: 0x0, symName: '__ZNKSt3__110__function6__funcIZNK9Steinberg3Vst3$_0clEvEUlPNS2_11ITestResultEE2_NS_9allocatorIS7_EEFbS6_EE7__cloneEv', symObjAddr: 0x710, symBinAddr: 0x5AC0, symSize: 0x20 }
  - { offset: 0x4274D, size: 0x8, addend: 0x0, symName: '__ZNKSt3__110__function6__funcIZNK9Steinberg3Vst3$_0clEvEUlPNS2_11ITestResultEE2_NS_9allocatorIS7_EEFbS6_EE7__cloneEPNS0_6__baseISA_EE', symObjAddr: 0x730, symBinAddr: 0x5AE0, symSize: 0x10 }
  - { offset: 0x427BC, size: 0x8, addend: 0x0, symName: '__ZNSt3__110__function6__funcIZNK9Steinberg3Vst3$_0clEvEUlPNS2_11ITestResultEE2_NS_9allocatorIS7_EEFbS6_EE7destroyEv', symObjAddr: 0x740, symBinAddr: 0x5AF0, symSize: 0x10 }
  - { offset: 0x4280A, size: 0x8, addend: 0x0, symName: '__ZNSt3__110__function6__funcIZNK9Steinberg3Vst3$_0clEvEUlPNS2_11ITestResultEE2_NS_9allocatorIS7_EEFbS6_EE18destroy_deallocateEv', symObjAddr: 0x750, symBinAddr: 0x5B00, symSize: 0x10 }
  - { offset: 0x42969, size: 0x8, addend: 0x0, symName: '__ZNSt3__110__function6__funcIZNK9Steinberg3Vst3$_0clEvEUlPNS2_11ITestResultEE2_NS_9allocatorIS7_EEFbS6_EEclEOS6_', symObjAddr: 0x760, symBinAddr: 0x5B10, symSize: 0x60 }
  - { offset: 0x42A2D, size: 0x8, addend: 0x0, symName: '__ZNKSt3__110__function6__funcIZNK9Steinberg3Vst3$_0clEvEUlPNS2_11ITestResultEE2_NS_9allocatorIS7_EEFbS6_EE6targetERKSt9type_info', symObjAddr: 0x7C0, symBinAddr: 0x5B70, symSize: 0x20 }
  - { offset: 0x42AA0, size: 0x8, addend: 0x0, symName: '__ZNKSt3__110__function6__funcIZNK9Steinberg3Vst3$_0clEvEUlPNS2_11ITestResultEE2_NS_9allocatorIS7_EEFbS6_EE11target_typeEv', symObjAddr: 0x7E0, symBinAddr: 0x5B90, symSize: 0x10 }
  - { offset: 0x42AC3, size: 0x8, addend: 0x0, symName: '__ZNSt3__110__function6__funcIZNK9Steinberg3Vst3$_0clEvEUlPNS2_11ITestResultEE3_NS_9allocatorIS7_EEFbS6_EED1Ev', symObjAddr: 0x7F0, symBinAddr: 0x5BA0, symSize: 0x10 }
  - { offset: 0x42AEA, size: 0x8, addend: 0x0, symName: '__ZNSt3__110__function6__funcIZNK9Steinberg3Vst3$_0clEvEUlPNS2_11ITestResultEE3_NS_9allocatorIS7_EEFbS6_EED0Ev', symObjAddr: 0x800, symBinAddr: 0x5BB0, symSize: 0x10 }
  - { offset: 0x42B9E, size: 0x8, addend: 0x0, symName: '__ZNKSt3__110__function6__funcIZNK9Steinberg3Vst3$_0clEvEUlPNS2_11ITestResultEE3_NS_9allocatorIS7_EEFbS6_EE7__cloneEv', symObjAddr: 0x810, symBinAddr: 0x5BC0, symSize: 0x20 }
  - { offset: 0x42CED, size: 0x8, addend: 0x0, symName: '__ZNKSt3__110__function6__funcIZNK9Steinberg3Vst3$_0clEvEUlPNS2_11ITestResultEE3_NS_9allocatorIS7_EEFbS6_EE7__cloneEPNS0_6__baseISA_EE', symObjAddr: 0x830, symBinAddr: 0x5BE0, symSize: 0x10 }
  - { offset: 0x42D5C, size: 0x8, addend: 0x0, symName: '__ZNSt3__110__function6__funcIZNK9Steinberg3Vst3$_0clEvEUlPNS2_11ITestResultEE3_NS_9allocatorIS7_EEFbS6_EE7destroyEv', symObjAddr: 0x840, symBinAddr: 0x5BF0, symSize: 0x10 }
  - { offset: 0x42DAA, size: 0x8, addend: 0x0, symName: '__ZNSt3__110__function6__funcIZNK9Steinberg3Vst3$_0clEvEUlPNS2_11ITestResultEE3_NS_9allocatorIS7_EEFbS6_EE18destroy_deallocateEv', symObjAddr: 0x850, symBinAddr: 0x5C00, symSize: 0x10 }
  - { offset: 0x42F09, size: 0x8, addend: 0x0, symName: '__ZNSt3__110__function6__funcIZNK9Steinberg3Vst3$_0clEvEUlPNS2_11ITestResultEE3_NS_9allocatorIS7_EEFbS6_EEclEOS6_', symObjAddr: 0x860, symBinAddr: 0x5C10, symSize: 0x50 }
  - { offset: 0x42FCD, size: 0x8, addend: 0x0, symName: '__ZNKSt3__110__function6__funcIZNK9Steinberg3Vst3$_0clEvEUlPNS2_11ITestResultEE3_NS_9allocatorIS7_EEFbS6_EE6targetERKSt9type_info', symObjAddr: 0x8B0, symBinAddr: 0x5C60, symSize: 0x20 }
  - { offset: 0x43040, size: 0x8, addend: 0x0, symName: '__ZNKSt3__110__function6__funcIZNK9Steinberg3Vst3$_0clEvEUlPNS2_11ITestResultEE3_NS_9allocatorIS7_EEFbS6_EE11target_typeEv', symObjAddr: 0x8D0, symBinAddr: 0x5C80, symSize: 0xD }
...
