---
triple:          'arm64-apple-darwin'
binary-path:     '/Users/noahlynaugh/Desktop/Coding/Studio_PLND/Digital-Effect-Controller/DEC/VST_Plugin/vst3sdk/build/VST3/Release/pitch-names.vst3/Contents/MacOS/pitch-names'
relocations:
  - { offset: 0x26, size: 0x8, addend: 0x0, symName: _GetPluginFactory, symObjAddr: 0x0, symBinAddr: 0x8778, symSize: 0x480 }
  - { offset: 0x33, size: 0x8, addend: 0x0, symName: _GetPluginFactory, symObjAddr: 0x0, symBinAddr: 0x8778, symSize: 0x480 }
  - { offset: 0x58, size: 0x8, addend: 0x0, symName: __ZZ16GetPluginFactoryE11factoryInfo, symObjAddr: 0xB24, symBinAddr: 0x1B96A0, symSize: 0x0 }
  - { offset: 0x6D, size: 0x8, addend: 0x0, symName: __MergedGlobals, symObjAddr: 0xA3FE8, symBinAddr: 0x1B9B40, symSize: 0x0 }
  - { offset: 0x84, size: 0x8, addend: 0x0, symName: __MergedGlobals, symObjAddr: 0xA3FE8, symBinAddr: 0x1B9B40, symSize: 0x0 }
  - { offset: 0x299C2, size: 0x8, addend: 0x0, symName: __ZN9Steinberg11PClassInfo2C2EPKciS2_S2_iS2_S2_S2_S2_, symObjAddr: 0x55C, symBinAddr: 0x8CD4, symSize: 0x574 }
  - { offset: 0x2A02C, size: 0x8, addend: 0x0, symName: __ZN9Steinberg3Vst19PitchNamesProcessor14createInstanceEPv, symObjAddr: 0x480, symBinAddr: 0x8BF8, symSize: 0x40 }
  - { offset: 0x2B7CB, size: 0x8, addend: 0x0, symName: __ZN9Steinberg3Vst20PitchNamesController14createInstanceEPv, symObjAddr: 0x4C0, symBinAddr: 0x8C38, symSize: 0x9C }
  - { offset: 0x2DB79, size: 0x8, addend: 0x0, symName: __ZN9Steinberg3Vst20PitchNamesController3cidE, symObjAddr: 0xCC108, symBinAddr: 0x1DF688, symSize: 0x0 }
  - { offset: 0x2EB4E, size: 0x8, addend: 0x0, symName: __ZN9Steinberg3Vst19PitchNamesProcessor3cidE, symObjAddr: 0xCC120, symBinAddr: 0x1DF6A0, symSize: 0x0 }
  - { offset: 0x505ED, size: 0x8, addend: 0x0, symName: __ZN9Steinberg3Vst20PitchNamesController10initializeEPNS_8FUnknownE, symObjAddr: 0x0, symBinAddr: 0x9248, symSize: 0x49C }
  - { offset: 0x50851, size: 0x8, addend: 0x0, symName: __ZThn16_N9Steinberg3Vst20PitchNamesController10initializeEPNS_8FUnknownE, symObjAddr: 0x49C, symBinAddr: 0x96E4, symSize: 0x8 }
  - { offset: 0x5087E, size: 0x8, addend: 0x0, symName: __ZThn48_N9Steinberg3Vst20PitchNamesController10initializeEPNS_8FUnknownE, symObjAddr: 0x4A4, symBinAddr: 0x96EC, symSize: 0x8 }
  - { offset: 0x508AB, size: 0x8, addend: 0x0, symName: __ZN9Steinberg3Vst20PitchNamesController12getUnitByBusEiiiiRi, symObjAddr: 0x4AC, symBinAddr: 0x96F4, symSize: 0x38 }
  - { offset: 0x50941, size: 0x8, addend: 0x0, symName: __ZThn112_N9Steinberg3Vst20PitchNamesController12getUnitByBusEiiiiRi, symObjAddr: 0x4E4, symBinAddr: 0x972C, symSize: 0x38 }
  - { offset: 0x50990, size: 0x8, addend: 0x0, symName: __ZN9Steinberg3Vst20PitchNamesController10createViewEPKc, symObjAddr: 0x51C, symBinAddr: 0x9764, symSize: 0xA8 }
  - { offset: 0x50A03, size: 0x8, addend: 0x0, symName: __ZThn48_N9Steinberg3Vst20PitchNamesController10createViewEPKc, symObjAddr: 0x5C4, symBinAddr: 0x980C, symSize: 0xAC }
  - { offset: 0x50AEC, size: 0x8, addend: 0x0, symName: __ZN9Steinberg3Vst20PitchNamesController16createCustomViewEPKcRKN6VSTGUI12UIAttributesEPKNS4_14IUIDescriptionEPNS4_10VST3EditorE, symObjAddr: 0x670, symBinAddr: 0x98B8, symSize: 0xFC }
  - { offset: 0x50C06, size: 0x8, addend: 0x0, symName: __ZThn200_N9Steinberg3Vst20PitchNamesController16createCustomViewEPKcRKN6VSTGUI12UIAttributesEPKNS4_14IUIDescriptionEPNS4_10VST3EditorE, symObjAddr: 0x76C, symBinAddr: 0x99B4, symSize: 0x8 }
  - { offset: 0x50C7A, size: 0x8, addend: 0x0, symName: __ZN9Steinberg3Vst19PitchNamesProcessorC2Ev, symObjAddr: 0x774, symBinAddr: 0x99BC, symSize: 0x74 }
  - { offset: 0x50CF1, size: 0x8, addend: 0x0, symName: __ZN9Steinberg3Vst9ComponentD2Ev, symObjAddr: 0x10B0, symBinAddr: 0xA2F8, symSize: 0x1CC }
  - { offset: 0x513EF, size: 0x8, addend: 0x0, symName: __ZN9Steinberg3Vst19PitchNamesProcessorC1Ev, symObjAddr: 0x7E8, symBinAddr: 0x9A30, symSize: 0x74 }
  - { offset: 0x5153D, size: 0x8, addend: 0x0, symName: __ZN9Steinberg3Vst19PitchNamesProcessor10initializeEPNS_8FUnknownE, symObjAddr: 0x85C, symBinAddr: 0x9AA4, symSize: 0xC0 }
  - { offset: 0x516BE, size: 0x8, addend: 0x0, symName: __ZThn16_N9Steinberg3Vst19PitchNamesProcessor10initializeEPNS_8FUnknownE, symObjAddr: 0x91C, symBinAddr: 0x9B64, symSize: 0x8 }
  - { offset: 0x516EB, size: 0x8, addend: 0x0, symName: __ZThn48_N9Steinberg3Vst19PitchNamesProcessor10initializeEPNS_8FUnknownE, symObjAddr: 0x924, symBinAddr: 0x9B6C, symSize: 0x8 }
  - { offset: 0x51718, size: 0x8, addend: 0x0, symName: __ZN9Steinberg3Vst19PitchNamesProcessor7processERNS0_11ProcessDataE, symObjAddr: 0x92C, symBinAddr: 0x9B74, symSize: 0x78 }
  - { offset: 0x51789, size: 0x8, addend: 0x0, symName: __ZThn272_N9Steinberg3Vst19PitchNamesProcessor7processERNS0_11ProcessDataE, symObjAddr: 0x9A4, symBinAddr: 0x9BEC, symSize: 0x78 }
  - { offset: 0x51834, size: 0x8, addend: 0x0, symName: __ZN9Steinberg3Vst17EditControllerEx114queryInterfaceEPKcPPv, symObjAddr: 0xA1C, symBinAddr: 0x9C64, symSize: 0x12C }
  - { offset: 0x51A1C, size: 0x8, addend: 0x0, symName: __ZN9Steinberg3Vst17EditControllerEx16addRefEv, symObjAddr: 0xB48, symBinAddr: 0x9D90, symSize: 0x4 }
  - { offset: 0x51A3F, size: 0x8, addend: 0x0, symName: __ZN9Steinberg3Vst17EditControllerEx16addRefEv, symObjAddr: 0xB48, symBinAddr: 0x9D90, symSize: 0x4 }
  - { offset: 0x51A5B, size: 0x8, addend: 0x0, symName: __ZN9Steinberg3Vst17EditControllerEx16addRefEv, symObjAddr: 0xB48, symBinAddr: 0x9D90, symSize: 0x4 }
  - { offset: 0x51AA2, size: 0x8, addend: 0x0, symName: __ZN9Steinberg3Vst17EditControllerEx17releaseEv, symObjAddr: 0xB4C, symBinAddr: 0x9D94, symSize: 0x4 }
  - { offset: 0x51AC5, size: 0x8, addend: 0x0, symName: __ZN9Steinberg3Vst17EditControllerEx17releaseEv, symObjAddr: 0xB4C, symBinAddr: 0x9D94, symSize: 0x4 }
  - { offset: 0x51AE1, size: 0x8, addend: 0x0, symName: __ZN9Steinberg3Vst17EditControllerEx17releaseEv, symObjAddr: 0xB4C, symBinAddr: 0x9D94, symSize: 0x4 }
  - { offset: 0x51B18, size: 0x8, addend: 0x0, symName: __ZN9Steinberg3Vst20PitchNamesControllerD1Ev, symObjAddr: 0xB50, symBinAddr: 0x9D98, symSize: 0x4 }
  - { offset: 0x51B3A, size: 0x8, addend: 0x0, symName: __ZN9Steinberg3Vst20PitchNamesControllerD1Ev, symObjAddr: 0xB50, symBinAddr: 0x9D98, symSize: 0x4 }
  - { offset: 0x51B70, size: 0x8, addend: 0x0, symName: __ZN9Steinberg3Vst20PitchNamesControllerD0Ev, symObjAddr: 0xB54, symBinAddr: 0x9D9C, symSize: 0x14 }
  - { offset: 0x51BC8, size: 0x8, addend: 0x0, symName: __ZNK9Steinberg3Vst17EditControllerEx13isAEv, symObjAddr: 0xB68, symBinAddr: 0x9DB0, symSize: 0xC }
  - { offset: 0x51BEF, size: 0x8, addend: 0x0, symName: __ZNK9Steinberg3Vst17EditControllerEx13isAEPKc, symObjAddr: 0xB74, symBinAddr: 0x9DBC, symSize: 0x10 }
  - { offset: 0x51CF2, size: 0x8, addend: 0x0, symName: __ZNK9Steinberg3Vst17EditControllerEx18isTypeOfEPKcb, symObjAddr: 0xB84, symBinAddr: 0x9DCC, symSize: 0xA0 }
  - { offset: 0x51D3E, size: 0x8, addend: 0x0, symName: __ZNK9Steinberg3Vst17EditControllerEx18isTypeOfEPKcb, symObjAddr: 0xB84, symBinAddr: 0x9DCC, symSize: 0xA0 }
  - { offset: 0x51E9F, size: 0x8, addend: 0x0, symName: __ZN9Steinberg7FObject10updateDoneEi, symObjAddr: 0xC24, symBinAddr: 0x9E6C, symSize: 0x4 }
  - { offset: 0x51ECE, size: 0x8, addend: 0x0, symName: __ZN9Steinberg7FObject15isEqualInstanceEPNS_8FUnknownE, symObjAddr: 0xC28, symBinAddr: 0x9E70, symSize: 0xC }
  - { offset: 0x51F03, size: 0x8, addend: 0x0, symName: __ZN9Steinberg3Vst14EditController11setKnobModeEi, symObjAddr: 0xC34, symBinAddr: 0x9E7C, symSize: 0x14 }
  - { offset: 0x51F2C, size: 0x8, addend: 0x0, symName: __ZN9Steinberg3Vst14EditController8openHelpEh, symObjAddr: 0xC48, symBinAddr: 0x9E90, symSize: 0x8 }
  - { offset: 0x51F5D, size: 0x8, addend: 0x0, symName: __ZN9Steinberg3Vst14EditController12openAboutBoxEh, symObjAddr: 0xC50, symBinAddr: 0x9E98, symSize: 0x8 }
  - { offset: 0x51F8E, size: 0x8, addend: 0x0, symName: __ZN9Steinberg3Vst14EditController15editorDestroyedEPNS0_10EditorViewE, symObjAddr: 0xC58, symBinAddr: 0x9EA0, symSize: 0x4 }
  - { offset: 0x51FBD, size: 0x8, addend: 0x0, symName: __ZN9Steinberg3Vst14EditController14editorAttachedEPNS0_10EditorViewE, symObjAddr: 0xC5C, symBinAddr: 0x9EA4, symSize: 0x4 }
  - { offset: 0x51FEC, size: 0x8, addend: 0x0, symName: __ZN9Steinberg3Vst14EditController13editorRemovedEPNS0_10EditorViewE, symObjAddr: 0xC60, symBinAddr: 0x9EA8, symSize: 0x4 }
  - { offset: 0x5201B, size: 0x8, addend: 0x0, symName: __ZN9Steinberg3Vst14EditController18getParameterObjectEj, symObjAddr: 0xC64, symBinAddr: 0x9EAC, symSize: 0x8 }
  - { offset: 0x5206B, size: 0x8, addend: 0x0, symName: __ZN9Steinberg3Vst17EditControllerEx112getUnitCountEv, symObjAddr: 0xC6C, symBinAddr: 0x9EB4, symSize: 0x10 }
  - { offset: 0x52090, size: 0x8, addend: 0x0, symName: __ZN9Steinberg3Vst17EditControllerEx112getUnitCountEv, symObjAddr: 0xC6C, symBinAddr: 0x9EB4, symSize: 0x10 }
  - { offset: 0x520AE, size: 0x8, addend: 0x0, symName: __ZN9Steinberg3Vst17EditControllerEx115getSelectedUnitEv, symObjAddr: 0xC7C, symBinAddr: 0x9EC4, symSize: 0x8 }
  - { offset: 0x520D0, size: 0x8, addend: 0x0, symName: __ZN9Steinberg3Vst17EditControllerEx110selectUnitEi, symObjAddr: 0xC84, symBinAddr: 0x9ECC, symSize: 0xC }
  - { offset: 0x520F9, size: 0x8, addend: 0x0, symName: __ZN9Steinberg3Vst17EditControllerEx118setUnitProgramDataEiiPNS_8IBStreamE, symObjAddr: 0xC90, symBinAddr: 0x9ED8, symSize: 0x8 }
  - { offset: 0x52141, size: 0x8, addend: 0x0, symName: __ZThn16_N9Steinberg3Vst17EditControllerEx114queryInterfaceEPKcPPv, symObjAddr: 0xC98, symBinAddr: 0x9EE0, symSize: 0x8 }
  - { offset: 0x52191, size: 0x8, addend: 0x0, symName: __ZThn16_N9Steinberg3Vst17EditControllerEx16addRefEv, symObjAddr: 0xCA0, symBinAddr: 0x9EE8, symSize: 0x8 }
  - { offset: 0x52215, size: 0x8, addend: 0x0, symName: __ZThn16_N9Steinberg3Vst17EditControllerEx17releaseEv, symObjAddr: 0xCA8, symBinAddr: 0x9EF0, symSize: 0x8 }
  - { offset: 0x52283, size: 0x8, addend: 0x0, symName: __ZThn24_N9Steinberg3Vst17EditControllerEx114queryInterfaceEPKcPPv, symObjAddr: 0xCB0, symBinAddr: 0x9EF8, symSize: 0x8 }
  - { offset: 0x522B8, size: 0x8, addend: 0x0, symName: __ZThn24_N9Steinberg3Vst17EditControllerEx16addRefEv, symObjAddr: 0xCB8, symBinAddr: 0x9F00, symSize: 0x8 }
  - { offset: 0x52326, size: 0x8, addend: 0x0, symName: __ZThn24_N9Steinberg3Vst17EditControllerEx17releaseEv, symObjAddr: 0xCC0, symBinAddr: 0x9F08, symSize: 0x8 }
  - { offset: 0x52394, size: 0x8, addend: 0x0, symName: __ZThn48_N9Steinberg3Vst17EditControllerEx114queryInterfaceEPKcPPv, symObjAddr: 0xCC8, symBinAddr: 0x9F10, symSize: 0x8 }
  - { offset: 0x523C9, size: 0x8, addend: 0x0, symName: __ZThn48_N9Steinberg3Vst17EditControllerEx16addRefEv, symObjAddr: 0xCD0, symBinAddr: 0x9F18, symSize: 0x8 }
  - { offset: 0x52437, size: 0x8, addend: 0x0, symName: __ZThn48_N9Steinberg3Vst17EditControllerEx17releaseEv, symObjAddr: 0xCD8, symBinAddr: 0x9F20, symSize: 0x8 }
  - { offset: 0x524A5, size: 0x8, addend: 0x0, symName: __ZThn56_N9Steinberg3Vst17EditControllerEx114queryInterfaceEPKcPPv, symObjAddr: 0xCE0, symBinAddr: 0x9F28, symSize: 0x8 }
  - { offset: 0x524DA, size: 0x8, addend: 0x0, symName: __ZThn56_N9Steinberg3Vst17EditControllerEx16addRefEv, symObjAddr: 0xCE8, symBinAddr: 0x9F30, symSize: 0x8 }
  - { offset: 0x52548, size: 0x8, addend: 0x0, symName: __ZThn56_N9Steinberg3Vst17EditControllerEx17releaseEv, symObjAddr: 0xCF0, symBinAddr: 0x9F38, symSize: 0x8 }
  - { offset: 0x525D7, size: 0x8, addend: 0x0, symName: __ZThn56_N9Steinberg3Vst14EditController11setKnobModeEi, symObjAddr: 0xCF8, symBinAddr: 0x9F40, symSize: 0x14 }
  - { offset: 0x525F1, size: 0x8, addend: 0x0, symName: __ZThn56_N9Steinberg3Vst14EditController11setKnobModeEi, symObjAddr: 0xCF8, symBinAddr: 0x9F40, symSize: 0x14 }
  - { offset: 0x52613, size: 0x8, addend: 0x0, symName: __ZThn56_N9Steinberg3Vst14EditController8openHelpEh, symObjAddr: 0xD0C, symBinAddr: 0x9F54, symSize: 0x8 }
  - { offset: 0x52629, size: 0x8, addend: 0x0, symName: __ZThn56_N9Steinberg3Vst14EditController12openAboutBoxEh, symObjAddr: 0xD14, symBinAddr: 0x9F5C, symSize: 0x8 }
  - { offset: 0x5263F, size: 0x8, addend: 0x0, symName: __ZThn112_N9Steinberg3Vst17EditControllerEx114queryInterfaceEPKcPPv, symObjAddr: 0xD1C, symBinAddr: 0x9F64, symSize: 0x8 }
  - { offset: 0x52674, size: 0x8, addend: 0x0, symName: __ZThn112_N9Steinberg3Vst17EditControllerEx16addRefEv, symObjAddr: 0xD24, symBinAddr: 0x9F6C, symSize: 0x8 }
  - { offset: 0x526E2, size: 0x8, addend: 0x0, symName: __ZThn112_N9Steinberg3Vst17EditControllerEx17releaseEv, symObjAddr: 0xD2C, symBinAddr: 0x9F74, symSize: 0x8 }
  - { offset: 0x52766, size: 0x8, addend: 0x0, symName: __ZThn112_N9Steinberg3Vst17EditControllerEx112getUnitCountEv, symObjAddr: 0xD34, symBinAddr: 0x9F7C, symSize: 0x10 }
  - { offset: 0x52781, size: 0x8, addend: 0x0, symName: __ZThn112_N9Steinberg3Vst17EditControllerEx112getUnitCountEv, symObjAddr: 0xD34, symBinAddr: 0x9F7C, symSize: 0x10 }
  - { offset: 0x5279F, size: 0x8, addend: 0x0, symName: __ZThn112_N9Steinberg3Vst17EditControllerEx112getUnitCountEv, symObjAddr: 0xD34, symBinAddr: 0x9F7C, symSize: 0x10 }
  - { offset: 0x527D3, size: 0x8, addend: 0x0, symName: __ZThn112_N9Steinberg3Vst17EditControllerEx115getSelectedUnitEv, symObjAddr: 0xD44, symBinAddr: 0x9F8C, symSize: 0x8 }
  - { offset: 0x527EE, size: 0x8, addend: 0x0, symName: __ZThn112_N9Steinberg3Vst17EditControllerEx115getSelectedUnitEv, symObjAddr: 0xD44, symBinAddr: 0x9F8C, symSize: 0x8 }
  - { offset: 0x5282D, size: 0x8, addend: 0x0, symName: __ZThn112_N9Steinberg3Vst17EditControllerEx110selectUnitEi, symObjAddr: 0xD4C, symBinAddr: 0x9F94, symSize: 0xC }
  - { offset: 0x52848, size: 0x8, addend: 0x0, symName: __ZThn112_N9Steinberg3Vst17EditControllerEx110selectUnitEi, symObjAddr: 0xD4C, symBinAddr: 0x9F94, symSize: 0xC }
  - { offset: 0x5286B, size: 0x8, addend: 0x0, symName: __ZThn112_N9Steinberg3Vst17EditControllerEx118setUnitProgramDataEiiPNS_8IBStreamE, symObjAddr: 0xD58, symBinAddr: 0x9FA0, symSize: 0x8 }
  - { offset: 0x52882, size: 0x8, addend: 0x0, symName: __ZThn200_N9Steinberg3Vst20PitchNamesControllerD1Ev, symObjAddr: 0xD60, symBinAddr: 0x9FA8, symSize: 0x8 }
  - { offset: 0x528ED, size: 0x8, addend: 0x0, symName: __ZThn200_N9Steinberg3Vst20PitchNamesControllerD0Ev, symObjAddr: 0xD68, symBinAddr: 0x9FB0, symSize: 0x18 }
  - { offset: 0x52958, size: 0x8, addend: 0x0, symName: __ZN6VSTGUI18VST3EditorDelegate10verifyViewEPNS_5CViewERKNS_12UIAttributesEPKNS_14IUIDescriptionEPNS_10VST3EditorE, symObjAddr: 0xD80, symBinAddr: 0x9FC8, symSize: 0x8 }
  - { offset: 0x529B9, size: 0x8, addend: 0x0, symName: __ZN6VSTGUI18VST3EditorDelegate13findParameterERKNS_6CPointERjPNS_10VST3EditorE, symObjAddr: 0xD88, symBinAddr: 0x9FD0, symSize: 0x8 }
  - { offset: 0x52A0A, size: 0x8, addend: 0x0, symName: __ZN6VSTGUI18VST3EditorDelegate18isPrivateParameterEj, symObjAddr: 0xD90, symBinAddr: 0x9FD8, symSize: 0x8 }
  - { offset: 0x52A3F, size: 0x8, addend: 0x0, symName: __ZN6VSTGUI18VST3EditorDelegate7didOpenEPNS_10VST3EditorE, symObjAddr: 0xD98, symBinAddr: 0x9FE0, symSize: 0x4 }
  - { offset: 0x52A72, size: 0x8, addend: 0x0, symName: __ZN6VSTGUI18VST3EditorDelegate9willCloseEPNS_10VST3EditorE, symObjAddr: 0xD9C, symBinAddr: 0x9FE4, symSize: 0x4 }
  - { offset: 0x52AA5, size: 0x8, addend: 0x0, symName: __ZN6VSTGUI18VST3EditorDelegate17createContextMenuERKNS_6CPointEPNS_10VST3EditorE, symObjAddr: 0xDA0, symBinAddr: 0x9FE8, symSize: 0x8 }
  - { offset: 0x52AE8, size: 0x8, addend: 0x0, symName: __ZN6VSTGUI18VST3EditorDelegate19createSubControllerEPKcPKNS_14IUIDescriptionEPNS_10VST3EditorE, symObjAddr: 0xDA8, symBinAddr: 0x9FF0, symSize: 0x8 }
  - { offset: 0x52B39, size: 0x8, addend: 0x0, symName: __ZN6VSTGUI18VST3EditorDelegate13onZoomChangedEPNS_10VST3EditorEd, symObjAddr: 0xDB0, symBinAddr: 0x9FF8, symSize: 0x4 }
  - { offset: 0x52BA7, size: 0x8, addend: 0x0, symName: __ZN9Steinberg3Vst11AudioEffect14queryInterfaceEPKcPPv, symObjAddr: 0xDB4, symBinAddr: 0x9FFC, symSize: 0x184 }
  - { offset: 0x52DA2, size: 0x8, addend: 0x0, symName: __ZN9Steinberg3Vst11AudioEffect6addRefEv, symObjAddr: 0xF38, symBinAddr: 0xA180, symSize: 0x4 }
  - { offset: 0x52DC4, size: 0x8, addend: 0x0, symName: __ZN9Steinberg3Vst11AudioEffect6addRefEv, symObjAddr: 0xF38, symBinAddr: 0xA180, symSize: 0x4 }
  - { offset: 0x52DDF, size: 0x8, addend: 0x0, symName: __ZN9Steinberg3Vst11AudioEffect6addRefEv, symObjAddr: 0xF38, symBinAddr: 0xA180, symSize: 0x4 }
  - { offset: 0x52E10, size: 0x8, addend: 0x0, symName: __ZN9Steinberg3Vst11AudioEffect7releaseEv, symObjAddr: 0xF3C, symBinAddr: 0xA184, symSize: 0x4 }
  - { offset: 0x52E32, size: 0x8, addend: 0x0, symName: __ZN9Steinberg3Vst11AudioEffect7releaseEv, symObjAddr: 0xF3C, symBinAddr: 0xA184, symSize: 0x4 }
  - { offset: 0x52E4D, size: 0x8, addend: 0x0, symName: __ZN9Steinberg3Vst11AudioEffect7releaseEv, symObjAddr: 0xF3C, symBinAddr: 0xA184, symSize: 0x4 }
  - { offset: 0x52E68, size: 0x8, addend: 0x0, symName: __ZN9Steinberg7FObject6updateEPNS_8FUnknownEi, symObjAddr: 0xF40, symBinAddr: 0xA188, symSize: 0x4 }
  - { offset: 0x52EBD, size: 0x8, addend: 0x0, symName: __ZN9Steinberg3Vst19PitchNamesProcessorD1Ev, symObjAddr: 0xF44, symBinAddr: 0xA18C, symSize: 0x4 }
  - { offset: 0x52EDF, size: 0x8, addend: 0x0, symName: __ZN9Steinberg3Vst19PitchNamesProcessorD1Ev, symObjAddr: 0xF44, symBinAddr: 0xA18C, symSize: 0x4 }
  - { offset: 0x52EFA, size: 0x8, addend: 0x0, symName: __ZN9Steinberg3Vst19PitchNamesProcessorD1Ev, symObjAddr: 0xF44, symBinAddr: 0xA18C, symSize: 0x4 }
  - { offset: 0x52F18, size: 0x8, addend: 0x0, symName: __ZN9Steinberg3Vst19PitchNamesProcessorD1Ev, symObjAddr: 0xF44, symBinAddr: 0xA18C, symSize: 0x4 }
  - { offset: 0x52F47, size: 0x8, addend: 0x0, symName: __ZN9Steinberg3Vst19PitchNamesProcessorD0Ev, symObjAddr: 0xF48, symBinAddr: 0xA190, symSize: 0x14 }
  - { offset: 0x52FDB, size: 0x8, addend: 0x0, symName: __ZNK9Steinberg3Vst11AudioEffect3isAEv, symObjAddr: 0xF5C, symBinAddr: 0xA1A4, symSize: 0xC }
  - { offset: 0x53002, size: 0x8, addend: 0x0, symName: __ZNK9Steinberg3Vst11AudioEffect3isAEPKc, symObjAddr: 0xF68, symBinAddr: 0xA1B0, symSize: 0x10 }
  - { offset: 0x53086, size: 0x8, addend: 0x0, symName: __ZNK9Steinberg3Vst11AudioEffect8isTypeOfEPKcb, symObjAddr: 0xF78, symBinAddr: 0xA1C0, symSize: 0xA0 }
  - { offset: 0x530CF, size: 0x8, addend: 0x0, symName: __ZNK9Steinberg3Vst11AudioEffect8isTypeOfEPKcb, symObjAddr: 0xF78, symBinAddr: 0xA1C0, symSize: 0xA0 }
  - { offset: 0x53216, size: 0x8, addend: 0x0, symName: __ZN9Steinberg3Vst11AudioEffect17getLatencySamplesEv, symObjAddr: 0x1018, symBinAddr: 0xA260, symSize: 0x8 }
  - { offset: 0x5323D, size: 0x8, addend: 0x0, symName: __ZN9Steinberg3Vst11AudioEffect14getTailSamplesEv, symObjAddr: 0x1020, symBinAddr: 0xA268, symSize: 0x8 }
  - { offset: 0x53264, size: 0x8, addend: 0x0, symName: __ZThn16_N9Steinberg3Vst11AudioEffect14queryInterfaceEPKcPPv, symObjAddr: 0x1028, symBinAddr: 0xA270, symSize: 0x8 }
  - { offset: 0x532AE, size: 0x8, addend: 0x0, symName: __ZThn16_N9Steinberg3Vst11AudioEffect6addRefEv, symObjAddr: 0x1030, symBinAddr: 0xA278, symSize: 0x8 }
  - { offset: 0x5332F, size: 0x8, addend: 0x0, symName: __ZThn16_N9Steinberg3Vst11AudioEffect7releaseEv, symObjAddr: 0x1038, symBinAddr: 0xA280, symSize: 0x8 }
  - { offset: 0x5339A, size: 0x8, addend: 0x0, symName: __ZThn24_N9Steinberg3Vst11AudioEffect14queryInterfaceEPKcPPv, symObjAddr: 0x1040, symBinAddr: 0xA288, symSize: 0x8 }
  - { offset: 0x533CE, size: 0x8, addend: 0x0, symName: __ZThn24_N9Steinberg3Vst11AudioEffect6addRefEv, symObjAddr: 0x1048, symBinAddr: 0xA290, symSize: 0x8 }
  - { offset: 0x53439, size: 0x8, addend: 0x0, symName: __ZThn24_N9Steinberg3Vst11AudioEffect7releaseEv, symObjAddr: 0x1050, symBinAddr: 0xA298, symSize: 0x8 }
  - { offset: 0x534A4, size: 0x8, addend: 0x0, symName: __ZThn48_N9Steinberg3Vst11AudioEffect14queryInterfaceEPKcPPv, symObjAddr: 0x1058, symBinAddr: 0xA2A0, symSize: 0x8 }
  - { offset: 0x534D8, size: 0x8, addend: 0x0, symName: __ZThn48_N9Steinberg3Vst11AudioEffect6addRefEv, symObjAddr: 0x1060, symBinAddr: 0xA2A8, symSize: 0x8 }
  - { offset: 0x53543, size: 0x8, addend: 0x0, symName: __ZThn48_N9Steinberg3Vst11AudioEffect7releaseEv, symObjAddr: 0x1068, symBinAddr: 0xA2B0, symSize: 0x8 }
  - { offset: 0x535AE, size: 0x8, addend: 0x0, symName: __ZThn272_N9Steinberg3Vst11AudioEffect14queryInterfaceEPKcPPv, symObjAddr: 0x1070, symBinAddr: 0xA2B8, symSize: 0x8 }
  - { offset: 0x535E2, size: 0x8, addend: 0x0, symName: __ZThn272_N9Steinberg3Vst11AudioEffect6addRefEv, symObjAddr: 0x1078, symBinAddr: 0xA2C0, symSize: 0x8 }
  - { offset: 0x5364D, size: 0x8, addend: 0x0, symName: __ZThn272_N9Steinberg3Vst11AudioEffect7releaseEv, symObjAddr: 0x1080, symBinAddr: 0xA2C8, symSize: 0x8 }
  - { offset: 0x536B8, size: 0x8, addend: 0x0, symName: __ZThn272_N9Steinberg3Vst11AudioEffect17getLatencySamplesEv, symObjAddr: 0x1088, symBinAddr: 0xA2D0, symSize: 0x8 }
  - { offset: 0x536CE, size: 0x8, addend: 0x0, symName: __ZThn272_N9Steinberg3Vst11AudioEffect14getTailSamplesEv, symObjAddr: 0x1090, symBinAddr: 0xA2D8, symSize: 0x8 }
  - { offset: 0x536E4, size: 0x8, addend: 0x0, symName: __ZThn280_N9Steinberg3Vst11AudioEffect14queryInterfaceEPKcPPv, symObjAddr: 0x1098, symBinAddr: 0xA2E0, symSize: 0x8 }
  - { offset: 0x53718, size: 0x8, addend: 0x0, symName: __ZThn280_N9Steinberg3Vst11AudioEffect6addRefEv, symObjAddr: 0x10A0, symBinAddr: 0xA2E8, symSize: 0x8 }
  - { offset: 0x53783, size: 0x8, addend: 0x0, symName: __ZThn280_N9Steinberg3Vst11AudioEffect7releaseEv, symObjAddr: 0x10A8, symBinAddr: 0xA2F0, symSize: 0x8 }
  - { offset: 0x5593F, size: 0x8, addend: 0x0, symName: __ZN6VSTGUI27PitchNamesDataBrowserSourceC2EPN9Steinberg3Vst17EditControllerEx1Ei, symObjAddr: 0x0, symBinAddr: 0xA538, symSize: 0x184 }
  - { offset: 0x5C918, size: 0x8, addend: 0x0, symName: __ZN6VSTGUIL11kGreyCColorE, symObjAddr: 0x1518, symBinAddr: 0x174BB0, symSize: 0x0 }
  - { offset: 0x5C932, size: 0x8, addend: 0x0, symName: __ZN6VSTGUIL12kBlackCColorE, symObjAddr: 0x151C, symBinAddr: 0x174BB4, symSize: 0x0 }
  - { offset: 0x6E78B, size: 0x8, addend: 0x0, symName: __ZN6VSTGUI27PitchNamesDataBrowserSource10dbDrawCellEPNS_12CDrawContextERKNS_5CRectEiiiPNS_12CDataBrowserE, symObjAddr: 0x5D0, symBinAddr: 0xAB08, symSize: 0x2AC }
  - { offset: 0x6E7B0, size: 0x8, addend: 0x0, symName: __ZZN6VSTGUI27PitchNamesDataBrowserSource10dbDrawCellEPNS_12CDrawContextERKNS_5CRectEiiiPNS_12CDataBrowserEE9noteNames, symObjAddr: 0x1258, symBinAddr: 0x184D70, symSize: 0x0 }
  - { offset: 0x6F238, size: 0x8, addend: 0x0, symName: __ZN6VSTGUI27PitchNamesDataBrowserSourceC2EPN9Steinberg3Vst17EditControllerEx1Ei, symObjAddr: 0x0, symBinAddr: 0xA538, symSize: 0x184 }
  - { offset: 0x6F3B8, size: 0x8, addend: 0x0, symName: __ZN6VSTGUI27PitchNamesDataBrowserSourceC1EPN9Steinberg3Vst17EditControllerEx1Ei, symObjAddr: 0x184, symBinAddr: 0xA6BC, symSize: 0x144 }
  - { offset: 0x6F4FA, size: 0x8, addend: 0x0, symName: __ZN6VSTGUI27PitchNamesDataBrowserSourceD2Ev, symObjAddr: 0x2C8, symBinAddr: 0xA800, symSize: 0x4 }
  - { offset: 0x6F531, size: 0x8, addend: 0x0, symName: __ZN6VSTGUI27PitchNamesDataBrowserSourceD1Ev, symObjAddr: 0x2CC, symBinAddr: 0xA804, symSize: 0x4 }
  - { offset: 0x6F55C, size: 0x8, addend: 0x0, symName: __ZThn16_N6VSTGUI27PitchNamesDataBrowserSourceD1Ev, symObjAddr: 0x2D0, symBinAddr: 0xA808, symSize: 0x4 }
  - { offset: 0x6F572, size: 0x8, addend: 0x0, symName: __ZN6VSTGUI27PitchNamesDataBrowserSourceD0Ev, symObjAddr: 0x2D4, symBinAddr: 0xA80C, symSize: 0x4 }
  - { offset: 0x6F5B3, size: 0x8, addend: 0x0, symName: __ZThn16_N6VSTGUI27PitchNamesDataBrowserSourceD0Ev, symObjAddr: 0x2D8, symBinAddr: 0xA810, symSize: 0x8 }
  - { offset: 0x6F5E6, size: 0x8, addend: 0x0, symName: __ZN6VSTGUI27PitchNamesDataBrowserSource12dbGetNumRowsEPNS_12CDataBrowserE, symObjAddr: 0x2E0, symBinAddr: 0xA818, symSize: 0x14 }
  - { offset: 0x6F62E, size: 0x8, addend: 0x0, symName: __ZThn16_N6VSTGUI27PitchNamesDataBrowserSource12dbGetNumRowsEPNS_12CDataBrowserE, symObjAddr: 0x2F4, symBinAddr: 0xA82C, symSize: 0x14 }
  - { offset: 0x6F648, size: 0x8, addend: 0x0, symName: __ZThn16_N6VSTGUI27PitchNamesDataBrowserSource12dbGetNumRowsEPNS_12CDataBrowserE, symObjAddr: 0x2F4, symBinAddr: 0xA82C, symSize: 0x14 }
  - { offset: 0x6F663, size: 0x8, addend: 0x0, symName: __ZN6VSTGUI27PitchNamesDataBrowserSource15dbGetNumColumnsEPNS_12CDataBrowserE, symObjAddr: 0x308, symBinAddr: 0xA840, symSize: 0x8 }
  - { offset: 0x6F690, size: 0x8, addend: 0x0, symName: __ZThn16_N6VSTGUI27PitchNamesDataBrowserSource15dbGetNumColumnsEPNS_12CDataBrowserE, symObjAddr: 0x310, symBinAddr: 0xA848, symSize: 0x8 }
  - { offset: 0x6F6A6, size: 0x8, addend: 0x0, symName: __ZN6VSTGUI27PitchNamesDataBrowserSource22dbGetColumnDescriptionEiRdS1_PNS_12CDataBrowserE, symObjAddr: 0x318, symBinAddr: 0xA850, symSize: 0x8 }
  - { offset: 0x6F6EB, size: 0x8, addend: 0x0, symName: __ZThn16_N6VSTGUI27PitchNamesDataBrowserSource22dbGetColumnDescriptionEiRdS1_PNS_12CDataBrowserE, symObjAddr: 0x320, symBinAddr: 0xA858, symSize: 0x8 }
  - { offset: 0x6F738, size: 0x8, addend: 0x0, symName: __ZN6VSTGUI27PitchNamesDataBrowserSource23dbGetCurrentColumnWidthEiPNS_12CDataBrowserE, symObjAddr: 0x328, symBinAddr: 0xA860, symSize: 0x40 }
  - { offset: 0x6F7EB, size: 0x8, addend: 0x0, symName: __ZThn16_N6VSTGUI27PitchNamesDataBrowserSource23dbGetCurrentColumnWidthEiPNS_12CDataBrowserE, symObjAddr: 0x368, symBinAddr: 0xA8A0, symSize: 0x40 }
  - { offset: 0x6F805, size: 0x8, addend: 0x0, symName: __ZThn16_N6VSTGUI27PitchNamesDataBrowserSource23dbGetCurrentColumnWidthEiPNS_12CDataBrowserE, symObjAddr: 0x368, symBinAddr: 0xA8A0, symSize: 0x40 }
  - { offset: 0x6F872, size: 0x8, addend: 0x0, symName: __ZN6VSTGUI27PitchNamesDataBrowserSource23dbSetCurrentColumnWidthEiRKdPNS_12CDataBrowserE, symObjAddr: 0x3A8, symBinAddr: 0xA8E0, symSize: 0x4 }
  - { offset: 0x6F8AF, size: 0x8, addend: 0x0, symName: __ZThn16_N6VSTGUI27PitchNamesDataBrowserSource23dbSetCurrentColumnWidthEiRKdPNS_12CDataBrowserE, symObjAddr: 0x3AC, symBinAddr: 0xA8E4, symSize: 0x4 }
  - { offset: 0x6F8C5, size: 0x8, addend: 0x0, symName: __ZN6VSTGUI27PitchNamesDataBrowserSource14dbGetRowHeightEPNS_12CDataBrowserE, symObjAddr: 0x3B0, symBinAddr: 0xA8E8, symSize: 0x8 }
  - { offset: 0x6F8F2, size: 0x8, addend: 0x0, symName: __ZThn16_N6VSTGUI27PitchNamesDataBrowserSource14dbGetRowHeightEPNS_12CDataBrowserE, symObjAddr: 0x3B8, symBinAddr: 0xA8F0, symSize: 0x8 }
  - { offset: 0x6F92E, size: 0x8, addend: 0x0, symName: __ZN6VSTGUI27PitchNamesDataBrowserSource22dbGetLineWidthAndColorERdRNS_6CColorEPNS_12CDataBrowserE, symObjAddr: 0x3C0, symBinAddr: 0xA8F8, symSize: 0x1C }
  - { offset: 0x6F9B3, size: 0x8, addend: 0x0, symName: __ZThn16_N6VSTGUI27PitchNamesDataBrowserSource22dbGetLineWidthAndColorERdRNS_6CColorEPNS_12CDataBrowserE, symObjAddr: 0x3DC, symBinAddr: 0xA914, symSize: 0x1C }
  - { offset: 0x6FC0D, size: 0x8, addend: 0x0, symName: __ZN6VSTGUI27PitchNamesDataBrowserSource12dbDrawHeaderEPNS_12CDrawContextERKNS_5CRectEiiPNS_12CDataBrowserE, symObjAddr: 0x3F8, symBinAddr: 0xA930, symSize: 0x134 }
  - { offset: 0x6FFD1, size: 0x8, addend: 0x0, symName: __ZThn16_N6VSTGUI27PitchNamesDataBrowserSource12dbDrawHeaderEPNS_12CDrawContextERKNS_5CRectEiiPNS_12CDataBrowserE, symObjAddr: 0x52C, symBinAddr: 0xAA64, symSize: 0x4 }
  - { offset: 0x6FFEB, size: 0x8, addend: 0x0, symName: __ZThn16_N6VSTGUI27PitchNamesDataBrowserSource12dbDrawHeaderEPNS_12CDrawContextERKNS_5CRectEiiPNS_12CDataBrowserE, symObjAddr: 0x52C, symBinAddr: 0xAA64, symSize: 0x4 }
  - { offset: 0x70077, size: 0x8, addend: 0x0, symName: __ZN6VSTGUI27PitchNamesDataBrowserSource12getPitchNameEsRNSt3__112basic_stringIcNS1_11char_traitsIcEENS1_9allocatorIcEEEE, symObjAddr: 0x530, symBinAddr: 0xAA68, symSize: 0xA0 }
  - { offset: 0x7037D, size: 0x8, addend: 0x0, symName: __ZThn16_N6VSTGUI27PitchNamesDataBrowserSource10dbDrawCellEPNS_12CDrawContextERKNS_5CRectEiiiPNS_12CDataBrowserE, symObjAddr: 0x87C, symBinAddr: 0xADB4, symSize: 0x8 }
  - { offset: 0x70479, size: 0x8, addend: 0x0, symName: __ZN6VSTGUI27PitchNamesDataBrowserSource13dbOnMouseDownERKNS_6CPointERKNS_12CButtonStateEiiPNS_12CDataBrowserE, symObjAddr: 0x884, symBinAddr: 0xADBC, symSize: 0x138 }
  - { offset: 0x709B0, size: 0x8, addend: 0x0, symName: __ZThn16_N6VSTGUI27PitchNamesDataBrowserSource13dbOnMouseDownERKNS_6CPointERKNS_12CButtonStateEiiPNS_12CDataBrowserE, symObjAddr: 0x9BC, symBinAddr: 0xAEF4, symSize: 0x1C }
  - { offset: 0x709F1, size: 0x8, addend: 0x0, symName: __ZN6VSTGUI27PitchNamesDataBrowserSource14dbOnMouseMovedERKNS_6CPointERKNS_12CButtonStateEiiPNS_12CDataBrowserE, symObjAddr: 0x9D8, symBinAddr: 0xAF10, symSize: 0x8 }
  - { offset: 0x70A3E, size: 0x8, addend: 0x0, symName: __ZThn16_N6VSTGUI27PitchNamesDataBrowserSource14dbOnMouseMovedERKNS_6CPointERKNS_12CButtonStateEiiPNS_12CDataBrowserE, symObjAddr: 0x9E0, symBinAddr: 0xAF18, symSize: 0x8 }
  - { offset: 0x70A54, size: 0x8, addend: 0x0, symName: __ZN6VSTGUI27PitchNamesDataBrowserSource11dbOnMouseUpERKNS_6CPointERKNS_12CButtonStateEiiPNS_12CDataBrowserE, symObjAddr: 0x9E8, symBinAddr: 0xAF20, symSize: 0x8 }
  - { offset: 0x70AA1, size: 0x8, addend: 0x0, symName: __ZThn16_N6VSTGUI27PitchNamesDataBrowserSource11dbOnMouseUpERKNS_6CPointERKNS_12CButtonStateEiiPNS_12CDataBrowserE, symObjAddr: 0x9F0, symBinAddr: 0xAF28, symSize: 0x8 }
  - { offset: 0x70AB7, size: 0x8, addend: 0x0, symName: __ZN6VSTGUI27PitchNamesDataBrowserSource18dbSelectionChangedEPNS_12CDataBrowserE, symObjAddr: 0x9F8, symBinAddr: 0xAF30, symSize: 0x4 }
  - { offset: 0x70AE4, size: 0x8, addend: 0x0, symName: __ZThn16_N6VSTGUI27PitchNamesDataBrowserSource18dbSelectionChangedEPNS_12CDataBrowserE, symObjAddr: 0x9FC, symBinAddr: 0xAF34, symSize: 0x4 }
  - { offset: 0x70BD4, size: 0x8, addend: 0x0, symName: __ZN6VSTGUI27PitchNamesDataBrowserSource17dbCellTextChangedEiiPKcPNS_12CDataBrowserE, symObjAddr: 0xA00, symBinAddr: 0xAF38, symSize: 0xA8 }
  - { offset: 0x70D08, size: 0x8, addend: 0x0, symName: __ZThn16_N6VSTGUI27PitchNamesDataBrowserSource17dbCellTextChangedEiiPKcPNS_12CDataBrowserE, symObjAddr: 0xAA8, symBinAddr: 0xAFE0, symSize: 0xA8 }
  - { offset: 0x70E8D, size: 0x8, addend: 0x0, symName: __ZN6VSTGUI27PitchNamesDataBrowserSource19dbCellSetupTextEditEiiPNS_9CTextEditEPNS_12CDataBrowserE, symObjAddr: 0xB50, symBinAddr: 0xB088, symSize: 0xAC }
  - { offset: 0x71051, size: 0x8, addend: 0x0, symName: __ZThn16_N6VSTGUI27PitchNamesDataBrowserSource19dbCellSetupTextEditEiiPNS_9CTextEditEPNS_12CDataBrowserE, symObjAddr: 0xBFC, symBinAddr: 0xB134, symSize: 0xAC }
  - { offset: 0x711D3, size: 0x8, addend: 0x0, symName: __ZN6VSTGUI27PitchNamesDataBrowserSource11dbOnKeyDownERK10VstKeyCodePNS_12CDataBrowserE, symObjAddr: 0xCA8, symBinAddr: 0xB1E0, symSize: 0x154 }
  - { offset: 0x716B1, size: 0x8, addend: 0x0, symName: __ZThn16_N6VSTGUI27PitchNamesDataBrowserSource11dbOnKeyDownERK10VstKeyCodePNS_12CDataBrowserE, symObjAddr: 0xDFC, symBinAddr: 0xB334, symSize: 0x8 }
  - { offset: 0x716E5, size: 0x8, addend: 0x0, symName: __ZN6VSTGUI16ReferenceCountedIiE6forgetEv, symObjAddr: 0xE04, symBinAddr: 0xB33C, symSize: 0x50 }
  - { offset: 0x71723, size: 0x8, addend: 0x0, symName: __ZN6VSTGUI16ReferenceCountedIiE8rememberEv, symObjAddr: 0xE54, symBinAddr: 0xB38C, symSize: 0x10 }
  - { offset: 0x71748, size: 0x8, addend: 0x0, symName: __ZN6VSTGUI11CBaseObjectD1Ev, symObjAddr: 0xE64, symBinAddr: 0xB39C, symSize: 0x4 }
  - { offset: 0x71771, size: 0x8, addend: 0x0, symName: __ZN6VSTGUI11CBaseObjectD0Ev, symObjAddr: 0xE68, symBinAddr: 0xB3A0, symSize: 0x4 }
  - { offset: 0x7179A, size: 0x8, addend: 0x0, symName: __ZNK6VSTGUI16ReferenceCountedIiE14getNbReferenceEv, symObjAddr: 0xE6C, symBinAddr: 0xB3A4, symSize: 0x8 }
  - { offset: 0x717C1, size: 0x8, addend: 0x0, symName: __ZN6VSTGUI16ReferenceCountedIiE12beforeDeleteEv, symObjAddr: 0xE74, symBinAddr: 0xB3AC, symSize: 0x4 }
  - { offset: 0x717E6, size: 0x8, addend: 0x0, symName: __ZN6VSTGUI11CBaseObject6notifyEPS0_PKc, symObjAddr: 0xE78, symBinAddr: 0xB3B0, symSize: 0x8 }
  - { offset: 0x7182B, size: 0x8, addend: 0x0, symName: __ZNK6VSTGUI11CBaseObject7newCopyEv, symObjAddr: 0xE80, symBinAddr: 0xB3B8, symSize: 0x8 }
  - { offset: 0x71852, size: 0x8, addend: 0x0, symName: __ZN6VSTGUI16ReferenceCountedIiED1Ev, symObjAddr: 0xE88, symBinAddr: 0xB3C0, symSize: 0x4 }
  - { offset: 0x7187B, size: 0x8, addend: 0x0, symName: __ZN6VSTGUI16ReferenceCountedIiED0Ev, symObjAddr: 0xE8C, symBinAddr: 0xB3C4, symSize: 0x4 }
  - { offset: 0x718A4, size: 0x8, addend: 0x0, symName: __ZN6VSTGUI26DataBrowserDelegateAdapter17dbGetHeaderHeightEPNS_12CDataBrowserE, symObjAddr: 0xE90, symBinAddr: 0xB3C8, symSize: 0xC }
  - { offset: 0x718F2, size: 0x8, addend: 0x0, symName: __ZN6VSTGUI26DataBrowserDelegateAdapter10dbAttachedEPNS_12CDataBrowserE, symObjAddr: 0xE9C, symBinAddr: 0xB3D4, symSize: 0x4 }
  - { offset: 0x71925, size: 0x8, addend: 0x0, symName: __ZN6VSTGUI26DataBrowserDelegateAdapter9dbRemovedEPNS_12CDataBrowserE, symObjAddr: 0xEA0, symBinAddr: 0xB3D8, symSize: 0x4 }
  - { offset: 0x71958, size: 0x8, addend: 0x0, symName: __ZN6VSTGUI26DataBrowserDelegateAdapter20dbOnDragEnterBrowserEPNS_12IDataPackageEPNS_12CDataBrowserE, symObjAddr: 0xEA4, symBinAddr: 0xB3DC, symSize: 0x4 }
  - { offset: 0x71999, size: 0x8, addend: 0x0, symName: __ZN6VSTGUI26DataBrowserDelegateAdapter19dbOnDragExitBrowserEPNS_12IDataPackageEPNS_12CDataBrowserE, symObjAddr: 0xEA8, symBinAddr: 0xB3E0, symSize: 0x4 }
  - { offset: 0x719DA, size: 0x8, addend: 0x0, symName: __ZN6VSTGUI26DataBrowserDelegateAdapter17dbOnDragEnterCellEiiRKNS_6CPointEPNS_12IDataPackageEPNS_12CDataBrowserE, symObjAddr: 0xEAC, symBinAddr: 0xB3E4, symSize: 0x8 }
  - { offset: 0x71A47, size: 0x8, addend: 0x0, symName: __ZN6VSTGUI26DataBrowserDelegateAdapter18dbOnDragMoveInCellEiiRKNS_6CPointEPNS_12IDataPackageEPNS_12CDataBrowserE, symObjAddr: 0xEB4, symBinAddr: 0xB3EC, symSize: 0x8 }
  - { offset: 0x71AB4, size: 0x8, addend: 0x0, symName: __ZN6VSTGUI26DataBrowserDelegateAdapter16dbOnDragExitCellEiiPNS_12IDataPackageEPNS_12CDataBrowserE, symObjAddr: 0xEBC, symBinAddr: 0xB3F4, symSize: 0x4 }
  - { offset: 0x71B11, size: 0x8, addend: 0x0, symName: __ZN6VSTGUI26DataBrowserDelegateAdapter14dbOnDropInCellEiiRKNS_6CPointEPNS_12IDataPackageEPNS_12CDataBrowserE, symObjAddr: 0xEC0, symBinAddr: 0xB3F8, symSize: 0x8 }
  - { offset: 0x71BA4, size: 0x8, addend: 0x0, symName: __ZN6VSTGUI26DataBrowserDelegateAdapter17dbOnKeyboardEventERNS_13KeyboardEventEPNS_12CDataBrowserE, symObjAddr: 0xEC8, symBinAddr: 0xB400, symSize: 0x6C }
  - { offset: 0x71C50, size: 0x8, addend: 0x0, symName: __ZN6VSTGUI26DataBrowserDelegateAdapter22dbGetColumnDescriptionEiRdS1_PNS_12CDataBrowserE, symObjAddr: 0xF34, symBinAddr: 0xB46C, symSize: 0x8 }
  - { offset: 0x71CAF, size: 0x8, addend: 0x0, symName: __ZN6VSTGUI26DataBrowserDelegateAdapter23dbSetCurrentColumnWidthEiRKdPNS_12CDataBrowserE, symObjAddr: 0xF3C, symBinAddr: 0xB474, symSize: 0x4 }
  - { offset: 0x71CFE, size: 0x8, addend: 0x0, symName: __ZN6VSTGUI26DataBrowserDelegateAdapter22dbGetLineWidthAndColorERdRNS_6CColorEPNS_12CDataBrowserE, symObjAddr: 0xF40, symBinAddr: 0xB478, symSize: 0x8 }
  - { offset: 0x71D4F, size: 0x8, addend: 0x0, symName: __ZN6VSTGUI26DataBrowserDelegateAdapter12dbDrawHeaderEPNS_12CDrawContextERKNS_5CRectEiiPNS_12CDataBrowserE, symObjAddr: 0xF48, symBinAddr: 0xB480, symSize: 0x4 }
  - { offset: 0x71DBA, size: 0x8, addend: 0x0, symName: __ZN6VSTGUI26DataBrowserDelegateAdapter13dbOnMouseDownERKNS_6CPointERKNS_12CButtonStateEiiPNS_12CDataBrowserE, symObjAddr: 0xF4C, symBinAddr: 0xB484, symSize: 0x8 }
  - { offset: 0x71E27, size: 0x8, addend: 0x0, symName: __ZN6VSTGUI26DataBrowserDelegateAdapter14dbOnMouseMovedERKNS_6CPointERKNS_12CButtonStateEiiPNS_12CDataBrowserE, symObjAddr: 0xF54, symBinAddr: 0xB48C, symSize: 0x8 }
  - { offset: 0x71E94, size: 0x8, addend: 0x0, symName: __ZN6VSTGUI26DataBrowserDelegateAdapter11dbOnMouseUpERKNS_6CPointERKNS_12CButtonStateEiiPNS_12CDataBrowserE, symObjAddr: 0xF5C, symBinAddr: 0xB494, symSize: 0x8 }
  - { offset: 0x71F01, size: 0x8, addend: 0x0, symName: __ZN6VSTGUI26DataBrowserDelegateAdapter18dbSelectionChangedEPNS_12CDataBrowserE, symObjAddr: 0xF64, symBinAddr: 0xB49C, symSize: 0x4 }
  - { offset: 0x71F34, size: 0x8, addend: 0x0, symName: __ZN6VSTGUI26DataBrowserDelegateAdapter17dbCellTextChangedEiiPKcPNS_12CDataBrowserE, symObjAddr: 0xF68, symBinAddr: 0xB4A0, symSize: 0x4 }
  - { offset: 0x71F91, size: 0x8, addend: 0x0, symName: __ZN6VSTGUI26DataBrowserDelegateAdapter19dbCellSetupTextEditEiiPNS_9CTextEditEPNS_12CDataBrowserE, symObjAddr: 0xF6C, symBinAddr: 0xB4A4, symSize: 0x4 }
  - { offset: 0x71FEE, size: 0x8, addend: 0x0, symName: __ZN6VSTGUI26DataBrowserDelegateAdapterD1Ev, symObjAddr: 0xF70, symBinAddr: 0x15D6AC, symSize: 0x4 }
  - { offset: 0x72019, size: 0x8, addend: 0x0, symName: __ZN6VSTGUI26DataBrowserDelegateAdapterD0Ev, symObjAddr: 0xF74, symBinAddr: 0x15D6B0, symSize: 0x4 }
  - { offset: 0x72044, size: 0x8, addend: 0x0, symName: __ZN6VSTGUI26DataBrowserDelegateAdapter11dbOnKeyDownERK10VstKeyCodePNS_12CDataBrowserE, symObjAddr: 0xF78, symBinAddr: 0xB4A8, symSize: 0x8 }
  - { offset: 0x73F54, size: 0x8, addend: 0x0, symName: _ghInst, symObjAddr: 0x19DF0, symBinAddr: 0x1DF6B8, symSize: 0x0 }
  - { offset: 0x73F7F, size: 0x8, addend: 0x0, symName: _bundleRefCounter, symObjAddr: 0x19DF8, symBinAddr: 0x1DF6C0, symSize: 0x0 }
  - { offset: 0x73F9C, size: 0x8, addend: 0x0, symName: _moduleHandle, symObjAddr: 0x19E00, symBinAddr: 0x1DF6C8, symSize: 0x0 }
  - { offset: 0x73FB4, size: 0x8, addend: 0x0, symName: _gPath, symObjAddr: 0x19E08, symBinAddr: 0x1DF6D0, symSize: 0x0 }
  - { offset: 0x73FE5, size: 0x8, addend: 0x0, symName: _gBundleRefs, symObjAddr: 0x1A608, symBinAddr: 0x1DFED0, symSize: 0x0 }
  - { offset: 0x77AC2, size: 0x8, addend: 0x0, symName: __ZNSt3__120__throw_length_errorB8ne180100EPKc, symObjAddr: 0x2F0, symBinAddr: 0xB7A0, symSize: 0x50 }
  - { offset: 0x78822, size: 0x8, addend: 0x0, symName: __ZSt28__throw_bad_array_new_lengthB8ne180100v, symObjAddr: 0x364, symBinAddr: 0xB814, symSize: 0x28 }
  - { offset: 0x78C41, size: 0x8, addend: 0x0, symName: __ZNSt3__16vectorIP10__CFBundleNS_9allocatorIS2_EEED1B8ne180100Ev, symObjAddr: 0x0, symBinAddr: 0xB4B0, symSize: 0x30 }
  - { offset: 0x790E8, size: 0x8, addend: 0x0, symName: _bundleEntry, symObjAddr: 0x30, symBinAddr: 0xB4E0, symSize: 0x220 }
  - { offset: 0x794FE, size: 0x8, addend: 0x0, symName: _bundleExit, symObjAddr: 0x250, symBinAddr: 0xB700, symSize: 0x8C }
  - { offset: 0x795AB, size: 0x8, addend: 0x0, symName: __ZNKSt3__16vectorIP10__CFBundleNS_9allocatorIS2_EEE20__throw_length_errorB8ne180100Ev, symObjAddr: 0x2DC, symBinAddr: 0xB78C, symSize: 0x14 }
  - { offset: 0x795D5, size: 0x8, addend: 0x0, symName: __ZNSt3__120__throw_length_errorB8ne180100EPKc, symObjAddr: 0x2F0, symBinAddr: 0xB7A0, symSize: 0x50 }
  - { offset: 0x79602, size: 0x8, addend: 0x0, symName: _bundleExit, symObjAddr: 0x250, symBinAddr: 0xB700, symSize: 0x8C }
  - { offset: 0x796C9, size: 0x8, addend: 0x0, symName: __ZNSt12length_errorC1B8ne180100EPKc, symObjAddr: 0x340, symBinAddr: 0xB7F0, symSize: 0x24 }
  - { offset: 0x7B62E, size: 0x8, addend: 0x0, symName: __ZN6VSTGUI9Animation19AlphaValueAnimationC2Efb, symObjAddr: 0x0, symBinAddr: 0x268D4, symSize: 0x58 }
  - { offset: 0x804E1, size: 0x8, addend: 0x0, symName: __ZN6VSTGUI9Animation19AlphaValueAnimationC2Efb, symObjAddr: 0x0, symBinAddr: 0x268D4, symSize: 0x58 }
  - { offset: 0x80534, size: 0x8, addend: 0x0, symName: __ZN6VSTGUI9Animation19AlphaValueAnimationC2Efb, symObjAddr: 0x0, symBinAddr: 0x268D4, symSize: 0x58 }
  - { offset: 0x80575, size: 0x8, addend: 0x0, symName: __ZN6VSTGUI9Animation19AlphaValueAnimationC1Efb, symObjAddr: 0x58, symBinAddr: 0x2692C, symSize: 0x24 }
  - { offset: 0x805D8, size: 0x8, addend: 0x0, symName: __ZN6VSTGUI9Animation19AlphaValueAnimation14animationStartEPNS_5CViewEPKc, symObjAddr: 0x7C, symBinAddr: 0x26950, symSize: 0x28 }
  - { offset: 0x8061C, size: 0x8, addend: 0x0, symName: __ZN6VSTGUI9Animation19AlphaValueAnimation13animationTickEPNS_5CViewEPKcf, symObjAddr: 0xA4, symBinAddr: 0x26978, symSize: 0x1C }
  - { offset: 0x80692, size: 0x8, addend: 0x0, symName: __ZN6VSTGUI9Animation19AlphaValueAnimation17animationFinishedEPNS_5CViewEPKcb, symObjAddr: 0xC0, symBinAddr: 0x26994, symSize: 0x24 }
  - { offset: 0x8072C, size: 0x8, addend: 0x0, symName: __ZN6VSTGUI9Animation17ViewSizeAnimationC2ERKNS_5CRectEb, symObjAddr: 0xE4, symBinAddr: 0x269B8, symSize: 0x68 }
  - { offset: 0x8077E, size: 0x8, addend: 0x0, symName: __ZN6VSTGUI9Animation17ViewSizeAnimationC2ERKNS_5CRectEb, symObjAddr: 0xE4, symBinAddr: 0x269B8, symSize: 0x68 }
  - { offset: 0x807FB, size: 0x8, addend: 0x0, symName: __ZN6VSTGUI9Animation17ViewSizeAnimationC1ERKNS_5CRectEb, symObjAddr: 0x14C, symBinAddr: 0x26A20, symSize: 0x38 }
  - { offset: 0x80899, size: 0x8, addend: 0x0, symName: __ZN6VSTGUI9Animation17ViewSizeAnimation14animationStartEPNS_5CViewEPKc, symObjAddr: 0x184, symBinAddr: 0x26A58, symSize: 0x30 }
  - { offset: 0x80904, size: 0x8, addend: 0x0, symName: __ZN6VSTGUI9Animation17ViewSizeAnimation17animationFinishedEPNS_5CViewEPKcb, symObjAddr: 0x1B4, symBinAddr: 0x26A88, symSize: 0xD8 }
  - { offset: 0x809D3, size: 0x8, addend: 0x0, symName: __ZN6VSTGUI9Animation17ViewSizeAnimation13animationTickEPNS_5CViewEPKcf, symObjAddr: 0x28C, symBinAddr: 0x26B60, symSize: 0xE0 }
  - { offset: 0x80B8C, size: 0x8, addend: 0x0, symName: __ZN6VSTGUI9Animation21ExchangeViewAnimationC2EPNS_5CViewES3_NS1_14AnimationStyleE, symObjAddr: 0x36C, symBinAddr: 0x26C40, symSize: 0x198 }
  - { offset: 0x80E80, size: 0x8, addend: 0x0, symName: __ZN6VSTGUI9Animation21ExchangeViewAnimation4initEv, symObjAddr: 0x504, symBinAddr: 0x26DD8, symSize: 0x288 }
  - { offset: 0x81599, size: 0x8, addend: 0x0, symName: __ZN6VSTGUI9Animation21ExchangeViewAnimationC1EPNS_5CViewES3_NS1_14AnimationStyleE, symObjAddr: 0x78C, symBinAddr: 0x27060, symSize: 0x168 }
  - { offset: 0x81861, size: 0x8, addend: 0x0, symName: __ZN6VSTGUI9Animation21ExchangeViewAnimationD2Ev, symObjAddr: 0x8F4, symBinAddr: 0x271C8, symSize: 0x6C }
  - { offset: 0x81926, size: 0x8, addend: 0x0, symName: __ZN6VSTGUI9Animation21ExchangeViewAnimationD1Ev, symObjAddr: 0x960, symBinAddr: 0x27234, symSize: 0x60 }
  - { offset: 0x819EF, size: 0x8, addend: 0x0, symName: __ZThn8_N6VSTGUI9Animation21ExchangeViewAnimationD1Ev, symObjAddr: 0x9C0, symBinAddr: 0x27294, symSize: 0x60 }
  - { offset: 0x81AA7, size: 0x8, addend: 0x0, symName: __ZN6VSTGUI9Animation21ExchangeViewAnimationD0Ev, symObjAddr: 0xA20, symBinAddr: 0x272F4, symSize: 0x60 }
  - { offset: 0x81B87, size: 0x8, addend: 0x0, symName: __ZThn8_N6VSTGUI9Animation21ExchangeViewAnimationD0Ev, symObjAddr: 0xA80, symBinAddr: 0x27354, symSize: 0x68 }
  - { offset: 0x81C5E, size: 0x8, addend: 0x0, symName: __ZN6VSTGUI9Animation21ExchangeViewAnimation14updateViewSizeEPNS_5CViewERKNS_5CRectE, symObjAddr: 0xAE8, symBinAddr: 0x273BC, symSize: 0x68 }
  - { offset: 0x81D2D, size: 0x8, addend: 0x0, symName: __ZN6VSTGUI9Animation21ExchangeViewAnimation16doPushInFromLeftEf, symObjAddr: 0xB50, symBinAddr: 0x27424, symSize: 0xBC }
  - { offset: 0x81E73, size: 0x8, addend: 0x0, symName: __ZN6VSTGUI9Animation21ExchangeViewAnimation17doPushInFromRightEf, symObjAddr: 0xC0C, symBinAddr: 0x274E0, symSize: 0xB4 }
  - { offset: 0x81FD7, size: 0x8, addend: 0x0, symName: __ZN6VSTGUI9Animation21ExchangeViewAnimation15doPushInFromTopEf, symObjAddr: 0xCC0, symBinAddr: 0x27594, symSize: 0xBC }
  - { offset: 0x8211D, size: 0x8, addend: 0x0, symName: __ZN6VSTGUI9Animation21ExchangeViewAnimation18doPushInFromBottomEf, symObjAddr: 0xD7C, symBinAddr: 0x27650, symSize: 0xB4 }
  - { offset: 0x82297, size: 0x8, addend: 0x0, symName: __ZN6VSTGUI9Animation21ExchangeViewAnimation19doPushInOutFromLeftEf, symObjAddr: 0xE30, symBinAddr: 0x27704, symSize: 0x14C }
  - { offset: 0x824FF, size: 0x8, addend: 0x0, symName: __ZN6VSTGUI9Animation21ExchangeViewAnimation20doPushInOutFromRightEf, symObjAddr: 0xF7C, symBinAddr: 0x27850, symSize: 0x140 }
  - { offset: 0x8278B, size: 0x8, addend: 0x0, symName: __ZN6VSTGUI9Animation21ExchangeViewAnimation11doAlphaFadeEf, symObjAddr: 0x10BC, symBinAddr: 0x27990, symSize: 0x54 }
  - { offset: 0x82813, size: 0x8, addend: 0x0, symName: __ZN6VSTGUI9Animation21ExchangeViewAnimation14animationStartEPNS_5CViewEPKc, symObjAddr: 0x1110, symBinAddr: 0x279E4, symSize: 0x4 }
  - { offset: 0x82881, size: 0x8, addend: 0x0, symName: __ZN6VSTGUI9Animation21ExchangeViewAnimation13animationTickEPNS_5CViewEPKcf, symObjAddr: 0x1114, symBinAddr: 0x279E8, symSize: 0x33C }
  - { offset: 0x82F0E, size: 0x8, addend: 0x0, symName: __ZN6VSTGUI9Animation21ExchangeViewAnimation17animationFinishedEPNS_5CViewEPKcb, symObjAddr: 0x1450, symBinAddr: 0x27D24, symSize: 0x68 }
  - { offset: 0x82FEC, size: 0x8, addend: 0x0, symName: __ZN6VSTGUI9Animation21ControlValueAnimationC1Efb, symObjAddr: 0x1510, symBinAddr: 0x27D8C, symSize: 0x24 }
  - { offset: 0x83055, size: 0x8, addend: 0x0, symName: __ZN6VSTGUI9Animation21ControlValueAnimation14animationStartEPNS_5CViewEPKc, symObjAddr: 0x1534, symBinAddr: 0x27DB0, symSize: 0x54 }
  - { offset: 0x830B9, size: 0x8, addend: 0x0, symName: __ZN6VSTGUI9Animation21ControlValueAnimation13animationTickEPNS_5CViewEPKcf, symObjAddr: 0x1588, symBinAddr: 0x27E04, symSize: 0x9C }
  - { offset: 0x8316D, size: 0x8, addend: 0x0, symName: __ZN6VSTGUI9Animation21ControlValueAnimation17animationFinishedEPNS_5CViewEPKcb, symObjAddr: 0x1624, symBinAddr: 0x27EA0, symSize: 0x6C }
  - { offset: 0x831E3, size: 0x8, addend: 0x0, symName: __ZN6VSTGUI9Animation19AlphaValueAnimationD1Ev, symObjAddr: 0x1704, symBinAddr: 0x27F0C, symSize: 0x4 }
  - { offset: 0x8320E, size: 0x8, addend: 0x0, symName: __ZN6VSTGUI9Animation19AlphaValueAnimationD0Ev, symObjAddr: 0x1708, symBinAddr: 0x27F10, symSize: 0x4 }
  - { offset: 0x8322E, size: 0x8, addend: 0x0, symName: __ZThn8_N6VSTGUI9Animation19AlphaValueAnimationD1Ev, symObjAddr: 0x170C, symBinAddr: 0x27F14, symSize: 0x4 }
  - { offset: 0x83265, size: 0x8, addend: 0x0, symName: __ZThn8_N6VSTGUI9Animation19AlphaValueAnimationD0Ev, symObjAddr: 0x1710, symBinAddr: 0x27F18, symSize: 0x8 }
  - { offset: 0x83298, size: 0x8, addend: 0x0, symName: __ZN6VSTGUI9Animation17ViewSizeAnimationD1Ev, symObjAddr: 0x1718, symBinAddr: 0x27F20, symSize: 0x4 }
  - { offset: 0x832C3, size: 0x8, addend: 0x0, symName: __ZN6VSTGUI9Animation17ViewSizeAnimationD0Ev, symObjAddr: 0x171C, symBinAddr: 0x27F24, symSize: 0x4 }
  - { offset: 0x832E3, size: 0x8, addend: 0x0, symName: __ZThn8_N6VSTGUI9Animation17ViewSizeAnimationD1Ev, symObjAddr: 0x1720, symBinAddr: 0x27F28, symSize: 0x4 }
  - { offset: 0x8331A, size: 0x8, addend: 0x0, symName: __ZThn8_N6VSTGUI9Animation17ViewSizeAnimationD0Ev, symObjAddr: 0x1724, symBinAddr: 0x27F2C, symSize: 0x8 }
  - { offset: 0x8334D, size: 0x8, addend: 0x0, symName: __ZN6VSTGUI9Animation21ControlValueAnimationD1Ev, symObjAddr: 0x172C, symBinAddr: 0x27F34, symSize: 0x4 }
  - { offset: 0x83378, size: 0x8, addend: 0x0, symName: __ZN6VSTGUI9Animation21ControlValueAnimationD0Ev, symObjAddr: 0x1730, symBinAddr: 0x27F38, symSize: 0x4 }
  - { offset: 0x83398, size: 0x8, addend: 0x0, symName: __ZThn8_N6VSTGUI9Animation21ControlValueAnimationD1Ev, symObjAddr: 0x1734, symBinAddr: 0x27F3C, symSize: 0x4 }
  - { offset: 0x833CF, size: 0x8, addend: 0x0, symName: __ZThn8_N6VSTGUI9Animation21ControlValueAnimationD0Ev, symObjAddr: 0x1738, symBinAddr: 0x27F40, symSize: 0x8 }
  - { offset: 0x83402, size: 0x8, addend: 0x0, symName: __ZN6VSTGUI9Animation16IAnimationTargetD1Ev, symObjAddr: 0x1740, symBinAddr: 0x15D7F0, symSize: 0x4 }
  - { offset: 0x8342B, size: 0x8, addend: 0x0, symName: __ZN6VSTGUI9Animation16IAnimationTargetD0Ev, symObjAddr: 0x1744, symBinAddr: 0x15D7F4, symSize: 0x4 }
  - { offset: 0x8534F, size: 0x8, addend: 0x0, symName: __ZN6VSTGUI9Animation6Detail5Timer9gInstanceE, symObjAddr: 0x81CB0, symBinAddr: 0x1E03F0, symSize: 0x0 }
  - { offset: 0x85623, size: 0x8, addend: 0x0, symName: __ZN6VSTGUI9Animation21kMsgAnimationFinishedE, symObjAddr: 0x3528, symBinAddr: 0x1B9888, symSize: 0x0 }
  - { offset: 0x86815, size: 0x8, addend: 0x0, symName: __ZN6VSTGUI9makeOwnedINS_9Animation6Detail9AnimationEJRPNS_5CViewERPKcRPNS1_16IAnimationTargetERPNS1_15ITimingFunctionENSt3__18functionIFvS5_S8_SB_EEERbEEENS_13SharedPointerIT_EEDpOT0_, symObjAddr: 0xA40, symBinAddr: 0x28978, symSize: 0x214 }
  - { offset: 0x93B00, size: 0x8, addend: 0x0, symName: __ZN6VSTGUI9Animation6Detail5TimerC1Ev, symObjAddr: 0x15E0, symBinAddr: 0x292A8, symSize: 0x15C }
  - { offset: 0x9418E, size: 0x8, addend: 0x0, symName: __ZN6VSTGUI9Animation8Animator12addAnimationEPNS_5CViewEPKcPNS0_16IAnimationTargetEPNS0_15ITimingFunctionEPNS_11CBaseObjectE, symObjAddr: 0xC54, symBinAddr: 0x28B8C, symSize: 0x23C }
  - { offset: 0x94C3B, size: 0x8, addend: 0x0, symName: __ZN6VSTGUI9Animation6Detail9AnimationC2EPNS_5CViewERKNSt3__112basic_stringIcNS5_11char_traitsIcEENS5_9allocatorIcEEEEPNS0_16IAnimationTargetEPNS0_15ITimingFunctionEONS5_8functionIFvS4_PKcSF_EEEb, symObjAddr: 0x0, symBinAddr: 0x27F48, symSize: 0x11C }
  - { offset: 0x950A3, size: 0x8, addend: 0x0, symName: __ZN6VSTGUI9Animation6Detail9AnimationC1EPNS_5CViewERKNSt3__112basic_stringIcNS5_11char_traitsIcEENS5_9allocatorIcEEEEPNS0_16IAnimationTargetEPNS0_15ITimingFunctionEONS5_8functionIFvS4_PKcSF_EEEb, symObjAddr: 0x11C, symBinAddr: 0x28064, symSize: 0xFC }
  - { offset: 0x954FD, size: 0x8, addend: 0x0, symName: __ZN6VSTGUI9Animation6Detail9AnimationD2Ev, symObjAddr: 0x218, symBinAddr: 0x28160, symSize: 0x190 }
  - { offset: 0x958B9, size: 0x8, addend: 0x0, symName: __ZN6VSTGUI9Animation6Detail9AnimationD1Ev, symObjAddr: 0x3B8, symBinAddr: 0x282F0, symSize: 0xC }
  - { offset: 0x9590A, size: 0x8, addend: 0x0, symName: __ZN6VSTGUI9Animation6Detail9AnimationD0Ev, symObjAddr: 0x3C4, symBinAddr: 0x282FC, symSize: 0x1C }
  - { offset: 0x95B96, size: 0x8, addend: 0x0, symName: __ZN6VSTGUI9Animation8AnimatorC2Ev, symObjAddr: 0x3E0, symBinAddr: 0x28318, symSize: 0x78 }
  - { offset: 0x95DBE, size: 0x8, addend: 0x0, symName: __ZN6VSTGUI9Animation8AnimatorC1Ev, symObjAddr: 0x458, symBinAddr: 0x28390, symSize: 0x5C }
  - { offset: 0x96273, size: 0x8, addend: 0x0, symName: __ZN6VSTGUI9Animation8AnimatorD2Ev, symObjAddr: 0x4B4, symBinAddr: 0x283EC, symSize: 0xC8 }
  - { offset: 0x9683B, size: 0x8, addend: 0x0, symName: __ZNKSt3__114default_deleteIN6VSTGUI9Animation8Animator4ImplEEclB8ne180100EPS4_, symObjAddr: 0x1C70, symBinAddr: 0x297FC, symSize: 0xD8 }
  - { offset: 0x96C06, size: 0x8, addend: 0x0, symName: __ZN6VSTGUI9Animation8AnimatorD1Ev, symObjAddr: 0x57C, symBinAddr: 0x284B4, symSize: 0xC }
  - { offset: 0x96C59, size: 0x8, addend: 0x0, symName: __ZN6VSTGUI9Animation8AnimatorD0Ev, symObjAddr: 0x588, symBinAddr: 0x284C0, symSize: 0x1C }
  - { offset: 0x96D5C, size: 0x8, addend: 0x0, symName: __ZN6VSTGUI9Animation8Animator12addAnimationEPNS_5CViewEPKcPNS0_16IAnimationTargetEPNS0_15ITimingFunctionENSt3__18functionIFvS3_S5_S7_EEEb, symObjAddr: 0x5A4, symBinAddr: 0x284DC, symSize: 0x134 }
  - { offset: 0x970FE, size: 0x8, addend: 0x0, symName: __ZN6VSTGUI9Animation8Animator15removeAnimationEPNS_5CViewEPKc, symObjAddr: 0x6D8, symBinAddr: 0x28610, symSize: 0x26C }
  - { offset: 0x9780C, size: 0x8, addend: 0x0, symName: __ZN6VSTGUI12DispatchListINS_13SharedPointerINS_9Animation6Detail9AnimationEEEE3addEOS5_, symObjAddr: 0x944, symBinAddr: 0x2887C, symSize: 0xFC }
  - { offset: 0x9819B, size: 0x8, addend: 0x0, symName: __ZN6VSTGUI12DispatchListINS_13SharedPointerINS_9Animation6Detail9AnimationEEEE11postForEachEv, symObjAddr: 0x2554, symBinAddr: 0x2A0B0, symSize: 0x2C4 }
  - { offset: 0x98FBF, size: 0x8, addend: 0x0, symName: __ZNSt3__16vectorIN6VSTGUI13SharedPointerINS1_9Animation6Detail9AnimationEEENS_9allocatorIS6_EEE24__emplace_back_slow_pathIJS6_EEEPS6_DpOT_, symObjAddr: 0x1DBC, symBinAddr: 0x29948, symSize: 0x1A0 }
  - { offset: 0x99511, size: 0x8, addend: 0x0, symName: __ZNSt3__16vectorINS_4pairIbN6VSTGUI13SharedPointerINS2_9Animation6Detail9AnimationEEEEENS_9allocatorIS8_EEE24__emplace_back_slow_pathIJS8_EEEPS8_DpOT_, symObjAddr: 0x1F70, symBinAddr: 0x29AE8, symSize: 0x124 }
  - { offset: 0x9A1C7, size: 0x8, addend: 0x0, symName: __ZNSt3__110__function12__value_funcIFvPN6VSTGUI5CViewEPKcPNS2_9Animation16IAnimationTargetEEE4swapB8ne180100ERSB_, symObjAddr: 0x23B4, symBinAddr: 0x29F10, symSize: 0x1A0 }
  - { offset: 0x9A2FD, size: 0x8, addend: 0x0, symName: __ZN6VSTGUI9Animation8Animator12addAnimationEPNS_5CViewEPKcPNS0_16IAnimationTargetEPNS0_15ITimingFunctionEPNS_11CBaseObjectE.cold.1, symObjAddr: 0x28A0, symBinAddr: 0x15D7F8, symSize: 0x40 }
  - { offset: 0x9A371, size: 0x8, addend: 0x0, symName: __ZN6VSTGUI9Animation8Animator16removeAnimationsEPNS_5CViewE, symObjAddr: 0xE90, symBinAddr: 0x28DC8, symSize: 0x1C0 }
  - { offset: 0x9A9C1, size: 0x8, addend: 0x0, symName: __ZN6VSTGUI9Animation8Animator7onTimerEv, symObjAddr: 0x1050, symBinAddr: 0x28F88, symSize: 0x320 }
  - { offset: 0x9BBD8, size: 0x8, addend: 0x0, symName: __ZNSt3__14listIPN6VSTGUI9Animation8AnimatorENS_9allocatorIS4_EEED1Ev, symObjAddr: 0x173C, symBinAddr: 0x29404, symSize: 0x60 }
  - { offset: 0x9BDDC, size: 0x8, addend: 0x0, symName: __ZN6VSTGUI9Animation6Detail5TimerD1Ev, symObjAddr: 0x179C, symBinAddr: 0x29464, symSize: 0xC }
  - { offset: 0x9BE12, size: 0x8, addend: 0x0, symName: __ZN6VSTGUI9Animation6Detail5TimerD2Ev, symObjAddr: 0x1A58, symBinAddr: 0x296F8, symSize: 0x104 }
  - { offset: 0x9C265, size: 0x8, addend: 0x0, symName: __ZN6VSTGUI9Animation6Detail5TimerD0Ev, symObjAddr: 0x17A8, symBinAddr: 0x29470, symSize: 0x1C }
  - { offset: 0x9C2BF, size: 0x8, addend: 0x0, symName: __ZNSt3__110__function6__funcIZN6VSTGUI9Animation6Detail5TimerC1EvEUlPNS2_12CVSTGUITimerEE_NS_9allocatorIS8_EEFvS7_EED1Ev, symObjAddr: 0x17C4, symBinAddr: 0x2948C, symSize: 0x4 }
  - { offset: 0x9C2EA, size: 0x8, addend: 0x0, symName: __ZNSt3__110__function6__funcIZN6VSTGUI9Animation6Detail5TimerC1EvEUlPNS2_12CVSTGUITimerEE_NS_9allocatorIS8_EEFvS7_EED0Ev, symObjAddr: 0x17C8, symBinAddr: 0x29490, symSize: 0x4 }
  - { offset: 0x9C4FC, size: 0x8, addend: 0x0, symName: __ZNKSt3__110__function6__funcIZN6VSTGUI9Animation6Detail5TimerC1EvEUlPNS2_12CVSTGUITimerEE_NS_9allocatorIS8_EEFvS7_EE7__cloneEv, symObjAddr: 0x17CC, symBinAddr: 0x29494, symSize: 0x34 }
  - { offset: 0x9C802, size: 0x8, addend: 0x0, symName: __ZNKSt3__110__function6__funcIZN6VSTGUI9Animation6Detail5TimerC1EvEUlPNS2_12CVSTGUITimerEE_NS_9allocatorIS8_EEFvS7_EE7__cloneEPNS0_6__baseISB_EE, symObjAddr: 0x1800, symBinAddr: 0x294C8, symSize: 0x14 }
  - { offset: 0x9C83B, size: 0x8, addend: 0x0, symName: __ZNKSt3__110__function6__funcIZN6VSTGUI9Animation6Detail5TimerC1EvEUlPNS2_12CVSTGUITimerEE_NS_9allocatorIS8_EEFvS7_EE7__cloneEPNS0_6__baseISB_EE, symObjAddr: 0x1800, symBinAddr: 0x294C8, symSize: 0x14 }
  - { offset: 0x9C86A, size: 0x8, addend: 0x0, symName: __ZNKSt3__110__function6__funcIZN6VSTGUI9Animation6Detail5TimerC1EvEUlPNS2_12CVSTGUITimerEE_NS_9allocatorIS8_EEFvS7_EE7__cloneEPNS0_6__baseISB_EE, symObjAddr: 0x1800, symBinAddr: 0x294C8, symSize: 0x14 }
  - { offset: 0x9C899, size: 0x8, addend: 0x0, symName: __ZNKSt3__110__function6__funcIZN6VSTGUI9Animation6Detail5TimerC1EvEUlPNS2_12CVSTGUITimerEE_NS_9allocatorIS8_EEFvS7_EE7__cloneEPNS0_6__baseISB_EE, symObjAddr: 0x1800, symBinAddr: 0x294C8, symSize: 0x14 }
  - { offset: 0x9C8AE, size: 0x8, addend: 0x0, symName: __ZNKSt3__110__function6__funcIZN6VSTGUI9Animation6Detail5TimerC1EvEUlPNS2_12CVSTGUITimerEE_NS_9allocatorIS8_EEFvS7_EE7__cloneEPNS0_6__baseISB_EE, symObjAddr: 0x1800, symBinAddr: 0x294C8, symSize: 0x14 }
  - { offset: 0x9C8C2, size: 0x8, addend: 0x0, symName: __ZNKSt3__110__function6__funcIZN6VSTGUI9Animation6Detail5TimerC1EvEUlPNS2_12CVSTGUITimerEE_NS_9allocatorIS8_EEFvS7_EE7__cloneEPNS0_6__baseISB_EE, symObjAddr: 0x1800, symBinAddr: 0x294C8, symSize: 0x14 }
  - { offset: 0x9C8D6, size: 0x8, addend: 0x0, symName: __ZNKSt3__110__function6__funcIZN6VSTGUI9Animation6Detail5TimerC1EvEUlPNS2_12CVSTGUITimerEE_NS_9allocatorIS8_EEFvS7_EE7__cloneEPNS0_6__baseISB_EE, symObjAddr: 0x1800, symBinAddr: 0x294C8, symSize: 0x14 }
  - { offset: 0x9C8EB, size: 0x8, addend: 0x0, symName: __ZNKSt3__110__function6__funcIZN6VSTGUI9Animation6Detail5TimerC1EvEUlPNS2_12CVSTGUITimerEE_NS_9allocatorIS8_EEFvS7_EE7__cloneEPNS0_6__baseISB_EE, symObjAddr: 0x1800, symBinAddr: 0x294C8, symSize: 0x14 }
  - { offset: 0x9C903, size: 0x8, addend: 0x0, symName: __ZNSt3__110__function6__funcIZN6VSTGUI9Animation6Detail5TimerC1EvEUlPNS2_12CVSTGUITimerEE_NS_9allocatorIS8_EEFvS7_EE7destroyEv, symObjAddr: 0x1814, symBinAddr: 0x294DC, symSize: 0x4 }
  - { offset: 0x9C956, size: 0x8, addend: 0x0, symName: __ZNSt3__110__function6__funcIZN6VSTGUI9Animation6Detail5TimerC1EvEUlPNS2_12CVSTGUITimerEE_NS_9allocatorIS8_EEFvS7_EE18destroy_deallocateEv, symObjAddr: 0x1818, symBinAddr: 0x294E0, symSize: 0x4 }
  - { offset: 0x9C98D, size: 0x8, addend: 0x0, symName: __ZNSt3__110__function6__funcIZN6VSTGUI9Animation6Detail5TimerC1EvEUlPNS2_12CVSTGUITimerEE_NS_9allocatorIS8_EEFvS7_EE18destroy_deallocateEv, symObjAddr: 0x1818, symBinAddr: 0x294E0, symSize: 0x4 }
  - { offset: 0x9C9AF, size: 0x8, addend: 0x0, symName: __ZNSt3__110__function6__funcIZN6VSTGUI9Animation6Detail5TimerC1EvEUlPNS2_12CVSTGUITimerEE_NS_9allocatorIS8_EEFvS7_EE18destroy_deallocateEv, symObjAddr: 0x1818, symBinAddr: 0x294E0, symSize: 0x4 }
  - { offset: 0x9C9DB, size: 0x8, addend: 0x0, symName: __ZNSt3__110__function6__funcIZN6VSTGUI9Animation6Detail5TimerC1EvEUlPNS2_12CVSTGUITimerEE_NS_9allocatorIS8_EEFvS7_EE18destroy_deallocateEv, symObjAddr: 0x1818, symBinAddr: 0x294E0, symSize: 0x4 }
  - { offset: 0x9CA02, size: 0x8, addend: 0x0, symName: __ZNSt3__110__function6__funcIZN6VSTGUI9Animation6Detail5TimerC1EvEUlPNS2_12CVSTGUITimerEE_NS_9allocatorIS8_EEFvS7_EE18destroy_deallocateEv, symObjAddr: 0x1818, symBinAddr: 0x294E0, symSize: 0x4 }
  - { offset: 0x9CAA9, size: 0x8, addend: 0x0, symName: __ZNSt3__110__function6__funcIZN6VSTGUI9Animation6Detail5TimerC1EvEUlPNS2_12CVSTGUITimerEE_NS_9allocatorIS8_EEFvS7_EEclEOS7_, symObjAddr: 0x181C, symBinAddr: 0x294E4, symSize: 0x8 }
  - { offset: 0x9CB48, size: 0x8, addend: 0x0, symName: __ZN6VSTGUI9Animation6Detail5Timer7onTimerEv, symObjAddr: 0x18C4, symBinAddr: 0x29564, symSize: 0x194 }
  - { offset: 0x9D16D, size: 0x8, addend: 0x0, symName: __ZNKSt3__110__function6__funcIZN6VSTGUI9Animation6Detail5TimerC1EvEUlPNS2_12CVSTGUITimerEE_NS_9allocatorIS8_EEFvS7_EE6targetERKSt9type_info, symObjAddr: 0x1824, symBinAddr: 0x294EC, symSize: 0x6C }
  - { offset: 0x9D221, size: 0x8, addend: 0x0, symName: __ZNKSt3__110__function6__funcIZN6VSTGUI9Animation6Detail5TimerC1EvEUlPNS2_12CVSTGUITimerEE_NS_9allocatorIS8_EEFvS7_EE11target_typeEv, symObjAddr: 0x1890, symBinAddr: 0x29558, symSize: 0xC }
  - { offset: 0x9D612, size: 0x8, addend: 0x0, symName: __ZNSt3__16vectorIN6VSTGUI13SharedPointerINS1_9Animation6Detail9AnimationEEENS_9allocatorIS6_EEED1B8ne180100Ev, symObjAddr: 0x1D48, symBinAddr: 0x298D4, symSize: 0x74 }
  - { offset: 0x9D9AF, size: 0x8, addend: 0x0, symName: __ZNSt3__16vectorINS_4pairIbN6VSTGUI13SharedPointerINS2_9Animation6Detail9AnimationEEEEENS_9allocatorIS8_EEE24__emplace_back_slow_pathIJS8_EEEPS8_DpOT_, symObjAddr: 0x1F70, symBinAddr: 0x29AE8, symSize: 0x124 }
  - { offset: 0x9DB9A, size: 0x8, addend: 0x0, symName: '__ZNSt3__110__function6__funcIZN6VSTGUI9Animation8Animator12addAnimationEPNS2_5CViewEPKcPNS3_16IAnimationTargetEPNS3_15ITimingFunctionEPNS2_11CBaseObjectEE3$_0NS_9allocatorISF_EEFvS6_S8_SA_EED1Ev', symObjAddr: 0x20A8, symBinAddr: 0x29C0C, symSize: 0x44 }
  - { offset: 0x9DC8C, size: 0x8, addend: 0x0, symName: '__ZNSt3__110__function6__funcIZN6VSTGUI9Animation8Animator12addAnimationEPNS2_5CViewEPKcPNS3_16IAnimationTargetEPNS3_15ITimingFunctionEPNS2_11CBaseObjectEE3$_0NS_9allocatorISF_EEFvS6_S8_SA_EED1Ev', symObjAddr: 0x20A8, symBinAddr: 0x29C0C, symSize: 0x44 }
  - { offset: 0x9DDBE, size: 0x8, addend: 0x0, symName: '__ZNSt3__110__function6__funcIZN6VSTGUI9Animation8Animator12addAnimationEPNS2_5CViewEPKcPNS3_16IAnimationTargetEPNS3_15ITimingFunctionEPNS2_11CBaseObjectEE3$_0NS_9allocatorISF_EEFvS6_S8_SA_EED0Ev', symObjAddr: 0x20EC, symBinAddr: 0x29C50, symSize: 0x44 }
  - { offset: 0x9E121, size: 0x8, addend: 0x0, symName: '__ZNKSt3__110__function6__funcIZN6VSTGUI9Animation8Animator12addAnimationEPNS2_5CViewEPKcPNS3_16IAnimationTargetEPNS3_15ITimingFunctionEPNS2_11CBaseObjectEE3$_0NS_9allocatorISF_EEFvS6_S8_SA_EE7__cloneEv', symObjAddr: 0x2130, symBinAddr: 0x29C94, symSize: 0x50 }
  - { offset: 0x9E44F, size: 0x8, addend: 0x0, symName: '__ZNKSt3__110__function6__funcIZN6VSTGUI9Animation8Animator12addAnimationEPNS2_5CViewEPKcPNS3_16IAnimationTargetEPNS3_15ITimingFunctionEPNS2_11CBaseObjectEE3$_0NS_9allocatorISF_EEFvS6_S8_SA_EE7__cloneEPNS0_6__baseISI_EE', symObjAddr: 0x2180, symBinAddr: 0x29CE4, symSize: 0x34 }
  - { offset: 0x9E5AD, size: 0x8, addend: 0x0, symName: '__ZNSt3__110__function6__funcIZN6VSTGUI9Animation8Animator12addAnimationEPNS2_5CViewEPKcPNS3_16IAnimationTargetEPNS3_15ITimingFunctionEPNS2_11CBaseObjectEE3$_0NS_9allocatorISF_EEFvS6_S8_SA_EE7destroyEv', symObjAddr: 0x21B4, symBinAddr: 0x29D18, symSize: 0x28 }
  - { offset: 0x9E680, size: 0x8, addend: 0x0, symName: '__ZNSt3__110__function6__funcIZN6VSTGUI9Animation8Animator12addAnimationEPNS2_5CViewEPKcPNS3_16IAnimationTargetEPNS3_15ITimingFunctionEPNS2_11CBaseObjectEE3$_0NS_9allocatorISF_EEFvS6_S8_SA_EE18destroy_deallocateEv', symObjAddr: 0x21DC, symBinAddr: 0x29D40, symSize: 0x38 }
  - { offset: 0x9E956, size: 0x8, addend: 0x0, symName: '__ZNSt3__110__function6__funcIZN6VSTGUI9Animation8Animator12addAnimationEPNS2_5CViewEPKcPNS3_16IAnimationTargetEPNS3_15ITimingFunctionEPNS2_11CBaseObjectEE3$_0NS_9allocatorISF_EEFvS6_S8_SA_EEclEOS6_OS8_OSA_', symObjAddr: 0x2214, symBinAddr: 0x29D78, symSize: 0x110 }
  - { offset: 0x9EFBA, size: 0x8, addend: 0x0, symName: '__ZNKSt3__110__function6__funcIZN6VSTGUI9Animation8Animator12addAnimationEPNS2_5CViewEPKcPNS3_16IAnimationTargetEPNS3_15ITimingFunctionEPNS2_11CBaseObjectEE3$_0NS_9allocatorISF_EEFvS6_S8_SA_EE6targetERKSt9type_info', symObjAddr: 0x2324, symBinAddr: 0x29E88, symSize: 0x6C }
  - { offset: 0x9EFCC, size: 0x8, addend: 0x0, symName: '__ZNKSt3__110__function6__funcIZN6VSTGUI9Animation8Animator12addAnimationEPNS2_5CViewEPKcPNS3_16IAnimationTargetEPNS3_15ITimingFunctionEPNS2_11CBaseObjectEE3$_0NS_9allocatorISF_EEFvS6_S8_SA_EE6targetERKSt9type_info', symObjAddr: 0x2324, symBinAddr: 0x29E88, symSize: 0x6C }
  - { offset: 0x9F069, size: 0x8, addend: 0x0, symName: '__ZNKSt3__110__function6__funcIZN6VSTGUI9Animation8Animator12addAnimationEPNS2_5CViewEPKcPNS3_16IAnimationTargetEPNS3_15ITimingFunctionEPNS2_11CBaseObjectEE3$_0NS_9allocatorISF_EEFvS6_S8_SA_EE11target_typeEv', symObjAddr: 0x2390, symBinAddr: 0x29EF4, symSize: 0xC }
  - { offset: 0x9F08E, size: 0x8, addend: 0x0, symName: __ZN6VSTGUI9Animation15FinishedMessageD1Ev, symObjAddr: 0x239C, symBinAddr: 0x29F00, symSize: 0x4 }
  - { offset: 0x9F0B9, size: 0x8, addend: 0x0, symName: __ZN6VSTGUI9Animation15FinishedMessageD0Ev, symObjAddr: 0x23A8, symBinAddr: 0x29F04, symSize: 0x4 }
  - { offset: 0x9F0E4, size: 0x8, addend: 0x0, symName: __ZNK6VSTGUI9Animation15FinishedMessage7newCopyEv, symObjAddr: 0x23AC, symBinAddr: 0x29F08, symSize: 0x8 }
  - { offset: 0xA5694, size: 0x8, addend: 0x0, symName: __ZN6VSTGUI9Animation20LinearTimingFunctionC2Ej, symObjAddr: 0x0, symBinAddr: 0x2A374, symSize: 0x14 }
  - { offset: 0xA56BD, size: 0x8, addend: 0x0, symName: __ZN6VSTGUI9Animation20LinearTimingFunctionC2Ej, symObjAddr: 0x0, symBinAddr: 0x2A374, symSize: 0x14 }
  - { offset: 0xA570A, size: 0x8, addend: 0x0, symName: __ZN6VSTGUI9Animation20LinearTimingFunction11getPositionEj, symObjAddr: 0x28, symBinAddr: 0x2A388, symSize: 0x1C }
  - { offset: 0xA5765, size: 0x8, addend: 0x0, symName: __ZN6VSTGUI9Animation19PowerTimingFunctionC2Ejf, symObjAddr: 0x44, symBinAddr: 0x2A3A4, symSize: 0x18 }
  - { offset: 0xA5796, size: 0x8, addend: 0x0, symName: __ZN6VSTGUI9Animation19PowerTimingFunctionC2Ejf, symObjAddr: 0x44, symBinAddr: 0x2A3A4, symSize: 0x18 }
  - { offset: 0xA57EE, size: 0x8, addend: 0x0, symName: __ZN6VSTGUI9Animation19PowerTimingFunction11getPositionEj, symObjAddr: 0x74, symBinAddr: 0x2A3BC, symSize: 0x44 }
  - { offset: 0xA5E73, size: 0x8, addend: 0x0, symName: __ZN6VSTGUI9Animation27InterpolationTimingFunctionC2Ejff, symObjAddr: 0xB8, symBinAddr: 0x2A400, symSize: 0x140 }
  - { offset: 0xA6606, size: 0x8, addend: 0x0, symName: __ZN6VSTGUI9Animation27InterpolationTimingFunction8addPointEff, symObjAddr: 0x1F8, symBinAddr: 0x2A540, symSize: 0xCC }
  - { offset: 0xA68D3, size: 0x8, addend: 0x0, symName: __ZN6VSTGUI9Animation27InterpolationTimingFunctionC1Ejff, symObjAddr: 0x2C4, symBinAddr: 0x2A60C, symSize: 0x4 }
  - { offset: 0xA692D, size: 0x8, addend: 0x0, symName: __ZN6VSTGUI9Animation27InterpolationTimingFunctionC1Ejff, symObjAddr: 0x2C4, symBinAddr: 0x2A60C, symSize: 0x4 }
  - { offset: 0xA6D75, size: 0x8, addend: 0x0, symName: __ZN6VSTGUI9Animation27InterpolationTimingFunction11getPositionEj, symObjAddr: 0x2C8, symBinAddr: 0x2A610, symSize: 0x1EC }
  - { offset: 0xA7321, size: 0x8, addend: 0x0, symName: __ZN6VSTGUI9Animation25CubicBezierTimingFunctionC2EjNS_6CPointES2_, symObjAddr: 0x4B4, symBinAddr: 0x2A7FC, symSize: 0x1C }
  - { offset: 0xA735C, size: 0x8, addend: 0x0, symName: __ZN6VSTGUI9Animation25CubicBezierTimingFunctionC2EjNS_6CPointES2_, symObjAddr: 0x4B4, symBinAddr: 0x2A7FC, symSize: 0x1C }
  - { offset: 0xA7406, size: 0x8, addend: 0x0, symName: __ZN6VSTGUI9Animation25CubicBezierTimingFunction4lerpENS_6CPointES2_f, symObjAddr: 0x4EC, symBinAddr: 0x2A818, symSize: 0x24 }
  - { offset: 0xA7493, size: 0x8, addend: 0x0, symName: __ZN6VSTGUI9Animation25CubicBezierTimingFunction11getPositionEj, symObjAddr: 0x510, symBinAddr: 0x2A83C, symSize: 0x50 }
  - { offset: 0xA76B8, size: 0x8, addend: 0x0, symName: __ZN6VSTGUI9Animation25CubicBezierTimingFunction4easyEj, symObjAddr: 0x560, symBinAddr: 0x2A88C, symSize: 0x28 }
  - { offset: 0xA76DF, size: 0x8, addend: 0x0, symName: __ZN6VSTGUI9Animation25CubicBezierTimingFunction4easyEj, symObjAddr: 0x560, symBinAddr: 0x2A88C, symSize: 0x28 }
  - { offset: 0xA7701, size: 0x8, addend: 0x0, symName: __ZN6VSTGUI9Animation25CubicBezierTimingFunction4easyEj, symObjAddr: 0x560, symBinAddr: 0x2A88C, symSize: 0x28 }
  - { offset: 0xA7735, size: 0x8, addend: 0x0, symName: __ZN6VSTGUI9Animation25CubicBezierTimingFunction4easyEj, symObjAddr: 0x560, symBinAddr: 0x2A88C, symSize: 0x28 }
  - { offset: 0xA7758, size: 0x8, addend: 0x0, symName: __ZN6VSTGUI9Animation25CubicBezierTimingFunction6easyInEj, symObjAddr: 0x588, symBinAddr: 0x2A8B4, symSize: 0x24 }
  - { offset: 0xA777F, size: 0x8, addend: 0x0, symName: __ZN6VSTGUI9Animation25CubicBezierTimingFunction6easyInEj, symObjAddr: 0x588, symBinAddr: 0x2A8B4, symSize: 0x24 }
  - { offset: 0xA77A1, size: 0x8, addend: 0x0, symName: __ZN6VSTGUI9Animation25CubicBezierTimingFunction6easyInEj, symObjAddr: 0x588, symBinAddr: 0x2A8B4, symSize: 0x24 }
  - { offset: 0xA77D5, size: 0x8, addend: 0x0, symName: __ZN6VSTGUI9Animation25CubicBezierTimingFunction6easyInEj, symObjAddr: 0x588, symBinAddr: 0x2A8B4, symSize: 0x24 }
  - { offset: 0xA77F8, size: 0x8, addend: 0x0, symName: __ZN6VSTGUI9Animation25CubicBezierTimingFunction7easyOutEj, symObjAddr: 0x5AC, symBinAddr: 0x2A8D8, symSize: 0x24 }
  - { offset: 0xA781F, size: 0x8, addend: 0x0, symName: __ZN6VSTGUI9Animation25CubicBezierTimingFunction7easyOutEj, symObjAddr: 0x5AC, symBinAddr: 0x2A8D8, symSize: 0x24 }
  - { offset: 0xA7841, size: 0x8, addend: 0x0, symName: __ZN6VSTGUI9Animation25CubicBezierTimingFunction7easyOutEj, symObjAddr: 0x5AC, symBinAddr: 0x2A8D8, symSize: 0x24 }
  - { offset: 0xA7875, size: 0x8, addend: 0x0, symName: __ZN6VSTGUI9Animation25CubicBezierTimingFunction7easyOutEj, symObjAddr: 0x5AC, symBinAddr: 0x2A8D8, symSize: 0x24 }
  - { offset: 0xA7898, size: 0x8, addend: 0x0, symName: __ZN6VSTGUI9Animation25CubicBezierTimingFunction9easyInOutEj, symObjAddr: 0x5D0, symBinAddr: 0x2A8FC, symSize: 0x28 }
  - { offset: 0xA78BF, size: 0x8, addend: 0x0, symName: __ZN6VSTGUI9Animation25CubicBezierTimingFunction9easyInOutEj, symObjAddr: 0x5D0, symBinAddr: 0x2A8FC, symSize: 0x28 }
  - { offset: 0xA78E1, size: 0x8, addend: 0x0, symName: __ZN6VSTGUI9Animation25CubicBezierTimingFunction9easyInOutEj, symObjAddr: 0x5D0, symBinAddr: 0x2A8FC, symSize: 0x28 }
  - { offset: 0xA7915, size: 0x8, addend: 0x0, symName: __ZN6VSTGUI9Animation25CubicBezierTimingFunction9easyInOutEj, symObjAddr: 0x5D0, symBinAddr: 0x2A8FC, symSize: 0x28 }
  - { offset: 0xA793D, size: 0x8, addend: 0x0, symName: __ZN6VSTGUI9Animation20RepeatTimingFunctionC2EPNS0_18TimingFunctionBaseEib, symObjAddr: 0x5F8, symBinAddr: 0x2A924, symSize: 0x1C }
  - { offset: 0xA79B3, size: 0x8, addend: 0x0, symName: __ZN6VSTGUI9Animation20RepeatTimingFunctionD2Ev, symObjAddr: 0x630, symBinAddr: 0x2A940, symSize: 0x84 }
  - { offset: 0xA7A2C, size: 0x8, addend: 0x0, symName: __ZN6VSTGUI9Animation20RepeatTimingFunctionD1Ev, symObjAddr: 0x6C4, symBinAddr: 0x2A9C4, symSize: 0x84 }
  - { offset: 0xA7AAF, size: 0x8, addend: 0x0, symName: __ZN6VSTGUI9Animation20RepeatTimingFunctionD0Ev, symObjAddr: 0x748, symBinAddr: 0x2AA48, symSize: 0x84 }
  - { offset: 0xA7B38, size: 0x8, addend: 0x0, symName: __ZN6VSTGUI9Animation20RepeatTimingFunction11getPositionEj, symObjAddr: 0x7CC, symBinAddr: 0x2AACC, symSize: 0x50 }
  - { offset: 0xA7BA8, size: 0x8, addend: 0x0, symName: __ZN6VSTGUI9Animation20RepeatTimingFunction6isDoneEj, symObjAddr: 0x81C, symBinAddr: 0x2AB1C, symSize: 0x80 }
  - { offset: 0xA7C08, size: 0x8, addend: 0x0, symName: __ZN6VSTGUI9Animation20LinearTimingFunctionD1Ev, symObjAddr: 0x89C, symBinAddr: 0x2AB9C, symSize: 0x4 }
  - { offset: 0xA7C33, size: 0x8, addend: 0x0, symName: __ZN6VSTGUI9Animation20LinearTimingFunctionD0Ev, symObjAddr: 0x8A0, symBinAddr: 0x2ABA0, symSize: 0x4 }
  - { offset: 0xA7C5E, size: 0x8, addend: 0x0, symName: __ZN6VSTGUI9Animation18TimingFunctionBase6isDoneEj, symObjAddr: 0x8A4, symBinAddr: 0x2ABA4, symSize: 0x10 }
  - { offset: 0xA7C93, size: 0x8, addend: 0x0, symName: __ZN6VSTGUI9Animation19PowerTimingFunctionD1Ev, symObjAddr: 0x8B4, symBinAddr: 0x2ABB4, symSize: 0x4 }
  - { offset: 0xA7CBE, size: 0x8, addend: 0x0, symName: __ZN6VSTGUI9Animation19PowerTimingFunctionD0Ev, symObjAddr: 0x8B8, symBinAddr: 0x2ABB8, symSize: 0x4 }
  - { offset: 0xA7D05, size: 0x8, addend: 0x0, symName: __ZN6VSTGUI9Animation27InterpolationTimingFunctionD1Ev, symObjAddr: 0x8BC, symBinAddr: 0x2ABBC, symSize: 0x34 }
  - { offset: 0xA7E01, size: 0x8, addend: 0x0, symName: __ZN6VSTGUI9Animation27InterpolationTimingFunctionD0Ev, symObjAddr: 0x8F0, symBinAddr: 0x2ABF0, symSize: 0x34 }
  - { offset: 0xA7F08, size: 0x8, addend: 0x0, symName: __ZN6VSTGUI9Animation25CubicBezierTimingFunctionD1Ev, symObjAddr: 0x924, symBinAddr: 0x2AC24, symSize: 0x4 }
  - { offset: 0xA7F33, size: 0x8, addend: 0x0, symName: __ZN6VSTGUI9Animation25CubicBezierTimingFunctionD0Ev, symObjAddr: 0x928, symBinAddr: 0x2AC28, symSize: 0x4 }
  - { offset: 0xB143A, size: 0x8, addend: 0x0, symName: __ZN6VSTGUI7CBitmapC2Ev, symObjAddr: 0x0, symBinAddr: 0x2AC2C, symSize: 0x48 }
  - { offset: 0xB1473, size: 0x8, addend: 0x0, symName: __ZN6VSTGUI7CBitmapC2Ev, symObjAddr: 0x0, symBinAddr: 0x2AC2C, symSize: 0x48 }
  - { offset: 0xB1612, size: 0x8, addend: 0x0, symName: __ZN6VSTGUI7CBitmapC1Ev, symObjAddr: 0x48, symBinAddr: 0x2AC74, symSize: 0x2C }
  - { offset: 0xB199A, size: 0x8, addend: 0x0, symName: __ZN6VSTGUI7CBitmapC2ERKNS_20CResourceDescriptionE, symObjAddr: 0x74, symBinAddr: 0x2ACA0, symSize: 0x11C }
  - { offset: 0xB1D8E, size: 0x8, addend: 0x0, symName: __ZNSt3__16vectorIN6VSTGUI13SharedPointerINS1_15IPlatformBitmapEEENS_9allocatorIS4_EEE24__emplace_back_slow_pathIJRS4_EEEPS4_DpOT_, symObjAddr: 0x223C, symBinAddr: 0x2CE50, symSize: 0x208 }
  - { offset: 0xB228B, size: 0x8, addend: 0x0, symName: __ZNSt3__16vectorIN6VSTGUI13SharedPointerINS1_15IPlatformBitmapEEENS_9allocatorIS4_EEED1B8ne180100Ev, symObjAddr: 0x190, symBinAddr: 0x2ADBC, symSize: 0x74 }
  - { offset: 0xB2556, size: 0x8, addend: 0x0, symName: __ZN6VSTGUI7CBitmapC1ERKNS_20CResourceDescriptionE, symObjAddr: 0x204, symBinAddr: 0x2AE30, symSize: 0x100 }
  - { offset: 0xB2929, size: 0x8, addend: 0x0, symName: __ZN6VSTGUI7CBitmapC2Edd, symObjAddr: 0x304, symBinAddr: 0x2AF30, symSize: 0x130 }
  - { offset: 0xB2D61, size: 0x8, addend: 0x0, symName: __ZN6VSTGUI7CBitmapC1Edd, symObjAddr: 0x434, symBinAddr: 0x2B060, symSize: 0x114 }
  - { offset: 0xB3199, size: 0x8, addend: 0x0, symName: __ZN6VSTGUI7CBitmapC2ENS_6CPointEd, symObjAddr: 0x548, symBinAddr: 0x2B174, symSize: 0x14C }
  - { offset: 0xB359D, size: 0x8, addend: 0x0, symName: __ZN6VSTGUI7CBitmapC1ENS_6CPointEd, symObjAddr: 0x694, symBinAddr: 0x2B2C0, symSize: 0x130 }
  - { offset: 0xB39C9, size: 0x8, addend: 0x0, symName: __ZN6VSTGUI7CBitmapC2ERKNS_13SharedPointerINS_15IPlatformBitmapEEE, symObjAddr: 0x7C4, symBinAddr: 0x2B3F0, symSize: 0x8C }
  - { offset: 0xB3BF8, size: 0x8, addend: 0x0, symName: __ZNSt3__16vectorIN6VSTGUI13SharedPointerINS1_15IPlatformBitmapEEENS_9allocatorIS4_EEE24__emplace_back_slow_pathIJRKS4_EEEPS4_DpOT_, symObjAddr: 0x24F4, symBinAddr: 0x2D058, symSize: 0x208 }
  - { offset: 0xB40F5, size: 0x8, addend: 0x0, symName: __ZN6VSTGUI7CBitmapC1ERKNS_13SharedPointerINS_15IPlatformBitmapEEE, symObjAddr: 0x850, symBinAddr: 0x2B47C, symSize: 0x6C }
  - { offset: 0xB43DA, size: 0x8, addend: 0x0, symName: __ZN6VSTGUI7CBitmap4drawEPNS_12CDrawContextERKNS_5CRectERKNS_6CPointEf, symObjAddr: 0x8BC, symBinAddr: 0x2B4E8, symSize: 0x1F8 }
  - { offset: 0xB477C, size: 0x8, addend: 0x0, symName: __ZNK6VSTGUI7CBitmap8getWidthEv, symObjAddr: 0xAB4, symBinAddr: 0x2B6E0, symSize: 0xAC }
  - { offset: 0xB4931, size: 0x8, addend: 0x0, symName: __ZNK6VSTGUI7CBitmap17getPlatformBitmapEv, symObjAddr: 0xB60, symBinAddr: 0x2B78C, symSize: 0x44 }
  - { offset: 0xB4A13, size: 0x8, addend: 0x0, symName: __ZNK6VSTGUI7CBitmap9getHeightEv, symObjAddr: 0xBA4, symBinAddr: 0x2B7D0, symSize: 0xAC }
  - { offset: 0xB4B5C, size: 0x8, addend: 0x0, symName: __ZNK6VSTGUI7CBitmap7getSizeEv, symObjAddr: 0xC50, symBinAddr: 0x2B87C, symSize: 0xD4 }
  - { offset: 0xB4DE4, size: 0x8, addend: 0x0, symName: __ZN6VSTGUI7CBitmap17setPlatformBitmapERKNS_13SharedPointerINS_15IPlatformBitmapEEE, symObjAddr: 0xD24, symBinAddr: 0x2B950, symSize: 0xB4 }
  - { offset: 0xB4FDB, size: 0x8, addend: 0x0, symName: __ZN6VSTGUI7CBitmap9addBitmapERKNS_13SharedPointerINS_15IPlatformBitmapEEE, symObjAddr: 0xDD8, symBinAddr: 0x2BA04, symSize: 0x190 }
  - { offset: 0xB5310, size: 0x8, addend: 0x0, symName: __ZNK6VSTGUI7CBitmap35getBestPlatformBitmapForScaleFactorEd, symObjAddr: 0xF68, symBinAddr: 0x2BB94, symSize: 0x1C8 }
  - { offset: 0xB5625, size: 0x8, addend: 0x0, symName: __ZN6VSTGUI17CMultiFrameBitmapC2ERKNS_20CResourceDescriptionENS_28CMultiFrameBitmapDescriptionE, symObjAddr: 0x1130, symBinAddr: 0x2BD5C, symSize: 0x4C }
  - { offset: 0xB56BB, size: 0x8, addend: 0x0, symName: __ZN6VSTGUI17CMultiFrameBitmapC1ERKNS_20CResourceDescriptionENS_28CMultiFrameBitmapDescriptionE, symObjAddr: 0x117C, symBinAddr: 0x2BDA8, symSize: 0x54 }
  - { offset: 0xB573E, size: 0x8, addend: 0x0, symName: __ZN6VSTGUI17CMultiFrameBitmap17setMultiFrameDescENS_28CMultiFrameBitmapDescriptionE, symObjAddr: 0x11D0, symBinAddr: 0x2BDFC, symSize: 0xA8 }
  - { offset: 0xB57A0, size: 0x8, addend: 0x0, symName: __ZNK6VSTGUI17CMultiFrameBitmap17getMultiFrameDescEv, symObjAddr: 0x1278, symBinAddr: 0x2BEA4, symSize: 0x14 }
  - { offset: 0xB57C7, size: 0x8, addend: 0x0, symName: __ZNK6VSTGUI17CMultiFrameBitmap12getFrameSizeEv, symObjAddr: 0x128C, symBinAddr: 0x2BEB8, symSize: 0x8 }
  - { offset: 0xB57E7, size: 0x8, addend: 0x0, symName: __ZNK6VSTGUI17CMultiFrameBitmap12getNumFramesEv, symObjAddr: 0x1294, symBinAddr: 0x2BEC0, symSize: 0x8 }
  - { offset: 0xB5809, size: 0x8, addend: 0x0, symName: __ZNK6VSTGUI17CMultiFrameBitmap18getNumFramesPerRowEv, symObjAddr: 0x129C, symBinAddr: 0x2BEC8, symSize: 0x8 }
  - { offset: 0xB5878, size: 0x8, addend: 0x0, symName: __ZNK6VSTGUI17CMultiFrameBitmap13calcFrameRectEj, symObjAddr: 0x12A4, symBinAddr: 0x2BED0, symSize: 0x68 }
  - { offset: 0xB5A57, size: 0x8, addend: 0x0, symName: __ZN6VSTGUI17CMultiFrameBitmap9drawFrameEPNS_12CDrawContextEtNS_6CPointE, symObjAddr: 0x130C, symBinAddr: 0x2BF38, symSize: 0xBC }
  - { offset: 0xB5C62, size: 0x8, addend: 0x0, symName: __ZNK6VSTGUI17CMultiFrameBitmap27normalizedValueToFrameIndexEf, symObjAddr: 0x13C8, symBinAddr: 0x2BFF4, symSize: 0x7C }
  - { offset: 0xB5CE1, size: 0x8, addend: 0x0, symName: __ZNK6VSTGUI17CMultiFrameBitmap27frameIndexToNormalizedValueEt, symObjAddr: 0x1444, symBinAddr: 0x2C070, symSize: 0x5C }
  - { offset: 0xB5D77, size: 0x8, addend: 0x0, symName: __ZN6VSTGUI20CNinePartTiledBitmapC2ERKNS_20CResourceDescriptionERKNS_25CNinePartTiledDescriptionE, symObjAddr: 0x14A0, symBinAddr: 0x2C0CC, symSize: 0x48 }
  - { offset: 0xB5DEF, size: 0x8, addend: 0x0, symName: __ZN6VSTGUI20CNinePartTiledBitmapC1ERKNS_20CResourceDescriptionERKNS_25CNinePartTiledDescriptionE, symObjAddr: 0x14E8, symBinAddr: 0x2C114, symSize: 0x50 }
  - { offset: 0xB5EC2, size: 0x8, addend: 0x0, symName: __ZN6VSTGUI20CNinePartTiledBitmapC2ERKNS_13SharedPointerINS_15IPlatformBitmapEEERKNS_25CNinePartTiledDescriptionE, symObjAddr: 0x1538, symBinAddr: 0x2C164, symSize: 0x108 }
  - { offset: 0xB62DB, size: 0x8, addend: 0x0, symName: __ZN6VSTGUI20CNinePartTiledBitmapC1ERKNS_13SharedPointerINS_15IPlatformBitmapEEERKNS_25CNinePartTiledDescriptionE, symObjAddr: 0x1640, symBinAddr: 0x2C26C, symSize: 0xDC }
  - { offset: 0xB66D4, size: 0x8, addend: 0x0, symName: __ZN6VSTGUI20CNinePartTiledBitmap4drawEPNS_12CDrawContextERKNS_5CRectERKNS_6CPointEf, symObjAddr: 0x171C, symBinAddr: 0x2C348, symSize: 0x14 }
  - { offset: 0xB67C6, size: 0x8, addend: 0x0, symName: __ZN6VSTGUI18CBitmapPixelAccessC2Ev, symObjAddr: 0x1730, symBinAddr: 0x2C35C, symSize: 0x44 }
  - { offset: 0xB67F0, size: 0x8, addend: 0x0, symName: __ZN6VSTGUI18CBitmapPixelAccessC2Ev, symObjAddr: 0x1730, symBinAddr: 0x2C35C, symSize: 0x44 }
  - { offset: 0xB69B2, size: 0x8, addend: 0x0, symName: __ZN6VSTGUI18CBitmapPixelAccess4initEPNS_7CBitmapEPNS_26IPlatformBitmapPixelAccessE, symObjAddr: 0x1774, symBinAddr: 0x2C3A0, symSize: 0x124 }
  - { offset: 0xB6CC8, size: 0x8, addend: 0x0, symName: __ZN6VSTGUI18CBitmapPixelAccess6createEPNS_7CBitmapEb, symObjAddr: 0x1898, symBinAddr: 0x2C4C4, symSize: 0x280 }
  - { offset: 0xB76D6, size: 0x8, addend: 0x0, symName: __ZN6VSTGUI16ReferenceCountedINSt3__16atomicIiEEE6forgetEv, symObjAddr: 0x1B18, symBinAddr: 0x2C744, symSize: 0x54 }
  - { offset: 0xB77CC, size: 0x8, addend: 0x0, symName: __ZN6VSTGUI16ReferenceCountedINSt3__16atomicIiEEE8rememberEv, symObjAddr: 0x1B6C, symBinAddr: 0x2C798, symSize: 0x10 }
  - { offset: 0xB7865, size: 0x8, addend: 0x0, symName: __ZN6VSTGUI16ReferenceCountedINSt3__16atomicIiEEED1Ev, symObjAddr: 0x1B7C, symBinAddr: 0x2C7A8, symSize: 0x4 }
  - { offset: 0xB788E, size: 0x8, addend: 0x0, symName: __ZN6VSTGUI16ReferenceCountedINSt3__16atomicIiEEED0Ev, symObjAddr: 0x1B80, symBinAddr: 0x2C7AC, symSize: 0x4 }
  - { offset: 0xB78FD, size: 0x8, addend: 0x0, symName: __ZNK6VSTGUI16ReferenceCountedINSt3__16atomicIiEEE14getNbReferenceEv, symObjAddr: 0x1B84, symBinAddr: 0x2C7B0, symSize: 0xC }
  - { offset: 0xB7986, size: 0x8, addend: 0x0, symName: __ZN6VSTGUI16ReferenceCountedINSt3__16atomicIiEEE12beforeDeleteEv, symObjAddr: 0x1B90, symBinAddr: 0x2C7BC, symSize: 0x4 }
  - { offset: 0xB79CF, size: 0x8, addend: 0x0, symName: __ZN6VSTGUI7CBitmapD1Ev, symObjAddr: 0x1B94, symBinAddr: 0x2C7C0, symSize: 0x80 }
  - { offset: 0xB7BB9, size: 0x8, addend: 0x0, symName: __ZN6VSTGUI7CBitmapD0Ev, symObjAddr: 0x1C14, symBinAddr: 0x2C840, symSize: 0x80 }
  - { offset: 0xB7DD4, size: 0x8, addend: 0x0, symName: __ZN6VSTGUI17CMultiFrameBitmapD1Ev, symObjAddr: 0x1C94, symBinAddr: 0x2C8C0, symSize: 0x80 }
  - { offset: 0xB7FD7, size: 0x8, addend: 0x0, symName: __ZN6VSTGUI17CMultiFrameBitmapD0Ev, symObjAddr: 0x1D14, symBinAddr: 0x2C940, symSize: 0x80 }
  - { offset: 0xB8209, size: 0x8, addend: 0x0, symName: __ZN6VSTGUI20CNinePartTiledBitmapD1Ev, symObjAddr: 0x1D94, symBinAddr: 0x2C9C0, symSize: 0x80 }
  - { offset: 0xB840C, size: 0x8, addend: 0x0, symName: __ZN6VSTGUI20CNinePartTiledBitmapD0Ev, symObjAddr: 0x1E14, symBinAddr: 0x2CA40, symSize: 0x80 }
  - { offset: 0xB8616, size: 0x8, addend: 0x0, symName: __ZN6VSTGUI18CBitmapPixelAccessD1Ev, symObjAddr: 0x1E94, symBinAddr: 0x15D838, symSize: 0x4 }
  - { offset: 0xB863F, size: 0x8, addend: 0x0, symName: __ZN6VSTGUI18CBitmapPixelAccessD0Ev, symObjAddr: 0x1E98, symBinAddr: 0x15D83C, symSize: 0x4 }
  - { offset: 0xB86B3, size: 0x8, addend: 0x0, symName: __ZN6VSTGUI23CBitmapPixelAccessOrderILi1ELi2ELi3ELi0EED1Ev, symObjAddr: 0x1E9C, symBinAddr: 0x2CAC0, symSize: 0x44 }
  - { offset: 0xB875D, size: 0x8, addend: 0x0, symName: __ZN6VSTGUI23CBitmapPixelAccessOrderILi1ELi2ELi3ELi0EED0Ev, symObjAddr: 0x1EE0, symBinAddr: 0x2CB04, symSize: 0x44 }
  - { offset: 0xB880E, size: 0x8, addend: 0x0, symName: __ZNK6VSTGUI23CBitmapPixelAccessOrderILi1ELi2ELi3ELi0EE8getColorERNS_6CColorE, symObjAddr: 0x1F24, symBinAddr: 0x2CB48, symSize: 0x28 }
  - { offset: 0xB8842, size: 0x8, addend: 0x0, symName: __ZN6VSTGUI23CBitmapPixelAccessOrderILi1ELi2ELi3ELi0EE8setColorERKNS_6CColorE, symObjAddr: 0x1F4C, symBinAddr: 0x2CB70, symSize: 0x34 }
  - { offset: 0xB889D, size: 0x8, addend: 0x0, symName: __ZN6VSTGUI23CBitmapPixelAccessOrderILi0ELi1ELi2ELi3EED1Ev, symObjAddr: 0x1F80, symBinAddr: 0x2CBA4, symSize: 0x44 }
  - { offset: 0xB8947, size: 0x8, addend: 0x0, symName: __ZN6VSTGUI23CBitmapPixelAccessOrderILi0ELi1ELi2ELi3EED0Ev, symObjAddr: 0x1FC4, symBinAddr: 0x2CBE8, symSize: 0x44 }
  - { offset: 0xB89F8, size: 0x8, addend: 0x0, symName: __ZNK6VSTGUI23CBitmapPixelAccessOrderILi0ELi1ELi2ELi3EE8getColorERNS_6CColorE, symObjAddr: 0x2008, symBinAddr: 0x2CC2C, symSize: 0x28 }
  - { offset: 0xB8A2C, size: 0x8, addend: 0x0, symName: __ZN6VSTGUI23CBitmapPixelAccessOrderILi0ELi1ELi2ELi3EE8setColorERKNS_6CColorE, symObjAddr: 0x2030, symBinAddr: 0x2CC54, symSize: 0x34 }
  - { offset: 0xB8A87, size: 0x8, addend: 0x0, symName: __ZN6VSTGUI23CBitmapPixelAccessOrderILi3ELi2ELi1ELi0EED1Ev, symObjAddr: 0x2064, symBinAddr: 0x2CC88, symSize: 0x44 }
  - { offset: 0xB8B31, size: 0x8, addend: 0x0, symName: __ZN6VSTGUI23CBitmapPixelAccessOrderILi3ELi2ELi1ELi0EED0Ev, symObjAddr: 0x20A8, symBinAddr: 0x2CCCC, symSize: 0x44 }
  - { offset: 0xB8BE2, size: 0x8, addend: 0x0, symName: __ZNK6VSTGUI23CBitmapPixelAccessOrderILi3ELi2ELi1ELi0EE8getColorERNS_6CColorE, symObjAddr: 0x20EC, symBinAddr: 0x2CD10, symSize: 0x28 }
  - { offset: 0xB8C16, size: 0x8, addend: 0x0, symName: __ZN6VSTGUI23CBitmapPixelAccessOrderILi3ELi2ELi1ELi0EE8setColorERKNS_6CColorE, symObjAddr: 0x2114, symBinAddr: 0x2CD38, symSize: 0x34 }
  - { offset: 0xB8C71, size: 0x8, addend: 0x0, symName: __ZN6VSTGUI23CBitmapPixelAccessOrderILi2ELi1ELi0ELi3EED1Ev, symObjAddr: 0x2148, symBinAddr: 0x2CD6C, symSize: 0x44 }
  - { offset: 0xB8D1B, size: 0x8, addend: 0x0, symName: __ZN6VSTGUI23CBitmapPixelAccessOrderILi2ELi1ELi0ELi3EED0Ev, symObjAddr: 0x218C, symBinAddr: 0x2CDB0, symSize: 0x44 }
  - { offset: 0xB8DCC, size: 0x8, addend: 0x0, symName: __ZNK6VSTGUI23CBitmapPixelAccessOrderILi2ELi1ELi0ELi3EE8getColorERNS_6CColorE, symObjAddr: 0x21D0, symBinAddr: 0x2CDF4, symSize: 0x28 }
  - { offset: 0xB8E00, size: 0x8, addend: 0x0, symName: __ZN6VSTGUI23CBitmapPixelAccessOrderILi2ELi1ELi0ELi3EE8setColorERKNS_6CColorE, symObjAddr: 0x21F8, symBinAddr: 0x2CE1C, symSize: 0x34 }
  - { offset: 0xC4385, size: 0x8, addend: 0x0, symName: __ZNSt3__119piecewise_constructE, symObjAddr: 0x7E2E, symBinAddr: 0x176503, symSize: 0x0 }
  - { offset: 0xC62FE, size: 0x8, addend: 0x0, symName: __ZN6VSTGUI12BitmapFilter7Factory11getInstanceEv, symObjAddr: 0x910, symBinAddr: 0x2D920, symSize: 0x128 }
  - { offset: 0xC631F, size: 0x8, addend: 0x0, symName: __MergedGlobals, symObjAddr: 0x9E360, symBinAddr: 0x1BAF48, symSize: 0x0 }
  - { offset: 0xC6336, size: 0x8, addend: 0x0, symName: __MergedGlobals, symObjAddr: 0x9E360, symBinAddr: 0x1BAF48, symSize: 0x0 }
  - { offset: 0xC6956, size: 0x8, addend: 0x0, symName: __ZNK6VSTGUI12BitmapFilter10FilterBase11getPropertyEPKc, symObjAddr: 0x181C, symBinAddr: 0x2E82C, symSize: 0x224 }
  - { offset: 0xC697E, size: 0x8, addend: 0x0, symName: __MergedGlobals, symObjAddr: 0x9E360, symBinAddr: 0x1BAF48, symSize: 0x0 }
  - { offset: 0xC72FD, size: 0x8, addend: 0x0, symName: __ZN6VSTGUI12BitmapFilter8PropertyC2ENS1_4TypeE, symObjAddr: 0x0, symBinAddr: 0x2D260, symSize: 0xC }
  - { offset: 0xC737A, size: 0x8, addend: 0x0, symName: __ZN6VSTGUI12BitmapFilter8PropertyC2Ei, symObjAddr: 0x18, symBinAddr: 0x2D26C, symSize: 0x40 }
  - { offset: 0xC7437, size: 0x8, addend: 0x0, symName: __ZN6VSTGUI12BitmapFilter8PropertyC2Ed, symObjAddr: 0x98, symBinAddr: 0x2D2AC, symSize: 0x48 }
  - { offset: 0xC74B8, size: 0x8, addend: 0x0, symName: __ZN6VSTGUI12BitmapFilter8PropertyC2EPNS_10IReferenceE, symObjAddr: 0x128, symBinAddr: 0x2D2F4, symSize: 0x3C }
  - { offset: 0xC7548, size: 0x8, addend: 0x0, symName: __ZN6VSTGUI12BitmapFilter8PropertyC2ERKNS_5CRectE, symObjAddr: 0x1A0, symBinAddr: 0x2D330, symSize: 0x58 }
  - { offset: 0xC75FD, size: 0x8, addend: 0x0, symName: __ZN6VSTGUI12BitmapFilter8PropertyC2ERKNS_6CPointE, symObjAddr: 0x250, symBinAddr: 0x2D388, symSize: 0x48 }
  - { offset: 0xC76FB, size: 0x8, addend: 0x0, symName: __ZN6VSTGUI12BitmapFilter8PropertyC2ERKNS_6CColorE, symObjAddr: 0x2E0, symBinAddr: 0x2D3D0, symSize: 0x40 }
  - { offset: 0xC77DE, size: 0x8, addend: 0x0, symName: __ZN6VSTGUI12BitmapFilter8PropertyC2ERKNS_18CGraphicsTransformE, symObjAddr: 0x360, symBinAddr: 0x2D410, symSize: 0x60 }
  - { offset: 0xC7868, size: 0x8, addend: 0x0, symName: __ZN6VSTGUI12BitmapFilter8PropertyC2ERKS1_, symObjAddr: 0x420, symBinAddr: 0x2D470, symSize: 0x10 }
  - { offset: 0xC78AC, size: 0x8, addend: 0x0, symName: __ZN6VSTGUI12BitmapFilter8PropertyaSERKS1_, symObjAddr: 0x430, symBinAddr: 0x2D480, symSize: 0x14C }
  - { offset: 0xC79EF, size: 0x8, addend: 0x0, symName: __ZN6VSTGUI12BitmapFilter8PropertyD2Ev, symObjAddr: 0x58C, symBinAddr: 0x2D5CC, symSize: 0x58 }
  - { offset: 0xC7A2A, size: 0x8, addend: 0x0, symName: __ZNK6VSTGUI12BitmapFilter8Property9getObjectEv, symObjAddr: 0x5E4, symBinAddr: 0x2D624, symSize: 0x4C }
  - { offset: 0xC7A7B, size: 0x8, addend: 0x0, symName: __ZN6VSTGUI12BitmapFilter8PropertyD1Ev, symObjAddr: 0x640, symBinAddr: 0x2D670, symSize: 0x58 }
  - { offset: 0xC7AF0, size: 0x8, addend: 0x0, symName: __ZN6VSTGUI12BitmapFilter8PropertyC2EOS1_, symObjAddr: 0x698, symBinAddr: 0x2D6C8, symSize: 0x20 }
  - { offset: 0xC7B3A, size: 0x8, addend: 0x0, symName: __ZN6VSTGUI12BitmapFilter8PropertyaSEOS1_, symObjAddr: 0x6B8, symBinAddr: 0x2D6E8, symSize: 0x68 }
  - { offset: 0xC7BA5, size: 0x8, addend: 0x0, symName: __ZNK6VSTGUI12BitmapFilter8Property10getIntegerEv, symObjAddr: 0x740, symBinAddr: 0x2D750, symSize: 0x50 }
  - { offset: 0xC7BDA, size: 0x8, addend: 0x0, symName: __ZNK6VSTGUI12BitmapFilter8Property8getFloatEv, symObjAddr: 0x790, symBinAddr: 0x2D7A0, symSize: 0x50 }
  - { offset: 0xC7C16, size: 0x8, addend: 0x0, symName: __ZNK6VSTGUI12BitmapFilter8Property7getRectEv, symObjAddr: 0x7E0, symBinAddr: 0x2D7F0, symSize: 0x4C }
  - { offset: 0xC7C4B, size: 0x8, addend: 0x0, symName: __ZNK6VSTGUI12BitmapFilter8Property8getPointEv, symObjAddr: 0x82C, symBinAddr: 0x2D83C, symSize: 0x4C }
  - { offset: 0xC7C87, size: 0x8, addend: 0x0, symName: __ZNK6VSTGUI12BitmapFilter8Property8getColorEv, symObjAddr: 0x878, symBinAddr: 0x2D888, symSize: 0x4C }
  - { offset: 0xC7CBC, size: 0x8, addend: 0x0, symName: __ZNK6VSTGUI12BitmapFilter8Property12getTransformEv, symObjAddr: 0x8C4, symBinAddr: 0x2D8D4, symSize: 0x4C }
  - { offset: 0xC7E7F, size: 0x8, addend: 0x0, symName: __ZN6VSTGUI12BitmapFilter7Factory14registerFilterEPKcPFPNS0_7IFilterES3_E, symObjAddr: 0xCC8, symBinAddr: 0x2DCD8, symSize: 0x1F4 }
  - { offset: 0xC87A9, size: 0x8, addend: 0x0, symName: __ZN6VSTGUI12BitmapFilter7Factory16unregisterFilterEPKcPFPNS0_7IFilterES3_E, symObjAddr: 0xEBC, symBinAddr: 0x2DECC, symSize: 0x248 }
  - { offset: 0xC885E, size: 0x8, addend: 0x0, symName: __ZN6VSTGUI12BitmapFilter7FactoryD1Ev, symObjAddr: 0xA38, symBinAddr: 0x2DA48, symSize: 0x28 }
  - { offset: 0xC8950, size: 0x8, addend: 0x0, symName: __ZNSt3__16__treeINS_12__value_typeINS_12basic_stringIcNS_11char_traitsIcEENS_9allocatorIcEEEEPFPN6VSTGUI12BitmapFilter7IFilterEPKcEEENS_19__map_value_compareIS7_SG_NS_4lessIS7_EELb1EEENS5_ISG_EEE7destroyEPNS_11__tree_nodeISG_PvEE, symObjAddr: 0x1F20, symBinAddr: 0x2EEAC, symSize: 0x60 }
  - { offset: 0xC8BF7, size: 0x8, addend: 0x0, symName: __ZNK6VSTGUI12BitmapFilter7Factory13getNumFiltersEv, symObjAddr: 0xA60, symBinAddr: 0x2DA70, symSize: 0x8 }
  - { offset: 0xC8C22, size: 0x8, addend: 0x0, symName: __ZNK6VSTGUI12BitmapFilter7Factory13getNumFiltersEv, symObjAddr: 0xA60, symBinAddr: 0x2DA70, symSize: 0x8 }
  - { offset: 0xC8D11, size: 0x8, addend: 0x0, symName: __ZNK6VSTGUI12BitmapFilter7Factory13getFilterNameEj, symObjAddr: 0xA68, symBinAddr: 0x2DA78, symSize: 0x70 }
  - { offset: 0xC8D7B, size: 0x8, addend: 0x0, symName: __ZNK6VSTGUI12BitmapFilter7Factory13getFilterNameEj, symObjAddr: 0xA68, symBinAddr: 0x2DA78, symSize: 0x70 }
  - { offset: 0xC8D97, size: 0x8, addend: 0x0, symName: __ZNK6VSTGUI12BitmapFilter7Factory13getFilterNameEj, symObjAddr: 0xA68, symBinAddr: 0x2DA78, symSize: 0x70 }
  - { offset: 0xC93D6, size: 0x8, addend: 0x0, symName: __ZNK6VSTGUI12BitmapFilter7Factory12createFilterEPKc, symObjAddr: 0xAD8, symBinAddr: 0x2DAE8, symSize: 0x1F0 }
  - { offset: 0xC9C2C, size: 0x8, addend: 0x0, symName: __ZN6VSTGUI12BitmapFilter7Factory14registerFilterEPKcPFPNS0_7IFilterES3_E, symObjAddr: 0xCC8, symBinAddr: 0x2DCD8, symSize: 0x1F4 }
  - { offset: 0xC9DC7, size: 0x8, addend: 0x0, symName: __ZNSt3__16__treeINS_12__value_typeINS_12basic_stringIcNS_11char_traitsIcEENS_9allocatorIcEEEEPFPN6VSTGUI12BitmapFilter7IFilterEPKcEEENS_19__map_value_compareIS7_SG_NS_4lessIS7_EELb1EEENS5_ISG_EEE21__emplace_unique_implIJRSD_RSF_EEENS_4pairINS_15__tree_iteratorISG_PNS_11__tree_nodeISG_PvEElEEbEEDpOT_, symObjAddr: 0x6F04, symBinAddr: 0x33E00, symSize: 0x194 }
  - { offset: 0xCA661, size: 0x8, addend: 0x0, symName: __ZN6VSTGUI12BitmapFilter7Factory16unregisterFilterEPKcPFPNS0_7IFilterES3_E, symObjAddr: 0xEBC, symBinAddr: 0x2DECC, symSize: 0x248 }
  - { offset: 0xCB29C, size: 0x8, addend: 0x0, symName: __ZN6VSTGUI12BitmapFilter10FilterBaseC2EPKc, symObjAddr: 0x1104, symBinAddr: 0x2E114, symSize: 0x110 }
  - { offset: 0xCB416, size: 0x8, addend: 0x0, symName: __ZN6VSTGUI12BitmapFilter10FilterBaseC2EPKc, symObjAddr: 0x1104, symBinAddr: 0x2E114, symSize: 0x110 }
  - { offset: 0xCB90E, size: 0x8, addend: 0x0, symName: __ZNK6VSTGUI12BitmapFilter10FilterBase14getDescriptionEv, symObjAddr: 0x1214, symBinAddr: 0x2E224, symSize: 0x1C }
  - { offset: 0xCB920, size: 0x8, addend: 0x0, symName: __ZNK6VSTGUI12BitmapFilter10FilterBase14getDescriptionEv, symObjAddr: 0x1214, symBinAddr: 0x2E224, symSize: 0x1C }
  - { offset: 0xCBB2F, size: 0x8, addend: 0x0, symName: __ZN6VSTGUI12BitmapFilter10FilterBase11setPropertyEPKcRKNS0_8PropertyE, symObjAddr: 0x1230, symBinAddr: 0x2E240, symSize: 0x2D8 }
  - { offset: 0xCCAC4, size: 0x8, addend: 0x0, symName: __ZNSt3__16__treeINS_12__value_typeINS_12basic_stringIcNS_11char_traitsIcEENS_9allocatorIcEEEEN6VSTGUI12BitmapFilter8PropertyEEENS_19__map_value_compareIS7_SB_NS_4lessIS7_EELb1EEENS5_ISB_EEE25__emplace_unique_key_argsIS7_JRKNS_21piecewise_construct_tENS_5tupleIJOS7_EEENSM_IJEEEEEENS_4pairINS_15__tree_iteratorISB_PNS_11__tree_nodeISB_PvEElEEbEERKT_DpOT0_, symObjAddr: 0x7758, symBinAddr: 0x340DC, symSize: 0x17C }
  - { offset: 0xCD0C1, size: 0x8, addend: 0x0, symName: __ZN6VSTGUI12BitmapFilter10FilterBase11setPropertyEPKcONS0_8PropertyE, symObjAddr: 0x1508, symBinAddr: 0x2E518, symSize: 0x314 }
  - { offset: 0xCE152, size: 0x8, addend: 0x0, symName: __ZNK6VSTGUI12BitmapFilter10FilterBase16getNumPropertiesEv, symObjAddr: 0x1A40, symBinAddr: 0x2EA50, symSize: 0x8 }
  - { offset: 0xCE17F, size: 0x8, addend: 0x0, symName: __ZNK6VSTGUI12BitmapFilter10FilterBase16getNumPropertiesEv, symObjAddr: 0x1A40, symBinAddr: 0x2EA50, symSize: 0x8 }
  - { offset: 0xCE240, size: 0x8, addend: 0x0, symName: __ZNK6VSTGUI12BitmapFilter10FilterBase15getPropertyNameEj, symObjAddr: 0x1A48, symBinAddr: 0x2EA58, symSize: 0x74 }
  - { offset: 0xCE2AD, size: 0x8, addend: 0x0, symName: __ZNK6VSTGUI12BitmapFilter10FilterBase15getPropertyNameEj, symObjAddr: 0x1A48, symBinAddr: 0x2EA58, symSize: 0x74 }
  - { offset: 0xCE2CC, size: 0x8, addend: 0x0, symName: __ZNK6VSTGUI12BitmapFilter10FilterBase15getPropertyNameEj, symObjAddr: 0x1A48, symBinAddr: 0x2EA58, symSize: 0x74 }
  - { offset: 0xCE46C, size: 0x8, addend: 0x0, symName: __ZNK6VSTGUI12BitmapFilter10FilterBase15getPropertyTypeEj, symObjAddr: 0x1ABC, symBinAddr: 0x2EACC, symSize: 0x64 }
  - { offset: 0xCE4D9, size: 0x8, addend: 0x0, symName: __ZNK6VSTGUI12BitmapFilter10FilterBase15getPropertyTypeEj, symObjAddr: 0x1ABC, symBinAddr: 0x2EACC, symSize: 0x64 }
  - { offset: 0xCE4F8, size: 0x8, addend: 0x0, symName: __ZNK6VSTGUI12BitmapFilter10FilterBase15getPropertyTypeEj, symObjAddr: 0x1ABC, symBinAddr: 0x2EACC, symSize: 0x64 }
  - { offset: 0xCE634, size: 0x8, addend: 0x0, symName: __ZNK6VSTGUI12BitmapFilter10FilterBase15getPropertyTypeEPKc, symObjAddr: 0x1B20, symBinAddr: 0x2EB30, symSize: 0x1D4 }
  - { offset: 0xCEEA4, size: 0x8, addend: 0x0, symName: __ZN6VSTGUI12BitmapFilter10FilterBase16registerPropertyEPKcRKNS0_8PropertyE, symObjAddr: 0x1CF4, symBinAddr: 0x2ED04, symSize: 0x2C }
  - { offset: 0xCEF3C, size: 0x8, addend: 0x0, symName: __ZN6VSTGUI12BitmapFilter10FilterBase16registerPropertyEPKcRKNS0_8PropertyE, symObjAddr: 0x1CF4, symBinAddr: 0x2ED04, symSize: 0x2C }
  - { offset: 0xCEFE7, size: 0x8, addend: 0x0, symName: __ZNSt3__16__treeINS_12__value_typeINS_12basic_stringIcNS_11char_traitsIcEENS_9allocatorIcEEEEN6VSTGUI12BitmapFilter8PropertyEEENS_19__map_value_compareIS7_SB_NS_4lessIS7_EELb1EEENS5_ISB_EEE21__emplace_unique_implIJRPKcRKSA_EEENS_4pairINS_15__tree_iteratorISB_PNS_11__tree_nodeISB_PvEElEEbEEDpOT_, symObjAddr: 0x7954, symBinAddr: 0x342D8, symSize: 0x1E4 }
  - { offset: 0xCF94B, size: 0x8, addend: 0x0, symName: __ZNK6VSTGUI12BitmapFilter10FilterBase14getInputBitmapEv, symObjAddr: 0x1D20, symBinAddr: 0x2ED30, symSize: 0x17C }
  - { offset: 0xCFF90, size: 0x8, addend: 0x0, symName: __ZN6VSTGUI12BitmapFilter7IFilterD1Ev, symObjAddr: 0x1EFC, symBinAddr: 0x15D840, symSize: 0x4 }
  - { offset: 0xCFFBB, size: 0x8, addend: 0x0, symName: __ZN6VSTGUI12BitmapFilter7IFilterD0Ev, symObjAddr: 0x1F00, symBinAddr: 0x15D844, symSize: 0x4 }
  - { offset: 0xCFFE6, size: 0x8, addend: 0x0, symName: __ZN6VSTGUI12BitmapFilter10FilterBaseD1Ev, symObjAddr: 0x1F18, symBinAddr: 0x15D848, symSize: 0x4 }
  - { offset: 0xD0011, size: 0x8, addend: 0x0, symName: __ZN6VSTGUI12BitmapFilter10FilterBaseD0Ev, symObjAddr: 0x1F1C, symBinAddr: 0x15D84C, symSize: 0x4 }
  - { offset: 0xD00A4, size: 0x8, addend: 0x0, symName: __ZN6VSTGUI12BitmapFilter8Standard7BoxBlur14CreateFunctionEPKc, symObjAddr: 0x1F80, symBinAddr: 0x2EF0C, symSize: 0x40 }
  - { offset: 0xD00D8, size: 0x8, addend: 0x0, symName: __ZN6VSTGUI12BitmapFilter8Standard7BoxBlurC1Ev, symObjAddr: 0x2180, symBinAddr: 0x2F10C, symSize: 0x2FC }
  - { offset: 0xD0BBE, size: 0x8, addend: 0x0, symName: __ZN6VSTGUI12BitmapFilter8Standard8SetColor14CreateFunctionEPKc, symObjAddr: 0x1FC0, symBinAddr: 0x2EF4C, symSize: 0x40 }
  - { offset: 0xD0BF2, size: 0x8, addend: 0x0, symName: __ZN6VSTGUI12BitmapFilter8Standard8SetColorC1Ev, symObjAddr: 0x5628, symBinAddr: 0x325B4, symSize: 0x184 }
  - { offset: 0xD0FD4, size: 0x8, addend: 0x0, symName: __ZN6VSTGUI12BitmapFilter8Standard9Grayscale14CreateFunctionEPKc, symObjAddr: 0x2000, symBinAddr: 0x2EF8C, symSize: 0x70 }
  - { offset: 0xD1044, size: 0x8, addend: 0x0, symName: __ZN6VSTGUI12BitmapFilter8Standard12SimpleFilterIPFvRNS_6CColorEPNS0_10FilterBaseEEEC2EPKcS8_, symObjAddr: 0x57F0, symBinAddr: 0x3277C, symSize: 0xE0 }
  - { offset: 0xD122B, size: 0x8, addend: 0x0, symName: __ZN6VSTGUI12BitmapFilter8Standard12ReplaceColor14CreateFunctionEPKc, symObjAddr: 0x2070, symBinAddr: 0x2EFFC, symSize: 0x40 }
  - { offset: 0xD125F, size: 0x8, addend: 0x0, symName: __ZN6VSTGUI12BitmapFilter8Standard12ReplaceColorC1Ev, symObjAddr: 0x6080, symBinAddr: 0x3300C, symSize: 0x188 }
  - { offset: 0xD1618, size: 0x8, addend: 0x0, symName: __ZN6VSTGUI12BitmapFilter8Standard14ScaleBiliniear14CreateFunctionEPKc, symObjAddr: 0x20B0, symBinAddr: 0x2F03C, symSize: 0x68 }
  - { offset: 0xD1688, size: 0x8, addend: 0x0, symName: __ZN6VSTGUI12BitmapFilter8Standard9ScaleBaseC2EPKc, symObjAddr: 0x639C, symBinAddr: 0x33328, symSize: 0x164 }
  - { offset: 0xD19F6, size: 0x8, addend: 0x0, symName: __ZN6VSTGUI12BitmapFilter8Standard11ScaleLinear14CreateFunctionEPKc, symObjAddr: 0x2118, symBinAddr: 0x2F0A4, symSize: 0x68 }
  - { offset: 0xD1C00, size: 0x8, addend: 0x0, symName: __ZN6VSTGUI12BitmapFilter10FilterBaseD2Ev, symObjAddr: 0x247C, symBinAddr: 0x2F408, symSize: 0x60 }
  - { offset: 0xD1E54, size: 0x8, addend: 0x0, symName: __ZNSt3__16__treeINS_12__value_typeINS_12basic_stringIcNS_11char_traitsIcEENS_9allocatorIcEEEEN6VSTGUI12BitmapFilter8PropertyEEENS_19__map_value_compareIS7_SB_NS_4lessIS7_EELb1EEENS5_ISB_EEE7destroyEPNS_11__tree_nodeISB_PvEE, symObjAddr: 0x2894, symBinAddr: 0x2F820, symSize: 0x98 }
  - { offset: 0xD211F, size: 0x8, addend: 0x0, symName: __ZN6VSTGUI12BitmapFilter8Standard7BoxBlurD1Ev, symObjAddr: 0x24DC, symBinAddr: 0x2F468, symSize: 0xC }
  - { offset: 0xD2155, size: 0x8, addend: 0x0, symName: __ZN6VSTGUI12BitmapFilter8Standard7BoxBlurD2Ev, symObjAddr: 0x292C, symBinAddr: 0x2F8B8, symSize: 0x110 }
  - { offset: 0xD2741, size: 0x8, addend: 0x0, symName: __ZN6VSTGUI12BitmapFilter8Standard7BoxBlurD0Ev, symObjAddr: 0x24E8, symBinAddr: 0x2F474, symSize: 0x1C }
  - { offset: 0xD28E9, size: 0x8, addend: 0x0, symName: __ZN6VSTGUI12BitmapFilter8Standard7BoxBlur3runEb, symObjAddr: 0x2504, symBinAddr: 0x2F490, symSize: 0x390 }
  - { offset: 0xD2F80, size: 0x8, addend: 0x0, symName: __ZN6VSTGUI12BitmapFilter8Standard7BoxBlur3runERNS_18CBitmapPixelAccessES4_jb, symObjAddr: 0x2A3C, symBinAddr: 0x2F9C8, symSize: 0x154 }
  - { offset: 0xD3296, size: 0x8, addend: 0x0, symName: __ZN6VSTGUI12BitmapFilter8Standard7BoxBlur4algoILb1ELb0ELb0ELb0EEEvPhS4_iii, symObjAddr: 0x2B90, symBinAddr: 0x2FB1C, symSize: 0xB08 }
  - { offset: 0xD3FD1, size: 0x8, addend: 0x0, symName: __ZN6VSTGUI12BitmapFilter8Standard7BoxBlur4algoILb1ELb1ELb1ELb1EEEvPhS4_iii, symObjAddr: 0x41A4, symBinAddr: 0x31130, symSize: 0x1484 }
  - { offset: 0xD56CB, size: 0x8, addend: 0x0, symName: __ZN6VSTGUI12BitmapFilter8Standard7BoxBlur4algoILb0ELb0ELb0ELb1EEEvPhS4_iii, symObjAddr: 0x3698, symBinAddr: 0x30624, symSize: 0xB0C }
  - { offset: 0xD658A, size: 0x8, addend: 0x0, symName: __ZN6VSTGUI12BitmapFilter8Standard12SimpleFilterIPFvRNS_6CColorEPNS0_10FilterBaseEEED2Ev, symObjAddr: 0x58D0, symBinAddr: 0x3285C, symSize: 0x60 }
  - { offset: 0xD67B4, size: 0x8, addend: 0x0, symName: __ZN6VSTGUI12BitmapFilter8Standard8SetColor15processSetColorERNS_6CColorEPNS0_10FilterBaseE, symObjAddr: 0x57AC, symBinAddr: 0x32738, symSize: 0x44 }
  - { offset: 0xD6843, size: 0x8, addend: 0x0, symName: __ZN6VSTGUI12BitmapFilter8Standard12SimpleFilterIPFvRNS_6CColorEPNS0_10FilterBaseEEED1Ev, symObjAddr: 0x5930, symBinAddr: 0x328BC, symSize: 0x54 }
  - { offset: 0xD6A6F, size: 0x8, addend: 0x0, symName: __ZN6VSTGUI12BitmapFilter8Standard12SimpleFilterIPFvRNS_6CColorEPNS0_10FilterBaseEEED0Ev, symObjAddr: 0x5984, symBinAddr: 0x32910, symSize: 0x54 }
  - { offset: 0xD6DA2, size: 0x8, addend: 0x0, symName: __ZN6VSTGUI12BitmapFilter8Standard12SimpleFilterIPFvRNS_6CColorEPNS0_10FilterBaseEEE3runEb, symObjAddr: 0x59D8, symBinAddr: 0x32964, symSize: 0x274 }
  - { offset: 0xD7213, size: 0x8, addend: 0x0, symName: __ZN6VSTGUI12BitmapFilter8Standard12SimpleFilterIPFvRNS_6CColorEPNS0_10FilterBaseEEE3runERNS_18CBitmapPixelAccessESB_, symObjAddr: 0x5D9C, symBinAddr: 0x32D28, symSize: 0x1E0 }
  - { offset: 0xD7403, size: 0x8, addend: 0x0, symName: __ZN6VSTGUI12BitmapFilter8Standard8SetColorD1Ev, symObjAddr: 0x5C4C, symBinAddr: 0x32BD8, symSize: 0x54 }
  - { offset: 0xD7647, size: 0x8, addend: 0x0, symName: __ZN6VSTGUI12BitmapFilter8Standard8SetColorD0Ev, symObjAddr: 0x5CA0, symBinAddr: 0x32C2C, symSize: 0x54 }
  - { offset: 0xD78AA, size: 0x8, addend: 0x0, symName: __ZN6VSTGUI12BitmapFilter8Standard8SetColor3runEb, symObjAddr: 0x5CF4, symBinAddr: 0x32C80, symSize: 0xA8 }
  - { offset: 0xD7A1B, size: 0x8, addend: 0x0, symName: __ZN6VSTGUI12BitmapFilter8Standard9Grayscale16processGrayscaleERNS_6CColorEPNS0_10FilterBaseE, symObjAddr: 0x5F7C, symBinAddr: 0x32F08, symSize: 0x5C }
  - { offset: 0xD7A51, size: 0x8, addend: 0x0, symName: __ZN6VSTGUI12BitmapFilter8Standard9Grayscale16processGrayscaleERNS_6CColorEPNS0_10FilterBaseE, symObjAddr: 0x5F7C, symBinAddr: 0x32F08, symSize: 0x5C }
  - { offset: 0xD7A93, size: 0x8, addend: 0x0, symName: __ZN6VSTGUI12BitmapFilter8Standard9GrayscaleD1Ev, symObjAddr: 0x5FD8, symBinAddr: 0x32F64, symSize: 0x54 }
  - { offset: 0xD7CD7, size: 0x8, addend: 0x0, symName: __ZN6VSTGUI12BitmapFilter8Standard9GrayscaleD0Ev, symObjAddr: 0x602C, symBinAddr: 0x32FB8, symSize: 0x54 }
  - { offset: 0xD7F43, size: 0x8, addend: 0x0, symName: __ZN6VSTGUI12BitmapFilter8Standard12ReplaceColor14processReplaceERNS_6CColorEPNS0_10FilterBaseE, symObjAddr: 0x6208, symBinAddr: 0x33194, symSize: 0x4C }
  - { offset: 0xD7F88, size: 0x8, addend: 0x0, symName: __ZN6VSTGUI12BitmapFilter8Standard12ReplaceColor14processReplaceERNS_6CColorEPNS0_10FilterBaseE, symObjAddr: 0x6208, symBinAddr: 0x33194, symSize: 0x4C }
  - { offset: 0xD7FFC, size: 0x8, addend: 0x0, symName: __ZN6VSTGUI12BitmapFilter8Standard12ReplaceColorD1Ev, symObjAddr: 0x6254, symBinAddr: 0x331E0, symSize: 0x54 }
  - { offset: 0xD8240, size: 0x8, addend: 0x0, symName: __ZN6VSTGUI12BitmapFilter8Standard12ReplaceColorD0Ev, symObjAddr: 0x62A8, symBinAddr: 0x33234, symSize: 0x54 }
  - { offset: 0xD848B, size: 0x8, addend: 0x0, symName: __ZN6VSTGUI12BitmapFilter8Standard12ReplaceColor3runEb, symObjAddr: 0x62FC, symBinAddr: 0x33288, symSize: 0xA0 }
  - { offset: 0xD85E7, size: 0x8, addend: 0x0, symName: __ZN6VSTGUI12BitmapFilter8Standard9ScaleBaseD1Ev, symObjAddr: 0x6500, symBinAddr: 0x15D850, symSize: 0x4 }
  - { offset: 0xD8613, size: 0x8, addend: 0x0, symName: __ZN6VSTGUI12BitmapFilter8Standard9ScaleBaseD0Ev, symObjAddr: 0x6504, symBinAddr: 0x15D854, symSize: 0x4 }
  - { offset: 0xD86A2, size: 0x8, addend: 0x0, symName: __ZN6VSTGUI12BitmapFilter8Standard9ScaleBase3runEb, symObjAddr: 0x6508, symBinAddr: 0x3348C, symSize: 0x228 }
  - { offset: 0xD8ABE, size: 0x8, addend: 0x0, symName: __ZN6VSTGUI12BitmapFilter8Standard14ScaleBiliniearD1Ev, symObjAddr: 0x6730, symBinAddr: 0x336B4, symSize: 0x54 }
  - { offset: 0xD8D02, size: 0x8, addend: 0x0, symName: __ZN6VSTGUI12BitmapFilter8Standard14ScaleBiliniearD0Ev, symObjAddr: 0x6784, symBinAddr: 0x33708, symSize: 0x54 }
  - { offset: 0xD8F63, size: 0x8, addend: 0x0, symName: __ZN6VSTGUI12BitmapFilter8Standard14ScaleBiliniear7processERNS_18CBitmapPixelAccessES4_, symObjAddr: 0x67D8, symBinAddr: 0x3375C, symSize: 0x3F8 }
  - { offset: 0xD9367, size: 0x8, addend: 0x0, symName: __ZN6VSTGUI12BitmapFilter8Standard11ScaleLinearD1Ev, symObjAddr: 0x6BD0, symBinAddr: 0x33B54, symSize: 0x54 }
  - { offset: 0xD95AB, size: 0x8, addend: 0x0, symName: __ZN6VSTGUI12BitmapFilter8Standard11ScaleLinearD0Ev, symObjAddr: 0x6C24, symBinAddr: 0x33BA8, symSize: 0x54 }
  - { offset: 0xD97F6, size: 0x8, addend: 0x0, symName: __ZN6VSTGUI12BitmapFilter8Standard11ScaleLinear7processERNS_18CBitmapPixelAccessES4_, symObjAddr: 0x6C78, symBinAddr: 0x33BFC, symSize: 0x204 }
  - { offset: 0xD9D83, size: 0x8, addend: 0x0, symName: __ZNSt3__16__treeINS_12__value_typeINS_12basic_stringIcNS_11char_traitsIcEENS_9allocatorIcEEEEPFPN6VSTGUI12BitmapFilter7IFilterEPKcEEENS_19__map_value_compareIS7_SG_NS_4lessIS7_EELb1EEENS5_ISG_EEE16__construct_nodeIJRSD_RSF_EEENS_10unique_ptrINS_11__tree_nodeISG_PvEENS_22__tree_node_destructorINS5_IST_EEEEEEDpOT_, symObjAddr: 0x7098, symBinAddr: 0x33F94, symSize: 0xFC }
  - { offset: 0xDA698, size: 0x8, addend: 0x0, symName: __ZNSt3__110unique_ptrINS_11__tree_nodeINS_12__value_typeINS_12basic_stringIcNS_11char_traitsIcEENS_9allocatorIcEEEEPFPN6VSTGUI12BitmapFilter7IFilterEPKcEEEPvEENS_22__tree_node_destructorINS6_ISJ_EEEEED1B8ne180100Ev, symObjAddr: 0x7194, symBinAddr: 0x34090, symSize: 0x4C }
  - { offset: 0xDADEA, size: 0x8, addend: 0x0, symName: __ZNSt3__110unique_ptrINS_11__tree_nodeINS_12__value_typeINS_12basic_stringIcNS_11char_traitsIcEENS_9allocatorIcEEEEN6VSTGUI12BitmapFilter8PropertyEEEPvEENS_22__tree_node_destructorINS6_ISE_EEEEED1B8ne180100Ev, symObjAddr: 0x78D4, symBinAddr: 0x34258, symSize: 0x80 }
  - { offset: 0xDB471, size: 0x8, addend: 0x0, symName: __ZNSt3__14pairIKNS_12basic_stringIcNS_11char_traitsIcEENS_9allocatorIcEEEEN6VSTGUI12BitmapFilter8PropertyEEC2B8ne180100IRPKcRKSA_Li0EEEOT_OT0_, symObjAddr: 0x7B38, symBinAddr: 0x344BC, symSize: 0xE8 }
  - { offset: 0xE0EB9, size: 0x8, addend: 0x0, symName: __ZNSt3__124__put_character_sequenceB8ne180100IcNS_11char_traitsIcEEEERNS_13basic_ostreamIT_T0_EES7_PKS4_m, symObjAddr: 0x15E8, symBinAddr: 0x35AF4, symSize: 0x164 }
  - { offset: 0xE2AD6, size: 0x8, addend: 0x0, symName: __ZNSt3__116__pad_and_outputB8ne180100IcNS_11char_traitsIcEEEENS_19ostreambuf_iteratorIT_T0_EES6_PKS4_S8_S8_RNS_8ios_baseES4_, symObjAddr: 0x174C, symBinAddr: 0x35C58, symSize: 0x1A4 }
  - { offset: 0xE4A70, size: 0x8, addend: 0x0, symName: __ZNK6VSTGUI6CColor12getLightnessEv, symObjAddr: 0x0, symBinAddr: 0x345A4, symSize: 0x48 }
  - { offset: 0xE4B54, size: 0x8, addend: 0x0, symName: __ZNK6VSTGUI6CColor5toHSLERdS1_S1_, symObjAddr: 0x48, symBinAddr: 0x345EC, symSize: 0x14C }
  - { offset: 0xE4D5B, size: 0x8, addend: 0x0, symName: __ZN6VSTGUI6CColor7fromHSLEddd, symObjAddr: 0x194, symBinAddr: 0x34738, symSize: 0x260 }
  - { offset: 0xE50C2, size: 0x8, addend: 0x0, symName: __ZNK6VSTGUI6CColor5toHSVERdS1_S1_, symObjAddr: 0x3F4, symBinAddr: 0x34998, symSize: 0x15C }
  - { offset: 0xE5165, size: 0x8, addend: 0x0, symName: __ZNK6VSTGUI6CColor5toHSVERdS1_S1_, symObjAddr: 0x3F4, symBinAddr: 0x34998, symSize: 0x15C }
  - { offset: 0xE520F, size: 0x8, addend: 0x0, symName: __ZN6VSTGUI6CColor7fromHSVEddd, symObjAddr: 0x550, symBinAddr: 0x34AF4, symSize: 0x288 }
  - { offset: 0xE5550, size: 0x8, addend: 0x0, symName: __ZN6VSTGUI6CColor21isColorRepresentationEPKc, symObjAddr: 0x7D8, symBinAddr: 0x34D7C, symSize: 0x3C }
  - { offset: 0xE5725, size: 0x8, addend: 0x0, symName: __ZN6VSTGUI6CColor10fromStringEPKc, symObjAddr: 0x814, symBinAddr: 0x34DB8, symSize: 0xFC }
  - { offset: 0xE67E7, size: 0x8, addend: 0x0, symName: __ZNK6VSTGUI6CColor8toStringEv, symObjAddr: 0x910, symBinAddr: 0x34EB4, symSize: 0x46C }
  - { offset: 0xE72BE, size: 0x8, addend: 0x0, symName: __ZNKSt3__115basic_stringbufIcNS_11char_traitsIcEENS_9allocatorIcEEE3strEv, symObjAddr: 0x18F0, symBinAddr: 0x35DFC, symSize: 0x258 }
  - { offset: 0xE793F, size: 0x8, addend: 0x0, symName: __ZNSt3__118basic_stringstreamIcNS_11char_traitsIcEENS_9allocatorIcEEED1Ev, symObjAddr: 0xD7C, symBinAddr: 0x35320, symSize: 0x94 }
  - { offset: 0xE7AD9, size: 0x8, addend: 0x0, symName: __ZThn16_NSt3__118basic_stringstreamIcNS_11char_traitsIcEENS_9allocatorIcEEED1Ev, symObjAddr: 0xE10, symBinAddr: 0x353B4, symSize: 0x8C }
  - { offset: 0xE7C88, size: 0x8, addend: 0x0, symName: __ZTv0_n24_NSt3__118basic_stringstreamIcNS_11char_traitsIcEENS_9allocatorIcEEED1Ev, symObjAddr: 0xE9C, symBinAddr: 0x35440, symSize: 0x94 }
  - { offset: 0xE7E35, size: 0x8, addend: 0x0, symName: __ZNSt3__118basic_stringstreamIcNS_11char_traitsIcEENS_9allocatorIcEEED0Ev, symObjAddr: 0xF30, symBinAddr: 0x354D4, symSize: 0x94 }
  - { offset: 0xE8007, size: 0x8, addend: 0x0, symName: __ZThn16_NSt3__118basic_stringstreamIcNS_11char_traitsIcEENS_9allocatorIcEEED0Ev, symObjAddr: 0xFC4, symBinAddr: 0x35568, symSize: 0x94 }
  - { offset: 0xE81D4, size: 0x8, addend: 0x0, symName: __ZTv0_n24_NSt3__118basic_stringstreamIcNS_11char_traitsIcEENS_9allocatorIcEEED0Ev, symObjAddr: 0x1058, symBinAddr: 0x355FC, symSize: 0x9C }
  - { offset: 0xE839D, size: 0x8, addend: 0x0, symName: __ZNSt3__115basic_stringbufIcNS_11char_traitsIcEENS_9allocatorIcEEED1Ev, symObjAddr: 0x10F4, symBinAddr: 0x35698, symSize: 0x50 }
  - { offset: 0xE84FC, size: 0x8, addend: 0x0, symName: __ZNSt3__115basic_stringbufIcNS_11char_traitsIcEENS_9allocatorIcEEED0Ev, symObjAddr: 0x1144, symBinAddr: 0x356E8, symSize: 0x58 }
  - { offset: 0xE87A6, size: 0x8, addend: 0x0, symName: __ZNSt3__115basic_stringbufIcNS_11char_traitsIcEENS_9allocatorIcEEE7seekoffExNS_8ios_base7seekdirEj, symObjAddr: 0x119C, symBinAddr: 0x35740, symSize: 0x124 }
  - { offset: 0xE89DE, size: 0x8, addend: 0x0, symName: __ZNSt3__115basic_stringbufIcNS_11char_traitsIcEENS_9allocatorIcEEE7seekposENS_4fposI11__mbstate_tEEj, symObjAddr: 0x12C0, symBinAddr: 0x35864, symSize: 0x18 }
  - { offset: 0xE8A80, size: 0x8, addend: 0x0, symName: __ZNSt3__115basic_stringbufIcNS_11char_traitsIcEENS_9allocatorIcEEE9underflowEv, symObjAddr: 0x12D8, symBinAddr: 0x3587C, symSize: 0x50 }
  - { offset: 0xE8B28, size: 0x8, addend: 0x0, symName: __ZNSt3__115basic_stringbufIcNS_11char_traitsIcEENS_9allocatorIcEEE9pbackfailEi, symObjAddr: 0x1328, symBinAddr: 0x358CC, symSize: 0x6C }
  - { offset: 0xE8CEE, size: 0x8, addend: 0x0, symName: __ZNSt3__115basic_stringbufIcNS_11char_traitsIcEENS_9allocatorIcEEE8overflowEi, symObjAddr: 0x1394, symBinAddr: 0x35938, symSize: 0x1BC }
  - { offset: 0xFDDFB, size: 0x8, addend: 0x0, symName: __ZN6VSTGUI12CDataBrowserC2ERKNS_5CRectEPNS_20IDataBrowserDelegateEidPNS_7CBitmapE, symObjAddr: 0x0, symBinAddr: 0x36054, symSize: 0x1C0 }
  - { offset: 0xFE181, size: 0x8, addend: 0x0, symName: __ZN6VSTGUI16CDataBrowserViewC1ERKNS_5CRectEPNS_20IDataBrowserDelegateEPNS_12CDataBrowserE, symObjAddr: 0x1C0, symBinAddr: 0x36214, symSize: 0xA0 }
  - { offset: 0xFE1F4, size: 0x8, addend: 0x0, symName: __ZN6VSTGUI12CDataBrowserC1ERKNS_5CRectEPNS_20IDataBrowserDelegateEidPNS_7CBitmapE, symObjAddr: 0x260, symBinAddr: 0x362B4, symSize: 0x1C0 }
  - { offset: 0xFE576, size: 0x8, addend: 0x0, symName: __ZN6VSTGUI12CDataBrowserD2Ev, symObjAddr: 0x420, symBinAddr: 0x36474, symSize: 0x90 }
  - { offset: 0xFE751, size: 0x8, addend: 0x0, symName: __ZN6VSTGUI12CDataBrowserD1Ev, symObjAddr: 0x4C0, symBinAddr: 0x36504, symSize: 0x84 }
  - { offset: 0xFE921, size: 0x8, addend: 0x0, symName: __ZThn32_N6VSTGUI12CDataBrowserD1Ev, symObjAddr: 0x544, symBinAddr: 0x36588, symSize: 0x88 }
  - { offset: 0xFEADC, size: 0x8, addend: 0x0, symName: __ZThn40_N6VSTGUI12CDataBrowserD1Ev, symObjAddr: 0x5CC, symBinAddr: 0x36610, symSize: 0x88 }
  - { offset: 0xFEC97, size: 0x8, addend: 0x0, symName: __ZN6VSTGUI12CDataBrowserD0Ev, symObjAddr: 0x654, symBinAddr: 0x36698, symSize: 0x88 }
  - { offset: 0xFEE6C, size: 0x8, addend: 0x0, symName: __ZThn32_N6VSTGUI12CDataBrowserD0Ev, symObjAddr: 0x6DC, symBinAddr: 0x36720, symSize: 0x8C }
  - { offset: 0xFF02C, size: 0x8, addend: 0x0, symName: __ZThn40_N6VSTGUI12CDataBrowserD0Ev, symObjAddr: 0x768, symBinAddr: 0x367AC, symSize: 0x8C }
  - { offset: 0xFF1EC, size: 0x8, addend: 0x0, symName: __ZN6VSTGUI12CDataBrowser16setAutosizeFlagsEi, symObjAddr: 0x7F4, symBinAddr: 0x36838, symSize: 0x4 }
  - { offset: 0xFF248, size: 0x8, addend: 0x0, symName: __ZN6VSTGUI12CDataBrowser11setViewSizeERKNS_5CRectEb, symObjAddr: 0x7F8, symBinAddr: 0x3683C, symSize: 0xA0 }
  - { offset: 0xFF2C6, size: 0x8, addend: 0x0, symName: __ZN6VSTGUI12CDataBrowser13setWantsFocusEb, symObjAddr: 0x898, symBinAddr: 0x368DC, symSize: 0x18 }
  - { offset: 0xFF30E, size: 0x8, addend: 0x0, symName: __ZNK6VSTGUI12CDataBrowser10wantsFocusEv, symObjAddr: 0x8B0, symBinAddr: 0x368F4, symSize: 0x18 }
  - { offset: 0xFF343, size: 0x8, addend: 0x0, symName: __ZN6VSTGUI12CDataBrowser8attachedEPNS_5CViewE, symObjAddr: 0x8C8, symBinAddr: 0x3690C, symSize: 0x54 }
  - { offset: 0xFF3CD, size: 0x8, addend: 0x0, symName: __ZN6VSTGUI12CDataBrowser7removedEPNS_5CViewE, symObjAddr: 0x91C, symBinAddr: 0x36960, symSize: 0x48 }
  - { offset: 0xFF435, size: 0x8, addend: 0x0, symName: __ZN6VSTGUI12CDataBrowser15onKeyboardEventERNS_13KeyboardEventE, symObjAddr: 0x964, symBinAddr: 0x369A8, symSize: 0x18 }
  - { offset: 0xFF478, size: 0x8, addend: 0x0, symName: __ZN6VSTGUI12CDataBrowser11onMouseDownERNS_6CPointERKNS_12CButtonStateE, symObjAddr: 0x97C, symBinAddr: 0x369C0, symSize: 0x78 }
  - { offset: 0xFF61B, size: 0x8, addend: 0x0, symName: __ZN6VSTGUI12CDataBrowser12valueChangedEPNS_8CControlE, symObjAddr: 0x9F4, symBinAddr: 0x36A38, symSize: 0x1C0 }
  - { offset: 0xFF8A1, size: 0x8, addend: 0x0, symName: __ZN6VSTGUI16CDataBrowserView7getCellERKNS_6CPointERNS_12CDataBrowser4CellE, symObjAddr: 0xBB4, symBinAddr: 0x36BF8, symSize: 0x1B0 }
  - { offset: 0xFFAEA, size: 0x8, addend: 0x0, symName: __ZThn32_N6VSTGUI12CDataBrowser12valueChangedEPNS_8CControlE, symObjAddr: 0xD64, symBinAddr: 0x36DA8, symSize: 0x8 }
  - { offset: 0xFFB17, size: 0x8, addend: 0x0, symName: __ZN6VSTGUI12CDataBrowser19recalculateSubViewsEv, symObjAddr: 0xD6C, symBinAddr: 0x36DB0, symSize: 0x4 }
  - { offset: 0xFFDD8, size: 0x8, addend: 0x0, symName: __ZN6VSTGUI12CDataBrowser17recalculateLayoutEb, symObjAddr: 0xD70, symBinAddr: 0x36DB4, symSize: 0x6FC }
  - { offset: 0x1008D3, size: 0x8, addend: 0x0, symName: __ZN6VSTGUI18CDataBrowserHeaderC1ERKNS_5CRectEPNS_20IDataBrowserDelegateEPNS_12CDataBrowserE, symObjAddr: 0x146C, symBinAddr: 0x374B0, symSize: 0x8C }
  - { offset: 0x10092E, size: 0x8, addend: 0x0, symName: __ZN6VSTGUI12CDataBrowser17validateSelectionEv, symObjAddr: 0x14F8, symBinAddr: 0x3753C, symSize: 0xD0 }
  - { offset: 0x100B8E, size: 0x8, addend: 0x0, symName: __ZN6VSTGUI12CDataBrowser10invalidateERKNS0_4CellE, symObjAddr: 0x15C8, symBinAddr: 0x3760C, symSize: 0x4C }
  - { offset: 0x100C2F, size: 0x8, addend: 0x0, symName: __ZN6VSTGUI12CDataBrowser13invalidateRowEi, symObjAddr: 0x1614, symBinAddr: 0x37658, symSize: 0x50 }
  - { offset: 0x100CC1, size: 0x8, addend: 0x0, symName: __ZN6VSTGUI16CDataBrowserView12getRowBoundsEi, symObjAddr: 0x16F8, symBinAddr: 0x3773C, symSize: 0x100 }
  - { offset: 0x100DDE, size: 0x8, addend: 0x0, symName: __ZN6VSTGUI16CDataBrowserView13invalidateRowEi, symObjAddr: 0x1664, symBinAddr: 0x376A8, symSize: 0x4C }
  - { offset: 0x100E39, size: 0x8, addend: 0x0, symName: __ZN6VSTGUI12CDataBrowser14makeRowVisibleEi, symObjAddr: 0x16B0, symBinAddr: 0x376F4, symSize: 0x48 }
  - { offset: 0x10120C, size: 0x8, addend: 0x0, symName: __ZN6VSTGUI12CDataBrowser14setSelectedRowEib, symObjAddr: 0x17F8, symBinAddr: 0x3783C, symSize: 0x218 }
  - { offset: 0x101A0D, size: 0x8, addend: 0x0, symName: __ZNK6VSTGUI12CDataBrowser14getSelectedRowEv, symObjAddr: 0x1A10, symBinAddr: 0x37A54, symSize: 0x1C }
  - { offset: 0x101A34, size: 0x8, addend: 0x0, symName: __ZNK6VSTGUI12CDataBrowser14getSelectedRowEv, symObjAddr: 0x1A10, symBinAddr: 0x37A54, symSize: 0x1C }
  - { offset: 0x101A61, size: 0x8, addend: 0x0, symName: __ZNK6VSTGUI12CDataBrowser14getSelectedRowEv, symObjAddr: 0x1A10, symBinAddr: 0x37A54, symSize: 0x1C }
  - { offset: 0x101AFC, size: 0x8, addend: 0x0, symName: __ZN6VSTGUI12CDataBrowser9selectRowEi, symObjAddr: 0x1A2C, symBinAddr: 0x37A70, symSize: 0x23C }
  - { offset: 0x102068, size: 0x8, addend: 0x0, symName: __ZN6VSTGUI12CDataBrowser11unselectRowEi, symObjAddr: 0x1C68, symBinAddr: 0x37CAC, symSize: 0x104 }
  - { offset: 0x102096, size: 0x8, addend: 0x0, symName: __ZN6VSTGUI12CDataBrowser11unselectRowEi, symObjAddr: 0x1C68, symBinAddr: 0x37CAC, symSize: 0x104 }
  - { offset: 0x10243E, size: 0x8, addend: 0x0, symName: __ZN6VSTGUI12CDataBrowser11unselectAllEv, symObjAddr: 0x1D6C, symBinAddr: 0x37DB0, symSize: 0x9C }
  - { offset: 0x1025CE, size: 0x8, addend: 0x0, symName: __ZN6VSTGUI12CDataBrowser13getCellBoundsERKNS0_4CellE, symObjAddr: 0x1E08, symBinAddr: 0x37E4C, symSize: 0x14C }
  - { offset: 0x1027A7, size: 0x8, addend: 0x0, symName: __ZNK6VSTGUI12CDataBrowser9getCellAtERKNS_6CPointE, symObjAddr: 0x1F54, symBinAddr: 0x37F98, symSize: 0xE4 }
  - { offset: 0x1028E0, size: 0x8, addend: 0x0, symName: __ZN6VSTGUI12CDataBrowser13beginTextEditERKNS0_4CellEPKc, symObjAddr: 0x2038, symBinAddr: 0x3807C, symSize: 0x130 }
  - { offset: 0x102AFD, size: 0x8, addend: 0x0, symName: __ZN6VSTGUI12CDataBrowser6notifyEPNS_11CBaseObjectEPKc, symObjAddr: 0x2168, symBinAddr: 0x381AC, symSize: 0x130 }
  - { offset: 0x102CEC, size: 0x8, addend: 0x0, symName: __ZN6VSTGUI18CDataBrowserHeaderC2ERKNS_5CRectEPNS_20IDataBrowserDelegateEPNS_12CDataBrowserE, symObjAddr: 0x2298, symBinAddr: 0x382DC, symSize: 0x94 }
  - { offset: 0x102D6C, size: 0x8, addend: 0x0, symName: __ZN6VSTGUI18CDataBrowserHeader4drawEPNS_12CDrawContextE, symObjAddr: 0x232C, symBinAddr: 0x38370, symSize: 0x38 }
  - { offset: 0x102DEB, size: 0x8, addend: 0x0, symName: __ZN6VSTGUI18CDataBrowserHeader8drawRectEPNS_12CDrawContextERKNS_5CRectE, symObjAddr: 0x2364, symBinAddr: 0x383A8, symSize: 0x1CC }
  - { offset: 0x1030F5, size: 0x8, addend: 0x0, symName: __ZN6VSTGUI18CDataBrowserHeader16getColumnAtPointERNS_6CPointE, symObjAddr: 0x2530, symBinAddr: 0x38574, symSize: 0x154 }
  - { offset: 0x103269, size: 0x8, addend: 0x0, symName: __ZN6VSTGUI18CDataBrowserHeader11onMouseDownERNS_6CPointERKNS_12CButtonStateE, symObjAddr: 0x2684, symBinAddr: 0x386C8, symSize: 0xCC }
  - { offset: 0x103335, size: 0x8, addend: 0x0, symName: __ZN6VSTGUI18CDataBrowserHeader12onMouseMovedERNS_6CPointERKNS_12CButtonStateE, symObjAddr: 0x2750, symBinAddr: 0x38794, symSize: 0x170 }
  - { offset: 0x103496, size: 0x8, addend: 0x0, symName: __ZN6VSTGUI18CDataBrowserHeader13onMouseExitedERNS_6CPointERKNS_12CButtonStateE, symObjAddr: 0x28C0, symBinAddr: 0x38904, symSize: 0x20 }
  - { offset: 0x1034D9, size: 0x8, addend: 0x0, symName: __ZN6VSTGUI18CDataBrowserHeader9onMouseUpERNS_6CPointERKNS_12CButtonStateE, symObjAddr: 0x28E0, symBinAddr: 0x38924, symSize: 0x20 }
  - { offset: 0x103563, size: 0x8, addend: 0x0, symName: __ZN6VSTGUI16CDataBrowserViewC2ERKNS_5CRectEPNS_20IDataBrowserDelegateEPNS_12CDataBrowserE, symObjAddr: 0x2900, symBinAddr: 0x38944, symSize: 0xD4 }
  - { offset: 0x103644, size: 0x8, addend: 0x0, symName: __ZN6VSTGUI16CDataBrowserView4drawEPNS_12CDrawContextE, symObjAddr: 0x29D4, symBinAddr: 0x38A18, symSize: 0x38 }
  - { offset: 0x103F44, size: 0x8, addend: 0x0, symName: __ZN6VSTGUI16CDataBrowserView8drawRectEPNS_12CDrawContextERKNS_5CRectE, symObjAddr: 0x2A0C, symBinAddr: 0x38A50, symSize: 0x708 }
  - { offset: 0x1050E3, size: 0x8, addend: 0x0, symName: __ZN6VSTGUI16CDataBrowserView11onMouseDownERNS_6CPointERKNS_12CButtonStateE, symObjAddr: 0x3114, symBinAddr: 0x39158, symSize: 0x21C }
  - { offset: 0x10548C, size: 0x8, addend: 0x0, symName: __ZN6VSTGUI16CDataBrowserView12onMouseMovedERNS_6CPointERKNS_12CButtonStateE, symObjAddr: 0x3330, symBinAddr: 0x39374, symSize: 0x78 }
  - { offset: 0x105553, size: 0x8, addend: 0x0, symName: __ZN6VSTGUI16CDataBrowserView9onMouseUpERNS_6CPointERKNS_12CButtonStateE, symObjAddr: 0x33A8, symBinAddr: 0x393EC, symSize: 0x78 }
  - { offset: 0x10561A, size: 0x8, addend: 0x0, symName: __ZN6VSTGUI16CDataBrowserView13onMouseExitedERNS_6CPointERKNS_12CButtonStateE, symObjAddr: 0x3420, symBinAddr: 0x39464, symSize: 0x1C }
  - { offset: 0x10567C, size: 0x8, addend: 0x0, symName: __ZN6VSTGUI16CDataBrowserView6onDropENS_13DragEventDataE, symObjAddr: 0x343C, symBinAddr: 0x39480, symSize: 0x88 }
  - { offset: 0x10579F, size: 0x8, addend: 0x0, symName: __ZThn32_N6VSTGUI16CDataBrowserView6onDropENS_13DragEventDataE, symObjAddr: 0x34C4, symBinAddr: 0x39508, symSize: 0x8C }
  - { offset: 0x105880, size: 0x8, addend: 0x0, symName: __ZN6VSTGUI16CDataBrowserView11onDragEnterENS_13DragEventDataE, symObjAddr: 0x3550, symBinAddr: 0x39594, symSize: 0xEC }
  - { offset: 0x105A19, size: 0x8, addend: 0x0, symName: __ZThn32_N6VSTGUI16CDataBrowserView11onDragEnterENS_13DragEventDataE, symObjAddr: 0x363C, symBinAddr: 0x39680, symSize: 0xF0 }
  - { offset: 0x105B6B, size: 0x8, addend: 0x0, symName: __ZN6VSTGUI16CDataBrowserView11onDragLeaveENS_13DragEventDataE, symObjAddr: 0x372C, symBinAddr: 0x39770, symSize: 0xBC }
  - { offset: 0x105C73, size: 0x8, addend: 0x0, symName: __ZThn32_N6VSTGUI16CDataBrowserView11onDragLeaveENS_13DragEventDataE, symObjAddr: 0x37E8, symBinAddr: 0x3982C, symSize: 0xC4 }
  - { offset: 0x105D4D, size: 0x8, addend: 0x0, symName: __ZN6VSTGUI16CDataBrowserView10onDragMoveENS_13DragEventDataE, symObjAddr: 0x38AC, symBinAddr: 0x398F0, symSize: 0x180 }
  - { offset: 0x105F5A, size: 0x8, addend: 0x0, symName: __ZThn32_N6VSTGUI16CDataBrowserView10onDragMoveENS_13DragEventDataE, symObjAddr: 0x3A2C, symBinAddr: 0x39A70, symSize: 0x8 }
  - { offset: 0x105FC4, size: 0x8, addend: 0x0, symName: __ZN6VSTGUI16CDataBrowserView15onKeyboardEventERNS_13KeyboardEventE, symObjAddr: 0x3A34, symBinAddr: 0x39A78, symSize: 0x1EC }
  - { offset: 0x106243, size: 0x8, addend: 0x0, symName: __ZN6VSTGUI16CDataBrowserView14drawFocusOnTopEv, symObjAddr: 0x3C20, symBinAddr: 0x39C64, symSize: 0x8 }
  - { offset: 0x106268, size: 0x8, addend: 0x0, symName: __ZThn24_N6VSTGUI16CDataBrowserView14drawFocusOnTopEv, symObjAddr: 0x3C28, symBinAddr: 0x39C6C, symSize: 0x8 }
  - { offset: 0x1062AC, size: 0x8, addend: 0x0, symName: __ZN6VSTGUI16CDataBrowserView12getFocusPathERNS_13CGraphicsPathE, symObjAddr: 0x3C30, symBinAddr: 0x39C74, symSize: 0x78 }
  - { offset: 0x10636D, size: 0x8, addend: 0x0, symName: __ZThn24_N6VSTGUI16CDataBrowserView12getFocusPathERNS_13CGraphicsPathE, symObjAddr: 0x3CA8, symBinAddr: 0x39CEC, symSize: 0x7C }
  - { offset: 0x106400, size: 0x8, addend: 0x0, symName: __ZN6VSTGUI11CScrollViewD1Ev, symObjAddr: 0x3D84, symBinAddr: 0x39D68, symSize: 0x10 }
  - { offset: 0x106422, size: 0x8, addend: 0x0, symName: __ZN6VSTGUI11CScrollViewD1Ev, symObjAddr: 0x3D84, symBinAddr: 0x39D68, symSize: 0x10 }
  - { offset: 0x10645F, size: 0x8, addend: 0x0, symName: __ZN6VSTGUI11CScrollViewD0Ev, symObjAddr: 0x3D94, symBinAddr: 0x39D78, symSize: 0x20 }
  - { offset: 0x1064C9, size: 0x8, addend: 0x0, symName: __ZNK6VSTGUI11CScrollView7newCopyEv, symObjAddr: 0x3DBC, symBinAddr: 0x39D98, symSize: 0x48 }
  - { offset: 0x106512, size: 0x8, addend: 0x0, symName: __ZNK6VSTGUI5CView11checkUpdateERKNS_5CRectE, symObjAddr: 0x3E04, symBinAddr: 0x39DE0, symSize: 0x90 }
  - { offset: 0x106569, size: 0x8, addend: 0x0, symName: __ZN6VSTGUI5CView14onMouseEnteredERNS_6CPointERKNS_12CButtonStateE, symObjAddr: 0x3E94, symBinAddr: 0x39E70, symSize: 0x8 }
  - { offset: 0x1065AC, size: 0x8, addend: 0x0, symName: __ZN6VSTGUI5CView13onMouseExitedERNS_6CPointERKNS_12CButtonStateE, symObjAddr: 0x3E9C, symBinAddr: 0x39E78, symSize: 0x8 }
  - { offset: 0x1065EF, size: 0x8, addend: 0x0, symName: __ZN6VSTGUI5CView7onWheelERKNS_6CPointERKfRKNS_12CButtonStateE, symObjAddr: 0x3EA4, symBinAddr: 0x39E80, symSize: 0x8 }
  - { offset: 0x106640, size: 0x8, addend: 0x0, symName: __ZNK6VSTGUI5CView10wantsFocusEv, symObjAddr: 0x3EAC, symBinAddr: 0x39E88, symSize: 0x8 }
  - { offset: 0x106665, size: 0x8, addend: 0x0, symName: __ZN6VSTGUI5CView6onIdleEv, symObjAddr: 0x3EB4, symBinAddr: 0x39E90, symSize: 0x4 }
  - { offset: 0x10668A, size: 0x8, addend: 0x0, symName: __ZNK6VSTGUI5CView40wantsWindowActiveStateChangeNotificationEv, symObjAddr: 0x3EB8, symBinAddr: 0x39E94, symSize: 0x8 }
  - { offset: 0x1066B1, size: 0x8, addend: 0x0, symName: __ZN6VSTGUI5CView16onWindowActivateEb, symObjAddr: 0x3EC0, symBinAddr: 0x39E9C, symSize: 0x4 }
  - { offset: 0x1066EA, size: 0x8, addend: 0x0, symName: __ZN6VSTGUI14CViewContainer15asViewContainerEv, symObjAddr: 0x3EC4, symBinAddr: 0x39EA0, symSize: 0x4 }
  - { offset: 0x10670F, size: 0x8, addend: 0x0, symName: __ZNK6VSTGUI14CViewContainer15asViewContainerEv, symObjAddr: 0x3EC8, symBinAddr: 0x39EA4, symSize: 0x4 }
  - { offset: 0x106734, size: 0x8, addend: 0x0, symName: __ZNK6VSTGUI14CViewContainer7newCopyEv, symObjAddr: 0x3ECC, symBinAddr: 0x39EA8, symSize: 0x48 }
  - { offset: 0x10675B, size: 0x8, addend: 0x0, symName: __ZNK6VSTGUI5CView7newCopyEv, symObjAddr: 0x3F14, symBinAddr: 0x39EF0, symSize: 0x48 }
  - { offset: 0x106782, size: 0x8, addend: 0x0, symName: __ZN6VSTGUI5CView8drawRectEPNS_12CDrawContextERKNS_5CRectE, symObjAddr: 0x3F5C, symBinAddr: 0x39F38, symSize: 0xC }
  - { offset: 0x1067E0, size: 0x8, addend: 0x0, symName: __ZNK6VSTGUI5CView7isDirtyEv, symObjAddr: 0x3F68, symBinAddr: 0x39F44, symSize: 0x8 }
  - { offset: 0x106805, size: 0x8, addend: 0x0, symName: __ZN6VSTGUI5CView7invalidEv, symObjAddr: 0x3F70, symBinAddr: 0x39F4C, symSize: 0x44 }
  - { offset: 0x106851, size: 0x8, addend: 0x0, symName: __ZN6VSTGUI5CView17parentSizeChangedEv, symObjAddr: 0x3FB4, symBinAddr: 0x39F90, symSize: 0x4 }
  - { offset: 0x106876, size: 0x8, addend: 0x0, symName: __ZN6VSTGUI5CView9sizeToFitEv, symObjAddr: 0x3FB8, symBinAddr: 0x39F94, symSize: 0x8 }
  - { offset: 0x10689D, size: 0x8, addend: 0x0, symName: __ZN6VSTGUI5CView15asViewContainerEv, symObjAddr: 0x3FC0, symBinAddr: 0x39F9C, symSize: 0x8 }
  - { offset: 0x1068C4, size: 0x8, addend: 0x0, symName: __ZNK6VSTGUI5CView15asViewContainerEv, symObjAddr: 0x3FC8, symBinAddr: 0x39FA4, symSize: 0x8 }
  - { offset: 0x1068EB, size: 0x8, addend: 0x0, symName: __ZN6VSTGUI19ViewListenerAdapter12viewAttachedEPNS_5CViewE, symObjAddr: 0x400C, symBinAddr: 0x39FAC, symSize: 0x4 }
  - { offset: 0x10691E, size: 0x8, addend: 0x0, symName: __ZN6VSTGUI19ViewListenerAdapter11viewRemovedEPNS_5CViewE, symObjAddr: 0x4010, symBinAddr: 0x39FB0, symSize: 0x4 }
  - { offset: 0x106951, size: 0x8, addend: 0x0, symName: __ZN6VSTGUI19ViewListenerAdapter13viewLostFocusEPNS_5CViewE, symObjAddr: 0x4014, symBinAddr: 0x39FB4, symSize: 0x4 }
  - { offset: 0x106984, size: 0x8, addend: 0x0, symName: __ZN6VSTGUI19ViewListenerAdapter13viewTookFocusEPNS_5CViewE, symObjAddr: 0x4018, symBinAddr: 0x39FB8, symSize: 0x4 }
  - { offset: 0x1069B7, size: 0x8, addend: 0x0, symName: __ZN6VSTGUI19ViewListenerAdapter18viewOnMouseEnabledEPNS_5CViewEb, symObjAddr: 0x401C, symBinAddr: 0x39FBC, symSize: 0x4 }
  - { offset: 0x106A23, size: 0x8, addend: 0x0, symName: __ZN6VSTGUI18CDataBrowserHeaderD1Ev, symObjAddr: 0x4020, symBinAddr: 0x39FC0, symSize: 0xC }
  - { offset: 0x106A45, size: 0x8, addend: 0x0, symName: __ZN6VSTGUI18CDataBrowserHeaderD1Ev, symObjAddr: 0x4020, symBinAddr: 0x39FC0, symSize: 0xC }
  - { offset: 0x106A7B, size: 0x8, addend: 0x0, symName: __ZN6VSTGUI18CDataBrowserHeaderD0Ev, symObjAddr: 0x402C, symBinAddr: 0x39FCC, symSize: 0x1C }
  - { offset: 0x106B04, size: 0x8, addend: 0x0, symName: __ZN6VSTGUI16CDataBrowserViewD1Ev, symObjAddr: 0x4048, symBinAddr: 0x39FE8, symSize: 0xC }
  - { offset: 0x106B26, size: 0x8, addend: 0x0, symName: __ZN6VSTGUI16CDataBrowserViewD1Ev, symObjAddr: 0x4048, symBinAddr: 0x39FE8, symSize: 0xC }
  - { offset: 0x106B5C, size: 0x8, addend: 0x0, symName: __ZN6VSTGUI16CDataBrowserViewD0Ev, symObjAddr: 0x4054, symBinAddr: 0x39FF4, symSize: 0x1C }
  - { offset: 0x106C25, size: 0x8, addend: 0x0, symName: __ZN6VSTGUI16CDataBrowserView13getDropTargetEv, symObjAddr: 0x4070, symBinAddr: 0x3A010, symSize: 0x30 }
  - { offset: 0x106CAA, size: 0x8, addend: 0x0, symName: __ZThn24_N6VSTGUI16CDataBrowserViewD1Ev, symObjAddr: 0x40A0, symBinAddr: 0x3A040, symSize: 0x10 }
  - { offset: 0x106D15, size: 0x8, addend: 0x0, symName: __ZThn24_N6VSTGUI16CDataBrowserViewD0Ev, symObjAddr: 0x40B0, symBinAddr: 0x3A050, symSize: 0x20 }
  - { offset: 0x106D80, size: 0x8, addend: 0x0, symName: __ZN6VSTGUI13IFocusDrawingD1Ev, symObjAddr: 0x40D0, symBinAddr: 0x15D858, symSize: 0x4 }
  - { offset: 0x106DA9, size: 0x8, addend: 0x0, symName: __ZN6VSTGUI13IFocusDrawingD0Ev, symObjAddr: 0x40D4, symBinAddr: 0x15D85C, symSize: 0x4 }
  - { offset: 0x116F54, size: 0x8, addend: 0x0, symName: __ZN6VSTGUI12CDrawContext9TransformC2ERS0_RKNS_18CGraphicsTransformE, symObjAddr: 0x0, symBinAddr: 0x3A070, symSize: 0xA0 }
  - { offset: 0x116FCE, size: 0x8, addend: 0x0, symName: __ZN6VSTGUI12CDrawContext13pushTransformERKNS_18CGraphicsTransformE, symObjAddr: 0xA0, symBinAddr: 0x3A110, symSize: 0x164 }
  - { offset: 0x11758C, size: 0x8, addend: 0x0, symName: __ZNSt3__15dequeIN6VSTGUI18CGraphicsTransformENS_9allocatorIS2_EEE19__add_back_capacityEv, symObjAddr: 0x32B4, symBinAddr: 0x3D1F8, symSize: 0x5BC }
  - { offset: 0x118868, size: 0x8, addend: 0x0, symName: __ZN6VSTGUI12CDrawContext9TransformD2Ev, symObjAddr: 0x2A4, symBinAddr: 0x3A274, symSize: 0x78 }
  - { offset: 0x1188D4, size: 0x8, addend: 0x0, symName: __ZN6VSTGUI12CDrawContext12popTransformEv, symObjAddr: 0x32C, symBinAddr: 0x3A2EC, symSize: 0xFC }
  - { offset: 0x118E5D, size: 0x8, addend: 0x0, symName: __ZN6VSTGUI12CDrawContext9TransformD1Ev, symObjAddr: 0x428, symBinAddr: 0x3A3E8, symSize: 0x78 }
  - { offset: 0x119131, size: 0x8, addend: 0x0, symName: __ZN6VSTGUI12CDrawContext4Impl5StateC2ERKS2_, symObjAddr: 0x4A0, symBinAddr: 0x3A460, symSize: 0xB0 }
  - { offset: 0x119446, size: 0x8, addend: 0x0, symName: __ZN6VSTGUI12CDrawContext4Impl5StateaSERKS2_, symObjAddr: 0x550, symBinAddr: 0x3A510, symSize: 0xBC }
  - { offset: 0x1195BC, size: 0x8, addend: 0x0, symName: __ZN6VSTGUI12CDrawContext4Impl5StateC1ERKS2_, symObjAddr: 0x60C, symBinAddr: 0x3A5CC, symSize: 0x4 }
  - { offset: 0x1195E6, size: 0x8, addend: 0x0, symName: __ZN6VSTGUI12CDrawContext4Impl5StateC1ERKS2_, symObjAddr: 0x60C, symBinAddr: 0x3A5CC, symSize: 0x4 }
  - { offset: 0x119600, size: 0x8, addend: 0x0, symName: __ZN6VSTGUI12CDrawContext4Impl5StateC2EOS2_, symObjAddr: 0x610, symBinAddr: 0x3A5D0, symSize: 0x70 }
  - { offset: 0x119735, size: 0x8, addend: 0x0, symName: __ZN6VSTGUI12CDrawContext4Impl5StateaSEOS2_, symObjAddr: 0x680, symBinAddr: 0x3A640, symSize: 0x94 }
  - { offset: 0x119858, size: 0x8, addend: 0x0, symName: __ZN6VSTGUI12CDrawContext4Impl5StateC1EOS2_, symObjAddr: 0x714, symBinAddr: 0x3A6D4, symSize: 0x70 }
  - { offset: 0x119E9E, size: 0x8, addend: 0x0, symName: __ZN6VSTGUI12CDrawContextC2ERKNS_5CRectE, symObjAddr: 0x784, symBinAddr: 0x3A744, symSize: 0x224 }
  - { offset: 0x11A4F7, size: 0x8, addend: 0x0, symName: __ZN6VSTGUI12CDrawContext4ImplD2Ev, symObjAddr: 0x2FC8, symBinAddr: 0x3CF0C, symSize: 0xDC }
  - { offset: 0x11AAE3, size: 0x8, addend: 0x0, symName: __ZNSt3__110unique_ptrIN6VSTGUI12CDrawContext4ImplENS_14default_deleteIS3_EEED1B8ne180100Ev, symObjAddr: 0x9A8, symBinAddr: 0x3A968, symSize: 0x34 }
  - { offset: 0x11ABB6, size: 0x8, addend: 0x0, symName: __ZN6VSTGUI12CDrawContextC1ERKNS_5CRectE, symObjAddr: 0x9DC, symBinAddr: 0x3A99C, symSize: 0x208 }
  - { offset: 0x11B339, size: 0x8, addend: 0x0, symName: __ZN6VSTGUI12CDrawContextC2ENSt3__110shared_ptrINS_30IPlatformGraphicsDeviceContextEEERKNS_5CRectEd, symObjAddr: 0xBE4, symBinAddr: 0x3ABA4, symSize: 0xC0 }
  - { offset: 0x11B5DE, size: 0x8, addend: 0x0, symName: __ZN6VSTGUI12CDrawContext11setClipRectERKNS_5CRectE, symObjAddr: 0xCA4, symBinAddr: 0x3AC64, symSize: 0x110 }
  - { offset: 0x11B619, size: 0x8, addend: 0x0, symName: __ZN6VSTGUI12CDrawContext11setClipRectERKNS_5CRectE, symObjAddr: 0xCA4, symBinAddr: 0x3AC64, symSize: 0x110 }
  - { offset: 0x11B860, size: 0x8, addend: 0x0, symName: __ZN6VSTGUI12CDrawContextD2Ev, symObjAddr: 0xDB4, symBinAddr: 0x3AD74, symSize: 0x98 }
  - { offset: 0x11BD2E, size: 0x8, addend: 0x0, symName: __ZN6VSTGUI12CDrawContextC1ENSt3__110shared_ptrINS_30IPlatformGraphicsDeviceContextEEERKNS_5CRectEd, symObjAddr: 0xE4C, symBinAddr: 0x3AE0C, symSize: 0xC0 }
  - { offset: 0x11BFD4, size: 0x8, addend: 0x0, symName: __ZN6VSTGUI12CDrawContextD1Ev, symObjAddr: 0xF0C, symBinAddr: 0x3AECC, symSize: 0xC }
  - { offset: 0x11C00A, size: 0x8, addend: 0x0, symName: __ZN6VSTGUI12CDrawContextD0Ev, symObjAddr: 0xF18, symBinAddr: 0x3AED8, symSize: 0x1C }
  - { offset: 0x11C066, size: 0x8, addend: 0x0, symName: __ZNK6VSTGUI12CDrawContext24getPlatformDeviceContextEv, symObjAddr: 0xF34, symBinAddr: 0x3AEF4, symSize: 0xC }
  - { offset: 0x11C091, size: 0x8, addend: 0x0, symName: __ZNK6VSTGUI12CDrawContext24getPlatformDeviceContextEv, symObjAddr: 0xF34, symBinAddr: 0x3AEF4, symSize: 0xC }
  - { offset: 0x11C0AD, size: 0x8, addend: 0x0, symName: __ZNK6VSTGUI12CDrawContext14getSurfaceRectEv, symObjAddr: 0xF40, symBinAddr: 0x3AF00, symSize: 0xC }
  - { offset: 0x11C0D1, size: 0x8, addend: 0x0, symName: __ZNK6VSTGUI12CDrawContext14getSurfaceRectEv, symObjAddr: 0xF40, symBinAddr: 0x3AF00, symSize: 0xC }
  - { offset: 0x11C0ED, size: 0x8, addend: 0x0, symName: __ZNK6VSTGUI12CDrawContext14getScaleFactorEv, symObjAddr: 0xF4C, symBinAddr: 0x3AF0C, symSize: 0xC }
  - { offset: 0x11C10F, size: 0x8, addend: 0x0, symName: __ZNK6VSTGUI12CDrawContext14getScaleFactorEv, symObjAddr: 0xF4C, symBinAddr: 0x3AF0C, symSize: 0xC }
  - { offset: 0x11C203, size: 0x8, addend: 0x0, symName: __ZN6VSTGUI12CDrawContext4initEv, symObjAddr: 0xF58, symBinAddr: 0x3AF18, symSize: 0x148 }
  - { offset: 0x11C60B, size: 0x8, addend: 0x0, symName: __ZN6VSTGUI12CDrawContext7setFontEPNS_9CFontDescERKdRKi, symObjAddr: 0x11F4, symBinAddr: 0x3B1B4, symSize: 0x140 }
  - { offset: 0x11C7A5, size: 0x8, addend: 0x0, symName: __ZN6VSTGUI12CDrawContext13setFrameColorERKNS_6CColorE, symObjAddr: 0x10A0, symBinAddr: 0x3B060, symSize: 0x58 }
  - { offset: 0x11C8CE, size: 0x8, addend: 0x0, symName: __ZN6VSTGUI12CDrawContext12setLineStyleERKNS_10CLineStyleE, symObjAddr: 0x10F8, symBinAddr: 0x3B0B8, symSize: 0x48 }
  - { offset: 0x11C97F, size: 0x8, addend: 0x0, symName: __ZN6VSTGUI12CDrawContext12setLineWidthEd, symObjAddr: 0x1140, symBinAddr: 0x3B100, symSize: 0x4C }
  - { offset: 0x11CA28, size: 0x8, addend: 0x0, symName: __ZN6VSTGUI12CDrawContext12setFillColorERKNS_6CColorE, symObjAddr: 0x118C, symBinAddr: 0x3B14C, symSize: 0x58 }
  - { offset: 0x11CB51, size: 0x8, addend: 0x0, symName: __ZN6VSTGUI12CDrawContext12setFontColorERKNS_6CColorE, symObjAddr: 0x11E4, symBinAddr: 0x3B1A4, symSize: 0x10 }
  - { offset: 0x11CB7B, size: 0x8, addend: 0x0, symName: __ZN6VSTGUI12CDrawContext12setFontColorERKNS_6CColorE, symObjAddr: 0x11E4, symBinAddr: 0x3B1A4, symSize: 0x10 }
  - { offset: 0x11CBDB, size: 0x8, addend: 0x0, symName: __ZN6VSTGUI12CDrawContext11setDrawModeENS_9CDrawModeE, symObjAddr: 0x1334, symBinAddr: 0x3B2F4, symSize: 0x44 }
  - { offset: 0x11CE22, size: 0x8, addend: 0x0, symName: __ZN6VSTGUI12CDrawContext15saveGlobalStateEv, symObjAddr: 0x1378, symBinAddr: 0x3B338, symSize: 0xDC }
  - { offset: 0x11D046, size: 0x8, addend: 0x0, symName: __ZNSt3__15dequeIN6VSTGUI12CDrawContext4Impl5StateENS_9allocatorIS4_EEE19__add_back_capacityEv, symObjAddr: 0x3BBC, symBinAddr: 0x3DAD8, symSize: 0x5BC }
  - { offset: 0x11E383, size: 0x8, addend: 0x0, symName: __ZN6VSTGUI12CDrawContext18restoreGlobalStateEv, symObjAddr: 0x1454, symBinAddr: 0x3B414, symSize: 0x90 }
  - { offset: 0x11E538, size: 0x8, addend: 0x0, symName: __ZNSt3__15dequeIN6VSTGUI12CDrawContext4Impl5StateENS_9allocatorIS4_EEE8pop_backEv, symObjAddr: 0x449C, symBinAddr: 0x3E094, symSize: 0xCC }
  - { offset: 0x11E99D, size: 0x8, addend: 0x0, symName: __ZN6VSTGUI12CDrawContext29setBitmapInterpolationQualityENS_26BitmapInterpolationQualityE, symObjAddr: 0x14E4, symBinAddr: 0x3B4A4, symSize: 0xC }
  - { offset: 0x11E9D4, size: 0x8, addend: 0x0, symName: __ZN6VSTGUI12CDrawContext29setBitmapInterpolationQualityENS_26BitmapInterpolationQualityE, symObjAddr: 0x14E4, symBinAddr: 0x3B4A4, symSize: 0xC }
  - { offset: 0x11E9F0, size: 0x8, addend: 0x0, symName: __ZNK6VSTGUI12CDrawContext29getBitmapInterpolationQualityEv, symObjAddr: 0x14F0, symBinAddr: 0x3B4B0, symSize: 0xC }
  - { offset: 0x11EA14, size: 0x8, addend: 0x0, symName: __ZNK6VSTGUI12CDrawContext29getBitmapInterpolationQualityEv, symObjAddr: 0x14F0, symBinAddr: 0x3B4B0, symSize: 0xC }
  - { offset: 0x11EA30, size: 0x8, addend: 0x0, symName: __ZNK6VSTGUI12CDrawContext12getLineStyleEv, symObjAddr: 0x14FC, symBinAddr: 0x3B4BC, symSize: 0xC }
  - { offset: 0x11EA5B, size: 0x8, addend: 0x0, symName: __ZNK6VSTGUI12CDrawContext12getLineStyleEv, symObjAddr: 0x14FC, symBinAddr: 0x3B4BC, symSize: 0xC }
  - { offset: 0x11EA77, size: 0x8, addend: 0x0, symName: __ZNK6VSTGUI12CDrawContext12getLineWidthEv, symObjAddr: 0x1508, symBinAddr: 0x3B4C8, symSize: 0xC }
  - { offset: 0x11EAA0, size: 0x8, addend: 0x0, symName: __ZNK6VSTGUI12CDrawContext12getLineWidthEv, symObjAddr: 0x1508, symBinAddr: 0x3B4C8, symSize: 0xC }
  - { offset: 0x11EABC, size: 0x8, addend: 0x0, symName: __ZNK6VSTGUI12CDrawContext11getDrawModeEv, symObjAddr: 0x1514, symBinAddr: 0x3B4D4, symSize: 0xC }
  - { offset: 0x11EAE7, size: 0x8, addend: 0x0, symName: __ZNK6VSTGUI12CDrawContext11getDrawModeEv, symObjAddr: 0x1514, symBinAddr: 0x3B4D4, symSize: 0xC }
  - { offset: 0x11EB2F, size: 0x8, addend: 0x0, symName: __ZNK6VSTGUI12CDrawContext11getClipRectERNS_5CRectE, symObjAddr: 0x1520, symBinAddr: 0x3B4E0, symSize: 0x13C }
  - { offset: 0x11EB68, size: 0x8, addend: 0x0, symName: __ZNK6VSTGUI12CDrawContext11getClipRectERNS_5CRectE, symObjAddr: 0x1520, symBinAddr: 0x3B4E0, symSize: 0x13C }
  - { offset: 0x11ED47, size: 0x8, addend: 0x0, symName: __ZNK6VSTGUI12CDrawContext19getCurrentTransformEv, symObjAddr: 0x165C, symBinAddr: 0x3B61C, symSize: 0x3C }
  - { offset: 0x11ED6C, size: 0x8, addend: 0x0, symName: __ZNK6VSTGUI12CDrawContext19getCurrentTransformEv, symObjAddr: 0x165C, symBinAddr: 0x3B61C, symSize: 0x3C }
  - { offset: 0x11EE12, size: 0x8, addend: 0x0, symName: __ZNK6VSTGUI12CDrawContext19getAbsoluteClipRectEv, symObjAddr: 0x1698, symBinAddr: 0x3B658, symSize: 0xC }
  - { offset: 0x11EE3D, size: 0x8, addend: 0x0, symName: __ZNK6VSTGUI12CDrawContext19getAbsoluteClipRectEv, symObjAddr: 0x1698, symBinAddr: 0x3B658, symSize: 0xC }
  - { offset: 0x11EE71, size: 0x8, addend: 0x0, symName: __ZN6VSTGUI12CDrawContext13resetClipRectEv, symObjAddr: 0x16A4, symBinAddr: 0x3B664, symSize: 0x4C }
  - { offset: 0x11EF2D, size: 0x8, addend: 0x0, symName: __ZNK6VSTGUI12CDrawContext12getFillColorEv, symObjAddr: 0x16F0, symBinAddr: 0x3B6B0, symSize: 0x10 }
  - { offset: 0x11EF58, size: 0x8, addend: 0x0, symName: __ZNK6VSTGUI12CDrawContext12getFillColorEv, symObjAddr: 0x16F0, symBinAddr: 0x3B6B0, symSize: 0x10 }
  - { offset: 0x11EFC1, size: 0x8, addend: 0x0, symName: __ZNK6VSTGUI12CDrawContext13getFrameColorEv, symObjAddr: 0x1700, symBinAddr: 0x3B6C0, symSize: 0x10 }
  - { offset: 0x11EFEC, size: 0x8, addend: 0x0, symName: __ZNK6VSTGUI12CDrawContext13getFrameColorEv, symObjAddr: 0x1700, symBinAddr: 0x3B6C0, symSize: 0x10 }
  - { offset: 0x11F055, size: 0x8, addend: 0x0, symName: __ZNK6VSTGUI12CDrawContext12getFontColorEv, symObjAddr: 0x1710, symBinAddr: 0x3B6D0, symSize: 0x10 }
  - { offset: 0x11F080, size: 0x8, addend: 0x0, symName: __ZNK6VSTGUI12CDrawContext12getFontColorEv, symObjAddr: 0x1710, symBinAddr: 0x3B6D0, symSize: 0x10 }
  - { offset: 0x11F0FF, size: 0x8, addend: 0x0, symName: __ZNK6VSTGUI12CDrawContext7getFontEv, symObjAddr: 0x1720, symBinAddr: 0x3B6E0, symSize: 0xC }
  - { offset: 0x11F12C, size: 0x8, addend: 0x0, symName: __ZNK6VSTGUI12CDrawContext7getFontEv, symObjAddr: 0x1720, symBinAddr: 0x3B6E0, symSize: 0xC }
  - { offset: 0x11F169, size: 0x8, addend: 0x0, symName: __ZN6VSTGUI12CDrawContext14setGlobalAlphaEf, symObjAddr: 0x172C, symBinAddr: 0x3B6EC, symSize: 0x4C }
  - { offset: 0x11F227, size: 0x8, addend: 0x0, symName: __ZNK6VSTGUI12CDrawContext14getGlobalAlphaEv, symObjAddr: 0x1778, symBinAddr: 0x3B738, symSize: 0xC }
  - { offset: 0x11F252, size: 0x8, addend: 0x0, symName: __ZNK6VSTGUI12CDrawContext14getGlobalAlphaEv, symObjAddr: 0x1778, symBinAddr: 0x3B738, symSize: 0xC }
  - { offset: 0x11F26F, size: 0x8, addend: 0x0, symName: __ZN6VSTGUI12CDrawContext13getDrawStringEPKc, symObjAddr: 0x1784, symBinAddr: 0x3B744, symSize: 0x8C }
  - { offset: 0x11F2DE, size: 0x8, addend: 0x0, symName: __ZN6VSTGUI12CDrawContext15clearDrawStringEv, symObjAddr: 0x1810, symBinAddr: 0x3B7D0, symSize: 0x14 }
  - { offset: 0x11F303, size: 0x8, addend: 0x0, symName: __ZN6VSTGUI12CDrawContext15clearDrawStringEv, symObjAddr: 0x1810, symBinAddr: 0x3B7D0, symSize: 0x14 }
  - { offset: 0x11F320, size: 0x8, addend: 0x0, symName: __ZN6VSTGUI12CDrawContext14getStringWidthEPNS_15IPlatformStringE, symObjAddr: 0x1824, symBinAddr: 0x3B7E4, symSize: 0x68 }
  - { offset: 0x11F45B, size: 0x8, addend: 0x0, symName: __ZN6VSTGUI12CDrawContext10drawStringEPNS_15IPlatformStringERKNS_5CRectENS_13CHoriTxtAlignEb, symObjAddr: 0x188C, symBinAddr: 0x3B84C, symSize: 0x1A4 }
  - { offset: 0x11F775, size: 0x8, addend: 0x0, symName: __ZN6VSTGUI12CDrawContext10drawStringEPNS_15IPlatformStringERKNS_6CPointEb, symObjAddr: 0x1A30, symBinAddr: 0x3B9F0, symSize: 0x80 }
  - { offset: 0x11F897, size: 0x8, addend: 0x0, symName: __ZN6VSTGUI12CDrawContext14getStringWidthEPKc, symObjAddr: 0x1AB0, symBinAddr: 0x3BA70, symSize: 0xD0 }
  - { offset: 0x11FA63, size: 0x8, addend: 0x0, symName: __ZN6VSTGUI12CDrawContext10drawStringEPKcRKNS_6CPointEb, symObjAddr: 0x1B80, symBinAddr: 0x3BB40, symSize: 0x108 }
  - { offset: 0x11FBCF, size: 0x8, addend: 0x0, symName: __ZN6VSTGUI12CDrawContext10drawStringEPKcRKNS_5CRectENS_13CHoriTxtAlignEb, symObjAddr: 0x1C88, symBinAddr: 0x3BC48, symSize: 0xC8 }
  - { offset: 0x11FE66, size: 0x8, addend: 0x0, symName: __ZN6VSTGUI12CDrawContext18fillRectWithBitmapEPNS_7CBitmapERKNS_5CRectES5_f, symObjAddr: 0x1D50, symBinAddr: 0x3BD10, symSize: 0x3B4 }
  - { offset: 0x12059E, size: 0x8, addend: 0x0, symName: __ZN6VSTGUI12CDrawContext10drawBitmapEPNS_7CBitmapERKNS_5CRectERKNS_6CPointEf, symObjAddr: 0x2104, symBinAddr: 0x3C0C4, symSize: 0x120 }
  - { offset: 0x1208B7, size: 0x8, addend: 0x0, symName: __ZN6VSTGUI12CDrawContext23drawBitmapNinePartTiledEPNS_7CBitmapERKNS_5CRectERKNS_25CNinePartTiledDescriptionEf, symObjAddr: 0x2224, symBinAddr: 0x3C1E4, symSize: 0x3E4 }
  - { offset: 0x121124, size: 0x8, addend: 0x0, symName: __ZN6VSTGUI12CDrawContext27createRoundRectGraphicsPathERKNS_5CRectEd, symObjAddr: 0x2608, symBinAddr: 0x3C5C8, symSize: 0x48 }
  - { offset: 0x12119C, size: 0x8, addend: 0x0, symName: __ZN6VSTGUI12CDrawContext18createGraphicsPathEv, symObjAddr: 0x2650, symBinAddr: 0x3C610, symSize: 0x120 }
  - { offset: 0x12168D, size: 0x8, addend: 0x0, symName: __ZNSt3__110shared_ptrIN6VSTGUI28IPlatformGraphicsPathFactoryEED1B8ne180100Ev, symObjAddr: 0x2D0C, symBinAddr: 0x3CCCC, symSize: 0x60 }
  - { offset: 0x121725, size: 0x8, addend: 0x0, symName: __ZNK6VSTGUI12CDrawContext15getHairlineSizeEv, symObjAddr: 0x2770, symBinAddr: 0x3C730, symSize: 0x50 }
  - { offset: 0x121750, size: 0x8, addend: 0x0, symName: __ZNK6VSTGUI12CDrawContext15getHairlineSizeEv, symObjAddr: 0x2770, symBinAddr: 0x3C730, symSize: 0x50 }
  - { offset: 0x12176C, size: 0x8, addend: 0x0, symName: __ZNK6VSTGUI12CDrawContext15getHairlineSizeEv, symObjAddr: 0x2770, symBinAddr: 0x3C730, symSize: 0x50 }
  - { offset: 0x121829, size: 0x8, addend: 0x0, symName: __ZN6VSTGUI12CDrawContext8drawLineERKNSt3__14pairINS_6CPointES3_EE, symObjAddr: 0x27C0, symBinAddr: 0x3C780, symSize: 0x24 }
  - { offset: 0x121867, size: 0x8, addend: 0x0, symName: __ZN6VSTGUI12CDrawContext8drawLineERKNSt3__14pairINS_6CPointES3_EE, symObjAddr: 0x27C0, symBinAddr: 0x3C780, symSize: 0x24 }
  - { offset: 0x1218D2, size: 0x8, addend: 0x0, symName: __ZN6VSTGUI12CDrawContext9drawLinesERKNSt3__16vectorINS1_4pairINS_6CPointES4_EENS1_9allocatorIS5_EEEE, symObjAddr: 0x27E4, symBinAddr: 0x3C7A4, symSize: 0x1C }
  - { offset: 0x12190E, size: 0x8, addend: 0x0, symName: __ZN6VSTGUI12CDrawContext9drawLinesERKNSt3__16vectorINS1_4pairINS_6CPointES4_EENS1_9allocatorIS5_EEEE, symObjAddr: 0x27E4, symBinAddr: 0x3C7A4, symSize: 0x1C }
  - { offset: 0x121979, size: 0x8, addend: 0x0, symName: __ZN6VSTGUI12CDrawContext11drawPolygonERKNSt3__16vectorINS_6CPointENS1_9allocatorIS3_EEEENS_10CDrawStyleE, symObjAddr: 0x2800, symBinAddr: 0x3C7C0, symSize: 0x24 }
  - { offset: 0x1219C6, size: 0x8, addend: 0x0, symName: __ZN6VSTGUI12CDrawContext11drawPolygonERKNSt3__16vectorINS_6CPointENS1_9allocatorIS3_EEEENS_10CDrawStyleE, symObjAddr: 0x2800, symBinAddr: 0x3C7C0, symSize: 0x24 }
  - { offset: 0x121A4F, size: 0x8, addend: 0x0, symName: __ZN6VSTGUI12CDrawContext8drawRectERKNS_5CRectENS_10CDrawStyleE, symObjAddr: 0x2824, symBinAddr: 0x3C7E4, symSize: 0x2C }
  - { offset: 0x121A86, size: 0x8, addend: 0x0, symName: __ZN6VSTGUI12CDrawContext8drawRectERKNS_5CRectENS_10CDrawStyleE, symObjAddr: 0x2824, symBinAddr: 0x3C7E4, symSize: 0x2C }
  - { offset: 0x121B0F, size: 0x8, addend: 0x0, symName: __ZN6VSTGUI12CDrawContext7drawArcERKNS_5CRectEffNS_10CDrawStyleE, symObjAddr: 0x2850, symBinAddr: 0x3C810, symSize: 0x3C }
  - { offset: 0x121B80, size: 0x8, addend: 0x0, symName: __ZN6VSTGUI12CDrawContext7drawArcERKNS_5CRectEffNS_10CDrawStyleE, symObjAddr: 0x2850, symBinAddr: 0x3C810, symSize: 0x3C }
  - { offset: 0x121C09, size: 0x8, addend: 0x0, symName: __ZN6VSTGUI12CDrawContext11drawEllipseERKNS_5CRectENS_10CDrawStyleE, symObjAddr: 0x288C, symBinAddr: 0x3C84C, symSize: 0x2C }
  - { offset: 0x121C58, size: 0x8, addend: 0x0, symName: __ZN6VSTGUI12CDrawContext11drawEllipseERKNS_5CRectENS_10CDrawStyleE, symObjAddr: 0x288C, symBinAddr: 0x3C84C, symSize: 0x2C }
  - { offset: 0x121D44, size: 0x8, addend: 0x0, symName: __ZN6VSTGUI12CDrawContext9drawPointERKNS_6CPointERKNS_6CColorE, symObjAddr: 0x28B8, symBinAddr: 0x3C878, symSize: 0x220 }
  - { offset: 0x1223DB, size: 0x8, addend: 0x0, symName: __ZN6VSTGUI12CDrawContext9clearRectERKNS_5CRectE, symObjAddr: 0x2AD8, symBinAddr: 0x3CA98, symSize: 0x24 }
  - { offset: 0x122419, size: 0x8, addend: 0x0, symName: __ZN6VSTGUI12CDrawContext9clearRectERKNS_5CRectE, symObjAddr: 0x2AD8, symBinAddr: 0x3CA98, symSize: 0x24 }
  - { offset: 0x12249F, size: 0x8, addend: 0x0, symName: __ZN6VSTGUI12CDrawContext16drawGraphicsPathEPNS_13CGraphicsPathENS0_12PathDrawModeEPNS_18CGraphicsTransformE, symObjAddr: 0x2AFC, symBinAddr: 0x3CABC, symSize: 0x8C }
  - { offset: 0x122625, size: 0x8, addend: 0x0, symName: __ZN6VSTGUI12CDrawContext18fillLinearGradientEPNS_13CGraphicsPathERKNS_9CGradientERKNS_6CPointES8_bPNS_18CGraphicsTransformE, symObjAddr: 0x2B88, symBinAddr: 0x3CB48, symSize: 0xB8 }
  - { offset: 0x1227E2, size: 0x8, addend: 0x0, symName: __ZN6VSTGUI12CDrawContext18fillRadialGradientEPNS_13CGraphicsPathERKNS_9CGradientERKNS_6CPointEdS8_bPNS_18CGraphicsTransformE, symObjAddr: 0x2C40, symBinAddr: 0x3CC00, symSize: 0xCC }
  - { offset: 0x1229E1, size: 0x8, addend: 0x0, symName: __ZN6VSTGUI12CDrawContext14createTextPathEPNS_9CFontDescEPKc, symObjAddr: 0x2D6C, symBinAddr: 0x3CD2C, symSize: 0x1A8 }
  - { offset: 0x122E33, size: 0x8, addend: 0x0, symName: __ZN6VSTGUI12CDrawContext9beginDrawEv, symObjAddr: 0x2F14, symBinAddr: 0x3CED4, symSize: 0x1C }
  - { offset: 0x122E60, size: 0x8, addend: 0x0, symName: __ZN6VSTGUI12CDrawContext9beginDrawEv, symObjAddr: 0x2F14, symBinAddr: 0x3CED4, symSize: 0x1C }
  - { offset: 0x122ECB, size: 0x8, addend: 0x0, symName: __ZN6VSTGUI12CDrawContext7endDrawEv, symObjAddr: 0x2F30, symBinAddr: 0x3CEF0, symSize: 0x1C }
  - { offset: 0x122EF8, size: 0x8, addend: 0x0, symName: __ZN6VSTGUI12CDrawContext7endDrawEv, symObjAddr: 0x2F30, symBinAddr: 0x3CEF0, symSize: 0x1C }
  - { offset: 0x1231CA, size: 0x8, addend: 0x0, symName: __ZNSt3__15dequeIN6VSTGUI18CGraphicsTransformENS_9allocatorIS2_EEED2B8ne180100Ev, symObjAddr: 0x30A4, symBinAddr: 0x3CFE8, symSize: 0xC4 }
  - { offset: 0x1235FA, size: 0x8, addend: 0x0, symName: __ZNSt3__15dequeIN6VSTGUI12CDrawContext4Impl5StateENS_9allocatorIS4_EEE5clearEv, symObjAddr: 0x3168, symBinAddr: 0x3D0AC, symSize: 0x14C }
  - { offset: 0x1242E3, size: 0x8, addend: 0x0, symName: __ZNSt3__114__split_bufferIPN6VSTGUI18CGraphicsTransformENS_9allocatorIS3_EEE9push_backEOS3_, symObjAddr: 0x3870, symBinAddr: 0x3D7B4, symSize: 0x18C }
  - { offset: 0x12479B, size: 0x8, addend: 0x0, symName: __ZNSt3__114__split_bufferIPN6VSTGUI18CGraphicsTransformENS_9allocatorIS3_EEE10push_frontEOS3_, symObjAddr: 0x39FC, symBinAddr: 0x3D940, symSize: 0x198 }
  - { offset: 0x1247A6, size: 0x8, addend: 0x0, symName: __ZNSt3__114__split_bufferIPN6VSTGUI18CGraphicsTransformENS_9allocatorIS3_EEE10push_frontEOS3_, symObjAddr: 0x39FC, symBinAddr: 0x3D940, symSize: 0x198 }
  - { offset: 0x1257E7, size: 0x8, addend: 0x0, symName: __ZNSt3__15dequeIN6VSTGUI12CDrawContext4Impl5StateENS_9allocatorIS4_EEE8pop_backEv, symObjAddr: 0x449C, symBinAddr: 0x3E094, symSize: 0xCC }
  - { offset: 0x12B9E6, size: 0x8, addend: 0x0, symName: __ZN6VSTGUI12CDrawMethods19createTruncatedTextENS0_16TextTruncateModeERKNS_10UTF8StringEPNS_9CFontDescEdRKNS_6CPointEj, symObjAddr: 0x0, symBinAddr: 0x3E160, symSize: 0x518 }
  - { offset: 0x12C93C, size: 0x8, addend: 0x0, symName: __ZN6VSTGUI12CDrawMethods15drawIconAndTextEPNS_12CDrawContextEPNS_7CBitmapENS0_12IconPositionENS_13CHoriTxtAlignEdNS_5CRectERKNS_10UTF8StringEPNS_9CFontDescENS_6CColorENS0_16TextTruncateModeE, symObjAddr: 0x5D0, symBinAddr: 0x3E6D8, symSize: 0x3D8 }
  - { offset: 0x12ECD3, size: 0x8, addend: 0x0, symName: __ZNSt3__110shared_ptrIN6VSTGUI30IPlatformGraphicsDeviceContextEED1B8ne180100Ev, symObjAddr: 0x518, symBinAddr: 0x3E678, symSize: 0x60 }
  - { offset: 0x130F44, size: 0x8, addend: 0x0, symName: __MergedGlobals, symObjAddr: 0x89BB8, symBinAddr: 0x1BAF88, symSize: 0x0 }
  - { offset: 0x131385, size: 0x8, addend: 0x0, symName: __MergedGlobals, symObjAddr: 0x89BB8, symBinAddr: 0x1BAF88, symSize: 0x0 }
  - { offset: 0x133A84, size: 0x8, addend: 0x0, symName: __ZN6VSTGUI16CNewFileSelector17kSelectEndMessageE, symObjAddr: 0x33D8, symBinAddr: 0x1B98B8, symSize: 0x0 }
  - { offset: 0x13F878, size: 0x8, addend: 0x0, symName: __ZN6VSTGUI16CNewFileSelector20getAllFilesExtensionEv, symObjAddr: 0x824, symBinAddr: 0x3F284, symSize: 0xA0 }
  - { offset: 0x13F899, size: 0x8, addend: 0x0, symName: __MergedGlobals, symObjAddr: 0x89BB8, symBinAddr: 0x1BAF88, symSize: 0x0 }
  - { offset: 0x13F8C8, size: 0x8, addend: 0x0, symName: __ZN6VSTGUI16CNewFileSelector3runEPNS_11CBaseObjectE, symObjAddr: 0xBD4, symBinAddr: 0x3F634, symSize: 0x108 }
  - { offset: 0x13FF72, size: 0x8, addend: 0x0, symName: __ZN6VSTGUI16CNewFileSelector3runEONSt3__18functionIFvPS0_EEE, symObjAddr: 0xCDC, symBinAddr: 0x3F73C, symSize: 0x300 }
  - { offset: 0x140B80, size: 0x8, addend: 0x0, symName: __ZN6VSTGUI16CNewFileSelector8runModalEv, symObjAddr: 0x1000, symBinAddr: 0x3FA50, symSize: 0xD4 }
  - { offset: 0x140F37, size: 0x8, addend: 0x0, symName: __ZN6VSTGUI21PlatformFileExtensionD1Ev, symObjAddr: 0x0, symBinAddr: 0x3EAB0, symSize: 0x4 }
  - { offset: 0x140F5A, size: 0x8, addend: 0x0, symName: __ZN6VSTGUI21PlatformFileExtensionD1Ev, symObjAddr: 0x0, symBinAddr: 0x3EAB0, symSize: 0x4 }
  - { offset: 0x140F6D, size: 0x8, addend: 0x0, symName: __ZN6VSTGUI21PlatformFileExtensionD2Ev, symObjAddr: 0x1624, symBinAddr: 0x3FF88, symSize: 0xF4 }
  - { offset: 0x141773, size: 0x8, addend: 0x0, symName: __ZN6VSTGUI14CFileExtensionC2Ev, symObjAddr: 0x4, symBinAddr: 0x3EAB4, symSize: 0x98 }
  - { offset: 0x141937, size: 0x8, addend: 0x0, symName: __ZN6VSTGUI14CFileExtension4ImplC2Ev, symObjAddr: 0x1718, symBinAddr: 0x4007C, symSize: 0xEC }
  - { offset: 0x141D2E, size: 0x8, addend: 0x0, symName: __ZNSt3__110unique_ptrIN6VSTGUI14CFileExtension4ImplENS_14default_deleteIS3_EEED1B8ne180100Ev, symObjAddr: 0x9C, symBinAddr: 0x3EB4C, symSize: 0x34 }
  - { offset: 0x141E58, size: 0x8, addend: 0x0, symName: __ZN6VSTGUI14CFileExtensionC1Ev, symObjAddr: 0xD0, symBinAddr: 0x3EB80, symSize: 0x94 }
  - { offset: 0x142146, size: 0x8, addend: 0x0, symName: __ZN6VSTGUI14CFileExtensionC2ERKNS_10UTF8StringES3_S3_iS3_, symObjAddr: 0x164, symBinAddr: 0x3EC14, symSize: 0x110 }
  - { offset: 0x1424E9, size: 0x8, addend: 0x0, symName: __ZN6VSTGUI14CFileExtension4initERKNS_10UTF8StringES3_S3_S3_, symObjAddr: 0x274, symBinAddr: 0x3ED24, symSize: 0x70 }
  - { offset: 0x1425BB, size: 0x8, addend: 0x0, symName: __ZN6VSTGUI14CFileExtensionC1ERKNS_10UTF8StringES3_S3_iS3_, symObjAddr: 0x318, symBinAddr: 0x3ED94, symSize: 0xA0 }
  - { offset: 0x142710, size: 0x8, addend: 0x0, symName: __ZN6VSTGUI14CFileExtensionD1Ev, symObjAddr: 0x3B8, symBinAddr: 0x3EE34, symSize: 0x34 }
  - { offset: 0x14289F, size: 0x8, addend: 0x0, symName: __ZN6VSTGUI14CFileExtensionC2ERKS0_, symObjAddr: 0x3EC, symBinAddr: 0x3EE68, symSize: 0xF0 }
  - { offset: 0x142B20, size: 0x8, addend: 0x0, symName: __ZN6VSTGUI14CFileExtensionC1ERKS0_, symObjAddr: 0x4DC, symBinAddr: 0x3EF58, symSize: 0x84 }
  - { offset: 0x142C6B, size: 0x8, addend: 0x0, symName: __ZN6VSTGUI14CFileExtensionC2EOS0_, symObjAddr: 0x560, symBinAddr: 0x3EFDC, symSize: 0x14 }
  - { offset: 0x142C94, size: 0x8, addend: 0x0, symName: __ZN6VSTGUI14CFileExtensionC2EOS0_, symObjAddr: 0x560, symBinAddr: 0x3EFDC, symSize: 0x14 }
  - { offset: 0x142CAF, size: 0x8, addend: 0x0, symName: __ZN6VSTGUI14CFileExtensionC2EOS0_, symObjAddr: 0x560, symBinAddr: 0x3EFDC, symSize: 0x14 }
  - { offset: 0x142CCA, size: 0x8, addend: 0x0, symName: __ZN6VSTGUI14CFileExtensionC2EOS0_, symObjAddr: 0x560, symBinAddr: 0x3EFDC, symSize: 0x14 }
  - { offset: 0x142CE5, size: 0x8, addend: 0x0, symName: __ZN6VSTGUI14CFileExtensionC2EOS0_, symObjAddr: 0x560, symBinAddr: 0x3EFDC, symSize: 0x14 }
  - { offset: 0x142D00, size: 0x8, addend: 0x0, symName: __ZN6VSTGUI14CFileExtensionC2EOS0_, symObjAddr: 0x560, symBinAddr: 0x3EFDC, symSize: 0x14 }
  - { offset: 0x142DD8, size: 0x8, addend: 0x0, symName: __ZN6VSTGUI14CFileExtensionaSEOS0_, symObjAddr: 0x574, symBinAddr: 0x3EFF0, symSize: 0x14 }
  - { offset: 0x142E01, size: 0x8, addend: 0x0, symName: __ZN6VSTGUI14CFileExtensionaSEOS0_, symObjAddr: 0x574, symBinAddr: 0x3EFF0, symSize: 0x14 }
  - { offset: 0x142E24, size: 0x8, addend: 0x0, symName: __ZN6VSTGUI14CFileExtensionaSEOS0_, symObjAddr: 0x574, symBinAddr: 0x3EFF0, symSize: 0x14 }
  - { offset: 0x142E48, size: 0x8, addend: 0x0, symName: __ZN6VSTGUI14CFileExtensionaSEOS0_, symObjAddr: 0x574, symBinAddr: 0x3EFF0, symSize: 0x14 }
  - { offset: 0x142E6B, size: 0x8, addend: 0x0, symName: __ZN6VSTGUI14CFileExtensionaSEOS0_, symObjAddr: 0x574, symBinAddr: 0x3EFF0, symSize: 0x14 }
  - { offset: 0x142EC0, size: 0x8, addend: 0x0, symName: __ZNK6VSTGUI14CFileExtensioneqERKS0_, symObjAddr: 0x59C, symBinAddr: 0x3F004, symSize: 0xC8 }
  - { offset: 0x142FE9, size: 0x8, addend: 0x0, symName: __ZNK6VSTGUI14CFileExtension14getDescriptionEv, symObjAddr: 0x664, symBinAddr: 0x3F0CC, symSize: 0x8 }
  - { offset: 0x143014, size: 0x8, addend: 0x0, symName: __ZNK6VSTGUI14CFileExtension14getDescriptionEv, symObjAddr: 0x664, symBinAddr: 0x3F0CC, symSize: 0x8 }
  - { offset: 0x14302E, size: 0x8, addend: 0x0, symName: __ZNK6VSTGUI14CFileExtension12getExtensionEv, symObjAddr: 0x66C, symBinAddr: 0x3F0D4, symSize: 0xC }
  - { offset: 0x143059, size: 0x8, addend: 0x0, symName: __ZNK6VSTGUI14CFileExtension12getExtensionEv, symObjAddr: 0x66C, symBinAddr: 0x3F0D4, symSize: 0xC }
  - { offset: 0x143073, size: 0x8, addend: 0x0, symName: __ZNK6VSTGUI14CFileExtension11getMimeTypeEv, symObjAddr: 0x678, symBinAddr: 0x3F0E0, symSize: 0xC }
  - { offset: 0x14309E, size: 0x8, addend: 0x0, symName: __ZNK6VSTGUI14CFileExtension11getMimeTypeEv, symObjAddr: 0x678, symBinAddr: 0x3F0E0, symSize: 0xC }
  - { offset: 0x1430B8, size: 0x8, addend: 0x0, symName: __ZNK6VSTGUI14CFileExtension6getUTIEv, symObjAddr: 0x684, symBinAddr: 0x3F0EC, symSize: 0xC }
  - { offset: 0x1430E3, size: 0x8, addend: 0x0, symName: __ZNK6VSTGUI14CFileExtension6getUTIEv, symObjAddr: 0x684, symBinAddr: 0x3F0EC, symSize: 0xC }
  - { offset: 0x1430FD, size: 0x8, addend: 0x0, symName: __ZNK6VSTGUI14CFileExtension10getMacTypeEv, symObjAddr: 0x690, symBinAddr: 0x3F0F8, symSize: 0xC }
  - { offset: 0x143128, size: 0x8, addend: 0x0, symName: __ZNK6VSTGUI14CFileExtension10getMacTypeEv, symObjAddr: 0x690, symBinAddr: 0x3F0F8, symSize: 0xC }
  - { offset: 0x143142, size: 0x8, addend: 0x0, symName: __ZN6VSTGUI14CFileExtensionC2ERKNS_21PlatformFileExtensionE, symObjAddr: 0x69C, symBinAddr: 0x3F104, symSize: 0xFC }
  - { offset: 0x1433D1, size: 0x8, addend: 0x0, symName: __ZN6VSTGUI14CFileExtensionC1ERKNS_21PlatformFileExtensionE, symObjAddr: 0x798, symBinAddr: 0x3F200, symSize: 0x84 }
  - { offset: 0x1437E2, size: 0x8, addend: 0x0, symName: __ZN6VSTGUI16CNewFileSelectorC2EONSt3__110shared_ptrINS_21IPlatformFileSelectorEEEPNS_6CFrameE, symObjAddr: 0x8C4, symBinAddr: 0x3F324, symSize: 0x158 }
  - { offset: 0x143B8B, size: 0x8, addend: 0x0, symName: __ZN6VSTGUI16CNewFileSelector4ImplC2Ev, symObjAddr: 0x1A1C, symBinAddr: 0x40380, symSize: 0x11C }
  - { offset: 0x1440D8, size: 0x8, addend: 0x0, symName: __ZNKSt3__114default_deleteIN6VSTGUI16CNewFileSelector4ImplEEclB8ne180100EPS3_, symObjAddr: 0x1804, symBinAddr: 0x40168, symSize: 0xE8 }
  - { offset: 0x1444BB, size: 0x8, addend: 0x0, symName: __ZN6VSTGUI16CNewFileSelectorC1EONSt3__110shared_ptrINS_21IPlatformFileSelectorEEEPNS_6CFrameE, symObjAddr: 0xA1C, symBinAddr: 0x3F47C, symSize: 0x128 }
  - { offset: 0x144842, size: 0x8, addend: 0x0, symName: __ZN6VSTGUI16CNewFileSelectorD2Ev, symObjAddr: 0xB44, symBinAddr: 0x3F5A4, symSize: 0x30 }
  - { offset: 0x14490B, size: 0x8, addend: 0x0, symName: __ZN6VSTGUI16CNewFileSelectorD1Ev, symObjAddr: 0xB74, symBinAddr: 0x3F5D4, symSize: 0x30 }
  - { offset: 0x1449DD, size: 0x8, addend: 0x0, symName: __ZN6VSTGUI16CNewFileSelectorD0Ev, symObjAddr: 0xBA4, symBinAddr: 0x3F604, symSize: 0x30 }
  - { offset: 0x145007, size: 0x8, addend: 0x0, symName: __ZNSt3__110__function12__value_funcIFvONS_6vectorIN6VSTGUI10UTF8StringENS_9allocatorIS4_EEEEEE4swapB8ne180100ERSA_, symObjAddr: 0x1F14, symBinAddr: 0x40850, symSize: 0x1A0 }
  - { offset: 0x145725, size: 0x8, addend: 0x0, symName: __ZN6VSTGUI16CNewFileSelector6cancelEv, symObjAddr: 0xFEC, symBinAddr: 0x3FA3C, symSize: 0x14 }
  - { offset: 0x145750, size: 0x8, addend: 0x0, symName: __ZN6VSTGUI16CNewFileSelector6cancelEv, symObjAddr: 0xFEC, symBinAddr: 0x3FA3C, symSize: 0x14 }
  - { offset: 0x1459A0, size: 0x8, addend: 0x0, symName: __ZN6VSTGUI16CNewFileSelector8setTitleERKNS_10UTF8StringE, symObjAddr: 0x10D4, symBinAddr: 0x3FB24, symSize: 0x8 }
  - { offset: 0x1459D9, size: 0x8, addend: 0x0, symName: __ZN6VSTGUI16CNewFileSelector8setTitleERKNS_10UTF8StringE, symObjAddr: 0x10D4, symBinAddr: 0x3FB24, symSize: 0x8 }
  - { offset: 0x1459F5, size: 0x8, addend: 0x0, symName: __ZN6VSTGUI16CNewFileSelector19setInitialDirectoryERKNS_10UTF8StringE, symObjAddr: 0x10DC, symBinAddr: 0x3FB2C, symSize: 0xC }
  - { offset: 0x145A2E, size: 0x8, addend: 0x0, symName: __ZN6VSTGUI16CNewFileSelector19setInitialDirectoryERKNS_10UTF8StringE, symObjAddr: 0x10DC, symBinAddr: 0x3FB2C, symSize: 0xC }
  - { offset: 0x145A4A, size: 0x8, addend: 0x0, symName: __ZN6VSTGUI16CNewFileSelector18setDefaultSaveNameERKNS_10UTF8StringE, symObjAddr: 0x10E8, symBinAddr: 0x3FB38, symSize: 0xC }
  - { offset: 0x145A83, size: 0x8, addend: 0x0, symName: __ZN6VSTGUI16CNewFileSelector18setDefaultSaveNameERKNS_10UTF8StringE, symObjAddr: 0x10E8, symBinAddr: 0x3FB38, symSize: 0xC }
  - { offset: 0x145A9F, size: 0x8, addend: 0x0, symName: __ZN6VSTGUI16CNewFileSelector26setAllowMultiFileSelectionEb, symObjAddr: 0x10F4, symBinAddr: 0x3FB44, symSize: 0x18 }
  - { offset: 0x145ADB, size: 0x8, addend: 0x0, symName: __ZN6VSTGUI16CNewFileSelector26setAllowMultiFileSelectionEb, symObjAddr: 0x10F4, symBinAddr: 0x3FB44, symSize: 0x18 }
  - { offset: 0x145CF8, size: 0x8, addend: 0x0, symName: __ZN6VSTGUI16CNewFileSelector19setDefaultExtensionERKNS_14CFileExtensionE, symObjAddr: 0x110C, symBinAddr: 0x3FB5C, symSize: 0x1D0 }
  - { offset: 0x146054, size: 0x8, addend: 0x0, symName: __ZN6VSTGUI21PlatformFileExtensionC1ERKS0_, symObjAddr: 0x2844, symBinAddr: 0x41134, symSize: 0xF0 }
  - { offset: 0x14645E, size: 0x8, addend: 0x0, symName: __ZNSt3__16vectorIN6VSTGUI21PlatformFileExtensionENS_9allocatorIS2_EEE24__emplace_back_slow_pathIJRKS2_EEEPS2_DpOT_, symObjAddr: 0x267C, symBinAddr: 0x40F6C, symSize: 0x1C8 }
  - { offset: 0x146AAE, size: 0x8, addend: 0x0, symName: __ZN6VSTGUI16CNewFileSelector16addFileExtensionERKNS_14CFileExtensionE, symObjAddr: 0x12DC, symBinAddr: 0x3FD2C, symSize: 0x60 }
  - { offset: 0x146D79, size: 0x8, addend: 0x0, symName: __ZN6VSTGUI16CNewFileSelector16addFileExtensionEONS_14CFileExtensionE, symObjAddr: 0x133C, symBinAddr: 0x3FD8C, symSize: 0x60 }
  - { offset: 0x146F49, size: 0x8, addend: 0x0, symName: __ZNSt3__16vectorIN6VSTGUI21PlatformFileExtensionENS_9allocatorIS2_EEE24__emplace_back_slow_pathIJKS2_EEEPS2_DpOT_, symObjAddr: 0x2A0C, symBinAddr: 0x41274, symSize: 0x1C8 }
  - { offset: 0x1475B4, size: 0x8, addend: 0x0, symName: __ZNK6VSTGUI16CNewFileSelector19getNumSelectedFilesEv, symObjAddr: 0x139C, symBinAddr: 0x3FDEC, symSize: 0x14 }
  - { offset: 0x1475E1, size: 0x8, addend: 0x0, symName: __ZNK6VSTGUI16CNewFileSelector19getNumSelectedFilesEv, symObjAddr: 0x139C, symBinAddr: 0x3FDEC, symSize: 0x14 }
  - { offset: 0x1476D1, size: 0x8, addend: 0x0, symName: __ZNK6VSTGUI16CNewFileSelector15getSelectedFileEj, symObjAddr: 0x13B0, symBinAddr: 0x3FE00, symSize: 0x38 }
  - { offset: 0x14782E, size: 0x8, addend: 0x0, symName: __ZN6VSTGUI16CNewFileSelector6createEPNS_6CFrameENS0_5StyleE, symObjAddr: 0x13E8, symBinAddr: 0x3FE38, symSize: 0x148 }
  - { offset: 0x147AE0, size: 0x8, addend: 0x0, symName: __ZNK6VSTGUI16CNewFileSelector7newCopyEv, symObjAddr: 0x160C, symBinAddr: 0x3FF80, symSize: 0x8 }
  - { offset: 0x147C47, size: 0x8, addend: 0x0, symName: __ZN6VSTGUI14CFileExtension4ImplC2Ev.cold.1, symObjAddr: 0x2BD4, symBinAddr: 0x15D860, symSize: 0x10 }
  - { offset: 0x147C62, size: 0x8, addend: 0x0, symName: __ZN6VSTGUI14CFileExtension4ImplC2Ev.cold.1, symObjAddr: 0x2BD4, symBinAddr: 0x15D860, symSize: 0x10 }
  - { offset: 0x147C76, size: 0x8, addend: 0x0, symName: __ZN6VSTGUI14CFileExtension4ImplC2Ev.cold.1, symObjAddr: 0x2BD4, symBinAddr: 0x15D860, symSize: 0x10 }
  - { offset: 0x147C8A, size: 0x8, addend: 0x0, symName: __ZN6VSTGUI14CFileExtension4ImplC2Ev.cold.1, symObjAddr: 0x2BD4, symBinAddr: 0x15D860, symSize: 0x10 }
  - { offset: 0x147C9E, size: 0x8, addend: 0x0, symName: __ZN6VSTGUI14CFileExtension4ImplC2Ev.cold.1, symObjAddr: 0x2BD4, symBinAddr: 0x15D860, symSize: 0x10 }
  - { offset: 0x147CB3, size: 0x8, addend: 0x0, symName: __ZN6VSTGUI14CFileExtension4ImplC2Ev.cold.1, symObjAddr: 0x2BD4, symBinAddr: 0x15D860, symSize: 0x10 }
  - { offset: 0x147CC9, size: 0x8, addend: 0x0, symName: __ZN6VSTGUI14CFileExtension4ImplC2Ev.cold.1, symObjAddr: 0x2BD4, symBinAddr: 0x15D860, symSize: 0x10 }
  - { offset: 0x147E61, size: 0x8, addend: 0x0, symName: __ZN6VSTGUI26PlatformFileSelectorConfigD2Ev, symObjAddr: 0x18EC, symBinAddr: 0x40250, symSize: 0x130 }
  - { offset: 0x14877E, size: 0x8, addend: 0x0, symName: __ZN6VSTGUI21PlatformFileExtensionC1Ev, symObjAddr: 0x1B38, symBinAddr: 0x4049C, symSize: 0xEC }
  - { offset: 0x148B75, size: 0x8, addend: 0x0, symName: __ZN6VSTGUI16CNewFileSelector4ImplC2Ev.cold.2, symObjAddr: 0x2BF4, symBinAddr: 0x15D870, symSize: 0x58 }
  - { offset: 0x148EA8, size: 0x8, addend: 0x0, symName: '__ZNSt3__110__function6__funcIZN6VSTGUI16CNewFileSelector3runEPNS2_11CBaseObjectEE3$_0NS_9allocatorIS6_EEFvONS_6vectorINS2_10UTF8StringENS7_ISA_EEEEEED1Ev', symObjAddr: 0x1C24, symBinAddr: 0x40588, symSize: 0x44 }
  - { offset: 0x148FD8, size: 0x8, addend: 0x0, symName: '__ZNSt3__110__function6__funcIZN6VSTGUI16CNewFileSelector3runEPNS2_11CBaseObjectEE3$_0NS_9allocatorIS6_EEFvONS_6vectorINS2_10UTF8StringENS7_ISA_EEEEEED0Ev', symObjAddr: 0x1C68, symBinAddr: 0x405CC, symSize: 0x44 }
  - { offset: 0x149389, size: 0x8, addend: 0x0, symName: '__ZNKSt3__110__function6__funcIZN6VSTGUI16CNewFileSelector3runEPNS2_11CBaseObjectEE3$_0NS_9allocatorIS6_EEFvONS_6vectorINS2_10UTF8StringENS7_ISA_EEEEEE7__cloneEv', symObjAddr: 0x1CAC, symBinAddr: 0x40610, symSize: 0x54 }
  - { offset: 0x1496B5, size: 0x8, addend: 0x0, symName: '__ZNKSt3__110__function6__funcIZN6VSTGUI16CNewFileSelector3runEPNS2_11CBaseObjectEE3$_0NS_9allocatorIS6_EEFvONS_6vectorINS2_10UTF8StringENS7_ISA_EEEEEE7__cloneEPNS0_6__baseISE_EE', symObjAddr: 0x1D00, symBinAddr: 0x40664, symSize: 0x38 }
  - { offset: 0x149811, size: 0x8, addend: 0x0, symName: '__ZNSt3__110__function6__funcIZN6VSTGUI16CNewFileSelector3runEPNS2_11CBaseObjectEE3$_0NS_9allocatorIS6_EEFvONS_6vectorINS2_10UTF8StringENS7_ISA_EEEEEE7destroyEv', symObjAddr: 0x1D38, symBinAddr: 0x4069C, symSize: 0x28 }
  - { offset: 0x1498E2, size: 0x8, addend: 0x0, symName: '__ZNSt3__110__function6__funcIZN6VSTGUI16CNewFileSelector3runEPNS2_11CBaseObjectEE3$_0NS_9allocatorIS6_EEFvONS_6vectorINS2_10UTF8StringENS7_ISA_EEEEEE18destroy_deallocateEv', symObjAddr: 0x1D60, symBinAddr: 0x406C4, symSize: 0x38 }
  - { offset: 0x149B67, size: 0x8, addend: 0x0, symName: '__ZNSt3__110__function6__funcIZN6VSTGUI16CNewFileSelector3runEPNS2_11CBaseObjectEE3$_0NS_9allocatorIS6_EEFvONS_6vectorINS2_10UTF8StringENS7_ISA_EEEEEEclESD_', symObjAddr: 0x1D98, symBinAddr: 0x406FC, symSize: 0xDC }
  - { offset: 0x149FE4, size: 0x8, addend: 0x0, symName: '__ZNKSt3__110__function6__funcIZN6VSTGUI16CNewFileSelector3runEPNS2_11CBaseObjectEE3$_0NS_9allocatorIS6_EEFvONS_6vectorINS2_10UTF8StringENS7_ISA_EEEEEE6targetERKSt9type_info', symObjAddr: 0x1E74, symBinAddr: 0x407D8, symSize: 0x6C }
  - { offset: 0x14A098, size: 0x8, addend: 0x0, symName: '__ZNKSt3__110__function6__funcIZN6VSTGUI16CNewFileSelector3runEPNS2_11CBaseObjectEE3$_0NS_9allocatorIS6_EEFvONS_6vectorINS2_10UTF8StringENS7_ISA_EEEEEE11target_typeEv', symObjAddr: 0x1EE0, symBinAddr: 0x40844, symSize: 0xC }
  - { offset: 0x14A16B, size: 0x8, addend: 0x0, symName: '__ZNSt3__110__function6__funcIZN6VSTGUI16CNewFileSelector3runEONS_8functionIFvPS3_EEEE3$_0NS_9allocatorIS9_EEFvONS_6vectorINS2_10UTF8StringENSA_ISD_EEEEEED1Ev', symObjAddr: 0x20B4, symBinAddr: 0x409F0, symSize: 0x5C }
  - { offset: 0x14A320, size: 0x8, addend: 0x0, symName: '__ZNSt3__110__function6__funcIZN6VSTGUI16CNewFileSelector3runEONS_8functionIFvPS3_EEEE3$_0NS_9allocatorIS9_EEFvONS_6vectorINS2_10UTF8StringENSA_ISD_EEEEEED0Ev', symObjAddr: 0x2110, symBinAddr: 0x40A4C, symSize: 0x5C }
  - { offset: 0x14A899, size: 0x8, addend: 0x0, symName: '__ZNKSt3__110__function6__funcIZN6VSTGUI16CNewFileSelector3runEONS_8functionIFvPS3_EEEE3$_0NS_9allocatorIS9_EEFvONS_6vectorINS2_10UTF8StringENSA_ISD_EEEEEE7__cloneEv', symObjAddr: 0x216C, symBinAddr: 0x40AA8, symSize: 0x98 }
  - { offset: 0x14AD82, size: 0x8, addend: 0x0, symName: '__ZNKSt3__110__function6__funcIZN6VSTGUI16CNewFileSelector3runEONS_8functionIFvPS3_EEEE3$_0NS_9allocatorIS9_EEFvONS_6vectorINS2_10UTF8StringENSA_ISD_EEEEEE7__cloneEPNS0_6__baseISH_EE', symObjAddr: 0x2204, symBinAddr: 0x40B40, symSize: 0x84 }
  - { offset: 0x14AF8F, size: 0x8, addend: 0x0, symName: '__ZNSt3__110__function6__funcIZN6VSTGUI16CNewFileSelector3runEONS_8functionIFvPS3_EEEE3$_0NS_9allocatorIS9_EEFvONS_6vectorINS2_10UTF8StringENSA_ISD_EEEEEE7destroyEv', symObjAddr: 0x2288, symBinAddr: 0x40BC4, symSize: 0x3C }
  - { offset: 0x14AFBB, size: 0x8, addend: 0x0, symName: '__ZNSt3__110__function6__funcIZN6VSTGUI16CNewFileSelector3runEONS_8functionIFvPS3_EEEE3$_0NS_9allocatorIS9_EEFvONS_6vectorINS2_10UTF8StringENSA_ISD_EEEEEE7destroyEv', symObjAddr: 0x2288, symBinAddr: 0x40BC4, symSize: 0x3C }
  - { offset: 0x14AFD9, size: 0x8, addend: 0x0, symName: '__ZNSt3__110__function6__funcIZN6VSTGUI16CNewFileSelector3runEONS_8functionIFvPS3_EEEE3$_0NS_9allocatorIS9_EEFvONS_6vectorINS2_10UTF8StringENSA_ISD_EEEEEE7destroyEv', symObjAddr: 0x2288, symBinAddr: 0x40BC4, symSize: 0x3C }
  - { offset: 0x14AFF6, size: 0x8, addend: 0x0, symName: '__ZNSt3__110__function6__funcIZN6VSTGUI16CNewFileSelector3runEONS_8functionIFvPS3_EEEE3$_0NS_9allocatorIS9_EEFvONS_6vectorINS2_10UTF8StringENSA_ISD_EEEEEE7destroyEv', symObjAddr: 0x2288, symBinAddr: 0x40BC4, symSize: 0x3C }
  - { offset: 0x14B013, size: 0x8, addend: 0x0, symName: '__ZNSt3__110__function6__funcIZN6VSTGUI16CNewFileSelector3runEONS_8functionIFvPS3_EEEE3$_0NS_9allocatorIS9_EEFvONS_6vectorINS2_10UTF8StringENSA_ISD_EEEEEE7destroyEv', symObjAddr: 0x2288, symBinAddr: 0x40BC4, symSize: 0x3C }
  - { offset: 0x14B030, size: 0x8, addend: 0x0, symName: '__ZNSt3__110__function6__funcIZN6VSTGUI16CNewFileSelector3runEONS_8functionIFvPS3_EEEE3$_0NS_9allocatorIS9_EEFvONS_6vectorINS2_10UTF8StringENSA_ISD_EEEEEE7destroyEv', symObjAddr: 0x2288, symBinAddr: 0x40BC4, symSize: 0x3C }
  - { offset: 0x14B04D, size: 0x8, addend: 0x0, symName: '__ZNSt3__110__function6__funcIZN6VSTGUI16CNewFileSelector3runEONS_8functionIFvPS3_EEEE3$_0NS_9allocatorIS9_EEFvONS_6vectorINS2_10UTF8StringENSA_ISD_EEEEEE7destroyEv', symObjAddr: 0x2288, symBinAddr: 0x40BC4, symSize: 0x3C }
  - { offset: 0x14B104, size: 0x8, addend: 0x0, symName: '__ZNSt3__110__function6__funcIZN6VSTGUI16CNewFileSelector3runEONS_8functionIFvPS3_EEEE3$_0NS_9allocatorIS9_EEFvONS_6vectorINS2_10UTF8StringENSA_ISD_EEEEEE18destroy_deallocateEv', symObjAddr: 0x22C4, symBinAddr: 0x40C00, symSize: 0x50 }
  - { offset: 0x14B40D, size: 0x8, addend: 0x0, symName: '__ZNSt3__110__function6__funcIZN6VSTGUI16CNewFileSelector3runEONS_8functionIFvPS3_EEEE3$_0NS_9allocatorIS9_EEFvONS_6vectorINS2_10UTF8StringENSA_ISD_EEEEEEclESG_', symObjAddr: 0x2314, symBinAddr: 0x40C50, symSize: 0x11C }
  - { offset: 0x14B87A, size: 0x8, addend: 0x0, symName: '__ZNKSt3__110__function6__funcIZN6VSTGUI16CNewFileSelector3runEONS_8functionIFvPS3_EEEE3$_0NS_9allocatorIS9_EEFvONS_6vectorINS2_10UTF8StringENSA_ISD_EEEEEE6targetERKSt9type_info', symObjAddr: 0x2430, symBinAddr: 0x40D6C, symSize: 0x6C }
  - { offset: 0x14B917, size: 0x8, addend: 0x0, symName: '__ZNKSt3__110__function6__funcIZN6VSTGUI16CNewFileSelector3runEONS_8functionIFvPS3_EEEE3$_0NS_9allocatorIS9_EEFvONS_6vectorINS2_10UTF8StringENSA_ISD_EEEEEE11target_typeEv', symObjAddr: 0x249C, symBinAddr: 0x40DD8, symSize: 0xC }
  - { offset: 0x14B98B, size: 0x8, addend: 0x0, symName: '__ZNSt3__110__function6__funcIZN6VSTGUI16CNewFileSelector8runModalEvE3$_0NS_9allocatorIS4_EEFvONS_6vectorINS2_10UTF8StringENS5_IS8_EEEEEED1Ev', symObjAddr: 0x24F4, symBinAddr: 0x40DE4, symSize: 0x4 }
  - { offset: 0x14B9B6, size: 0x8, addend: 0x0, symName: '__ZNSt3__110__function6__funcIZN6VSTGUI16CNewFileSelector8runModalEvE3$_0NS_9allocatorIS4_EEFvONS_6vectorINS2_10UTF8StringENS5_IS8_EEEEEED0Ev', symObjAddr: 0x24F8, symBinAddr: 0x40DE8, symSize: 0x4 }
  - { offset: 0x14BA6F, size: 0x8, addend: 0x0, symName: '__ZNKSt3__110__function6__funcIZN6VSTGUI16CNewFileSelector8runModalEvE3$_0NS_9allocatorIS4_EEFvONS_6vectorINS2_10UTF8StringENS5_IS8_EEEEEE7__cloneEv', symObjAddr: 0x24FC, symBinAddr: 0x40DEC, symSize: 0x34 }
  - { offset: 0x14BBC1, size: 0x8, addend: 0x0, symName: '__ZNKSt3__110__function6__funcIZN6VSTGUI16CNewFileSelector8runModalEvE3$_0NS_9allocatorIS4_EEFvONS_6vectorINS2_10UTF8StringENS5_IS8_EEEEEE7__cloneEPNS0_6__baseISC_EE', symObjAddr: 0x2530, symBinAddr: 0x40E20, symSize: 0x14 }
  - { offset: 0x14BC33, size: 0x8, addend: 0x0, symName: '__ZNSt3__110__function6__funcIZN6VSTGUI16CNewFileSelector8runModalEvE3$_0NS_9allocatorIS4_EEFvONS_6vectorINS2_10UTF8StringENS5_IS8_EEEEEE7destroyEv', symObjAddr: 0x2544, symBinAddr: 0x40E34, symSize: 0x4 }
  - { offset: 0x14BC84, size: 0x8, addend: 0x0, symName: '__ZNSt3__110__function6__funcIZN6VSTGUI16CNewFileSelector8runModalEvE3$_0NS_9allocatorIS4_EEFvONS_6vectorINS2_10UTF8StringENS5_IS8_EEEEEE18destroy_deallocateEv', symObjAddr: 0x2548, symBinAddr: 0x40E38, symSize: 0x4 }
  - { offset: 0x14BCBB, size: 0x8, addend: 0x0, symName: '__ZNSt3__110__function6__funcIZN6VSTGUI16CNewFileSelector8runModalEvE3$_0NS_9allocatorIS4_EEFvONS_6vectorINS2_10UTF8StringENS5_IS8_EEEEEE18destroy_deallocateEv', symObjAddr: 0x2548, symBinAddr: 0x40E38, symSize: 0x4 }
  - { offset: 0x14BCDD, size: 0x8, addend: 0x0, symName: '__ZNSt3__110__function6__funcIZN6VSTGUI16CNewFileSelector8runModalEvE3$_0NS_9allocatorIS4_EEFvONS_6vectorINS2_10UTF8StringENS5_IS8_EEEEEE18destroy_deallocateEv', symObjAddr: 0x2548, symBinAddr: 0x40E38, symSize: 0x4 }
  - { offset: 0x14BD09, size: 0x8, addend: 0x0, symName: '__ZNSt3__110__function6__funcIZN6VSTGUI16CNewFileSelector8runModalEvE3$_0NS_9allocatorIS4_EEFvONS_6vectorINS2_10UTF8StringENS5_IS8_EEEEEE18destroy_deallocateEv', symObjAddr: 0x2548, symBinAddr: 0x40E38, symSize: 0x4 }
  - { offset: 0x14BD30, size: 0x8, addend: 0x0, symName: '__ZNSt3__110__function6__funcIZN6VSTGUI16CNewFileSelector8runModalEvE3$_0NS_9allocatorIS4_EEFvONS_6vectorINS2_10UTF8StringENS5_IS8_EEEEEE18destroy_deallocateEv', symObjAddr: 0x2548, symBinAddr: 0x40E38, symSize: 0x4 }
  - { offset: 0x14BDDA, size: 0x8, addend: 0x0, symName: '__ZNSt3__110__function6__funcIZN6VSTGUI16CNewFileSelector8runModalEvE3$_0NS_9allocatorIS4_EEFvONS_6vectorINS2_10UTF8StringENS5_IS8_EEEEEEclESB_', symObjAddr: 0x254C, symBinAddr: 0x40E3C, symSize: 0xB8 }
  - { offset: 0x14C173, size: 0x8, addend: 0x0, symName: '__ZNKSt3__110__function6__funcIZN6VSTGUI16CNewFileSelector8runModalEvE3$_0NS_9allocatorIS4_EEFvONS_6vectorINS2_10UTF8StringENS5_IS8_EEEEEE6targetERKSt9type_info', symObjAddr: 0x2604, symBinAddr: 0x40EF4, symSize: 0x6C }
  - { offset: 0x14C210, size: 0x8, addend: 0x0, symName: '__ZNKSt3__110__function6__funcIZN6VSTGUI16CNewFileSelector8runModalEvE3$_0NS_9allocatorIS4_EEFvONS_6vectorINS2_10UTF8StringENS5_IS8_EEEEEE11target_typeEv', symObjAddr: 0x2670, symBinAddr: 0x40F60, symSize: 0xC }
  - { offset: 0x14C5F2, size: 0x8, addend: 0x0, symName: __ZNSt3__114__split_bufferIN6VSTGUI21PlatformFileExtensionERNS_9allocatorIS2_EEED1Ev, symObjAddr: 0x2934, symBinAddr: 0x41224, symSize: 0x50 }
  - { offset: 0x14C863, size: 0x8, addend: 0x0, symName: _OUTLINED_FUNCTION_0, symObjAddr: 0x2C6C, symBinAddr: 0x4143C, symSize: 0x8 }
  - { offset: 0x14E8A7, size: 0x8, addend: 0x0, symName: __ZN6VSTGUIL11globalFontsE, symObjAddr: 0x1EEB8, symBinAddr: 0x1BB0A8, symSize: 0x0 }
  - { offset: 0x14F00D, size: 0x8, addend: 0x0, symName: __ZN6VSTGUI11kSystemFontE, symObjAddr: 0x1EEF8, symBinAddr: 0x1E03F8, symSize: 0x0 }
  - { offset: 0x14F032, size: 0x8, addend: 0x0, symName: __ZN6VSTGUI18kNormalFontVeryBigE, symObjAddr: 0x1EF00, symBinAddr: 0x1E0400, symSize: 0x0 }
  - { offset: 0x14F04C, size: 0x8, addend: 0x0, symName: __ZN6VSTGUI14kNormalFontBigE, symObjAddr: 0x1EF08, symBinAddr: 0x1E0408, symSize: 0x0 }
  - { offset: 0x14F066, size: 0x8, addend: 0x0, symName: __ZN6VSTGUI11kNormalFontE, symObjAddr: 0x1EF10, symBinAddr: 0x1E0410, symSize: 0x0 }
  - { offset: 0x14F080, size: 0x8, addend: 0x0, symName: __ZN6VSTGUI16kNormalFontSmallE, symObjAddr: 0x1EF18, symBinAddr: 0x1E0418, symSize: 0x0 }
  - { offset: 0x14F09A, size: 0x8, addend: 0x0, symName: __ZN6VSTGUI18kNormalFontSmallerE, symObjAddr: 0x1EF20, symBinAddr: 0x1E0420, symSize: 0x0 }
  - { offset: 0x14F0B4, size: 0x8, addend: 0x0, symName: __ZN6VSTGUI20kNormalFontVerySmallE, symObjAddr: 0x1EF28, symBinAddr: 0x1E0428, symSize: 0x0 }
  - { offset: 0x14F0CE, size: 0x8, addend: 0x0, symName: __ZN6VSTGUI11kSymbolFontE, symObjAddr: 0x1EF30, symBinAddr: 0x1E0430, symSize: 0x0 }
  - { offset: 0x14F0DC, size: 0x8, addend: 0x0, symName: __ZN6VSTGUI9makeOwnedINS_9CFontDescEJRA14_KciEEENS_13SharedPointerIT_EEDpOT0_, symObjAddr: 0x290, symBinAddr: 0x41900, symSize: 0x130 }
  - { offset: 0x14F51C, size: 0x8, addend: 0x0, symName: __ZN6VSTGUI9makeOwnedINS_9CFontDescEJRA6_KciEEENS_13SharedPointerIT_EEDpOT0_, symObjAddr: 0x3C0, symBinAddr: 0x41A30, symSize: 0x130 }
  - { offset: 0x14F95C, size: 0x8, addend: 0x0, symName: __ZN6VSTGUI9makeOwnedINS_9CFontDescEJRA7_KciEEENS_13SharedPointerIT_EEDpOT0_, symObjAddr: 0x4F0, symBinAddr: 0x41B60, symSize: 0x130 }
  - { offset: 0x152D1C, size: 0x8, addend: 0x0, symName: __ZN6VSTGUI11GlobalFontsD1Ev, symObjAddr: 0x0, symBinAddr: 0x41670, symSize: 0x4 }
  - { offset: 0x152D4A, size: 0x8, addend: 0x0, symName: __ZN6VSTGUI11GlobalFontsD1Ev, symObjAddr: 0x0, symBinAddr: 0x41670, symSize: 0x4 }
  - { offset: 0x152D5D, size: 0x8, addend: 0x0, symName: __ZN6VSTGUI11GlobalFontsD2Ev, symObjAddr: 0xE9C, symBinAddr: 0x42428, symSize: 0xE0 }
  - { offset: 0x152F9F, size: 0x8, addend: 0x0, symName: __ZN6VSTGUI9CFontDesc4initEv, symObjAddr: 0x4, symBinAddr: 0x41674, symSize: 0x28C }
  - { offset: 0x1536F9, size: 0x8, addend: 0x0, symName: __ZN6VSTGUI9CFontDesc7cleanupEv, symObjAddr: 0x620, symBinAddr: 0x41C90, symSize: 0x158 }
  - { offset: 0x153820, size: 0x8, addend: 0x0, symName: __ZN6VSTGUI9CFontDescC2ERKNS_10UTF8StringERKdi, symObjAddr: 0x778, symBinAddr: 0x41DE8, symSize: 0xCC }
  - { offset: 0x153A62, size: 0x8, addend: 0x0, symName: __ZN6VSTGUI9CFontDescC1ERKNS_10UTF8StringERKdi, symObjAddr: 0x89C, symBinAddr: 0x41EB4, symSize: 0xB0 }
  - { offset: 0x153C6D, size: 0x8, addend: 0x0, symName: __ZN6VSTGUI9CFontDescC2ERKS0_, symObjAddr: 0x94C, symBinAddr: 0x41F64, symSize: 0xB8 }
  - { offset: 0x153E8F, size: 0x8, addend: 0x0, symName: __ZN6VSTGUI9CFontDescC1ERKS0_, symObjAddr: 0xA04, symBinAddr: 0x4201C, symSize: 0x9C }
  - { offset: 0x15409A, size: 0x8, addend: 0x0, symName: __ZN6VSTGUI9CFontDescD2Ev, symObjAddr: 0xAA0, symBinAddr: 0x420B8, symSize: 0xBC }
  - { offset: 0x1542B4, size: 0x8, addend: 0x0, symName: __ZN6VSTGUI9CFontDescD1Ev, symObjAddr: 0xB6C, symBinAddr: 0x42174, symSize: 0xC }
  - { offset: 0x154306, size: 0x8, addend: 0x0, symName: __ZN6VSTGUI9CFontDescD0Ev, symObjAddr: 0xB78, symBinAddr: 0x42180, symSize: 0x1C }
  - { offset: 0x154362, size: 0x8, addend: 0x0, symName: __ZN6VSTGUI9CFontDesc12beforeDeleteEv, symObjAddr: 0xB94, symBinAddr: 0x4219C, symSize: 0xC }
  - { offset: 0x15442F, size: 0x8, addend: 0x0, symName: __ZNK6VSTGUI9CFontDesc15getPlatformFontEv, symObjAddr: 0xBA0, symBinAddr: 0x421A8, symSize: 0x90 }
  - { offset: 0x15459F, size: 0x8, addend: 0x0, symName: __ZNK6VSTGUI9CFontDesc14getFontPainterEv, symObjAddr: 0xC30, symBinAddr: 0x42238, symSize: 0x70 }
  - { offset: 0x15468A, size: 0x8, addend: 0x0, symName: __ZN6VSTGUI9CFontDesc16freePlatformFontEv, symObjAddr: 0xCA0, symBinAddr: 0x422A8, symSize: 0x38 }
  - { offset: 0x1546DE, size: 0x8, addend: 0x0, symName: __ZN6VSTGUI9CFontDesc7setNameERKNS_10UTF8StringE, symObjAddr: 0xCD8, symBinAddr: 0x422E0, symSize: 0x60 }
  - { offset: 0x154723, size: 0x8, addend: 0x0, symName: __ZN6VSTGUI9CFontDesc7setSizeEd, symObjAddr: 0xD38, symBinAddr: 0x42340, symSize: 0x10 }
  - { offset: 0x15476D, size: 0x8, addend: 0x0, symName: __ZN6VSTGUI9CFontDesc8setStyleEi, symObjAddr: 0xD48, symBinAddr: 0x42350, symSize: 0x10 }
  - { offset: 0x1547D3, size: 0x8, addend: 0x0, symName: __ZN6VSTGUI9CFontDescaSERKS0_, symObjAddr: 0xD58, symBinAddr: 0x42360, symSize: 0x5C }
  - { offset: 0x154862, size: 0x8, addend: 0x0, symName: __ZNK6VSTGUI9CFontDesceqERKS0_, symObjAddr: 0xDB4, symBinAddr: 0x423BC, symSize: 0x4C }
  - { offset: 0x1548B7, size: 0x8, addend: 0x0, symName: __ZNK6VSTGUI9CFontDescneERKS0_, symObjAddr: 0xE7C, symBinAddr: 0x42408, symSize: 0x20 }
  - { offset: 0x156892, size: 0x8, addend: 0x0, symName: __ZN6VSTGUI16kMsgNewFocusViewE, symObjAddr: 0xBA70, symBinAddr: 0x1B98C0, symSize: 0x0 }
  - { offset: 0x1568AC, size: 0x8, addend: 0x0, symName: __ZN6VSTGUI16kMsgOldFocusViewE, symObjAddr: 0xBA78, symBinAddr: 0x1B98C8, symSize: 0x0 }
  - { offset: 0x1568C0, size: 0x8, addend: 0x0, symName: __ZN6VSTGUI6CFrame16kDefaultKnobModeE, symObjAddr: 0x15CED8, symBinAddr: 0x1E0438, symSize: 0x0 }
  - { offset: 0x180933, size: 0x8, addend: 0x0, symName: __ZN6VSTGUI6CFrame12setFocusViewEPNS_5CViewE, symObjAddr: 0x2B3C, symBinAddr: 0x44E20, symSize: 0x2FC }
  - { offset: 0x18095B, size: 0x8, addend: 0x0, symName: __ZZN6VSTGUI6CFrame12setFocusViewEPNS_5CViewEE9recursion, symObjAddr: 0x15CEDC, symBinAddr: 0x1BB0E8, symSize: 0x0 }
  - { offset: 0x180CF5, size: 0x8, addend: 0x0, symName: __ZN6VSTGUI6CFrame20dispatchMouseUpEventERNS_12MouseUpEventE, symObjAddr: 0x3264, symBinAddr: 0x45548, symSize: 0x2AC }
  - { offset: 0x181A14, size: 0x8, addend: 0x0, symName: __ZN6VSTGUI6CFrameC2ERKNS_5CRectEPNS_21VSTGUIEditorInterfaceE, symObjAddr: 0x0, symBinAddr: 0x42530, symSize: 0x138 }
  - { offset: 0x181EE2, size: 0x8, addend: 0x0, symName: __ZN6VSTGUI6CFrameC1ERKNS_5CRectEPNS_21VSTGUIEditorInterfaceE, symObjAddr: 0x138, symBinAddr: 0x42668, symSize: 0x128 }
  - { offset: 0x182596, size: 0x8, addend: 0x0, symName: __ZN6VSTGUI6CFrame12beforeDeleteEv, symObjAddr: 0x260, symBinAddr: 0x42790, symSize: 0x15C }
  - { offset: 0x182880, size: 0x8, addend: 0x0, symName: __ZN6VSTGUI6CFrame15clearMouseViewsERKNS_6CPointENS_9ModifiersEb, symObjAddr: 0x3BC, symBinAddr: 0x428EC, symSize: 0x278 }
  - { offset: 0x182F04, size: 0x8, addend: 0x0, symName: __ZN6VSTGUI6CFrame25endLegacyModalViewSessionEv, symObjAddr: 0x3BC4, symBinAddr: 0x45EA8, symSize: 0xEC }
  - { offset: 0x1830D5, size: 0x8, addend: 0x0, symName: __ZN6VSTGUI6CFrame19endModalViewSessionEj, symObjAddr: 0x3E3C, symBinAddr: 0x46120, symSize: 0x1A0 }
  - { offset: 0x183685, size: 0x8, addend: 0x0, symName: __ZN6VSTGUI6CFrame9removeAllEb, symObjAddr: 0x6C0, symBinAddr: 0x42BF0, symSize: 0xBC }
  - { offset: 0x183852, size: 0x8, addend: 0x0, symName: __ZN6VSTGUI6CFrame4ImplD2Ev, symObjAddr: 0x773C, symBinAddr: 0x48D5C, symSize: 0x164 }
  - { offset: 0x1849E7, size: 0x8, addend: 0x0, symName: __ZN6VSTGUI6CFrame28callMouseObserverMouseExitedEPNS_5CViewE, symObjAddr: 0x133C, symBinAddr: 0x4381C, symSize: 0xA4 }
  - { offset: 0x184FAF, size: 0x8, addend: 0x0, symName: __ZN6VSTGUI12DispatchListIPNS_14IMouseObserverEE11postForEachEv, symObjAddr: 0x93FC, symBinAddr: 0x4A04C, symSize: 0x398 }
  - { offset: 0x185CB9, size: 0x8, addend: 0x0, symName: __ZN6VSTGUI6CFrame22clearModalViewSessionsEv, symObjAddr: 0x634, symBinAddr: 0x42B64, symSize: 0x70 }
  - { offset: 0x185DCE, size: 0x8, addend: 0x0, symName: __ZN6VSTGUI6CFrame9setCursorENS_11CCursorTypeE, symObjAddr: 0x6A4, symBinAddr: 0x42BD4, symSize: 0x1C }
  - { offset: 0x185E3C, size: 0x8, addend: 0x0, symName: __ZN6VSTGUI6CFrame5closeEv, symObjAddr: 0x77C, symBinAddr: 0x42CAC, symSize: 0x130 }
  - { offset: 0x1861D8, size: 0x8, addend: 0x0, symName: __ZN6VSTGUI6CFrame4openEPvNS_12PlatformTypeEPNS_20IPlatformFrameConfigE, symObjAddr: 0x8FC, symBinAddr: 0x42DDC, symSize: 0x1AC }
  - { offset: 0x1864D7, size: 0x8, addend: 0x0, symName: __ZN6VSTGUI6CFrame19CollectInvalidRectsC2EPS0_, symObjAddr: 0x6CE4, symBinAddr: 0x48598, symSize: 0x120 }
  - { offset: 0x1869E7, size: 0x8, addend: 0x0, symName: __ZN6VSTGUI6CFrame11invalidRectERKNS_5CRectE, symObjAddr: 0x4D9C, symBinAddr: 0x47080, symSize: 0xE4 }
  - { offset: 0x186B45, size: 0x8, addend: 0x0, symName: __ZN6VSTGUI6CFrame19CollectInvalidRectsD2Ev, symObjAddr: 0x6E70, symBinAddr: 0x486B8, symSize: 0x130 }
  - { offset: 0x186FA4, size: 0x8, addend: 0x0, symName: __ZN6VSTGUI6CFrame19CollectInvalidRectsC1EPS0_, symObjAddr: 0xAA8, symBinAddr: 0x42F88, symSize: 0x4 }
  - { offset: 0x186FCE, size: 0x8, addend: 0x0, symName: __ZN6VSTGUI6CFrame19CollectInvalidRectsC1EPS0_, symObjAddr: 0xAA8, symBinAddr: 0x42F88, symSize: 0x4 }
  - { offset: 0x186FE8, size: 0x8, addend: 0x0, symName: __ZN6VSTGUI6CFrame8attachedEPNS_5CViewE, symObjAddr: 0xAAC, symBinAddr: 0x42F8C, symSize: 0xC8 }
  - { offset: 0x1870B9, size: 0x8, addend: 0x0, symName: __ZN6VSTGUI6CFrame7invalidEv, symObjAddr: 0xB74, symBinAddr: 0x43054, symSize: 0x34 }
  - { offset: 0x1870EF, size: 0x8, addend: 0x0, symName: __ZN6VSTGUI6CFrame19CollectInvalidRectsD1Ev, symObjAddr: 0xBA8, symBinAddr: 0x43088, symSize: 0x4 }
  - { offset: 0x187112, size: 0x8, addend: 0x0, symName: __ZN6VSTGUI6CFrame19CollectInvalidRectsD1Ev, symObjAddr: 0xBA8, symBinAddr: 0x43088, symSize: 0x4 }
  - { offset: 0x1871C6, size: 0x8, addend: 0x0, symName: __ZN6VSTGUI6CFrame22dispatchNewScaleFactorEd, symObjAddr: 0xEC0, symBinAddr: 0x433A0, symSize: 0xB4 }
  - { offset: 0x1873D9, size: 0x8, addend: 0x0, symName: __ZN6VSTGUI6CFrame7setZoomEd, symObjAddr: 0xBAC, symBinAddr: 0x4308C, symSize: 0x1F4 }
  - { offset: 0x187693, size: 0x8, addend: 0x0, symName: __ZN6VSTGUI6CFrame7setSizeEdd, symObjAddr: 0xDA0, symBinAddr: 0x43280, symSize: 0x120 }
  - { offset: 0x1877DB, size: 0x8, addend: 0x0, symName: __ZN6VSTGUI12DispatchListIPNS_27IScaleFactorChangedListenerEE11postForEachEv, symObjAddr: 0xA014, symBinAddr: 0x4A77C, symSize: 0x398 }
  - { offset: 0x188547, size: 0x8, addend: 0x0, symName: __ZNK6VSTGUI6CFrame14getScaleFactorEv, symObjAddr: 0xF74, symBinAddr: 0x43454, symSize: 0x10 }
  - { offset: 0x18856F, size: 0x8, addend: 0x0, symName: __ZNK6VSTGUI6CFrame7getZoomEv, symObjAddr: 0xF84, symBinAddr: 0x43464, symSize: 0xC }
  - { offset: 0x188597, size: 0x8, addend: 0x0, symName: __ZN6VSTGUI6CFrame29setBitmapInterpolationQualityENS_26BitmapInterpolationQualityE, symObjAddr: 0xF90, symBinAddr: 0x43470, symSize: 0x58 }
  - { offset: 0x188606, size: 0x8, addend: 0x0, symName: __ZNK6VSTGUI6CFrame29getBitmapInterpolationQualityEv, symObjAddr: 0xFE8, symBinAddr: 0x434C8, symSize: 0x18 }
  - { offset: 0x18865B, size: 0x8, addend: 0x0, symName: __ZN6VSTGUI6CFrame14enableTooltipsEbj, symObjAddr: 0x1000, symBinAddr: 0x434E0, symSize: 0xBC }
  - { offset: 0x188718, size: 0x8, addend: 0x0, symName: __ZN6VSTGUI6CFrame4drawEPNS_12CDrawContextE, symObjAddr: 0x10BC, symBinAddr: 0x4359C, symSize: 0x30 }
  - { offset: 0x188761, size: 0x8, addend: 0x0, symName: __ZN6VSTGUI6CFrame8drawRectEPNS_12CDrawContextERKNS_5CRectE, symObjAddr: 0x10EC, symBinAddr: 0x435CC, symSize: 0x23C }
  - { offset: 0x188D1F, size: 0x8, addend: 0x0, symName: __ZN6VSTGUI10ConcatClipD1Ev, symObjAddr: 0x7E0C, symBinAddr: 0x49330, symSize: 0x30 }
  - { offset: 0x188D59, size: 0x8, addend: 0x0, symName: __ZN6VSTGUI6CFrame13dispatchEventEPNS_5CViewERNS_5EventE, symObjAddr: 0x1328, symBinAddr: 0x43808, symSize: 0x14 }
  - { offset: 0x188E29, size: 0x8, addend: 0x0, symName: __ZN6VSTGUI6CFrame20removeFromMouseViewsEPNS_5CViewE, symObjAddr: 0x13E0, symBinAddr: 0x438C0, symSize: 0x164 }
  - { offset: 0x1896BE, size: 0x8, addend: 0x0, symName: __ZN6VSTGUI6CFrame15checkMouseViewsERKNS_10MouseEventE, symObjAddr: 0x1544, symBinAddr: 0x43A24, symSize: 0x3D4 }
  - { offset: 0x18A339, size: 0x8, addend: 0x0, symName: __ZNK6VSTGUI6CFrame9getViewAtERKNS_6CPointERKNS_14GetViewOptionsE, symObjAddr: 0x1918, symBinAddr: 0x43DF8, symSize: 0x1A4 }
  - { offset: 0x18A598, size: 0x8, addend: 0x0, symName: '__ZZN6VSTGUI6CFrame15checkMouseViewsERKNS_10MouseEventEENK3$_0clEPNS_5CViewE', symObjAddr: 0x1ABC, symBinAddr: 0x43F9C, symSize: 0x198 }
  - { offset: 0x18AB64, size: 0x8, addend: 0x0, symName: '__ZZN6VSTGUI6CFrame15checkMouseViewsERKNS_10MouseEventEENK3$_1clEPNS_5CViewE', symObjAddr: 0x1E50, symBinAddr: 0x44134, symSize: 0x198 }
  - { offset: 0x18B2BE, size: 0x8, addend: 0x0, symName: __ZN6VSTGUI6CFrame15hitTestSubViewsERKNS_6CPointERKNS_5EventE, symObjAddr: 0x1FE8, symBinAddr: 0x442CC, symSize: 0x1A8 }
  - { offset: 0x18B549, size: 0x8, addend: 0x0, symName: __ZNK6VSTGUI6CFrame12getModalViewEv, symObjAddr: 0x2190, symBinAddr: 0x44474, symSize: 0x3C }
  - { offset: 0x18B655, size: 0x8, addend: 0x0, symName: __ZN6VSTGUI6CFrame23dispatchEventToChildrenERNS_5EventE, symObjAddr: 0x21CC, symBinAddr: 0x444B0, symSize: 0x4 }
  - { offset: 0x18B972, size: 0x8, addend: 0x0, symName: __ZN6VSTGUI6CFrame21dispatchKeyboardEventERNS_13KeyboardEventE, symObjAddr: 0x21D0, symBinAddr: 0x444B4, symSize: 0x298 }
  - { offset: 0x18BFFE, size: 0x8, addend: 0x0, symName: __ZN6VSTGUI6CFrame20advanceNextFocusViewEPNS_5CViewEb, symObjAddr: 0x2518, symBinAddr: 0x447FC, symSize: 0x234 }
  - { offset: 0x18C2AE, size: 0x8, addend: 0x0, symName: __ZN6VSTGUI12DispatchListIPNS_13IKeyboardHookEE11postForEachEv, symObjAddr: 0x8DA0, symBinAddr: 0x49CB4, symSize: 0x398 }
  - { offset: 0x18CFB8, size: 0x8, addend: 0x0, symName: __ZN6VSTGUI6CFrame28dispatchKeyboardEventToHooksERNS_13KeyboardEventE, symObjAddr: 0x2468, symBinAddr: 0x4474C, symSize: 0xB0 }
  - { offset: 0x18D339, size: 0x8, addend: 0x0, symName: __ZN6VSTGUI6CFrame22dispatchMouseDownEventERNS_14MouseDownEventE, symObjAddr: 0x274C, symBinAddr: 0x44A30, symSize: 0x340 }
  - { offset: 0x18D932, size: 0x8, addend: 0x0, symName: __ZN6VSTGUI6CFrame32callMouseObserverOtherMouseEventERNS_10MouseEventE, symObjAddr: 0x2A8C, symBinAddr: 0x44D70, symSize: 0xB0 }
  - { offset: 0x18DB00, size: 0x8, addend: 0x0, symName: __ZN6VSTGUI12DispatchListIPNS_18IFocusViewObserverEE11postForEachEv, symObjAddr: 0x8744, symBinAddr: 0x4991C, symSize: 0x398 }
  - { offset: 0x18E820, size: 0x8, addend: 0x0, symName: __ZN6VSTGUI6CFrame22dispatchMouseMoveEventERNS_14MouseMoveEventE, symObjAddr: 0x2E38, symBinAddr: 0x4511C, symSize: 0x42C }
  - { offset: 0x18F12E, size: 0x8, addend: 0x0, symName: '__ZN6VSTGUI11FinalActionIZNS_6CFrame20dispatchMouseUpEventERNS_12MouseUpEventEE3$_0ED1Ev', symObjAddr: 0x3510, symBinAddr: 0x457F4, symSize: 0x38 }
  - { offset: 0x18F17C, size: 0x8, addend: 0x0, symName: __ZN6VSTGUI6CFrame18dispatchMouseEventERNS_10MouseEventE, symObjAddr: 0x3548, symBinAddr: 0x4582C, symSize: 0xE8 }
  - { offset: 0x18F2EC, size: 0x8, addend: 0x0, symName: __ZN6VSTGUI6CFrame13dispatchEventERNS_5EventE, symObjAddr: 0x3630, symBinAddr: 0x45914, symSize: 0x22C }
  - { offset: 0x18F87A, size: 0x8, addend: 0x0, symName: __ZN6VSTGUI6CFrame4Impl16PostEventHandlerD2Ev, symObjAddr: 0x7BAC, symBinAddr: 0x491CC, symSize: 0x164 }
  - { offset: 0x18FDD1, size: 0x8, addend: 0x0, symName: __ZN6VSTGUI6CFrame12getClipboardEv, symObjAddr: 0x385C, symBinAddr: 0x45B40, symSize: 0x2C }
  - { offset: 0x18FE15, size: 0x8, addend: 0x0, symName: __ZN6VSTGUI6CFrame12setClipboardERKNS_13SharedPointerINS_12IDataPackageEEE, symObjAddr: 0x3888, symBinAddr: 0x45B6C, symSize: 0x2C }
  - { offset: 0x18FE6A, size: 0x8, addend: 0x0, symName: __ZN6VSTGUI6CFrame4idleEv, symObjAddr: 0x38B4, symBinAddr: 0x45B98, symSize: 0x18 }
  - { offset: 0x18FED2, size: 0x8, addend: 0x0, symName: __ZN6VSTGUI6CFrame11getAnimatorEv, symObjAddr: 0x38CC, symBinAddr: 0x45BB0, symSize: 0x90 }
  - { offset: 0x18FF63, size: 0x8, addend: 0x0, symName: __ZNK6VSTGUI6CFrame8getTicksEv, symObjAddr: 0x395C, symBinAddr: 0x45C40, symSize: 0x1C }
  - { offset: 0x18FF9F, size: 0x8, addend: 0x0, symName: __ZNK6VSTGUI6CFrame11getKnobModeEv, symObjAddr: 0x3978, symBinAddr: 0x45C5C, symSize: 0x40 }
  - { offset: 0x19005B, size: 0x8, addend: 0x0, symName: __ZN6VSTGUI6CFrame11setPositionEdd, symObjAddr: 0x39B8, symBinAddr: 0x45C9C, symSize: 0xD4 }
  - { offset: 0x190171, size: 0x8, addend: 0x0, symName: __ZN6VSTGUI6CFrame11setViewSizeERKNS_5CRectEb, symObjAddr: 0x3A8C, symBinAddr: 0x45D70, symSize: 0x4 }
  - { offset: 0x1901D8, size: 0x8, addend: 0x0, symName: __ZNK6VSTGUI6CFrame11getPositionERdS1_, symObjAddr: 0x3A90, symBinAddr: 0x45D74, symSize: 0x70 }
  - { offset: 0x1902AE, size: 0x8, addend: 0x0, symName: __ZNK6VSTGUI6CFrame9getEditorEv, symObjAddr: 0x3B00, symBinAddr: 0x45DE4, symSize: 0xC }
  - { offset: 0x1902D0, size: 0x8, addend: 0x0, symName: __ZNK6VSTGUI6CFrame7getSizeEPNS_5CRectE, symObjAddr: 0x3B0C, symBinAddr: 0x45DF0, symSize: 0x24 }
  - { offset: 0x19032B, size: 0x8, addend: 0x0, symName: __ZNK6VSTGUI6CFrame7getSizeERNS_5CRectE, symObjAddr: 0x3B30, symBinAddr: 0x45E14, symSize: 0x1C }
  - { offset: 0x190367, size: 0x8, addend: 0x0, symName: __ZNK6VSTGUI6CFrame7getSizeERNS_5CRectE, symObjAddr: 0x3B30, symBinAddr: 0x45E14, symSize: 0x1C }
  - { offset: 0x1903F6, size: 0x8, addend: 0x0, symName: __ZN6VSTGUI6CFrame12setModalViewEPNS_5CViewE, symObjAddr: 0x3B4C, symBinAddr: 0x45E30, symSize: 0x78 }
  - { offset: 0x1904F8, size: 0x8, addend: 0x0, symName: __ZN6VSTGUI6CFrame21beginModalViewSessionEPNS_5CViewE, symObjAddr: 0x3CB0, symBinAddr: 0x45F94, symSize: 0x18C }
  - { offset: 0x190B88, size: 0x8, addend: 0x0, symName: __ZNSt3__15dequeIN6VSTGUI16ModalViewSessionENS_9allocatorIS2_EEE19__add_back_capacityEv, symObjAddr: 0x7E3C, symBinAddr: 0x49360, symSize: 0x5BC }
  - { offset: 0x191E31, size: 0x8, addend: 0x0, symName: __ZN6VSTGUI6CFrame20initModalViewSessionERKNS_16ModalViewSessionE, symObjAddr: 0x3FDC, symBinAddr: 0x462C0, symSize: 0x18C }
  - { offset: 0x19243E, size: 0x8, addend: 0x0, symName: __ZNK6VSTGUI6CFrame23getCurrentMouseLocationERNS_6CPointE, symObjAddr: 0x4168, symBinAddr: 0x4644C, symSize: 0x74 }
  - { offset: 0x1924E3, size: 0x8, addend: 0x0, symName: __ZN6VSTGUI6CFrame10removeViewEPNS_5CViewEb, symObjAddr: 0x41DC, symBinAddr: 0x464C0, symSize: 0x4 }
  - { offset: 0x192516, size: 0x8, addend: 0x0, symName: __ZN6VSTGUI6CFrame9beginEditEi, symObjAddr: 0x41E0, symBinAddr: 0x464C4, symSize: 0x1C }
  - { offset: 0x19255B, size: 0x8, addend: 0x0, symName: __ZN6VSTGUI6CFrame7endEditEi, symObjAddr: 0x41FC, symBinAddr: 0x464E0, symSize: 0x1C }
  - { offset: 0x1925EA, size: 0x8, addend: 0x0, symName: __ZNK6VSTGUI6CFrame22getCurrentMouseButtonsEv, symObjAddr: 0x4218, symBinAddr: 0x464FC, symSize: 0x24 }
  - { offset: 0x192627, size: 0x8, addend: 0x0, symName: __ZNK6VSTGUI6CFrame22getCurrentMouseButtonsEv, symObjAddr: 0x4218, symBinAddr: 0x464FC, symSize: 0x24 }
  - { offset: 0x192649, size: 0x8, addend: 0x0, symName: __ZNK6VSTGUI6CFrame22getCurrentMouseButtonsEv, symObjAddr: 0x4218, symBinAddr: 0x464FC, symSize: 0x24 }
  - { offset: 0x1928B5, size: 0x8, addend: 0x0, symName: __ZN6VSTGUI6CFrame13onViewRemovedEPNS_5CViewE, symObjAddr: 0x423C, symBinAddr: 0x46520, symSize: 0x208 }
  - { offset: 0x192BFE, size: 0x8, addend: 0x0, symName: __ZNK6VSTGUI6CFrame27getViewAddedRemovedObserverEv, symObjAddr: 0x4444, symBinAddr: 0x46728, symSize: 0xC }
  - { offset: 0x192C20, size: 0x8, addend: 0x0, symName: __ZN6VSTGUI6CFrame11onViewAddedEPNS_5CViewE, symObjAddr: 0x4450, symBinAddr: 0x46734, symSize: 0x88 }
  - { offset: 0x192CC4, size: 0x8, addend: 0x0, symName: __ZN6VSTGUI12DispatchListIPNS_5CViewEE3addERKS2_, symObjAddr: 0x44D8, symBinAddr: 0x467BC, symSize: 0x274 }
  - { offset: 0x193654, size: 0x8, addend: 0x0, symName: __ZNK6VSTGUI6CFrame12getFocusViewEv, symObjAddr: 0x474C, symBinAddr: 0x46A30, symSize: 0xC }
  - { offset: 0x193E9B, size: 0x8, addend: 0x0, symName: __ZN6VSTGUI12DispatchListIPNS_18IFocusViewObserverEE11postForEachEv, symObjAddr: 0x8744, symBinAddr: 0x4991C, symSize: 0x398 }
  - { offset: 0x193EA6, size: 0x8, addend: 0x0, symName: __ZNK6VSTGUI6CFrame12getFocusViewEv, symObjAddr: 0x474C, symBinAddr: 0x46A30, symSize: 0xC }
  - { offset: 0x193EC8, size: 0x8, addend: 0x0, symName: __ZNK6VSTGUI6CFrame14getContainerAtERKNS_6CPointERKNS_14GetViewOptionsE, symObjAddr: 0x4758, symBinAddr: 0x46A3C, symSize: 0x19C }
  - { offset: 0x194461, size: 0x8, addend: 0x0, symName: __ZNK6VSTGUI6CFrame10getViewsAtERKNS_6CPointERNSt3__14listINS_13SharedPointerINS_5CViewEEENS4_9allocatorIS8_EEEERKNS_14GetViewOptionsE, symObjAddr: 0x48F4, symBinAddr: 0x46BD8, symSize: 0x270 }
  - { offset: 0x194A05, size: 0x8, addend: 0x0, symName: __ZN6VSTGUI6CFrame10onActivateEb, symObjAddr: 0x4B64, symBinAddr: 0x46E48, symSize: 0x9C }
  - { offset: 0x194AB1, size: 0x8, addend: 0x0, symName: __ZNK6VSTGUI6CFrame19focusDrawingEnabledEv, symObjAddr: 0x4C00, symBinAddr: 0x46EE4, symSize: 0x28 }
  - { offset: 0x194B80, size: 0x8, addend: 0x0, symName: __ZNK6VSTGUI6CFrame13getFocusColorEv, symObjAddr: 0x4C28, symBinAddr: 0x46F0C, symSize: 0x38 }
  - { offset: 0x194C73, size: 0x8, addend: 0x0, symName: __ZNK6VSTGUI6CFrame13getFocusWidthEv, symObjAddr: 0x4C60, symBinAddr: 0x46F44, symSize: 0x3C }
  - { offset: 0x194D25, size: 0x8, addend: 0x0, symName: __ZN6VSTGUI6CFrame22setFocusDrawingEnabledEb, symObjAddr: 0x4C9C, symBinAddr: 0x46F80, symSize: 0x48 }
  - { offset: 0x194DCA, size: 0x8, addend: 0x0, symName: __ZN6VSTGUI6CFrame13setFocusColorERKNS_6CColorE, symObjAddr: 0x4CE4, symBinAddr: 0x46FC8, symSize: 0x14 }
  - { offset: 0x194E6B, size: 0x8, addend: 0x0, symName: __ZN6VSTGUI6CFrame13setFocusWidthEd, symObjAddr: 0x4CF8, symBinAddr: 0x46FDC, symSize: 0x30 }
  - { offset: 0x194ED7, size: 0x8, addend: 0x0, symName: __ZN6VSTGUI6CFrame10scrollRectERKNS_5CRectERKNS_6CPointE, symObjAddr: 0x4D28, symBinAddr: 0x4700C, symSize: 0x74 }
  - { offset: 0x194FF0, size: 0x8, addend: 0x0, symName: __ZN6VSTGUI6CFrame19CollectInvalidRects7addRectERKNS_5CRectE, symObjAddr: 0x4F14, symBinAddr: 0x471F8, symSize: 0xD0 }
  - { offset: 0x1952AD, size: 0x8, addend: 0x0, symName: __ZN6VSTGUI6CFrame10invalidateERKNS_5CRectE, symObjAddr: 0x4E80, symBinAddr: 0x47164, symSize: 0x94 }
  - { offset: 0x195547, size: 0x8, addend: 0x0, symName: __ZN6VSTGUI16CInvalidRectList3addERKNS_5CRectE, symObjAddr: 0x6FB0, symBinAddr: 0x487E8, symSize: 0x310 }
  - { offset: 0x195F26, size: 0x8, addend: 0x0, symName: __ZN6VSTGUI23OldMouseObserverAdapter12onMouseEventERNS_10MouseEventEPNS_6CFrameE, symObjAddr: 0x72C0, symBinAddr: 0x48AF8, symSize: 0x13C }
  - { offset: 0x195F31, size: 0x8, addend: 0x0, symName: __ZN6VSTGUI6CFrame27setViewAddedRemovedObserverEPNS_25IViewAddedRemovedObserverE, symObjAddr: 0x4FE4, symBinAddr: 0x472C8, symSize: 0xC }
  - { offset: 0x195F68, size: 0x8, addend: 0x0, symName: __ZN6VSTGUI6CFrame20registerKeyboardHookEPNS_13IKeyboardHookE, symObjAddr: 0x4FF0, symBinAddr: 0x472D4, symSize: 0x2C }
  - { offset: 0x196546, size: 0x8, addend: 0x0, symName: __ZN6VSTGUI6CFrame22unregisterKeyboardHookEPNS_13IKeyboardHookE, symObjAddr: 0x5290, symBinAddr: 0x47300, symSize: 0xE8 }
  - { offset: 0x196D7C, size: 0x8, addend: 0x0, symName: __ZN6VSTGUI12DispatchListIPNS_13IKeyboardHookEE11postForEachEv, symObjAddr: 0x8DA0, symBinAddr: 0x49CB4, symSize: 0x398 }
  - { offset: 0x196F5E, size: 0x8, addend: 0x0, symName: __ZN6VSTGUI6CFrame22unregisterKeyboardHookEPNS_13IKeyboardHookE, symObjAddr: 0x5290, symBinAddr: 0x47300, symSize: 0xE8 }
  - { offset: 0x197191, size: 0x8, addend: 0x0, symName: __ZN6VSTGUI6CFrame34registerScaleFactorChangedListenerEPNS_27IScaleFactorChangedListenerE, symObjAddr: 0x5378, symBinAddr: 0x473E8, symSize: 0x2C }
  - { offset: 0x19776F, size: 0x8, addend: 0x0, symName: __ZN6VSTGUI6CFrame36unregisterScaleFactorChangedListenerEPNS_27IScaleFactorChangedListenerE, symObjAddr: 0x5618, symBinAddr: 0x47414, symSize: 0xE8 }
  - { offset: 0x198189, size: 0x8, addend: 0x0, symName: __ZN6VSTGUI6CFrame36unregisterScaleFactorChangedListenerEPNS_27IScaleFactorChangedListenerE, symObjAddr: 0x5618, symBinAddr: 0x47414, symSize: 0xE8 }
  - { offset: 0x1983BC, size: 0x8, addend: 0x0, symName: __ZN6VSTGUI6CFrame21registerMouseObserverEPNS_14IMouseObserverE, symObjAddr: 0x5700, symBinAddr: 0x474FC, symSize: 0x2C }
  - { offset: 0x19899A, size: 0x8, addend: 0x0, symName: __ZN6VSTGUI6CFrame25registerFocusViewObserverEPNS_18IFocusViewObserverE, symObjAddr: 0x59A0, symBinAddr: 0x47528, symSize: 0x2C }
  - { offset: 0x1991D5, size: 0x8, addend: 0x0, symName: __ZN6VSTGUI12DispatchListIPNS_14IMouseObserverEE11postForEachEv, symObjAddr: 0x93FC, symBinAddr: 0x4A04C, symSize: 0x398 }
  - { offset: 0x1991E0, size: 0x8, addend: 0x0, symName: __ZN6VSTGUI6CFrame25registerFocusViewObserverEPNS_18IFocusViewObserverE, symObjAddr: 0x59A0, symBinAddr: 0x47528, symSize: 0x2C }
  - { offset: 0x1997BE, size: 0x8, addend: 0x0, symName: __ZN6VSTGUI6CFrame27unregisterFocusViewObserverEPNS_18IFocusViewObserverE, symObjAddr: 0x5C40, symBinAddr: 0x47554, symSize: 0xE8 }
  - { offset: 0x19A1D8, size: 0x8, addend: 0x0, symName: __ZN6VSTGUI6CFrame27unregisterFocusViewObserverEPNS_18IFocusViewObserverE, symObjAddr: 0x5C40, symBinAddr: 0x47554, symSize: 0xE8 }
  - { offset: 0x19A5DF, size: 0x8, addend: 0x0, symName: __ZN6VSTGUI6CFrame23unregisterMouseObserverEPNS_14IMouseObserverE, symObjAddr: 0x5D28, symBinAddr: 0x4763C, symSize: 0xE8 }
  - { offset: 0x19A812, size: 0x8, addend: 0x0, symName: __ZN6VSTGUI6CFrame29callMouseObserverMouseEnteredEPNS_5CViewE, symObjAddr: 0x5E10, symBinAddr: 0x47724, symSize: 0xBC }
  - { offset: 0x19A924, size: 0x8, addend: 0x0, symName: __ZN6VSTGUI6CFrame11performDragERKNS_15DragDescriptionERKNS_13SharedPointerINS_13IDragCallbackEEE, symObjAddr: 0x5ECC, symBinAddr: 0x477E0, symSize: 0x48 }
  - { offset: 0x19A9CE, size: 0x8, addend: 0x0, symName: __ZNK6VSTGUI6CFrame16getPlatformFrameEv, symObjAddr: 0x5F14, symBinAddr: 0x47828, symSize: 0xC }
  - { offset: 0x19AB2B, size: 0x8, addend: 0x0, symName: __ZN6VSTGUI6CFrame17platformDrawRectsERKNSt3__110shared_ptrINS_30IPlatformGraphicsDeviceContextEEEdRKNS1_6vectorINS_5CRectENS1_9allocatorIS8_EEEE, symObjAddr: 0x5F20, symBinAddr: 0x47834, symSize: 0x100 }
  - { offset: 0x19AE0E, size: 0x8, addend: 0x0, symName: __ZThn32_N6VSTGUI6CFrame17platformDrawRectsERKNSt3__110shared_ptrINS_30IPlatformGraphicsDeviceContextEEEdRKNS1_6vectorINS_5CRectENS1_9allocatorIS8_EEEE, symObjAddr: 0x6080, symBinAddr: 0x47934, symSize: 0x8 }
  - { offset: 0x19AE4C, size: 0x8, addend: 0x0, symName: __ZN6VSTGUI6CFrame15platformOnEventERNS_5EventE, symObjAddr: 0x6088, symBinAddr: 0x4793C, symSize: 0x4 }
  - { offset: 0x19AE76, size: 0x8, addend: 0x0, symName: __ZN6VSTGUI6CFrame15platformOnEventERNS_5EventE, symObjAddr: 0x6088, symBinAddr: 0x4793C, symSize: 0x4 }
  - { offset: 0x19AEB6, size: 0x8, addend: 0x0, symName: __ZThn32_N6VSTGUI6CFrame15platformOnEventERNS_5EventE, symObjAddr: 0x608C, symBinAddr: 0x47940, symSize: 0x8 }
  - { offset: 0x19AF5F, size: 0x8, addend: 0x0, symName: __ZN6VSTGUI6CFrame19platformOnDragEnterENS_13DragEventDataE, symObjAddr: 0x6094, symBinAddr: 0x47948, symSize: 0x120 }
  - { offset: 0x19B1CB, size: 0x8, addend: 0x0, symName: __ZN6VSTGUI13SharedPointerINS_11IDropTargetEED1Ev, symObjAddr: 0x61B4, symBinAddr: 0x47A68, symSize: 0x44 }
  - { offset: 0x19B210, size: 0x8, addend: 0x0, symName: __ZThn32_N6VSTGUI6CFrame19platformOnDragEnterENS_13DragEventDataE, symObjAddr: 0x61F8, symBinAddr: 0x47AAC, symSize: 0x8 }
  - { offset: 0x19B23E, size: 0x8, addend: 0x0, symName: __ZN6VSTGUI6CFrame18platformOnDragMoveENS_13DragEventDataE, symObjAddr: 0x6200, symBinAddr: 0x47AB4, symSize: 0x120 }
  - { offset: 0x19B4AA, size: 0x8, addend: 0x0, symName: __ZThn32_N6VSTGUI6CFrame18platformOnDragMoveENS_13DragEventDataE, symObjAddr: 0x6320, symBinAddr: 0x47BD4, symSize: 0x8 }
  - { offset: 0x19B4D8, size: 0x8, addend: 0x0, symName: __ZN6VSTGUI6CFrame19platformOnDragLeaveENS_13DragEventDataE, symObjAddr: 0x6328, symBinAddr: 0x47BDC, symSize: 0xFC }
  - { offset: 0x19B744, size: 0x8, addend: 0x0, symName: __ZThn32_N6VSTGUI6CFrame19platformOnDragLeaveENS_13DragEventDataE, symObjAddr: 0x6424, symBinAddr: 0x47CD8, symSize: 0x8 }
  - { offset: 0x19B772, size: 0x8, addend: 0x0, symName: __ZN6VSTGUI6CFrame14platformOnDropENS_13DragEventDataE, symObjAddr: 0x642C, symBinAddr: 0x47CE0, symSize: 0x120 }
  - { offset: 0x19B9DE, size: 0x8, addend: 0x0, symName: __ZThn32_N6VSTGUI6CFrame14platformOnDropENS_13DragEventDataE, symObjAddr: 0x654C, symBinAddr: 0x47E00, symSize: 0x8 }
  - { offset: 0x19BA32, size: 0x8, addend: 0x0, symName: __ZN6VSTGUI6CFrame18platformOnActivateEb, symObjAddr: 0x6554, symBinAddr: 0x47E08, symSize: 0xCC }
  - { offset: 0x19BBE5, size: 0x8, addend: 0x0, symName: __ZThn32_N6VSTGUI6CFrame18platformOnActivateEb, symObjAddr: 0x6620, symBinAddr: 0x47ED4, symSize: 0x8 }
  - { offset: 0x19BC29, size: 0x8, addend: 0x0, symName: __ZN6VSTGUI6CFrame24platformOnWindowActivateEb, symObjAddr: 0x6628, symBinAddr: 0x47EDC, symSize: 0xEC }
  - { offset: 0x19BED6, size: 0x8, addend: 0x0, symName: __ZN6VSTGUI12DispatchListIPNS_5CViewEE11postForEachEv, symObjAddr: 0x9A08, symBinAddr: 0x4A3E4, symSize: 0x398 }
  - { offset: 0x19CBE0, size: 0x8, addend: 0x0, symName: __ZThn32_N6VSTGUI6CFrame24platformOnWindowActivateEb, symObjAddr: 0x6714, symBinAddr: 0x47FC8, symSize: 0x8 }
  - { offset: 0x19CC0E, size: 0x8, addend: 0x0, symName: __ZN6VSTGUI6CFrame26platformScaleFactorChangedEd, symObjAddr: 0x671C, symBinAddr: 0x47FD0, symSize: 0xC8 }
  - { offset: 0x19CD4A, size: 0x8, addend: 0x0, symName: __ZThn32_N6VSTGUI6CFrame26platformScaleFactorChangedEd, symObjAddr: 0x67E4, symBinAddr: 0x48098, symSize: 0xC8 }
  - { offset: 0x19D08B, size: 0x8, addend: 0x0, symName: __ZN6VSTGUI6CFrame22doAfterEventProcessingEONSt3__18functionIFvvEEE, symObjAddr: 0x68AC, symBinAddr: 0x48160, symSize: 0x10C }
  - { offset: 0x19D2AE, size: 0x8, addend: 0x0, symName: __ZNSt3__15dequeINS_8functionIFvvEEENS_9allocatorIS3_EEE19__add_back_capacityEv, symObjAddr: 0xA620, symBinAddr: 0x4AB14, symSize: 0x5BC }
  - { offset: 0x19E6D5, size: 0x8, addend: 0x0, symName: __ZN6VSTGUI6CFrame22doAfterEventProcessingERKNSt3__18functionIFvvEEE, symObjAddr: 0x69B8, symBinAddr: 0x4826C, symSize: 0x10C }
  - { offset: 0x19E90B, size: 0x8, addend: 0x0, symName: __ZNK6VSTGUI6CFrame17inEventProcessingEv, symObjAddr: 0x6AC4, symBinAddr: 0x48378, symSize: 0xC }
  - { offset: 0x19E935, size: 0x8, addend: 0x0, symName: __ZN6VSTGUI6CFrame21onStartLocalEventLoopEv, symObjAddr: 0x6AD0, symBinAddr: 0x48384, symSize: 0xB4 }
  - { offset: 0x19EB69, size: 0x8, addend: 0x0, symName: __ZN6VSTGUI6CFrame19CollectInvalidRects5flushEv, symObjAddr: 0x6B84, symBinAddr: 0x48438, symSize: 0xA0 }
  - { offset: 0x19ED7D, size: 0x8, addend: 0x0, symName: __ZN6VSTGUI6CFrame22setCollectInvalidRectsEPNS0_19CollectInvalidRectsE, symObjAddr: 0x6C24, symBinAddr: 0x484D8, symSize: 0xC0 }
  - { offset: 0x19F773, size: 0x8, addend: 0x0, symName: __ZN6VSTGUI23OldMouseObserverAdapter12onMouseEventERNS_10MouseEventEPNS_6CFrameE, symObjAddr: 0x72C0, symBinAddr: 0x48AF8, symSize: 0x13C }
  - { offset: 0x19F93B, size: 0x8, addend: 0x0, symName: __ZN6VSTGUI23OldMouseObserverAdapter12onMouseMovedEPNS_6CFrameERKNS_6CPointERKNS_12CButtonStateE, symObjAddr: 0x73FC, symBinAddr: 0x48C34, symSize: 0x8 }
  - { offset: 0x19F988, size: 0x8, addend: 0x0, symName: __ZN6VSTGUI23OldMouseObserverAdapter11onMouseDownEPNS_6CFrameERKNS_6CPointERKNS_12CButtonStateE, symObjAddr: 0x7404, symBinAddr: 0x48C3C, symSize: 0x8 }
  - { offset: 0x19F9E5, size: 0x8, addend: 0x0, symName: __ZN6VSTGUI22OldKeyboardHookAdapter15onKeyboardEventERNS_13KeyboardEventEPNS_6CFrameE, symObjAddr: 0x740C, symBinAddr: 0x48C44, symSize: 0x98 }
  - { offset: 0x19FADC, size: 0x8, addend: 0x0, symName: __ZN6VSTGUI6CFrameD1Ev, symObjAddr: 0x76AC, symBinAddr: 0x48CDC, symSize: 0xC }
  - { offset: 0x19FAFE, size: 0x8, addend: 0x0, symName: __ZN6VSTGUI6CFrameD1Ev, symObjAddr: 0x76AC, symBinAddr: 0x48CDC, symSize: 0xC }
  - { offset: 0x19FB32, size: 0x8, addend: 0x0, symName: __ZN6VSTGUI6CFrameD0Ev, symObjAddr: 0x76B8, symBinAddr: 0x48CE8, symSize: 0x1C }
  - { offset: 0x19FB8A, size: 0x8, addend: 0x0, symName: __ZNK6VSTGUI6CFrame7newCopyEv, symObjAddr: 0x76D4, symBinAddr: 0x48D04, symSize: 0x8 }
  - { offset: 0x19FBB1, size: 0x8, addend: 0x0, symName: __ZNK6VSTGUI6CFrame12frameToLocalERNS_6CPointE, symObjAddr: 0x76DC, symBinAddr: 0x48D0C, symSize: 0x8 }
  - { offset: 0x19FBE8, size: 0x8, addend: 0x0, symName: __ZNK6VSTGUI6CFrame12localToFrameERNS_6CPointE, symObjAddr: 0x76E4, symBinAddr: 0x48D14, symSize: 0x8 }
  - { offset: 0x19FC1F, size: 0x8, addend: 0x0, symName: __ZThn32_N6VSTGUI6CFrameD1Ev, symObjAddr: 0x76EC, symBinAddr: 0x48D1C, symSize: 0x10 }
  - { offset: 0x19FC88, size: 0x8, addend: 0x0, symName: __ZThn32_N6VSTGUI6CFrameD0Ev, symObjAddr: 0x76FC, symBinAddr: 0x48D2C, symSize: 0x20 }
  - { offset: 0x19FCF3, size: 0x8, addend: 0x0, symName: __ZN6VSTGUI23OldMouseObserverAdapterD1Ev, symObjAddr: 0x771C, symBinAddr: 0x48D4C, symSize: 0x4 }
  - { offset: 0x19FD1F, size: 0x8, addend: 0x0, symName: __ZN6VSTGUI23OldMouseObserverAdapterD0Ev, symObjAddr: 0x7720, symBinAddr: 0x48D50, symSize: 0x4 }
  - { offset: 0x19FD4B, size: 0x8, addend: 0x0, symName: __ZN6VSTGUI23OldMouseObserverAdapter14onMouseEnteredEPNS_5CViewEPNS_6CFrameE, symObjAddr: 0x7724, symBinAddr: 0x48D54, symSize: 0x4 }
  - { offset: 0x19FD8E, size: 0x8, addend: 0x0, symName: __ZN6VSTGUI23OldMouseObserverAdapter13onMouseExitedEPNS_5CViewEPNS_6CFrameE, symObjAddr: 0x7728, symBinAddr: 0x48D58, symSize: 0x4 }
  - { offset: 0x19FDD1, size: 0x8, addend: 0x0, symName: __ZN6VSTGUI22OldKeyboardHookAdapterD1Ev, symObjAddr: 0x772C, symBinAddr: 0x15D8C8, symSize: 0x4 }
  - { offset: 0x19FDFD, size: 0x8, addend: 0x0, symName: __ZN6VSTGUI22OldKeyboardHookAdapterD0Ev, symObjAddr: 0x7730, symBinAddr: 0x15D8CC, symSize: 0x4 }
  - { offset: 0x19FE29, size: 0x8, addend: 0x0, symName: __ZN6VSTGUI22IPlatformFrameCallbackD1Ev, symObjAddr: 0x7734, symBinAddr: 0x15D8D0, symSize: 0x4 }
  - { offset: 0x19FE52, size: 0x8, addend: 0x0, symName: __ZN6VSTGUI22IPlatformFrameCallbackD0Ev, symObjAddr: 0x7738, symBinAddr: 0x15D8D4, symSize: 0x4 }
  - { offset: 0x1A058B, size: 0x8, addend: 0x0, symName: __ZNSt3__15dequeINS_8functionIFvvEEENS_9allocatorIS3_EEED2B8ne180100Ev, symObjAddr: 0x78A0, symBinAddr: 0x48EC0, symSize: 0x194 }
  - { offset: 0x1A0B1A, size: 0x8, addend: 0x0, symName: __ZNSt3__15dequeIN6VSTGUI16ModalViewSessionENS_9allocatorIS2_EEED2B8ne180100Ev, symObjAddr: 0x7A34, symBinAddr: 0x49054, symSize: 0x178 }
  - { offset: 0x1A3B6F, size: 0x8, addend: 0x0, symName: __ZN6VSTGUI12DispatchListIPNS_5CViewEE11postForEachEv, symObjAddr: 0x9A08, symBinAddr: 0x4A3E4, symSize: 0x398 }
  - { offset: 0x1A43FB, size: 0x8, addend: 0x0, symName: __ZN6VSTGUI12DispatchListIPNS_27IScaleFactorChangedListenerEE11postForEachEv, symObjAddr: 0xA014, symBinAddr: 0x4A77C, symSize: 0x398 }
  - { offset: 0x1A4C53, size: 0x8, addend: 0x0, symName: __ZNSt3__15dequeINS_8functionIFvvEEENS_9allocatorIS3_EEE19__add_back_capacityEv, symObjAddr: 0xA620, symBinAddr: 0x4AB14, symSize: 0x5BC }
  - { offset: 0x1A779F, size: 0x8, addend: 0x0, symName: __ZN6VSTGUI9CGradient6createERKNSt3__18multimapIdNS_6CColorENS1_4lessIdEENS1_9allocatorINS1_4pairIKdS3_EEEEEE, symObjAddr: 0x0, symBinAddr: 0x4B0D0, symSize: 0x98 }
  - { offset: 0x1AB402, size: 0x8, addend: 0x0, symName: __ZN6VSTGUI9CGradient6createERKNSt3__18multimapIdNS_6CColorENS1_4lessIdEENS1_9allocatorINS1_4pairIKdS3_EEEEEE, symObjAddr: 0x0, symBinAddr: 0x4B0D0, symSize: 0x98 }
  - { offset: 0x1AB74A, size: 0x8, addend: 0x0, symName: __ZN6VSTGUI9CGradientC1EONSt3__110unique_ptrINS_17IPlatformGradientENS1_14default_deleteIS3_EEEE, symObjAddr: 0x98, symBinAddr: 0x4B168, symSize: 0x24 }
  - { offset: 0x1ABF1D, size: 0x8, addend: 0x0, symName: __ZN6VSTGUI9CGradient6createEddRKNS_6CColorES3_, symObjAddr: 0xBC, symBinAddr: 0x4B18C, symSize: 0x1B4 }
  - { offset: 0x1ACACE, size: 0x8, addend: 0x0, symName: __ZN6VSTGUI9CGradientC2EONSt3__110unique_ptrINS_17IPlatformGradientENS1_14default_deleteIS3_EEEE, symObjAddr: 0x270, symBinAddr: 0x4B340, symSize: 0x40 }
  - { offset: 0x1ACB15, size: 0x8, addend: 0x0, symName: __ZN6VSTGUI9CGradientC2EONSt3__110unique_ptrINS_17IPlatformGradientENS1_14default_deleteIS3_EEEE, symObjAddr: 0x270, symBinAddr: 0x4B340, symSize: 0x40 }
  - { offset: 0x1ACD04, size: 0x8, addend: 0x0, symName: __ZN6VSTGUI9CGradientD2Ev, symObjAddr: 0x2B0, symBinAddr: 0x4B380, symSize: 0x4C }
  - { offset: 0x1ACDEE, size: 0x8, addend: 0x0, symName: __ZN6VSTGUI9CGradientD1Ev, symObjAddr: 0x2FC, symBinAddr: 0x4B3CC, symSize: 0x44 }
  - { offset: 0x1ACEE1, size: 0x8, addend: 0x0, symName: __ZN6VSTGUI9CGradientD0Ev, symObjAddr: 0x340, symBinAddr: 0x4B410, symSize: 0x44 }
  - { offset: 0x1AD0AF, size: 0x8, addend: 0x0, symName: __ZN6VSTGUI9CGradient12addColorStopEdRKNS_6CColorE, symObjAddr: 0x384, symBinAddr: 0x4B454, symSize: 0x38 }
  - { offset: 0x1AD1EA, size: 0x8, addend: 0x0, symName: __ZN6VSTGUI9CGradient12addColorStopERKNSt3__14pairIdNS_6CColorEEE, symObjAddr: 0x3BC, symBinAddr: 0x4B48C, symSize: 0x10 }
  - { offset: 0x1AD215, size: 0x8, addend: 0x0, symName: __ZN6VSTGUI9CGradient12addColorStopERKNSt3__14pairIdNS_6CColorEEE, symObjAddr: 0x3BC, symBinAddr: 0x4B48C, symSize: 0x10 }
  - { offset: 0x1AD245, size: 0x8, addend: 0x0, symName: __ZNK6VSTGUI9CGradient13getColorStopsEv, symObjAddr: 0x3CC, symBinAddr: 0x4B49C, symSize: 0x10 }
  - { offset: 0x1AD270, size: 0x8, addend: 0x0, symName: __ZNK6VSTGUI9CGradient13getColorStopsEv, symObjAddr: 0x3CC, symBinAddr: 0x4B49C, symSize: 0x10 }
  - { offset: 0x1AD298, size: 0x8, addend: 0x0, symName: __ZNK6VSTGUI9CGradient19getPlatformGradientEv, symObjAddr: 0x3DC, symBinAddr: 0x4B4AC, symSize: 0x8 }
  - { offset: 0x1AF232, size: 0x8, addend: 0x0, symName: __ZN6VSTGUI13CGradientViewC2ERKNS_5CRectE, symObjAddr: 0x0, symBinAddr: 0x4B4B4, symSize: 0x6C }
  - { offset: 0x1B5C58, size: 0x8, addend: 0x0, symName: __ZN6VSTGUI13CGradientViewC2ERKNS_5CRectE, symObjAddr: 0x0, symBinAddr: 0x4B4B4, symSize: 0x6C }
  - { offset: 0x1B5DB4, size: 0x8, addend: 0x0, symName: __ZN6VSTGUI13CGradientViewC1ERKNS_5CRectE, symObjAddr: 0x6C, symBinAddr: 0x4B520, symSize: 0x6C }
  - { offset: 0x1B5EFD, size: 0x8, addend: 0x0, symName: __ZN6VSTGUI13CGradientView16attributeChangedEv, symObjAddr: 0xD8, symBinAddr: 0x4B58C, symSize: 0xC }
  - { offset: 0x1B5F38, size: 0x8, addend: 0x0, symName: __ZN6VSTGUI13CGradientView16setGradientStyleENS0_13GradientStyleE, symObjAddr: 0xE4, symBinAddr: 0x4B598, symSize: 0x20 }
  - { offset: 0x1B5FBB, size: 0x8, addend: 0x0, symName: __ZN6VSTGUI13CGradientView11setGradientEPNS_9CGradientE, symObjAddr: 0x104, symBinAddr: 0x4B5B8, symSize: 0x70 }
  - { offset: 0x1B60A3, size: 0x8, addend: 0x0, symName: __ZN6VSTGUI13CGradientView13setFrameColorERKNS_6CColorE, symObjAddr: 0x174, symBinAddr: 0x4B628, symSize: 0x60 }
  - { offset: 0x1B6120, size: 0x8, addend: 0x0, symName: __ZN6VSTGUI13CGradientView16setGradientAngleEd, symObjAddr: 0x1D4, symBinAddr: 0x4B688, symSize: 0x20 }
  - { offset: 0x1B618C, size: 0x8, addend: 0x0, symName: __ZN6VSTGUI13CGradientView18setRoundRectRadiusEd, symObjAddr: 0x1F4, symBinAddr: 0x4B6A8, symSize: 0x60 }
  - { offset: 0x1B61FC, size: 0x8, addend: 0x0, symName: __ZN6VSTGUI13CGradientView13setFrameWidthEd, symObjAddr: 0x254, symBinAddr: 0x4B708, symSize: 0x60 }
  - { offset: 0x1B626C, size: 0x8, addend: 0x0, symName: __ZN6VSTGUI13CGradientView18setDrawAntialiasedEb, symObjAddr: 0x2B4, symBinAddr: 0x4B768, symSize: 0x20 }
  - { offset: 0x1B62D5, size: 0x8, addend: 0x0, symName: __ZN6VSTGUI13CGradientView15setRadialCenterERKNS_6CPointE, symObjAddr: 0x2D4, symBinAddr: 0x4B788, symSize: 0x3C }
  - { offset: 0x1B630E, size: 0x8, addend: 0x0, symName: __ZN6VSTGUI13CGradientView15setRadialCenterERKNS_6CPointE, symObjAddr: 0x2D4, symBinAddr: 0x4B788, symSize: 0x3C }
  - { offset: 0x1B633D, size: 0x8, addend: 0x0, symName: __ZN6VSTGUI13CGradientView15setRadialRadiusEd, symObjAddr: 0x310, symBinAddr: 0x4B7C4, symSize: 0x20 }
  - { offset: 0x1B63A6, size: 0x8, addend: 0x0, symName: __ZN6VSTGUI13CGradientView11setViewSizeERKNS_5CRectEb, symObjAddr: 0x330, symBinAddr: 0x4B7E4, symSize: 0x9C }
  - { offset: 0x1B6545, size: 0x8, addend: 0x0, symName: __ZN6VSTGUI13CGradientView4drawEPNS_12CDrawContextE, symObjAddr: 0x3CC, symBinAddr: 0x4B880, symSize: 0x3B0 }
  - { offset: 0x1B69B4, size: 0x8, addend: 0x0, symName: __ZN6VSTGUI13CGradientViewD1Ev, symObjAddr: 0x984, symBinAddr: 0x4BC30, symSize: 0x64 }
  - { offset: 0x1B6A82, size: 0x8, addend: 0x0, symName: __ZN6VSTGUI13CGradientViewD0Ev, symObjAddr: 0x9E8, symBinAddr: 0x4BC94, symSize: 0x68 }
  - { offset: 0x1B8A16, size: 0x8, addend: 0x0, symName: __ZN6VSTGUI13CGraphicsPath12addRoundRectERKNS_5CRectEd, symObjAddr: 0x0, symBinAddr: 0x4BCFC, symSize: 0x16C }
  - { offset: 0x1BBE34, size: 0x8, addend: 0x0, symName: __ZN6VSTGUI13CGraphicsPath12addRoundRectERKNS_5CRectEd, symObjAddr: 0x0, symBinAddr: 0x4BCFC, symSize: 0x16C }
  - { offset: 0x1BC1E4, size: 0x8, addend: 0x0, symName: __ZN6VSTGUI13CGraphicsPath12beginSubpathERKNS_6CPointE, symObjAddr: 0x2C8, symBinAddr: 0x4BFC4, symSize: 0x144 }
  - { offset: 0x1BC72B, size: 0x8, addend: 0x0, symName: __ZN6VSTGUI13CGraphicsPath6addArcERKNS_5CRectEddb, symObjAddr: 0x40C, symBinAddr: 0x4C108, symSize: 0x188 }
  - { offset: 0x1BC736, size: 0x8, addend: 0x0, symName: __ZN6VSTGUI13CGraphicsPath6addArcERKNS_5CRectEddb, symObjAddr: 0x40C, symBinAddr: 0x4C108, symSize: 0x188 }
  - { offset: 0x1BCC9C, size: 0x8, addend: 0x0, symName: __ZN6VSTGUI13CGraphicsPath12closeSubpathEv, symObjAddr: 0x594, symBinAddr: 0x4C290, symSize: 0x12C }
  - { offset: 0x1BCCA7, size: 0x8, addend: 0x0, symName: __ZN6VSTGUI13CGraphicsPath12closeSubpathEv, symObjAddr: 0x594, symBinAddr: 0x4C290, symSize: 0x12C }
  - { offset: 0x1BD1D6, size: 0x8, addend: 0x0, symName: __ZN6VSTGUI13CGraphicsPath7addPathERKS0_PNS_18CGraphicsTransformE, symObjAddr: 0x6C0, symBinAddr: 0x4C3BC, symSize: 0x2B4 }
  - { offset: 0x1BD1E1, size: 0x8, addend: 0x0, symName: __ZN6VSTGUI13CGraphicsPath7addRectERKNS_5CRectE, symObjAddr: 0x16C, symBinAddr: 0x4BE68, symSize: 0x15C }
  - { offset: 0x1BD718, size: 0x8, addend: 0x0, symName: __ZN6VSTGUI13CGraphicsPath12beginSubpathERKNS_6CPointE, symObjAddr: 0x2C8, symBinAddr: 0x4BFC4, symSize: 0x144 }
  - { offset: 0x1BDCF2, size: 0x8, addend: 0x0, symName: __ZN6VSTGUI13CGraphicsPath7addPathERKS0_PNS_18CGraphicsTransformE, symObjAddr: 0x6C0, symBinAddr: 0x4C3BC, symSize: 0x2B4 }
  - { offset: 0x1BE37D, size: 0x8, addend: 0x0, symName: __ZN6VSTGUI13CGraphicsPath5dirtyEv, symObjAddr: 0x974, symBinAddr: 0x4C670, symSize: 0x20 }
  - { offset: 0x1BE388, size: 0x8, addend: 0x0, symName: __ZN6VSTGUI13CGraphicsPath5dirtyEv, symObjAddr: 0x974, symBinAddr: 0x4C670, symSize: 0x20 }
  - { offset: 0x1BE426, size: 0x8, addend: 0x0, symName: __ZN6VSTGUI13CGraphicsPath10addEllipseERKNS_5CRectE, symObjAddr: 0x994, symBinAddr: 0x4C690, symSize: 0x15C }
  - { offset: 0x1BE95D, size: 0x8, addend: 0x0, symName: __ZN6VSTGUI13CGraphicsPath7addLineERKNS_6CPointE, symObjAddr: 0xAF0, symBinAddr: 0x4C7EC, symSize: 0x144 }
  - { offset: 0x1BE968, size: 0x8, addend: 0x0, symName: __ZN6VSTGUI13CGraphicsPath7addLineERKNS_6CPointE, symObjAddr: 0xAF0, symBinAddr: 0x4C7EC, symSize: 0x144 }
  - { offset: 0x1BEEAF, size: 0x8, addend: 0x0, symName: __ZN6VSTGUI13CGraphicsPath14addBezierCurveERKNS_6CPointES3_S3_, symObjAddr: 0xC34, symBinAddr: 0x4C930, symSize: 0x174 }
  - { offset: 0x1BEEBA, size: 0x8, addend: 0x0, symName: __ZN6VSTGUI13CGraphicsPath14addBezierCurveERKNS_6CPointES3_S3_, symObjAddr: 0xC34, symBinAddr: 0x4C930, symSize: 0x174 }
  - { offset: 0x1BF449, size: 0x8, addend: 0x0, symName: __ZN6VSTGUI13CGraphicsPathC2ERKNSt3__110shared_ptrINS_28IPlatformGraphicsPathFactoryEEEONS1_10unique_ptrINS_21IPlatformGraphicsPathENS1_14default_deleteIS8_EEEE, symObjAddr: 0xDA8, symBinAddr: 0x4CAA4, symSize: 0x60 }
  - { offset: 0x1BF78F, size: 0x8, addend: 0x0, symName: __ZN6VSTGUI13CGraphicsPathC2ERKNSt3__110shared_ptrINS_28IPlatformGraphicsPathFactoryEEEONS1_10unique_ptrINS_21IPlatformGraphicsPathENS1_14default_deleteIS8_EEEE, symObjAddr: 0xDA8, symBinAddr: 0x4CAA4, symSize: 0x60 }
  - { offset: 0x1BF7E4, size: 0x8, addend: 0x0, symName: __ZN6VSTGUI13CGraphicsPathC2ERKNSt3__110shared_ptrINS_28IPlatformGraphicsPathFactoryEEEONS1_10unique_ptrINS_21IPlatformGraphicsPathENS1_14default_deleteIS8_EEEE, symObjAddr: 0xDA8, symBinAddr: 0x4CAA4, symSize: 0x60 }
  - { offset: 0x1BFAB7, size: 0x8, addend: 0x0, symName: __ZN6VSTGUI13CGraphicsPathC1ERKNSt3__110shared_ptrINS_28IPlatformGraphicsPathFactoryEEEONS1_10unique_ptrINS_21IPlatformGraphicsPathENS1_14default_deleteIS8_EEEE, symObjAddr: 0xE08, symBinAddr: 0x4CB04, symSize: 0x44 }
  - { offset: 0x1BFEF3, size: 0x8, addend: 0x0, symName: __ZN6VSTGUI13CGraphicsPathD2Ev, symObjAddr: 0xE4C, symBinAddr: 0x4CB48, symSize: 0x98 }
  - { offset: 0x1C0183, size: 0x8, addend: 0x0, symName: __ZN6VSTGUI13CGraphicsPathD1Ev, symObjAddr: 0xEE4, symBinAddr: 0x4CBE0, symSize: 0x90 }
  - { offset: 0x1C0417, size: 0x8, addend: 0x0, symName: __ZN6VSTGUI13CGraphicsPathD0Ev, symObjAddr: 0xF74, symBinAddr: 0x4CC70, symSize: 0x90 }
  - { offset: 0x1C06B1, size: 0x8, addend: 0x0, symName: __ZN6VSTGUI13CGraphicsPath14createGradientEddRKNS_6CColorES3_, symObjAddr: 0x1004, symBinAddr: 0x4CD00, symSize: 0xC }
  - { offset: 0x1C07DF, size: 0x8, addend: 0x0, symName: __ZN6VSTGUI13CGraphicsPath24makePlatformGraphicsPathENS_28PlatformGraphicsPathFillModeE, symObjAddr: 0x1010, symBinAddr: 0x4CD0C, symSize: 0x1D0 }
  - { offset: 0x1C0C41, size: 0x8, addend: 0x0, symName: __ZN6VSTGUI13CGraphicsPath31ensurePlatformGraphicsPathValidENS_28PlatformGraphicsPathFillModeE, symObjAddr: 0x11E0, symBinAddr: 0x4CEDC, symSize: 0x6C }
  - { offset: 0x1C0D49, size: 0x8, addend: 0x0, symName: __ZN6VSTGUI13CGraphicsPath7hitTestERKNS_6CPointEbPNS_18CGraphicsTransformE, symObjAddr: 0x124C, symBinAddr: 0x4CF48, symSize: 0x9C }
  - { offset: 0x1C0EA1, size: 0x8, addend: 0x0, symName: __ZN6VSTGUI13CGraphicsPath18getCurrentPositionEv, symObjAddr: 0x12E8, symBinAddr: 0x4CFE4, symSize: 0x7C }
  - { offset: 0x1C0EDD, size: 0x8, addend: 0x0, symName: __ZN6VSTGUI13CGraphicsPath18getCurrentPositionEv, symObjAddr: 0x12E8, symBinAddr: 0x4CFE4, symSize: 0x7C }
  - { offset: 0x1C0F31, size: 0x8, addend: 0x0, symName: __ZN6VSTGUI13CGraphicsPath14getBoundingBoxEv, symObjAddr: 0x1364, symBinAddr: 0x4D060, symSize: 0xB0 }
  - { offset: 0x1C1047, size: 0x8, addend: 0x0, symName: __ZN6VSTGUI13CGraphicsPath15getPlatformPathENS_28PlatformGraphicsPathFillModeE, symObjAddr: 0x1414, symBinAddr: 0x4D110, symSize: 0x70 }
  - { offset: 0x1C3067, size: 0x8, addend: 0x0, symName: __ZN6VSTGUI21CLayeredViewContainerC2ERKNS_5CRectE, symObjAddr: 0x0, symBinAddr: 0x4D180, symSize: 0x78 }
  - { offset: 0x1CD9EC, size: 0x8, addend: 0x0, symName: __ZN6VSTGUI21CLayeredViewContainerC2ERKNS_5CRectE, symObjAddr: 0x0, symBinAddr: 0x4D180, symSize: 0x78 }
  - { offset: 0x1CDAA0, size: 0x8, addend: 0x0, symName: __ZN6VSTGUI21CLayeredViewContainerC1ERKNS_5CRectE, symObjAddr: 0x78, symBinAddr: 0x4D1F8, symSize: 0x54 }
  - { offset: 0x1CDB12, size: 0x8, addend: 0x0, symName: __ZN6VSTGUI21CLayeredViewContainer9setZIndexEj, symObjAddr: 0xCC, symBinAddr: 0x4D24C, symSize: 0x28 }
  - { offset: 0x1CDCEB, size: 0x8, addend: 0x0, symName: __ZN6VSTGUI21CLayeredViewContainer15updateLayerSizeEv, symObjAddr: 0xF4, symBinAddr: 0x4D274, symSize: 0x280 }
  - { offset: 0x1CE0E8, size: 0x8, addend: 0x0, symName: __ZN6VSTGUI21CLayeredViewContainer7removedEPNS_5CViewE, symObjAddr: 0x374, symBinAddr: 0x4D4F4, symSize: 0xAC }
  - { offset: 0x1CE1AB, size: 0x8, addend: 0x0, symName: __ZN6VSTGUI21CLayeredViewContainer17registerListenersEb, symObjAddr: 0x420, symBinAddr: 0x4D5A0, symSize: 0x78 }
  - { offset: 0x1CE2A5, size: 0x8, addend: 0x0, symName: __ZN6VSTGUI21CLayeredViewContainer8attachedEPNS_5CViewE, symObjAddr: 0x498, symBinAddr: 0x4D618, symSize: 0x244 }
  - { offset: 0x1CE499, size: 0x8, addend: 0x0, symName: __ZN6VSTGUI21CLayeredViewContainer29viewContainerTransformChangedEPNS_14CViewContainerE, symObjAddr: 0x6DC, symBinAddr: 0x4D85C, symSize: 0x4 }
  - { offset: 0x1CE4C2, size: 0x8, addend: 0x0, symName: __ZN6VSTGUI21CLayeredViewContainer29viewContainerTransformChangedEPNS_14CViewContainerE, symObjAddr: 0x6DC, symBinAddr: 0x4D85C, symSize: 0x4 }
  - { offset: 0x1CE4F8, size: 0x8, addend: 0x0, symName: __ZThn40_N6VSTGUI21CLayeredViewContainer29viewContainerTransformChangedEPNS_14CViewContainerE, symObjAddr: 0x6E0, symBinAddr: 0x4D860, symSize: 0x8 }
  - { offset: 0x1CE550, size: 0x8, addend: 0x0, symName: __ZN6VSTGUI21CLayeredViewContainer7invalidEv, symObjAddr: 0x6E8, symBinAddr: 0x4D868, symSize: 0x54 }
  - { offset: 0x1CE5D8, size: 0x8, addend: 0x0, symName: __ZN6VSTGUI21CLayeredViewContainer11invalidRectERKNS_5CRectE, symObjAddr: 0x73C, symBinAddr: 0x4D8BC, symSize: 0xAC }
  - { offset: 0x1CE709, size: 0x8, addend: 0x0, symName: __ZNK6VSTGUI21CLayeredViewContainer16getDrawTransformEv, symObjAddr: 0x7E8, symBinAddr: 0x4D968, symSize: 0x308 }
  - { offset: 0x1CF4E9, size: 0x8, addend: 0x0, symName: __ZN6VSTGUI21CLayeredViewContainer17parentSizeChangedEv, symObjAddr: 0xAF0, symBinAddr: 0x4DC70, symSize: 0x48 }
  - { offset: 0x1CF550, size: 0x8, addend: 0x0, symName: __ZN6VSTGUI21CLayeredViewContainer11setViewSizeERKNS_5CRectEb, symObjAddr: 0xB38, symBinAddr: 0x4DCB8, symSize: 0x24 }
  - { offset: 0x1CF5A7, size: 0x8, addend: 0x0, symName: __ZN6VSTGUI21CLayeredViewContainer13setAlphaValueEf, symObjAddr: 0xB5C, symBinAddr: 0x4DCDC, symSize: 0x64 }
  - { offset: 0x1CF655, size: 0x8, addend: 0x0, symName: __ZN6VSTGUI21CLayeredViewContainer8drawRectEPNS_12CDrawContextERKNS_5CRectE, symObjAddr: 0xBC0, symBinAddr: 0x4DD40, symSize: 0x9C }
  - { offset: 0x1CF863, size: 0x8, addend: 0x0, symName: __ZN6VSTGUI21CLayeredViewContainer18drawViewLayerRectsERKNSt3__110shared_ptrINS_30IPlatformGraphicsDeviceContextEEEdRKNS1_6vectorINS_5CRectENS1_9allocatorIS8_EEEE, symObjAddr: 0xC5C, symBinAddr: 0x4DDDC, symSize: 0x2AC }
  - { offset: 0x1CFD35, size: 0x8, addend: 0x0, symName: __ZThn32_N6VSTGUI21CLayeredViewContainer18drawViewLayerRectsERKNSt3__110shared_ptrINS_30IPlatformGraphicsDeviceContextEEEdRKNS1_6vectorINS_5CRectENS1_9allocatorIS8_EEEE, symObjAddr: 0xF68, symBinAddr: 0x4E088, symSize: 0x8 }
  - { offset: 0x1CFD72, size: 0x8, addend: 0x0, symName: __ZN6VSTGUI21CLayeredViewContainer20onScaleFactorChangedEPNS_6CFrameEd, symObjAddr: 0xFD0, symBinAddr: 0x4E090, symSize: 0x18 }
  - { offset: 0x1CFDA5, size: 0x8, addend: 0x0, symName: __ZN6VSTGUI21CLayeredViewContainer20onScaleFactorChangedEPNS_6CFrameEd, symObjAddr: 0xFD0, symBinAddr: 0x4E090, symSize: 0x18 }
  - { offset: 0x1CFDFC, size: 0x8, addend: 0x0, symName: __ZThn48_N6VSTGUI21CLayeredViewContainer20onScaleFactorChangedEPNS_6CFrameEd, symObjAddr: 0xFE8, symBinAddr: 0x4E0A8, symSize: 0x18 }
  - { offset: 0x1CFE16, size: 0x8, addend: 0x0, symName: __ZThn48_N6VSTGUI21CLayeredViewContainer20onScaleFactorChangedEPNS_6CFrameEd, symObjAddr: 0xFE8, symBinAddr: 0x4E0A8, symSize: 0x18 }
  - { offset: 0x1CFE3B, size: 0x8, addend: 0x0, symName: __ZThn48_N6VSTGUI21CLayeredViewContainer20onScaleFactorChangedEPNS_6CFrameEd, symObjAddr: 0xFE8, symBinAddr: 0x4E0A8, symSize: 0x18 }
  - { offset: 0x1CFE8E, size: 0x8, addend: 0x0, symName: __ZN6VSTGUI21CLayeredViewContainerD1Ev, symObjAddr: 0x1258, symBinAddr: 0x4E0C0, symSize: 0x60 }
  - { offset: 0x1CFF22, size: 0x8, addend: 0x0, symName: __ZN6VSTGUI21CLayeredViewContainerD0Ev, symObjAddr: 0x12B8, symBinAddr: 0x4E120, symSize: 0x64 }
  - { offset: 0x1CFFAC, size: 0x8, addend: 0x0, symName: __ZThn32_N6VSTGUI21CLayeredViewContainerD1Ev, symObjAddr: 0x131C, symBinAddr: 0x4E184, symSize: 0x60 }
  - { offset: 0x1D0053, size: 0x8, addend: 0x0, symName: __ZThn32_N6VSTGUI21CLayeredViewContainerD0Ev, symObjAddr: 0x137C, symBinAddr: 0x4E1E4, symSize: 0x64 }
  - { offset: 0x1D00F0, size: 0x8, addend: 0x0, symName: __ZThn40_N6VSTGUI21CLayeredViewContainerD1Ev, symObjAddr: 0x13E0, symBinAddr: 0x4E248, symSize: 0x60 }
  - { offset: 0x1D017D, size: 0x8, addend: 0x0, symName: __ZThn40_N6VSTGUI21CLayeredViewContainerD0Ev, symObjAddr: 0x1440, symBinAddr: 0x4E2A8, symSize: 0x64 }
  - { offset: 0x1D021A, size: 0x8, addend: 0x0, symName: __ZN6VSTGUI28ViewContainerListenerAdapter22viewContainerViewAddedEPNS_14CViewContainerEPNS_5CViewE, symObjAddr: 0x14A4, symBinAddr: 0x4E30C, symSize: 0x4 }
  - { offset: 0x1D025B, size: 0x8, addend: 0x0, symName: __ZN6VSTGUI28ViewContainerListenerAdapter24viewContainerViewRemovedEPNS_14CViewContainerEPNS_5CViewE, symObjAddr: 0x14A8, symBinAddr: 0x4E310, symSize: 0x4 }
  - { offset: 0x1D029C, size: 0x8, addend: 0x0, symName: __ZN6VSTGUI28ViewContainerListenerAdapter30viewContainerViewZOrderChangedEPNS_14CViewContainerEPNS_5CViewE, symObjAddr: 0x14AC, symBinAddr: 0x4E314, symSize: 0x4 }
  - { offset: 0x1D02DD, size: 0x8, addend: 0x0, symName: __ZThn48_N6VSTGUI21CLayeredViewContainerD1Ev, symObjAddr: 0x14B0, symBinAddr: 0x4E318, symSize: 0x60 }
  - { offset: 0x1D036A, size: 0x8, addend: 0x0, symName: __ZThn48_N6VSTGUI21CLayeredViewContainerD0Ev, symObjAddr: 0x1510, symBinAddr: 0x4E378, symSize: 0x64 }
  - { offset: 0x1D0407, size: 0x8, addend: 0x0, symName: __ZN6VSTGUI26IPlatformViewLayerDelegateD1Ev, symObjAddr: 0x1574, symBinAddr: 0x15D8D8, symSize: 0x4 }
  - { offset: 0x1D0430, size: 0x8, addend: 0x0, symName: __ZN6VSTGUI26IPlatformViewLayerDelegateD0Ev, symObjAddr: 0x1578, symBinAddr: 0x15D8DC, symSize: 0x4 }
  - { offset: 0x1D0459, size: 0x8, addend: 0x0, symName: __ZN6VSTGUI28ViewContainerListenerAdapterD1Ev, symObjAddr: 0x157C, symBinAddr: 0x4E3DC, symSize: 0x4 }
  - { offset: 0x1D0484, size: 0x8, addend: 0x0, symName: __ZN6VSTGUI28ViewContainerListenerAdapterD0Ev, symObjAddr: 0x1580, symBinAddr: 0x4E3E0, symSize: 0x4 }
  - { offset: 0x1D04AF, size: 0x8, addend: 0x0, symName: __ZN6VSTGUI28ViewContainerListenerAdapter29viewContainerTransformChangedEPNS_14CViewContainerE, symObjAddr: 0x1584, symBinAddr: 0x4E3E4, symSize: 0x4 }
  - { offset: 0x1D04E2, size: 0x8, addend: 0x0, symName: __ZN6VSTGUI27IScaleFactorChangedListenerD1Ev, symObjAddr: 0x1588, symBinAddr: 0x15D8E0, symSize: 0x4 }
  - { offset: 0x1D050B, size: 0x8, addend: 0x0, symName: __ZN6VSTGUI27IScaleFactorChangedListenerD0Ev, symObjAddr: 0x158C, symBinAddr: 0x15D8E4, symSize: 0x4 }
  - { offset: 0x1D2435, size: 0x8, addend: 0x0, symName: __ZN6VSTGUI10kLineSolidE, symObjAddr: 0x22D50, symBinAddr: 0x1E0440, symSize: 0x0 }
  - { offset: 0x1D26B9, size: 0x8, addend: 0x0, symName: __ZN6VSTGUI14kLineOnOffDashE, symObjAddr: 0x22D78, symBinAddr: 0x1E0468, symSize: 0x0 }
  - { offset: 0x1D26D3, size: 0x8, addend: 0x0, symName: __ZN6VSTGUIL23kDefaultOnOffDashLengthE, symObjAddr: 0x9C8, symBinAddr: 0x176B20, symSize: 0x0 }
  - { offset: 0x1D5D2E, size: 0x8, addend: 0x0, symName: __ZN6VSTGUI10CLineStyleC2ENS0_7LineCapENS0_8LineJoinEdjPKd, symObjAddr: 0x0, symBinAddr: 0x4E3E8, symSize: 0x254 }
  - { offset: 0x1D637F, size: 0x8, addend: 0x0, symName: __ZN6VSTGUI10CLineStyleC1ENS0_7LineCapENS0_8LineJoinEdjPKd, symObjAddr: 0x254, symBinAddr: 0x4E63C, symSize: 0x4 }
  - { offset: 0x1D63C6, size: 0x8, addend: 0x0, symName: __ZN6VSTGUI10CLineStyleC1ENS0_7LineCapENS0_8LineJoinEdjPKd, symObjAddr: 0x254, symBinAddr: 0x4E63C, symSize: 0x4 }
  - { offset: 0x1D6627, size: 0x8, addend: 0x0, symName: __ZN6VSTGUI10CLineStyleC2ENS0_7LineCapENS0_8LineJoinEdRKNSt3__16vectorIdNS3_9allocatorIdEEEE, symObjAddr: 0x258, symBinAddr: 0x4E640, symSize: 0x9C }
  - { offset: 0x1D6AF8, size: 0x8, addend: 0x0, symName: __ZN6VSTGUI10CLineStyleC1ENS0_7LineCapENS0_8LineJoinEdRKNSt3__16vectorIdNS3_9allocatorIdEEEE, symObjAddr: 0x2F4, symBinAddr: 0x4E6DC, symSize: 0x9C }
  - { offset: 0x1D7068, size: 0x8, addend: 0x0, symName: __ZN6VSTGUI10CLineStyleC2ERKS0_, symObjAddr: 0x390, symBinAddr: 0x4E778, symSize: 0x88 }
  - { offset: 0x1D7285, size: 0x8, addend: 0x0, symName: __ZNSt3__16vectorIdNS_9allocatorIdEEE18__assign_with_sizeB8ne180100IPdS5_EEvT_T0_l, symObjAddr: 0x790, symBinAddr: 0x4EA64, symSize: 0x144 }
  - { offset: 0x1D7CE0, size: 0x8, addend: 0x0, symName: __ZN6VSTGUI10CLineStyleaSERKS0_, symObjAddr: 0x418, symBinAddr: 0x4E800, symSize: 0x54 }
  - { offset: 0x1D7E50, size: 0x8, addend: 0x0, symName: __ZN6VSTGUI10CLineStyleC1ERKS0_, symObjAddr: 0x46C, symBinAddr: 0x4E854, symSize: 0x88 }
  - { offset: 0x1D80F1, size: 0x8, addend: 0x0, symName: __ZN6VSTGUI10CLineStyleC2ENS0_7LineCapENS0_8LineJoinEdONSt3__16vectorIdNS3_9allocatorIdEEEE, symObjAddr: 0x4F4, symBinAddr: 0x4E8DC, symSize: 0x2C }
  - { offset: 0x1D8238, size: 0x8, addend: 0x0, symName: __ZN6VSTGUI10CLineStyleC2EOS0_, symObjAddr: 0x54C, symBinAddr: 0x4E908, symSize: 0x38 }
  - { offset: 0x1D82EA, size: 0x8, addend: 0x0, symName: __ZN6VSTGUI10CLineStyleaSEOS0_, symObjAddr: 0x584, symBinAddr: 0x4E940, symSize: 0x70 }
  - { offset: 0x1D851C, size: 0x8, addend: 0x0, symName: __ZNK6VSTGUI10CLineStyleeqERKS0_, symObjAddr: 0x62C, symBinAddr: 0x4E9B0, symSize: 0x84 }
  - { offset: 0x1D8691, size: 0x8, addend: 0x0, symName: __ZN6VSTGUI10CLineStyleD1Ev, symObjAddr: 0x6B0, symBinAddr: 0x4EA34, symSize: 0x30 }
  - { offset: 0x1DDF13, size: 0x8, addend: 0x0, symName: __ZN6VSTGUI21renderBitmapOffscreenERKNS_6CPointEdNSt3__18functionIFvRNS_12CDrawContextEEEE, symObjAddr: 0x7E4, symBinAddr: 0x4F3B0, symSize: 0xD8 }
  - { offset: 0x1E3452, size: 0x8, addend: 0x0, symName: __ZN6VSTGUI17COffscreenContextC2EPNS_7CBitmapE, symObjAddr: 0x0, symBinAddr: 0x4EC2C, symSize: 0x9C }
  - { offset: 0x1E3594, size: 0x8, addend: 0x0, symName: __ZN6VSTGUI17COffscreenContextC1EPNS_7CBitmapE, symObjAddr: 0x9C, symBinAddr: 0x4ECC8, symSize: 0x98 }
  - { offset: 0x1E36FB, size: 0x8, addend: 0x0, symName: __ZN6VSTGUI17COffscreenContextC2ERKNS_5CRectE, symObjAddr: 0x134, symBinAddr: 0x4ED60, symSize: 0x3C }
  - { offset: 0x1E3782, size: 0x8, addend: 0x0, symName: __ZN6VSTGUI17COffscreenContextC1ERKNS_5CRectE, symObjAddr: 0x170, symBinAddr: 0x4ED9C, symSize: 0x3C }
  - { offset: 0x1E3917, size: 0x8, addend: 0x0, symName: __ZN6VSTGUI17COffscreenContextC2ENSt3__110shared_ptrINS_30IPlatformGraphicsDeviceContextEEERKNS_5CRectERKNS_13SharedPointerINS_15IPlatformBitmapEEE, symObjAddr: 0x1AC, symBinAddr: 0x4EDD8, symSize: 0x12C }
  - { offset: 0x1E3BDC, size: 0x8, addend: 0x0, symName: __ZN6VSTGUI17COffscreenContextC1ENSt3__110shared_ptrINS_30IPlatformGraphicsDeviceContextEEERKNS_5CRectERKNS_13SharedPointerINS_15IPlatformBitmapEEE, symObjAddr: 0x338, symBinAddr: 0x4EF04, symSize: 0x12C }
  - { offset: 0x1E3E65, size: 0x8, addend: 0x0, symName: __ZN6VSTGUI17COffscreenContext8copyFromEPNS_12CDrawContextENS_5CRectENS_6CPointE, symObjAddr: 0x464, symBinAddr: 0x4F030, symSize: 0x44 }
  - { offset: 0x1E3F58, size: 0x8, addend: 0x0, symName: __ZN6VSTGUI17COffscreenContext6createEPNS_6CFrameEddd, symObjAddr: 0x4A8, symBinAddr: 0x4F074, symSize: 0x28 }
  - { offset: 0x1E4022, size: 0x8, addend: 0x0, symName: __ZN6VSTGUI17COffscreenContext6createERKNS_6CPointEd, symObjAddr: 0x4D0, symBinAddr: 0x4F09C, symSize: 0x28C }
  - { offset: 0x1E4A78, size: 0x8, addend: 0x0, symName: __ZNSt3__110shared_ptrIN6VSTGUI23IPlatformGraphicsDeviceEED1B8ne180100Ev, symObjAddr: 0x75C, symBinAddr: 0x4F328, symSize: 0x60 }
  - { offset: 0x1E4B10, size: 0x8, addend: 0x0, symName: __ZNK6VSTGUI17COffscreenContext8getWidthEv, symObjAddr: 0x7BC, symBinAddr: 0x4F388, symSize: 0x14 }
  - { offset: 0x1E4B3B, size: 0x8, addend: 0x0, symName: __ZNK6VSTGUI17COffscreenContext8getWidthEv, symObjAddr: 0x7BC, symBinAddr: 0x4F388, symSize: 0x14 }
  - { offset: 0x1E4B57, size: 0x8, addend: 0x0, symName: __ZNK6VSTGUI17COffscreenContext9getHeightEv, symObjAddr: 0x7D0, symBinAddr: 0x4F39C, symSize: 0x14 }
  - { offset: 0x1E4B82, size: 0x8, addend: 0x0, symName: __ZNK6VSTGUI17COffscreenContext9getHeightEv, symObjAddr: 0x7D0, symBinAddr: 0x4F39C, symSize: 0x14 }
  - { offset: 0x1E4D36, size: 0x8, addend: 0x0, symName: __ZN6VSTGUI17COffscreenContextD1Ev, symObjAddr: 0x938, symBinAddr: 0x4F488, symSize: 0x4C }
  - { offset: 0x1E4DCC, size: 0x8, addend: 0x0, symName: __ZN6VSTGUI17COffscreenContextD0Ev, symObjAddr: 0x984, symBinAddr: 0x4F4D4, symSize: 0x50 }
  - { offset: 0x1EEAA5, size: 0x8, addend: 0x0, symName: __ZN6VSTGUI14CAutoAnimation10startTimerEv, symObjAddr: 0xC58, symBinAddr: 0x5017C, symSize: 0x148 }
  - { offset: 0x1EEEBA, size: 0x8, addend: 0x0, symName: __ZN6VSTGUI14CAutoAnimationC2ERKNS_5CRectEPNS_16IControlListenerEiPNS_7CBitmapE, symObjAddr: 0x0, symBinAddr: 0x4F524, symSize: 0x134 }
  - { offset: 0x1EEFF2, size: 0x8, addend: 0x0, symName: __ZN6VSTGUI13SharedPointerINS_12CVSTGUITimerEED1Ev, symObjAddr: 0x134, symBinAddr: 0x4F658, symSize: 0x6C }
  - { offset: 0x1EF0C2, size: 0x8, addend: 0x0, symName: __ZN6VSTGUI14CAutoAnimationC1ERKNS_5CRectEPNS_16IControlListenerEiPNS_7CBitmapE, symObjAddr: 0x1A0, symBinAddr: 0x4F6C4, symSize: 0x12C }
  - { offset: 0x1EF206, size: 0x8, addend: 0x0, symName: __ZN6VSTGUI14CAutoAnimationC2ERKNS_5CRectEPNS_16IControlListenerEiPNS_7CBitmapERKNS_6CPointE, symObjAddr: 0x2CC, symBinAddr: 0x4F7F0, symSize: 0x144 }
  - { offset: 0x1EF34E, size: 0x8, addend: 0x0, symName: __ZN6VSTGUI14CAutoAnimationC1ERKNS_5CRectEPNS_16IControlListenerEiPNS_7CBitmapERKNS_6CPointE, symObjAddr: 0x410, symBinAddr: 0x4F934, symSize: 0x134 }
  - { offset: 0x1EF49B, size: 0x8, addend: 0x0, symName: __ZN6VSTGUI14CAutoAnimationC2ERKNS_5CRectEPNS_16IControlListenerEiidPNS_7CBitmapERKNS_6CPointE, symObjAddr: 0x544, symBinAddr: 0x4FA68, symSize: 0x168 }
  - { offset: 0x1EF670, size: 0x8, addend: 0x0, symName: __ZN6VSTGUI14CAutoAnimationC1ERKNS_5CRectEPNS_16IControlListenerEiidPNS_7CBitmapERKNS_6CPointE, symObjAddr: 0x6AC, symBinAddr: 0x4FBD0, symSize: 0x170 }
  - { offset: 0x1EF86C, size: 0x8, addend: 0x0, symName: __ZN6VSTGUI14CAutoAnimation15setBitmapOffsetERKNS_6CPointE, symObjAddr: 0x81C, symBinAddr: 0x4FD40, symSize: 0x14 }
  - { offset: 0x1EF8B7, size: 0x8, addend: 0x0, symName: __ZNK6VSTGUI14CAutoAnimation15getBitmapOffsetEv, symObjAddr: 0x830, symBinAddr: 0x4FD54, symSize: 0x8 }
  - { offset: 0x1EF8DE, size: 0x8, addend: 0x0, symName: __ZN6VSTGUI14CAutoAnimationC2ERKS0_, symObjAddr: 0x838, symBinAddr: 0x4FD5C, symSize: 0xF4 }
  - { offset: 0x1EF9C9, size: 0x8, addend: 0x0, symName: __ZN6VSTGUI14CAutoAnimationC1ERKS0_, symObjAddr: 0x92C, symBinAddr: 0x4FE50, symSize: 0xF4 }
  - { offset: 0x1EFB2F, size: 0x8, addend: 0x0, symName: __ZNK6VSTGUI14CAutoAnimation14isWindowOpenedEv, symObjAddr: 0xA20, symBinAddr: 0x4FF44, symSize: 0x8 }
  - { offset: 0x1EFBCD, size: 0x8, addend: 0x0, symName: __ZN6VSTGUI14CAutoAnimation4drawEPNS_12CDrawContextE, symObjAddr: 0xA28, symBinAddr: 0x4FF4C, symSize: 0x168 }
  - { offset: 0x1EFD65, size: 0x8, addend: 0x0, symName: __ZN6VSTGUI14CAutoAnimation11onMouseDownERNS_6CPointERKNS_12CButtonStateE, symObjAddr: 0xB90, symBinAddr: 0x500B4, symSize: 0x84 }
  - { offset: 0x1EFDF6, size: 0x8, addend: 0x0, symName: __ZN6VSTGUI14CAutoAnimation8attachedEPNS_5CViewE, symObjAddr: 0xC14, symBinAddr: 0x50138, symSize: 0x44 }
  - { offset: 0x1F0104, size: 0x8, addend: 0x0, symName: __ZN6VSTGUI14CAutoAnimation7removedEPNS_5CViewE, symObjAddr: 0xDA0, symBinAddr: 0x502C4, symSize: 0x70 }
  - { offset: 0x1F01BC, size: 0x8, addend: 0x0, symName: __ZN6VSTGUI14CAutoAnimation10openWindowEv, symObjAddr: 0xE10, symBinAddr: 0x50334, symSize: 0x40 }
  - { offset: 0x1F020F, size: 0x8, addend: 0x0, symName: __ZN6VSTGUI14CAutoAnimation11closeWindowEv, symObjAddr: 0xE50, symBinAddr: 0x50374, symSize: 0x60 }
  - { offset: 0x1F02C8, size: 0x8, addend: 0x0, symName: __ZN6VSTGUI14CAutoAnimation26updateMinMaxFromBackgroundEv, symObjAddr: 0xEB0, symBinAddr: 0x503D4, symSize: 0xA8 }
  - { offset: 0x1F03B3, size: 0x8, addend: 0x0, symName: __ZN6VSTGUI14CAutoAnimation13setBackgroundEPNS_7CBitmapE, symObjAddr: 0xF58, symBinAddr: 0x5047C, symSize: 0xB0 }
  - { offset: 0x1F047D, size: 0x8, addend: 0x0, symName: __ZN6VSTGUI14CAutoAnimation10nextPixmapEv, symObjAddr: 0x1008, symBinAddr: 0x5052C, symSize: 0xE4 }
  - { offset: 0x1F0514, size: 0x8, addend: 0x0, symName: __ZN6VSTGUI14CAutoAnimation14previousPixmapEv, symObjAddr: 0x10EC, symBinAddr: 0x50610, symSize: 0xEC }
  - { offset: 0x1F05C8, size: 0x8, addend: 0x0, symName: __ZN6VSTGUI14CAutoAnimation16setAnimationTimeEj, symObjAddr: 0x11D8, symBinAddr: 0x506FC, symSize: 0x14 }
  - { offset: 0x1F062E, size: 0x8, addend: 0x0, symName: __ZNK6VSTGUI14CAutoAnimation16getAnimationTimeEv, symObjAddr: 0x11EC, symBinAddr: 0x50710, symSize: 0x8 }
  - { offset: 0x1F0658, size: 0x8, addend: 0x0, symName: __ZNK6VSTGUI8CControl8getValueEv, symObjAddr: 0x1388, symBinAddr: 0x50718, symSize: 0x8 }
  - { offset: 0x1F067D, size: 0x8, addend: 0x0, symName: __ZNK6VSTGUI8CControl6getTagEv, symObjAddr: 0x1390, symBinAddr: 0x50720, symSize: 0x8 }
  - { offset: 0x1F06A4, size: 0x8, addend: 0x0, symName: __ZNK6VSTGUI8CControl11getListenerEv, symObjAddr: 0x1398, symBinAddr: 0x50728, symSize: 0x8 }
  - { offset: 0x1F06CB, size: 0x8, addend: 0x0, symName: __ZN6VSTGUI8CControl11setListenerEPNS_16IControlListenerE, symObjAddr: 0x13A0, symBinAddr: 0x50730, symSize: 0x8 }
  - { offset: 0x1F0743, size: 0x8, addend: 0x0, symName: __ZN6VSTGUI14CAutoAnimationD1Ev, symObjAddr: 0x141C, symBinAddr: 0x50738, symSize: 0x98 }
  - { offset: 0x1F080A, size: 0x8, addend: 0x0, symName: __ZN6VSTGUI14CAutoAnimationD0Ev, symObjAddr: 0x14B4, symBinAddr: 0x507D0, symSize: 0x84 }
  - { offset: 0x1F08CD, size: 0x8, addend: 0x0, symName: __ZNK6VSTGUI14CAutoAnimation7newCopyEv, symObjAddr: 0x1538, symBinAddr: 0x50854, symSize: 0x48 }
  - { offset: 0x1F0908, size: 0x8, addend: 0x0, symName: __ZN6VSTGUI14CAutoAnimation16setNumSubPixmapsEi, symObjAddr: 0x1580, symBinAddr: 0x5089C, symSize: 0x10 }
  - { offset: 0x1F0933, size: 0x8, addend: 0x0, symName: __ZN6VSTGUI14CAutoAnimation16setNumSubPixmapsEi, symObjAddr: 0x1580, symBinAddr: 0x5089C, symSize: 0x10 }
  - { offset: 0x1F096B, size: 0x8, addend: 0x0, symName: __ZThn24_N6VSTGUI14CAutoAnimationD1Ev, symObjAddr: 0x1590, symBinAddr: 0x508AC, symSize: 0x98 }
  - { offset: 0x1F0A45, size: 0x8, addend: 0x0, symName: __ZThn24_N6VSTGUI14CAutoAnimationD0Ev, symObjAddr: 0x1628, symBinAddr: 0x50944, symSize: 0x84 }
  - { offset: 0x1F0B1B, size: 0x8, addend: 0x0, symName: __ZThn64_N6VSTGUI14CAutoAnimationD1Ev, symObjAddr: 0x16AC, symBinAddr: 0x509C8, symSize: 0x98 }
  - { offset: 0x1F0BDB, size: 0x8, addend: 0x0, symName: __ZThn64_N6VSTGUI14CAutoAnimationD0Ev, symObjAddr: 0x1744, symBinAddr: 0x50A60, symSize: 0x84 }
  - { offset: 0x1F0CB1, size: 0x8, addend: 0x0, symName: __ZN6VSTGUI19IMultiBitmapControl19setHeightOfOneImageERKd, symObjAddr: 0x17C8, symBinAddr: 0x50AE4, symSize: 0xC }
  - { offset: 0x1F0CE4, size: 0x8, addend: 0x0, symName: __ZNK6VSTGUI19IMultiBitmapControl19getHeightOfOneImageEv, symObjAddr: 0x17D4, symBinAddr: 0x50AF0, symSize: 0x8 }
  - { offset: 0x1F0D09, size: 0x8, addend: 0x0, symName: __ZThn64_N6VSTGUI14CAutoAnimation16setNumSubPixmapsEi, symObjAddr: 0x17DC, symBinAddr: 0x50AF8, symSize: 0x10 }
  - { offset: 0x1F0D23, size: 0x8, addend: 0x0, symName: __ZThn64_N6VSTGUI14CAutoAnimation16setNumSubPixmapsEi, symObjAddr: 0x17DC, symBinAddr: 0x50AF8, symSize: 0x10 }
  - { offset: 0x1F0D79, size: 0x8, addend: 0x0, symName: __ZNK6VSTGUI19IMultiBitmapControl16getNumSubPixmapsEv, symObjAddr: 0x17EC, symBinAddr: 0x50B08, symSize: 0x8 }
  - { offset: 0x1F0DA0, size: 0x8, addend: 0x0, symName: '__ZNSt3__110__function6__funcIZN6VSTGUI14CAutoAnimation10startTimerEvE3$_0NS_9allocatorIS4_EEFvPNS2_12CVSTGUITimerEEED1Ev', symObjAddr: 0x1804, symBinAddr: 0x50B10, symSize: 0x4 }
  - { offset: 0x1F0DCB, size: 0x8, addend: 0x0, symName: '__ZNSt3__110__function6__funcIZN6VSTGUI14CAutoAnimation10startTimerEvE3$_0NS_9allocatorIS4_EEFvPNS2_12CVSTGUITimerEEED0Ev', symObjAddr: 0x1808, symBinAddr: 0x50B14, symSize: 0x4 }
  - { offset: 0x1F0E89, size: 0x8, addend: 0x0, symName: '__ZNKSt3__110__function6__funcIZN6VSTGUI14CAutoAnimation10startTimerEvE3$_0NS_9allocatorIS4_EEFvPNS2_12CVSTGUITimerEEE7__cloneEv', symObjAddr: 0x180C, symBinAddr: 0x50B18, symSize: 0x34 }
  - { offset: 0x1F0FDB, size: 0x8, addend: 0x0, symName: '__ZNKSt3__110__function6__funcIZN6VSTGUI14CAutoAnimation10startTimerEvE3$_0NS_9allocatorIS4_EEFvPNS2_12CVSTGUITimerEEE7__cloneEPNS0_6__baseIS9_EE', symObjAddr: 0x1840, symBinAddr: 0x50B4C, symSize: 0x14 }
  - { offset: 0x1F104D, size: 0x8, addend: 0x0, symName: '__ZNSt3__110__function6__funcIZN6VSTGUI14CAutoAnimation10startTimerEvE3$_0NS_9allocatorIS4_EEFvPNS2_12CVSTGUITimerEEE7destroyEv', symObjAddr: 0x1854, symBinAddr: 0x50B60, symSize: 0x4 }
  - { offset: 0x1F109E, size: 0x8, addend: 0x0, symName: '__ZNSt3__110__function6__funcIZN6VSTGUI14CAutoAnimation10startTimerEvE3$_0NS_9allocatorIS4_EEFvPNS2_12CVSTGUITimerEEE18destroy_deallocateEv', symObjAddr: 0x1858, symBinAddr: 0x50B64, symSize: 0x4 }
  - { offset: 0x1F10D5, size: 0x8, addend: 0x0, symName: '__ZNSt3__110__function6__funcIZN6VSTGUI14CAutoAnimation10startTimerEvE3$_0NS_9allocatorIS4_EEFvPNS2_12CVSTGUITimerEEE18destroy_deallocateEv', symObjAddr: 0x1858, symBinAddr: 0x50B64, symSize: 0x4 }
  - { offset: 0x1F10F7, size: 0x8, addend: 0x0, symName: '__ZNSt3__110__function6__funcIZN6VSTGUI14CAutoAnimation10startTimerEvE3$_0NS_9allocatorIS4_EEFvPNS2_12CVSTGUITimerEEE18destroy_deallocateEv', symObjAddr: 0x1858, symBinAddr: 0x50B64, symSize: 0x4 }
  - { offset: 0x1F1123, size: 0x8, addend: 0x0, symName: '__ZNSt3__110__function6__funcIZN6VSTGUI14CAutoAnimation10startTimerEvE3$_0NS_9allocatorIS4_EEFvPNS2_12CVSTGUITimerEEE18destroy_deallocateEv', symObjAddr: 0x1858, symBinAddr: 0x50B64, symSize: 0x4 }
  - { offset: 0x1F114A, size: 0x8, addend: 0x0, symName: '__ZNSt3__110__function6__funcIZN6VSTGUI14CAutoAnimation10startTimerEvE3$_0NS_9allocatorIS4_EEFvPNS2_12CVSTGUITimerEEE18destroy_deallocateEv', symObjAddr: 0x1858, symBinAddr: 0x50B64, symSize: 0x4 }
  - { offset: 0x1F11FA, size: 0x8, addend: 0x0, symName: '__ZNSt3__110__function6__funcIZN6VSTGUI14CAutoAnimation10startTimerEvE3$_0NS_9allocatorIS4_EEFvPNS2_12CVSTGUITimerEEEclEOS8_', symObjAddr: 0x185C, symBinAddr: 0x50B68, symSize: 0x38 }
  - { offset: 0x1F1301, size: 0x8, addend: 0x0, symName: '__ZNKSt3__110__function6__funcIZN6VSTGUI14CAutoAnimation10startTimerEvE3$_0NS_9allocatorIS4_EEFvPNS2_12CVSTGUITimerEEE6targetERKSt9type_info', symObjAddr: 0x1894, symBinAddr: 0x50BA0, symSize: 0x6C }
  - { offset: 0x1F13B5, size: 0x8, addend: 0x0, symName: '__ZNKSt3__110__function6__funcIZN6VSTGUI14CAutoAnimation10startTimerEvE3$_0NS_9allocatorIS4_EEFvPNS2_12CVSTGUITimerEEE11target_typeEv', symObjAddr: 0x1900, symBinAddr: 0x50C0C, symSize: 0xC }
  - { offset: 0x1F3365, size: 0x8, addend: 0x0, symName: __ZN6VSTGUIL12kWhiteCColorE, symObjAddr: 0x6FD0, symBinAddr: 0x176C88, symSize: 0x0 }
  - { offset: 0x1F3763, size: 0x8, addend: 0x0, symName: __ZN6VSTGUIL12kBlackCColorE, symObjAddr: 0x6FD4, symBinAddr: 0x176C8C, symSize: 0x0 }
  - { offset: 0x1F377D, size: 0x8, addend: 0x0, symName: __ZN6VSTGUIL10kRedCColorE, symObjAddr: 0x6FD8, symBinAddr: 0x176C90, symSize: 0x0 }
  - { offset: 0x1FDA91, size: 0x8, addend: 0x0, symName: __ZN6VSTGUI12COnOffButtonC2ERKNS_5CRectEPNS_16IControlListenerEiPNS_7CBitmapEi, symObjAddr: 0x0, symBinAddr: 0x50C18, symSize: 0x88 }
  - { offset: 0x1FDB4F, size: 0x8, addend: 0x0, symName: __ZN6VSTGUI12COnOffButtonC1ERKNS_5CRectEPNS_16IControlListenerEiPNS_7CBitmapEi, symObjAddr: 0x88, symBinAddr: 0x50CA0, symSize: 0x88 }
  - { offset: 0x1FDBE8, size: 0x8, addend: 0x0, symName: __ZN6VSTGUI12COnOffButtonC2ERKS0_, symObjAddr: 0x110, symBinAddr: 0x50D28, symSize: 0x8C }
  - { offset: 0x1FDC45, size: 0x8, addend: 0x0, symName: __ZN6VSTGUI12COnOffButtonC1ERKS0_, symObjAddr: 0x19C, symBinAddr: 0x50DB4, symSize: 0x80 }
  - { offset: 0x1FDCF1, size: 0x8, addend: 0x0, symName: __ZN6VSTGUI12COnOffButton4drawEPNS_12CDrawContextE, symObjAddr: 0x21C, symBinAddr: 0x50E34, symSize: 0xC8 }
  - { offset: 0x1FDDE7, size: 0x8, addend: 0x0, symName: __ZN6VSTGUI12COnOffButton11onMouseDownERNS_6CPointERKNS_12CButtonStateE, symObjAddr: 0x2E4, symBinAddr: 0x50EFC, symSize: 0x34 }
  - { offset: 0x1FDE36, size: 0x8, addend: 0x0, symName: __ZN6VSTGUI12COnOffButton12onMouseMovedERNS_6CPointERKNS_12CButtonStateE, symObjAddr: 0x318, symBinAddr: 0x50F30, symSize: 0x8 }
  - { offset: 0x1FDE9B, size: 0x8, addend: 0x0, symName: __ZN6VSTGUI12COnOffButton9onMouseUpERNS_6CPointERKNS_12CButtonStateE, symObjAddr: 0x320, symBinAddr: 0x50F38, symSize: 0xD4 }
  - { offset: 0x1FDF61, size: 0x8, addend: 0x0, symName: __ZN6VSTGUI12COnOffButton13onMouseCancelEv, symObjAddr: 0x3F4, symBinAddr: 0x5100C, symSize: 0x38 }
  - { offset: 0x1FDFC3, size: 0x8, addend: 0x0, symName: __ZN6VSTGUI12COnOffButton15onKeyboardEventERNS_13KeyboardEventE, symObjAddr: 0x42C, symBinAddr: 0x51044, symSize: 0xC4 }
  - { offset: 0x1FE0D0, size: 0x8, addend: 0x0, symName: __ZN6VSTGUI12COnOffButton9sizeToFitEv, symObjAddr: 0x4F0, symBinAddr: 0x51108, symSize: 0xA8 }
  - { offset: 0x1FE247, size: 0x8, addend: 0x0, symName: __ZN6VSTGUI11CKickButtonC2ERKNS_5CRectEPNS_16IControlListenerEiPNS_7CBitmapE, symObjAddr: 0x598, symBinAddr: 0x511B0, symSize: 0xF0 }
  - { offset: 0x1FE371, size: 0x8, addend: 0x0, symName: __ZN6VSTGUI11CKickButtonC1ERKNS_5CRectEPNS_16IControlListenerEiPNS_7CBitmapE, symObjAddr: 0x688, symBinAddr: 0x512A0, symSize: 0xE0 }
  - { offset: 0x1FE4AB, size: 0x8, addend: 0x0, symName: __ZN6VSTGUI11CKickButtonC2ERKNS_5CRectEPNS_16IControlListenerEidPNS_7CBitmapERKNS_6CPointE, symObjAddr: 0x768, symBinAddr: 0x51380, symSize: 0xC0 }
  - { offset: 0x1FE5B4, size: 0x8, addend: 0x0, symName: __ZN6VSTGUI11CKickButtonC1ERKNS_5CRectEPNS_16IControlListenerEidPNS_7CBitmapERKNS_6CPointE, symObjAddr: 0x828, symBinAddr: 0x51440, symSize: 0xB0 }
  - { offset: 0x1FE6B2, size: 0x8, addend: 0x0, symName: __ZN6VSTGUI11CKickButtonC2ERKS0_, symObjAddr: 0x8D8, symBinAddr: 0x514F0, symSize: 0xBC }
  - { offset: 0x1FE7B3, size: 0x8, addend: 0x0, symName: __ZN6VSTGUI11CKickButtonC1ERKS0_, symObjAddr: 0x994, symBinAddr: 0x515AC, symSize: 0xA0 }
  - { offset: 0x1FE8F6, size: 0x8, addend: 0x0, symName: __ZN6VSTGUI11CKickButton4drawEPNS_12CDrawContextE, symObjAddr: 0xA34, symBinAddr: 0x5164C, symSize: 0x184 }
  - { offset: 0x1FEAF1, size: 0x8, addend: 0x0, symName: __ZN6VSTGUI11CKickButton11onMouseDownERNS_6CPointERKNS_12CButtonStateE, symObjAddr: 0xBB8, symBinAddr: 0x517D0, symSize: 0x68 }
  - { offset: 0x1FEB51, size: 0x8, addend: 0x0, symName: __ZN6VSTGUI11CKickButton13onMouseCancelEv, symObjAddr: 0xC20, symBinAddr: 0x51838, symSize: 0x80 }
  - { offset: 0x1FEBD9, size: 0x8, addend: 0x0, symName: __ZN6VSTGUI11CKickButton9onMouseUpERNS_6CPointERKNS_12CButtonStateE, symObjAddr: 0xCA0, symBinAddr: 0x518B8, symSize: 0x9C }
  - { offset: 0x1FEC8A, size: 0x8, addend: 0x0, symName: __ZN6VSTGUI11CKickButton12onMouseMovedERNS_6CPointERKNS_12CButtonStateE, symObjAddr: 0xD3C, symBinAddr: 0x51954, symSize: 0xEC }
  - { offset: 0x1FED26, size: 0x8, addend: 0x0, symName: __ZN6VSTGUI11CKickButton15onKeyboardEventERNS_13KeyboardEventE, symObjAddr: 0xE28, symBinAddr: 0x51A40, symSize: 0x108 }
  - { offset: 0x1FEE3F, size: 0x8, addend: 0x0, symName: __ZN6VSTGUI11CKickButton9sizeToFitEv, symObjAddr: 0xF30, symBinAddr: 0x51B48, symSize: 0xD0 }
  - { offset: 0x1FF1E5, size: 0x8, addend: 0x0, symName: __ZN6VSTGUI9CCheckBoxC2ERKNS_5CRectEPNS_16IControlListenerEiPKcPNS_7CBitmapEi, symObjAddr: 0x1000, symBinAddr: 0x51C18, symSize: 0x1E8 }
  - { offset: 0x1FF670, size: 0x8, addend: 0x0, symName: __ZN6VSTGUI9CCheckBoxC1ERKNS_5CRectEPNS_16IControlListenerEiPKcPNS_7CBitmapEi, symObjAddr: 0x1240, symBinAddr: 0x51E00, symSize: 0x1EC }
  - { offset: 0x1FFA9B, size: 0x8, addend: 0x0, symName: __ZN6VSTGUI9CCheckBoxC2ERKS0_, symObjAddr: 0x142C, symBinAddr: 0x51FEC, symSize: 0x170 }
  - { offset: 0x1FFC97, size: 0x8, addend: 0x0, symName: __ZN6VSTGUI9CCheckBoxC1ERKS0_, symObjAddr: 0x159C, symBinAddr: 0x5215C, symSize: 0x178 }
  - { offset: 0x1FFEA3, size: 0x8, addend: 0x0, symName: __ZN6VSTGUI9CCheckBox8setTitleERKNS_10UTF8StringE, symObjAddr: 0x1714, symBinAddr: 0x522D4, symSize: 0x44 }
  - { offset: 0x1FFF2A, size: 0x8, addend: 0x0, symName: __ZN6VSTGUI9CCheckBox7setFontEPNS_9CFontDescE, symObjAddr: 0x1758, symBinAddr: 0x52318, symSize: 0x80 }
  - { offset: 0x1FFFC6, size: 0x8, addend: 0x0, symName: __ZN6VSTGUI9CCheckBox13setBackgroundEPNS_7CBitmapE, symObjAddr: 0x17D8, symBinAddr: 0x52398, symSize: 0x40 }
  - { offset: 0x20000D, size: 0x8, addend: 0x0, symName: __ZN6VSTGUI9CCheckBox8setStyleEi, symObjAddr: 0x1818, symBinAddr: 0x523D8, symSize: 0x58 }
  - { offset: 0x200067, size: 0x8, addend: 0x0, symName: __ZN6VSTGUI9CCheckBox13setFrameWidthEd, symObjAddr: 0x1870, symBinAddr: 0x52430, symSize: 0x20 }
  - { offset: 0x2000AB, size: 0x8, addend: 0x0, symName: __ZN6VSTGUI9CCheckBox18setRoundRectRadiusEd, symObjAddr: 0x1890, symBinAddr: 0x52450, symSize: 0x20 }
  - { offset: 0x20022E, size: 0x8, addend: 0x0, symName: __ZN6VSTGUI9CCheckBox9sizeToFitEv, symObjAddr: 0x18B0, symBinAddr: 0x52470, symSize: 0x1D8 }
  - { offset: 0x2008A5, size: 0x8, addend: 0x0, symName: __ZN6VSTGUI9CCheckBox4drawEPNS_12CDrawContextE, symObjAddr: 0x1AE8, symBinAddr: 0x52648, symSize: 0x684 }
  - { offset: 0x201155, size: 0x8, addend: 0x0, symName: __ZN6VSTGUI9CCheckBox12getFocusPathERNS_13CGraphicsPathE, symObjAddr: 0x216C, symBinAddr: 0x52CCC, symSize: 0x1B8 }
  - { offset: 0x2013E4, size: 0x8, addend: 0x0, symName: __ZThn24_N6VSTGUI9CCheckBox12getFocusPathERNS_13CGraphicsPathE, symObjAddr: 0x2324, symBinAddr: 0x52E84, symSize: 0x1C }
  - { offset: 0x201442, size: 0x8, addend: 0x0, symName: __ZN6VSTGUI9CCheckBox11onMouseDownERNS_6CPointERKNS_12CButtonStateE, symObjAddr: 0x2340, symBinAddr: 0x52EA0, symSize: 0x7C }
  - { offset: 0x2014DF, size: 0x8, addend: 0x0, symName: __ZN6VSTGUI9CCheckBox12onMouseMovedERNS_6CPointERKNS_12CButtonStateE, symObjAddr: 0x23BC, symBinAddr: 0x52F1C, symSize: 0xC8 }
  - { offset: 0x20156E, size: 0x8, addend: 0x0, symName: __ZN6VSTGUI9CCheckBox13onMouseCancelEv, symObjAddr: 0x2484, symBinAddr: 0x52FE4, symSize: 0x78 }
  - { offset: 0x2015E4, size: 0x8, addend: 0x0, symName: __ZN6VSTGUI9CCheckBox9onMouseUpERNS_6CPointERKNS_12CButtonStateE, symObjAddr: 0x24FC, symBinAddr: 0x5305C, symSize: 0x100 }
  - { offset: 0x2016D6, size: 0x8, addend: 0x0, symName: __ZN6VSTGUI9CCheckBox15onKeyboardEventERNS_13KeyboardEventE, symObjAddr: 0x25FC, symBinAddr: 0x5315C, symSize: 0xC4 }
  - { offset: 0x201906, size: 0x8, addend: 0x0, symName: __ZN6VSTGUI11CTextButtonC2ERKNS_5CRectEPNS_16IControlListenerEiPKcNS0_5StyleE, symObjAddr: 0x26C0, symBinAddr: 0x53220, symSize: 0x2A8 }
  - { offset: 0x201F38, size: 0x8, addend: 0x0, symName: __ZN6VSTGUI11CTextButtonC1ERKNS_5CRectEPNS_16IControlListenerEiPKcNS0_5StyleE, symObjAddr: 0x2968, symBinAddr: 0x534C8, symSize: 0x2B4 }
  - { offset: 0x2025BD, size: 0x8, addend: 0x0, symName: __ZN6VSTGUI11CTextButton7removedEPNS_5CViewE, symObjAddr: 0x2C1C, symBinAddr: 0x5377C, symSize: 0x44 }
  - { offset: 0x20263C, size: 0x8, addend: 0x0, symName: __ZN6VSTGUI11CTextButton11invalidPathEv, symObjAddr: 0x2C60, symBinAddr: 0x537C0, symSize: 0x38 }
  - { offset: 0x20268A, size: 0x8, addend: 0x0, symName: __ZN6VSTGUI11CTextButton11setViewSizeERKNS_5CRectEb, symObjAddr: 0x2C98, symBinAddr: 0x537F8, symSize: 0x54 }
  - { offset: 0x202735, size: 0x8, addend: 0x0, symName: __ZNK6VSTGUI11CTextButton11getGradientEv, symObjAddr: 0x2CEC, symBinAddr: 0x5384C, symSize: 0x8 }
  - { offset: 0x202762, size: 0x8, addend: 0x0, symName: __ZNK6VSTGUI11CTextButton11getGradientEv, symObjAddr: 0x2CEC, symBinAddr: 0x5384C, symSize: 0x8 }
  - { offset: 0x202780, size: 0x8, addend: 0x0, symName: __ZNK6VSTGUI11CTextButton22getGradientHighlightedEv, symObjAddr: 0x2CF4, symBinAddr: 0x53854, symSize: 0x8 }
  - { offset: 0x2027AD, size: 0x8, addend: 0x0, symName: __ZNK6VSTGUI11CTextButton22getGradientHighlightedEv, symObjAddr: 0x2CF4, symBinAddr: 0x53854, symSize: 0x8 }
  - { offset: 0x2027E6, size: 0x8, addend: 0x0, symName: __ZNK6VSTGUI11CTextButton7getIconEv, symObjAddr: 0x2CFC, symBinAddr: 0x5385C, symSize: 0x8 }
  - { offset: 0x202813, size: 0x8, addend: 0x0, symName: __ZNK6VSTGUI11CTextButton7getIconEv, symObjAddr: 0x2CFC, symBinAddr: 0x5385C, symSize: 0x8 }
  - { offset: 0x202831, size: 0x8, addend: 0x0, symName: __ZNK6VSTGUI11CTextButton18getIconHighlightedEv, symObjAddr: 0x2D04, symBinAddr: 0x53864, symSize: 0x8 }
  - { offset: 0x20285E, size: 0x8, addend: 0x0, symName: __ZNK6VSTGUI11CTextButton18getIconHighlightedEv, symObjAddr: 0x2D04, symBinAddr: 0x53864, symSize: 0x8 }
  - { offset: 0x20287C, size: 0x8, addend: 0x0, symName: __ZN6VSTGUI11CTextButton8setTitleERKNS_10UTF8StringE, symObjAddr: 0x2D0C, symBinAddr: 0x5386C, symSize: 0x30 }
  - { offset: 0x2028C3, size: 0x8, addend: 0x0, symName: __ZN6VSTGUI11CTextButton7setFontEPNS_9CFontDescE, symObjAddr: 0x2D3C, symBinAddr: 0x5389C, symSize: 0x64 }
  - { offset: 0x20296A, size: 0x8, addend: 0x0, symName: __ZN6VSTGUI11CTextButton12setTextColorERKNS_6CColorE, symObjAddr: 0x2DA0, symBinAddr: 0x53900, symSize: 0x14 }
  - { offset: 0x2029A6, size: 0x8, addend: 0x0, symName: __ZN6VSTGUI11CTextButton12setTextColorERKNS_6CColorE, symObjAddr: 0x2DA0, symBinAddr: 0x53900, symSize: 0x14 }
  - { offset: 0x202A04, size: 0x8, addend: 0x0, symName: __ZN6VSTGUI11CTextButton11setGradientEPNS_9CGradientE, symObjAddr: 0x2DB4, symBinAddr: 0x53914, symSize: 0x64 }
  - { offset: 0x202A8A, size: 0x8, addend: 0x0, symName: __ZN6VSTGUI11CTextButton22setGradientHighlightedEPNS_9CGradientE, symObjAddr: 0x2E18, symBinAddr: 0x53978, symSize: 0x64 }
  - { offset: 0x202B10, size: 0x8, addend: 0x0, symName: __ZN6VSTGUI11CTextButton13setFrameColorERKNS_6CColorE, symObjAddr: 0x2E7C, symBinAddr: 0x539DC, symSize: 0x14 }
  - { offset: 0x202B4C, size: 0x8, addend: 0x0, symName: __ZN6VSTGUI11CTextButton13setFrameColorERKNS_6CColorE, symObjAddr: 0x2E7C, symBinAddr: 0x539DC, symSize: 0x14 }
  - { offset: 0x202B85, size: 0x8, addend: 0x0, symName: __ZN6VSTGUI11CTextButton23setTextColorHighlightedERKNS_6CColorE, symObjAddr: 0x2E90, symBinAddr: 0x539F0, symSize: 0x14 }
  - { offset: 0x202BC1, size: 0x8, addend: 0x0, symName: __ZN6VSTGUI11CTextButton23setTextColorHighlightedERKNS_6CColorE, symObjAddr: 0x2E90, symBinAddr: 0x539F0, symSize: 0x14 }
  - { offset: 0x202BFA, size: 0x8, addend: 0x0, symName: __ZN6VSTGUI11CTextButton24setFrameColorHighlightedERKNS_6CColorE, symObjAddr: 0x2EA4, symBinAddr: 0x53A04, symSize: 0x14 }
  - { offset: 0x202C36, size: 0x8, addend: 0x0, symName: __ZN6VSTGUI11CTextButton24setFrameColorHighlightedERKNS_6CColorE, symObjAddr: 0x2EA4, symBinAddr: 0x53A04, symSize: 0x14 }
  - { offset: 0x202C6F, size: 0x8, addend: 0x0, symName: __ZN6VSTGUI11CTextButton13setFrameWidthEd, symObjAddr: 0x2EB8, symBinAddr: 0x53A18, symSize: 0x10 }
  - { offset: 0x202CBB, size: 0x8, addend: 0x0, symName: __ZN6VSTGUI11CTextButton14setRoundRadiusEd, symObjAddr: 0x2EC8, symBinAddr: 0x53A28, symSize: 0x48 }
  - { offset: 0x202D46, size: 0x8, addend: 0x0, symName: __ZN6VSTGUI11CTextButton8setStyleENS0_5StyleE, symObjAddr: 0x2F10, symBinAddr: 0x53A70, symSize: 0x8 }
  - { offset: 0x202DA2, size: 0x8, addend: 0x0, symName: __ZN6VSTGUI11CTextButton7setIconEPNS_7CBitmapE, symObjAddr: 0x2F18, symBinAddr: 0x53A78, symSize: 0x70 }
  - { offset: 0x202E49, size: 0x8, addend: 0x0, symName: __ZN6VSTGUI11CTextButton18setIconHighlightedEPNS_7CBitmapE, symObjAddr: 0x2F88, symBinAddr: 0x53AE8, symSize: 0x70 }
  - { offset: 0x202EF0, size: 0x8, addend: 0x0, symName: __ZN6VSTGUI11CTextButton15setIconPositionENS_12CDrawMethods12IconPositionE, symObjAddr: 0x2FF8, symBinAddr: 0x53B58, symSize: 0x20 }
  - { offset: 0x202F35, size: 0x8, addend: 0x0, symName: __ZN6VSTGUI11CTextButton13setTextMarginEd, symObjAddr: 0x3018, symBinAddr: 0x53B78, symSize: 0x20 }
  - { offset: 0x202F79, size: 0x8, addend: 0x0, symName: __ZN6VSTGUI11CTextButton16setTextAlignmentENS_13CHoriTxtAlignE, symObjAddr: 0x3038, symBinAddr: 0x53B98, symSize: 0x20 }
  - { offset: 0x202FBE, size: 0x8, addend: 0x0, symName: __ZN6VSTGUI11CTextButton9sizeToFitEv, symObjAddr: 0x3058, symBinAddr: 0x53BB8, symSize: 0x13C }
  - { offset: 0x203431, size: 0x8, addend: 0x0, symName: __ZN6VSTGUI11CTextButton4drawEPNS_12CDrawContextE, symObjAddr: 0x3194, symBinAddr: 0x53CF4, symSize: 0x2C4 }
  - { offset: 0x203A33, size: 0x8, addend: 0x0, symName: __ZN6VSTGUI11CTextButton7getPathEPNS_12CDrawContextEd, symObjAddr: 0x3458, symBinAddr: 0x53FB8, symSize: 0xA0 }
  - { offset: 0x203AEA, size: 0x8, addend: 0x0, symName: __ZN6VSTGUI11CTextButton12getFocusPathERNS_13CGraphicsPathE, symObjAddr: 0x34F8, symBinAddr: 0x54058, symSize: 0x90 }
  - { offset: 0x203B86, size: 0x8, addend: 0x0, symName: __ZThn24_N6VSTGUI11CTextButton12getFocusPathERNS_13CGraphicsPathE, symObjAddr: 0x3588, symBinAddr: 0x540E8, symSize: 0xA0 }
  - { offset: 0x203BF2, size: 0x8, addend: 0x0, symName: __ZN6VSTGUI11CTextButton14drawFocusOnTopEv, symObjAddr: 0x3628, symBinAddr: 0x54188, symSize: 0x8 }
  - { offset: 0x203C18, size: 0x8, addend: 0x0, symName: __ZThn24_N6VSTGUI11CTextButton14drawFocusOnTopEv, symObjAddr: 0x3630, symBinAddr: 0x54190, symSize: 0x8 }
  - { offset: 0x203C2F, size: 0x8, addend: 0x0, symName: __ZN6VSTGUI11CTextButton11onMouseDownERNS_6CPointERKNS_12CButtonStateE, symObjAddr: 0x3638, symBinAddr: 0x54198, symSize: 0x70 }
  - { offset: 0x203C92, size: 0x8, addend: 0x0, symName: __ZN6VSTGUI11CTextButton13onMouseCancelEv, symObjAddr: 0x36A8, symBinAddr: 0x54208, symSize: 0x64 }
  - { offset: 0x203CF5, size: 0x8, addend: 0x0, symName: __ZN6VSTGUI11CTextButton9onMouseUpERNS_6CPointERKNS_12CButtonStateE, symObjAddr: 0x370C, symBinAddr: 0x5426C, symSize: 0xC0 }
  - { offset: 0x203DBE, size: 0x8, addend: 0x0, symName: __ZN6VSTGUI11CTextButton12onMouseMovedERNS_6CPointERKNS_12CButtonStateE, symObjAddr: 0x37CC, symBinAddr: 0x5432C, symSize: 0x130 }
  - { offset: 0x203E65, size: 0x8, addend: 0x0, symName: __ZN6VSTGUI11CTextButton15onKeyboardEventERNS_13KeyboardEventE, symObjAddr: 0x38FC, symBinAddr: 0x5445C, symSize: 0x144 }
  - { offset: 0x203FE7, size: 0x8, addend: 0x0, symName: __ZN6VSTGUI12COnOffButtonD1Ev, symObjAddr: 0x3C68, symBinAddr: 0x545A0, symSize: 0xC }
  - { offset: 0x204009, size: 0x8, addend: 0x0, symName: __ZN6VSTGUI12COnOffButtonD1Ev, symObjAddr: 0x3C68, symBinAddr: 0x545A0, symSize: 0xC }
  - { offset: 0x20403D, size: 0x8, addend: 0x0, symName: __ZN6VSTGUI12COnOffButtonD0Ev, symObjAddr: 0x3C74, symBinAddr: 0x545AC, symSize: 0x1C }
  - { offset: 0x2040BC, size: 0x8, addend: 0x0, symName: __ZNK6VSTGUI12COnOffButton7newCopyEv, symObjAddr: 0x3C90, symBinAddr: 0x545C8, symSize: 0xA4 }
  - { offset: 0x20411F, size: 0x8, addend: 0x0, symName: __ZNK6VSTGUI12COnOffButton8getStyleEv, symObjAddr: 0x3D34, symBinAddr: 0x5466C, symSize: 0x8 }
  - { offset: 0x204146, size: 0x8, addend: 0x0, symName: __ZN6VSTGUI12COnOffButton8setStyleEi, symObjAddr: 0x3D3C, symBinAddr: 0x54674, symSize: 0x8 }
  - { offset: 0x204179, size: 0x8, addend: 0x0, symName: __ZThn24_N6VSTGUI12COnOffButtonD1Ev, symObjAddr: 0x3D44, symBinAddr: 0x5467C, symSize: 0x10 }
  - { offset: 0x2041E2, size: 0x8, addend: 0x0, symName: __ZThn24_N6VSTGUI12COnOffButtonD0Ev, symObjAddr: 0x3D54, symBinAddr: 0x5468C, symSize: 0x20 }
  - { offset: 0x204276, size: 0x8, addend: 0x0, symName: __ZN6VSTGUI11CKickButtonD1Ev, symObjAddr: 0x3D74, symBinAddr: 0x546AC, symSize: 0xC }
  - { offset: 0x204298, size: 0x8, addend: 0x0, symName: __ZN6VSTGUI11CKickButtonD1Ev, symObjAddr: 0x3D74, symBinAddr: 0x546AC, symSize: 0xC }
  - { offset: 0x2042CC, size: 0x8, addend: 0x0, symName: __ZN6VSTGUI11CKickButtonD0Ev, symObjAddr: 0x3D80, symBinAddr: 0x546B8, symSize: 0x1C }
  - { offset: 0x20434B, size: 0x8, addend: 0x0, symName: __ZNK6VSTGUI11CKickButton7newCopyEv, symObjAddr: 0x3D9C, symBinAddr: 0x546D4, symSize: 0xC0 }
  - { offset: 0x204435, size: 0x8, addend: 0x0, symName: __ZN6VSTGUI11CKickButton16setNumSubPixmapsEi, symObjAddr: 0x3E5C, symBinAddr: 0x54794, symSize: 0x10 }
  - { offset: 0x204460, size: 0x8, addend: 0x0, symName: __ZN6VSTGUI11CKickButton16setNumSubPixmapsEi, symObjAddr: 0x3E5C, symBinAddr: 0x54794, symSize: 0x10 }
  - { offset: 0x204498, size: 0x8, addend: 0x0, symName: __ZThn24_N6VSTGUI11CKickButtonD1Ev, symObjAddr: 0x3E6C, symBinAddr: 0x547A4, symSize: 0x10 }
  - { offset: 0x204501, size: 0x8, addend: 0x0, symName: __ZThn24_N6VSTGUI11CKickButtonD0Ev, symObjAddr: 0x3E7C, symBinAddr: 0x547B4, symSize: 0x20 }
  - { offset: 0x20456C, size: 0x8, addend: 0x0, symName: __ZThn64_N6VSTGUI11CKickButtonD1Ev, symObjAddr: 0x3E9C, symBinAddr: 0x547D4, symSize: 0x10 }
  - { offset: 0x2045BB, size: 0x8, addend: 0x0, symName: __ZThn64_N6VSTGUI11CKickButtonD0Ev, symObjAddr: 0x3EAC, symBinAddr: 0x547E4, symSize: 0x20 }
  - { offset: 0x204647, size: 0x8, addend: 0x0, symName: __ZThn64_N6VSTGUI11CKickButton16setNumSubPixmapsEi, symObjAddr: 0x3EE0, symBinAddr: 0x54804, symSize: 0x10 }
  - { offset: 0x204661, size: 0x8, addend: 0x0, symName: __ZThn64_N6VSTGUI11CKickButton16setNumSubPixmapsEi, symObjAddr: 0x3EE0, symBinAddr: 0x54804, symSize: 0x10 }
  - { offset: 0x2046E0, size: 0x8, addend: 0x0, symName: __ZN6VSTGUI9CCheckBoxD1Ev, symObjAddr: 0x3EF8, symBinAddr: 0x54814, symSize: 0x94 }
  - { offset: 0x2048F7, size: 0x8, addend: 0x0, symName: __ZN6VSTGUI9CCheckBoxD0Ev, symObjAddr: 0x3F8C, symBinAddr: 0x548A8, symSize: 0x80 }
  - { offset: 0x204B1C, size: 0x8, addend: 0x0, symName: __ZNK6VSTGUI9CCheckBox7newCopyEv, symObjAddr: 0x400C, symBinAddr: 0x54928, symSize: 0x48 }
  - { offset: 0x204B57, size: 0x8, addend: 0x0, symName: __ZN6VSTGUI9CCheckBox12setFontColorERKNS_6CColorE, symObjAddr: 0x4054, symBinAddr: 0x54970, symSize: 0x14 }
  - { offset: 0x204B8E, size: 0x8, addend: 0x0, symName: __ZN6VSTGUI9CCheckBox12setFontColorERKNS_6CColorE, symObjAddr: 0x4054, symBinAddr: 0x54970, symSize: 0x14 }
  - { offset: 0x204BC6, size: 0x8, addend: 0x0, symName: __ZN6VSTGUI9CCheckBox16setBoxFrameColorERKNS_6CColorE, symObjAddr: 0x4068, symBinAddr: 0x54984, symSize: 0x14 }
  - { offset: 0x204BFD, size: 0x8, addend: 0x0, symName: __ZN6VSTGUI9CCheckBox16setBoxFrameColorERKNS_6CColorE, symObjAddr: 0x4068, symBinAddr: 0x54984, symSize: 0x14 }
  - { offset: 0x204C35, size: 0x8, addend: 0x0, symName: __ZN6VSTGUI9CCheckBox15setBoxFillColorERKNS_6CColorE, symObjAddr: 0x407C, symBinAddr: 0x54998, symSize: 0x14 }
  - { offset: 0x204C6C, size: 0x8, addend: 0x0, symName: __ZN6VSTGUI9CCheckBox15setBoxFillColorERKNS_6CColorE, symObjAddr: 0x407C, symBinAddr: 0x54998, symSize: 0x14 }
  - { offset: 0x204CA4, size: 0x8, addend: 0x0, symName: __ZN6VSTGUI9CCheckBox17setCheckMarkColorERKNS_6CColorE, symObjAddr: 0x4090, symBinAddr: 0x549AC, symSize: 0x14 }
  - { offset: 0x204CDB, size: 0x8, addend: 0x0, symName: __ZN6VSTGUI9CCheckBox17setCheckMarkColorERKNS_6CColorE, symObjAddr: 0x4090, symBinAddr: 0x549AC, symSize: 0x14 }
  - { offset: 0x204D13, size: 0x8, addend: 0x0, symName: __ZNK6VSTGUI9CCheckBox8getStyleEv, symObjAddr: 0x40A4, symBinAddr: 0x549C0, symSize: 0x8 }
  - { offset: 0x204D3A, size: 0x8, addend: 0x0, symName: __ZThn24_N6VSTGUI9CCheckBoxD1Ev, symObjAddr: 0x40AC, symBinAddr: 0x549C8, symSize: 0x98 }
  - { offset: 0x204F38, size: 0x8, addend: 0x0, symName: __ZThn24_N6VSTGUI9CCheckBoxD0Ev, symObjAddr: 0x4144, symBinAddr: 0x54A60, symSize: 0x8 }
  - { offset: 0x204F5D, size: 0x8, addend: 0x0, symName: __ZN6VSTGUI11CTextButtonD1Ev, symObjAddr: 0x414C, symBinAddr: 0x54A68, symSize: 0xC }
  - { offset: 0x204F93, size: 0x8, addend: 0x0, symName: __ZN6VSTGUI11CTextButtonD2Ev, symObjAddr: 0x41BC, symBinAddr: 0x54AC8, symSize: 0x10C }
  - { offset: 0x2052C9, size: 0x8, addend: 0x0, symName: __ZN6VSTGUI11CTextButtonD0Ev, symObjAddr: 0x4158, symBinAddr: 0x54A74, symSize: 0x1C }
  - { offset: 0x20531A, size: 0x8, addend: 0x0, symName: __ZNK6VSTGUI11CTextButton7newCopyEv, symObjAddr: 0x4174, symBinAddr: 0x54A90, symSize: 0x8 }
  - { offset: 0x205341, size: 0x8, addend: 0x0, symName: __ZThn24_N6VSTGUI11CTextButtonD1Ev, symObjAddr: 0x417C, symBinAddr: 0x54A98, symSize: 0x10 }
  - { offset: 0x20539C, size: 0x8, addend: 0x0, symName: __ZThn24_N6VSTGUI11CTextButtonD0Ev, symObjAddr: 0x418C, symBinAddr: 0x54AA8, symSize: 0x20 }
  - { offset: 0x2072EE, size: 0x8, addend: 0x0, symName: __ZN6VSTGUI8CControl21CheckDefaultValueFuncE, symObjAddr: 0x2790, symBinAddr: 0x1B98D0, symSize: 0x0 }
  - { offset: 0x20A11D, size: 0x8, addend: 0x0, symName: __ZN6VSTGUI8CControl26CheckDefaultValueEventFuncE, symObjAddr: 0x2798, symBinAddr: 0x1B98D8, symSize: 0x0 }
  - { offset: 0x211DED, size: 0x8, addend: 0x0, symName: __ZN6VSTGUI8CControl21kDefaultValueModifierE, symObjAddr: 0x27A0, symBinAddr: 0x1B98E0, symSize: 0x0 }
  - { offset: 0x211E85, size: 0x8, addend: 0x0, symName: __ZN6VSTGUI25CMouseWheelEditingSupport19onMouseWheelEditingEPNS_8CControlE, symObjAddr: 0xF64, symBinAddr: 0x558AC, symSize: 0x140 }
  - { offset: 0x212511, size: 0x8, addend: 0x0, symName: __ZN6VSTGUI8CControlC2ERKNS_5CRectEPNS_16IControlListenerEiPNS_7CBitmapE, symObjAddr: 0x0, symBinAddr: 0x54BD4, symSize: 0x158 }
  - { offset: 0x212829, size: 0x8, addend: 0x0, symName: __ZN6VSTGUI8CControlC2ERKS0_, symObjAddr: 0x158, symBinAddr: 0x54D2C, symSize: 0x130 }
  - { offset: 0x212AB5, size: 0x8, addend: 0x0, symName: __ZN6VSTGUI8CControlD2Ev, symObjAddr: 0x288, symBinAddr: 0x54E5C, symSize: 0x6C }
  - { offset: 0x212BA7, size: 0x8, addend: 0x0, symName: __ZN6VSTGUI8CControlD1Ev, symObjAddr: 0x304, symBinAddr: 0x54EC8, symSize: 0x4 }
  - { offset: 0x212BE2, size: 0x8, addend: 0x0, symName: __ZThn24_N6VSTGUI8CControlD1Ev, symObjAddr: 0x308, symBinAddr: 0x54ECC, symSize: 0x4 }
  - { offset: 0x212BFC, size: 0x8, addend: 0x0, symName: __ZThn24_N6VSTGUI8CControlD1Ev, symObjAddr: 0x308, symBinAddr: 0x54ECC, symSize: 0x4 }
  - { offset: 0x212C0D, size: 0x8, addend: 0x0, symName: __ZN6VSTGUI8CControlD0Ev, symObjAddr: 0x30C, symBinAddr: 0x54ED0, symSize: 0x4 }
  - { offset: 0x212C48, size: 0x8, addend: 0x0, symName: __ZThn24_N6VSTGUI8CControlD0Ev, symObjAddr: 0x310, symBinAddr: 0x54ED4, symSize: 0x4 }
  - { offset: 0x212C62, size: 0x8, addend: 0x0, symName: __ZThn24_N6VSTGUI8CControlD0Ev, symObjAddr: 0x310, symBinAddr: 0x54ED4, symSize: 0x4 }
  - { offset: 0x212C73, size: 0x8, addend: 0x0, symName: __ZN6VSTGUI8CControl23registerControlListenerEPNS_16IControlListenerE, symObjAddr: 0x314, symBinAddr: 0x54ED8, symSize: 0x68 }
  - { offset: 0x21327B, size: 0x8, addend: 0x0, symName: __ZN6VSTGUI8CControl25unregisterControlListenerEPNS_16IControlListenerE, symObjAddr: 0x5F0, symBinAddr: 0x54F40, symSize: 0xE8 }
  - { offset: 0x213AD5, size: 0x8, addend: 0x0, symName: __ZN6VSTGUI12DispatchListIPNS_16IControlListenerEE11postForEachEv, symObjAddr: 0x1598, symBinAddr: 0x55BD8, symSize: 0x398 }
  - { offset: 0x213CCF, size: 0x8, addend: 0x0, symName: __ZN6VSTGUI8CControl25unregisterControlListenerEPNS_16IControlListenerE, symObjAddr: 0x5F0, symBinAddr: 0x54F40, symSize: 0xE8 }
  - { offset: 0x213D06, size: 0x8, addend: 0x0, symName: __ZN6VSTGUI8CControl25unregisterControlListenerEPNS_16IControlListenerE, symObjAddr: 0x5F0, symBinAddr: 0x54F40, symSize: 0xE8 }
  - { offset: 0x213F1C, size: 0x8, addend: 0x0, symName: __ZN6VSTGUI8CControl11setWheelIncEf, symObjAddr: 0x6D8, symBinAddr: 0x55028, symSize: 0xC }
  - { offset: 0x213F54, size: 0x8, addend: 0x0, symName: __ZN6VSTGUI8CControl11setWheelIncEf, symObjAddr: 0x6D8, symBinAddr: 0x55028, symSize: 0xC }
  - { offset: 0x213F70, size: 0x8, addend: 0x0, symName: __ZNK6VSTGUI8CControl11getWheelIncEv, symObjAddr: 0x6E4, symBinAddr: 0x55034, symSize: 0xC }
  - { offset: 0x213F99, size: 0x8, addend: 0x0, symName: __ZNK6VSTGUI8CControl11getWheelIncEv, symObjAddr: 0x6E4, symBinAddr: 0x55034, symSize: 0xC }
  - { offset: 0x213FB5, size: 0x8, addend: 0x0, symName: __ZN6VSTGUI8CControl6setMinEf, symObjAddr: 0x6F0, symBinAddr: 0x55040, symSize: 0x14 }
  - { offset: 0x213FED, size: 0x8, addend: 0x0, symName: __ZN6VSTGUI8CControl6setMinEf, symObjAddr: 0x6F0, symBinAddr: 0x55040, symSize: 0x14 }
  - { offset: 0x21401D, size: 0x8, addend: 0x0, symName: __ZNK6VSTGUI8CControl6getMinEv, symObjAddr: 0x704, symBinAddr: 0x55054, symSize: 0xC }
  - { offset: 0x214046, size: 0x8, addend: 0x0, symName: __ZNK6VSTGUI8CControl6getMinEv, symObjAddr: 0x704, symBinAddr: 0x55054, symSize: 0xC }
  - { offset: 0x214062, size: 0x8, addend: 0x0, symName: __ZN6VSTGUI8CControl6setMaxEf, symObjAddr: 0x710, symBinAddr: 0x55060, symSize: 0x14 }
  - { offset: 0x21409A, size: 0x8, addend: 0x0, symName: __ZN6VSTGUI8CControl6setMaxEf, symObjAddr: 0x710, symBinAddr: 0x55060, symSize: 0x14 }
  - { offset: 0x2140CA, size: 0x8, addend: 0x0, symName: __ZNK6VSTGUI8CControl6getMaxEv, symObjAddr: 0x724, symBinAddr: 0x55074, symSize: 0xC }
  - { offset: 0x2140F3, size: 0x8, addend: 0x0, symName: __ZNK6VSTGUI8CControl6getMaxEv, symObjAddr: 0x724, symBinAddr: 0x55074, symSize: 0xC }
  - { offset: 0x21410F, size: 0x8, addend: 0x0, symName: __ZN6VSTGUI8CControl11setOldValueEf, symObjAddr: 0x730, symBinAddr: 0x55080, symSize: 0xC }
  - { offset: 0x214147, size: 0x8, addend: 0x0, symName: __ZN6VSTGUI8CControl11setOldValueEf, symObjAddr: 0x730, symBinAddr: 0x55080, symSize: 0xC }
  - { offset: 0x214163, size: 0x8, addend: 0x0, symName: __ZNK6VSTGUI8CControl11getOldValueEv, symObjAddr: 0x73C, symBinAddr: 0x5508C, symSize: 0xC }
  - { offset: 0x21418C, size: 0x8, addend: 0x0, symName: __ZNK6VSTGUI8CControl11getOldValueEv, symObjAddr: 0x73C, symBinAddr: 0x5508C, symSize: 0xC }
  - { offset: 0x2141A8, size: 0x8, addend: 0x0, symName: __ZN6VSTGUI8CControl15setDefaultValueEf, symObjAddr: 0x748, symBinAddr: 0x55098, symSize: 0xC }
  - { offset: 0x2141E0, size: 0x8, addend: 0x0, symName: __ZN6VSTGUI8CControl15setDefaultValueEf, symObjAddr: 0x748, symBinAddr: 0x55098, symSize: 0xC }
  - { offset: 0x2141FC, size: 0x8, addend: 0x0, symName: __ZNK6VSTGUI8CControl15getDefaultValueEv, symObjAddr: 0x754, symBinAddr: 0x550A4, symSize: 0xC }
  - { offset: 0x214225, size: 0x8, addend: 0x0, symName: __ZNK6VSTGUI8CControl15getDefaultValueEv, symObjAddr: 0x754, symBinAddr: 0x550A4, symSize: 0xC }
  - { offset: 0x214241, size: 0x8, addend: 0x0, symName: __ZN6VSTGUI8CControl6setTagEi, symObjAddr: 0x760, symBinAddr: 0x550B0, symSize: 0x60 }
  - { offset: 0x214299, size: 0x8, addend: 0x0, symName: __ZNK6VSTGUI8CControl9isEditingEv, symObjAddr: 0x7C0, symBinAddr: 0x55110, symSize: 0x14 }
  - { offset: 0x2142BD, size: 0x8, addend: 0x0, symName: __ZNK6VSTGUI8CControl9isEditingEv, symObjAddr: 0x7C0, symBinAddr: 0x55110, symSize: 0x14 }
  - { offset: 0x2142EF, size: 0x8, addend: 0x0, symName: __ZN6VSTGUI8CControl9beginEditEv, symObjAddr: 0x7D4, symBinAddr: 0x55124, symSize: 0xF4 }
  - { offset: 0x2144EF, size: 0x8, addend: 0x0, symName: __ZN6VSTGUI12DispatchListIPNS_16IControlListenerEE11postForEachEv, symObjAddr: 0x1598, symBinAddr: 0x55BD8, symSize: 0x398 }
  - { offset: 0x215216, size: 0x8, addend: 0x0, symName: __ZN6VSTGUI8CControl7endEditEv, symObjAddr: 0x8C8, symBinAddr: 0x55218, symSize: 0xE8 }
  - { offset: 0x215483, size: 0x8, addend: 0x0, symName: __ZN6VSTGUI8CControl8setValueEf, symObjAddr: 0x9B0, symBinAddr: 0x55300, symSize: 0x54 }
  - { offset: 0x215565, size: 0x8, addend: 0x0, symName: __ZN6VSTGUI8CControl18setValueNormalizedEf, symObjAddr: 0xA04, symBinAddr: 0x55354, symSize: 0xF8 }
  - { offset: 0x2156EB, size: 0x8, addend: 0x0, symName: __ZNK6VSTGUI8CControl18getValueNormalizedEv, symObjAddr: 0xAFC, symBinAddr: 0x5544C, symSize: 0xD0 }
  - { offset: 0x2157C9, size: 0x8, addend: 0x0, symName: __ZN6VSTGUI8CControl12valueChangedEv, symObjAddr: 0xBCC, symBinAddr: 0x5551C, symSize: 0xB8 }
  - { offset: 0x2159CC, size: 0x8, addend: 0x0, symName: __ZNK6VSTGUI8CControl7isDirtyEv, symObjAddr: 0xC84, symBinAddr: 0x555D4, symSize: 0x4C }
  - { offset: 0x215A29, size: 0x8, addend: 0x0, symName: __ZN6VSTGUI8CControl8setDirtyEb, symObjAddr: 0xCD8, symBinAddr: 0x55620, symSize: 0x74 }
  - { offset: 0x215A88, size: 0x8, addend: 0x0, symName: __ZN6VSTGUI8CControl11bounceValueEv, symObjAddr: 0xD4C, symBinAddr: 0x55694, symSize: 0x54 }
  - { offset: 0x215BB3, size: 0x8, addend: 0x0, symName: '__ZN6VSTGUI8CControl3$_38__invokeEPS0_NS_12CButtonStateE', symObjAddr: 0xDA0, symBinAddr: 0x556E8, symSize: 0x28 }
  - { offset: 0x215C7A, size: 0x8, addend: 0x0, symName: '__ZN6VSTGUI8CControl3$_48__invokeEPS0_RNS_14MouseDownEventE', symObjAddr: 0xDC8, symBinAddr: 0x55710, symSize: 0x64 }
  - { offset: 0x215D1B, size: 0x8, addend: 0x0, symName: __ZN6VSTGUI8CControl14drawFocusOnTopEv, symObjAddr: 0xE2C, symBinAddr: 0x55774, symSize: 0x8 }
  - { offset: 0x215D41, size: 0x8, addend: 0x0, symName: __ZThn24_N6VSTGUI8CControl14drawFocusOnTopEv, symObjAddr: 0xE34, symBinAddr: 0x5577C, symSize: 0x8 }
  - { offset: 0x215DCE, size: 0x8, addend: 0x0, symName: __ZN6VSTGUI8CControl12getFocusPathERNS_13CGraphicsPathE, symObjAddr: 0xE3C, symBinAddr: 0x55784, symSize: 0xA0 }
  - { offset: 0x215ED0, size: 0x8, addend: 0x0, symName: __ZThn24_N6VSTGUI8CControl12getFocusPathERNS_13CGraphicsPathE, symObjAddr: 0xEDC, symBinAddr: 0x55824, symSize: 0x1C }
  - { offset: 0x215EFD, size: 0x8, addend: 0x0, symName: __ZN6VSTGUI8CControl17mapVstKeyModifierEi, symObjAddr: 0xEF8, symBinAddr: 0x55840, symSize: 0x1C }
  - { offset: 0x215F4E, size: 0x8, addend: 0x0, symName: __ZN6VSTGUI19IMultiBitmapControl27autoComputeHeightOfOneImageEv, symObjAddr: 0xF14, symBinAddr: 0x5585C, symSize: 0x50 }
  - { offset: 0x216293, size: 0x8, addend: 0x0, symName: __ZN6VSTGUI25CMouseWheelEditingSupport26invalidMouseWheelEditTimerEPNS_8CControlE, symObjAddr: 0x10A4, symBinAddr: 0x559EC, symSize: 0x64 }
  - { offset: 0x216360, size: 0x8, addend: 0x0, symName: __ZN6VSTGUI19IMultiBitmapControlD1Ev, symObjAddr: 0x1108, symBinAddr: 0x55A50, symSize: 0x4 }
  - { offset: 0x216389, size: 0x8, addend: 0x0, symName: __ZN6VSTGUI19IMultiBitmapControlD0Ev, symObjAddr: 0x110C, symBinAddr: 0x55A54, symSize: 0x4 }
  - { offset: 0x2163B2, size: 0x8, addend: 0x0, symName: __ZN6VSTGUI19IMultiBitmapControl16setNumSubPixmapsEi, symObjAddr: 0x1124, symBinAddr: 0x55A58, symSize: 0x8 }
  - { offset: 0x216533, size: 0x8, addend: 0x0, symName: __ZN6VSTGUI8CControl4ImplD1Ev, symObjAddr: 0x135C, symBinAddr: 0x55A60, symSize: 0x4C }
  - { offset: 0x216845, size: 0x8, addend: 0x0, symName: __ZN6VSTGUI8CControl4ImplD0Ev, symObjAddr: 0x13A8, symBinAddr: 0x55AAC, symSize: 0x4C }
  - { offset: 0x216BB0, size: 0x8, addend: 0x0, symName: __ZN6VSTGUI8CControl4Impl11viewOnEventEPNS_5CViewERNS_5EventE, symObjAddr: 0x13F4, symBinAddr: 0x55AF8, symSize: 0xE0 }
  - { offset: 0x217529, size: 0x8, addend: 0x0, symName: '__ZNSt3__110__function6__funcIZN6VSTGUI25CMouseWheelEditingSupport19onMouseWheelEditingEPNS2_8CControlEE3$_0NS_9allocatorIS6_EEFvPNS2_12CVSTGUITimerEEED1Ev', symObjAddr: 0x1BA4, symBinAddr: 0x55F70, symSize: 0x4 }
  - { offset: 0x2175CC, size: 0x8, addend: 0x0, symName: '__ZNSt3__110__function6__funcIZN6VSTGUI25CMouseWheelEditingSupport19onMouseWheelEditingEPNS2_8CControlEE3$_0NS_9allocatorIS6_EEFvPNS2_12CVSTGUITimerEEED1Ev', symObjAddr: 0x1BA4, symBinAddr: 0x55F70, symSize: 0x4 }
  - { offset: 0x2175F7, size: 0x8, addend: 0x0, symName: '__ZNSt3__110__function6__funcIZN6VSTGUI25CMouseWheelEditingSupport19onMouseWheelEditingEPNS2_8CControlEE3$_0NS_9allocatorIS6_EEFvPNS2_12CVSTGUITimerEEED0Ev', symObjAddr: 0x1BA8, symBinAddr: 0x55F74, symSize: 0x4 }
  - { offset: 0x2176B0, size: 0x8, addend: 0x0, symName: '__ZNKSt3__110__function6__funcIZN6VSTGUI25CMouseWheelEditingSupport19onMouseWheelEditingEPNS2_8CControlEE3$_0NS_9allocatorIS6_EEFvPNS2_12CVSTGUITimerEEE7__cloneEv', symObjAddr: 0x1BAC, symBinAddr: 0x55F78, symSize: 0x34 }
  - { offset: 0x217802, size: 0x8, addend: 0x0, symName: '__ZNKSt3__110__function6__funcIZN6VSTGUI25CMouseWheelEditingSupport19onMouseWheelEditingEPNS2_8CControlEE3$_0NS_9allocatorIS6_EEFvPNS2_12CVSTGUITimerEEE7__cloneEPNS0_6__baseISB_EE', symObjAddr: 0x1BE0, symBinAddr: 0x55FAC, symSize: 0x14 }
  - { offset: 0x217874, size: 0x8, addend: 0x0, symName: '__ZNSt3__110__function6__funcIZN6VSTGUI25CMouseWheelEditingSupport19onMouseWheelEditingEPNS2_8CControlEE3$_0NS_9allocatorIS6_EEFvPNS2_12CVSTGUITimerEEE7destroyEv', symObjAddr: 0x1BF4, symBinAddr: 0x55FC0, symSize: 0x4 }
  - { offset: 0x2178C5, size: 0x8, addend: 0x0, symName: '__ZNSt3__110__function6__funcIZN6VSTGUI25CMouseWheelEditingSupport19onMouseWheelEditingEPNS2_8CControlEE3$_0NS_9allocatorIS6_EEFvPNS2_12CVSTGUITimerEEE18destroy_deallocateEv', symObjAddr: 0x1BF8, symBinAddr: 0x55FC4, symSize: 0x4 }
  - { offset: 0x2178FC, size: 0x8, addend: 0x0, symName: '__ZNSt3__110__function6__funcIZN6VSTGUI25CMouseWheelEditingSupport19onMouseWheelEditingEPNS2_8CControlEE3$_0NS_9allocatorIS6_EEFvPNS2_12CVSTGUITimerEEE18destroy_deallocateEv', symObjAddr: 0x1BF8, symBinAddr: 0x55FC4, symSize: 0x4 }
  - { offset: 0x21791E, size: 0x8, addend: 0x0, symName: '__ZNSt3__110__function6__funcIZN6VSTGUI25CMouseWheelEditingSupport19onMouseWheelEditingEPNS2_8CControlEE3$_0NS_9allocatorIS6_EEFvPNS2_12CVSTGUITimerEEE18destroy_deallocateEv', symObjAddr: 0x1BF8, symBinAddr: 0x55FC4, symSize: 0x4 }
  - { offset: 0x21794A, size: 0x8, addend: 0x0, symName: '__ZNSt3__110__function6__funcIZN6VSTGUI25CMouseWheelEditingSupport19onMouseWheelEditingEPNS2_8CControlEE3$_0NS_9allocatorIS6_EEFvPNS2_12CVSTGUITimerEEE18destroy_deallocateEv', symObjAddr: 0x1BF8, symBinAddr: 0x55FC4, symSize: 0x4 }
  - { offset: 0x217971, size: 0x8, addend: 0x0, symName: '__ZNSt3__110__function6__funcIZN6VSTGUI25CMouseWheelEditingSupport19onMouseWheelEditingEPNS2_8CControlEE3$_0NS_9allocatorIS6_EEFvPNS2_12CVSTGUITimerEEE18destroy_deallocateEv', symObjAddr: 0x1BF8, symBinAddr: 0x55FC4, symSize: 0x4 }
  - { offset: 0x217A1D, size: 0x8, addend: 0x0, symName: '__ZNSt3__110__function6__funcIZN6VSTGUI25CMouseWheelEditingSupport19onMouseWheelEditingEPNS2_8CControlEE3$_0NS_9allocatorIS6_EEFvPNS2_12CVSTGUITimerEEEclEOSA_', symObjAddr: 0x1BFC, symBinAddr: 0x55FC8, symSize: 0x30 }
  - { offset: 0x217B1E, size: 0x8, addend: 0x0, symName: '__ZNKSt3__110__function6__funcIZN6VSTGUI25CMouseWheelEditingSupport19onMouseWheelEditingEPNS2_8CControlEE3$_0NS_9allocatorIS6_EEFvPNS2_12CVSTGUITimerEEE6targetERKSt9type_info', symObjAddr: 0x1C2C, symBinAddr: 0x55FF8, symSize: 0x6C }
  - { offset: 0x217BD2, size: 0x8, addend: 0x0, symName: '__ZNKSt3__110__function6__funcIZN6VSTGUI25CMouseWheelEditingSupport19onMouseWheelEditingEPNS2_8CControlEE3$_0NS_9allocatorIS6_EEFvPNS2_12CVSTGUITimerEEE11target_typeEv', symObjAddr: 0x1C98, symBinAddr: 0x56064, symSize: 0xC }
  - { offset: 0x21E56F, size: 0x8, addend: 0x0, symName: __ZN6VSTGUI8CControl13kZoomModifierE, symObjAddr: 0x6630, symBinAddr: 0x1B98E4, symSize: 0x0 }
  - { offset: 0x2245E8, size: 0x8, addend: 0x0, symName: __ZN6VSTGUI9CKnobBaseC2ERKNS_5CRectEPNS_16IControlListenerEiPNS_7CBitmapE, symObjAddr: 0x0, symBinAddr: 0x56070, symSize: 0xD4 }
  - { offset: 0x22471E, size: 0x8, addend: 0x0, symName: __ZN6VSTGUI9CKnobBaseC2ERKS0_, symObjAddr: 0xD4, symBinAddr: 0x56144, symSize: 0x64 }
  - { offset: 0x2247E6, size: 0x8, addend: 0x0, symName: __ZN6VSTGUI9CKnobBase11setViewSizeERKNS_5CRectEb, symObjAddr: 0x138, symBinAddr: 0x561A8, symSize: 0x30 }
  - { offset: 0x22485F, size: 0x8, addend: 0x0, symName: __ZN6VSTGUI9CKnobBase7computeEv, symObjAddr: 0x168, symBinAddr: 0x561D8, symSize: 0x10 }
  - { offset: 0x2248DC, size: 0x8, addend: 0x0, symName: __ZN6VSTGUI9CKnobBase9sizeToFitEv, symObjAddr: 0x178, symBinAddr: 0x561E8, symSize: 0xA0 }
  - { offset: 0x224AFD, size: 0x8, addend: 0x0, symName: __ZN6VSTGUI9CKnobBase20getMouseEditingStateEv, symObjAddr: 0x218, symBinAddr: 0x56288, symSize: 0x98 }
  - { offset: 0x224C48, size: 0x8, addend: 0x0, symName: __ZN6VSTGUI9CKnobBase22clearMouseEditingStateEv, symObjAddr: 0x2B0, symBinAddr: 0x56320, symSize: 0x6C }
  - { offset: 0x224D98, size: 0x8, addend: 0x0, symName: __ZN6VSTGUI9CKnobBase11onMouseDownERNS_6CPointERKNS_12CButtonStateE, symObjAddr: 0x31C, symBinAddr: 0x5638C, symSize: 0x24C }
  - { offset: 0x22511B, size: 0x8, addend: 0x0, symName: __ZN6VSTGUI9CKnobBase9onMouseUpERNS_6CPointERKNS_12CButtonStateE, symObjAddr: 0x568, symBinAddr: 0x565D8, symSize: 0x8C }
  - { offset: 0x2251C9, size: 0x8, addend: 0x0, symName: __ZN6VSTGUI9CKnobBase13onMouseCancelEv, symObjAddr: 0x5F4, symBinAddr: 0x56664, symSize: 0x12C }
  - { offset: 0x225445, size: 0x8, addend: 0x0, symName: __ZN6VSTGUI9CKnobBase12onMouseMovedERNS_6CPointERKNS_12CButtonStateE, symObjAddr: 0x720, symBinAddr: 0x56790, symSize: 0x328 }
  - { offset: 0x22582D, size: 0x8, addend: 0x0, symName: __ZN6VSTGUI9CKnobBase17onMouseWheelEventERNS_15MouseWheelEventE, symObjAddr: 0xA48, symBinAddr: 0x56AB8, symSize: 0x110 }
  - { offset: 0x225952, size: 0x8, addend: 0x0, symName: __ZN6VSTGUI9CKnobBase15onKeyboardEventERNS_13KeyboardEventE, symObjAddr: 0xB58, symBinAddr: 0x56BC8, symSize: 0x18C }
  - { offset: 0x225AFB, size: 0x8, addend: 0x0, symName: __ZN6VSTGUI9CKnobBase13setStartAngleEf, symObjAddr: 0xCE4, symBinAddr: 0x56D54, symSize: 0x14 }
  - { offset: 0x225B5A, size: 0x8, addend: 0x0, symName: __ZN6VSTGUI9CKnobBase13setRangeAngleEf, symObjAddr: 0xCF8, symBinAddr: 0x56D68, symSize: 0x14 }
  - { offset: 0x225BFC, size: 0x8, addend: 0x0, symName: __ZNK6VSTGUI9CKnobBase12valueToPointERNS_6CPointE, symObjAddr: 0xD0C, symBinAddr: 0x56D7C, symSize: 0xE8 }
  - { offset: 0x225D0C, size: 0x8, addend: 0x0, symName: __ZNK6VSTGUI9CKnobBase14valueFromPointERNS_6CPointE, symObjAddr: 0xDF4, symBinAddr: 0x56E64, symSize: 0x1EC }
  - { offset: 0x225EA1, size: 0x8, addend: 0x0, symName: __ZN6VSTGUI9CKnobBase6setMinEf, symObjAddr: 0xFE0, symBinAddr: 0x57050, symSize: 0x68 }
  - { offset: 0x225F34, size: 0x8, addend: 0x0, symName: __ZN6VSTGUI9CKnobBase6setMaxEf, symObjAddr: 0x1048, symBinAddr: 0x570B8, symSize: 0x68 }
  - { offset: 0x226209, size: 0x8, addend: 0x0, symName: __ZN6VSTGUI5CKnobC2ERKNS_5CRectEPNS_16IControlListenerEiPNS_7CBitmapES7_RKNS_6CPointEi, symObjAddr: 0x10B0, symBinAddr: 0x57120, symSize: 0x1F4 }
  - { offset: 0x226655, size: 0x8, addend: 0x0, symName: __ZN6VSTGUI9CKnobBaseD2Ev, symObjAddr: 0x12A4, symBinAddr: 0x57314, symSize: 0x40 }
  - { offset: 0x226718, size: 0x8, addend: 0x0, symName: __ZN6VSTGUI5CKnobC1ERKNS_5CRectEPNS_16IControlListenerEiPNS_7CBitmapES7_RKNS_6CPointEi, symObjAddr: 0x12E4, symBinAddr: 0x57354, symSize: 0x1E8 }
  - { offset: 0x226C1A, size: 0x8, addend: 0x0, symName: __ZN6VSTGUI5CKnobC2ERKS0_, symObjAddr: 0x14CC, symBinAddr: 0x5753C, symSize: 0x130 }
  - { offset: 0x226F58, size: 0x8, addend: 0x0, symName: __ZN6VSTGUI5CKnobC1ERKS0_, symObjAddr: 0x15FC, symBinAddr: 0x5766C, symSize: 0x10C }
  - { offset: 0x2272B7, size: 0x8, addend: 0x0, symName: __ZN6VSTGUI5CKnobD2Ev, symObjAddr: 0x1708, symBinAddr: 0x57778, symSize: 0x88 }
  - { offset: 0x227505, size: 0x8, addend: 0x0, symName: __ZN6VSTGUI5CKnobD1Ev, symObjAddr: 0x17A0, symBinAddr: 0x57800, symSize: 0x7C }
  - { offset: 0x227752, size: 0x8, addend: 0x0, symName: __ZThn24_N6VSTGUI5CKnobD1Ev, symObjAddr: 0x181C, symBinAddr: 0x5787C, symSize: 0x80 }
  - { offset: 0x227996, size: 0x8, addend: 0x0, symName: __ZN6VSTGUI5CKnobD0Ev, symObjAddr: 0x189C, symBinAddr: 0x578FC, symSize: 0x80 }
  - { offset: 0x227BDA, size: 0x8, addend: 0x0, symName: __ZThn24_N6VSTGUI5CKnobD0Ev, symObjAddr: 0x191C, symBinAddr: 0x5797C, symSize: 0x8 }
  - { offset: 0x227C00, size: 0x8, addend: 0x0, symName: __ZN6VSTGUI5CKnob14drawFocusOnTopEv, symObjAddr: 0x1924, symBinAddr: 0x57984, symSize: 0x4C }
  - { offset: 0x227C4E, size: 0x8, addend: 0x0, symName: __ZThn24_N6VSTGUI5CKnob14drawFocusOnTopEv, symObjAddr: 0x1970, symBinAddr: 0x579D0, symSize: 0x4C }
  - { offset: 0x227CBC, size: 0x8, addend: 0x0, symName: __ZN6VSTGUI5CKnob12getFocusPathERNS_13CGraphicsPathE, symObjAddr: 0x19BC, symBinAddr: 0x57A1C, symSize: 0xA8 }
  - { offset: 0x227D8D, size: 0x8, addend: 0x0, symName: __ZThn24_N6VSTGUI5CKnob12getFocusPathERNS_13CGraphicsPathE, symObjAddr: 0x1A64, symBinAddr: 0x57AC4, symSize: 0xAC }
  - { offset: 0x227E24, size: 0x8, addend: 0x0, symName: __ZN6VSTGUI5CKnob4drawEPNS_12CDrawContextE, symObjAddr: 0x1B10, symBinAddr: 0x57B70, symSize: 0xF8 }
  - { offset: 0x227EDC, size: 0x8, addend: 0x0, symName: __ZN6VSTGUI5CKnob6addArcEPNS_13CGraphicsPathERKNS_5CRectEdd, symObjAddr: 0x1C08, symBinAddr: 0x57C68, symSize: 0xC0 }
  - { offset: 0x228060, size: 0x8, addend: 0x0, symName: __ZNK6VSTGUI5CKnob17drawCoronaOutlineEPNS_12CDrawContextE, symObjAddr: 0x1CC8, symBinAddr: 0x57D28, symSize: 0x220 }
  - { offset: 0x228572, size: 0x8, addend: 0x0, symName: __ZNK6VSTGUI5CKnob10drawCoronaEPNS_12CDrawContextE, symObjAddr: 0x1EE8, symBinAddr: 0x57F48, symSize: 0x318 }
  - { offset: 0x228AE4, size: 0x8, addend: 0x0, symName: __ZNK6VSTGUI5CKnob18drawHandleAsCircleEPNS_12CDrawContextE, symObjAddr: 0x2200, symBinAddr: 0x58260, symSize: 0xF8 }
  - { offset: 0x228CD4, size: 0x8, addend: 0x0, symName: __ZNK6VSTGUI5CKnob16drawHandleAsLineEPNS_12CDrawContextE, symObjAddr: 0x22F8, symBinAddr: 0x58358, symSize: 0x1B4 }
  - { offset: 0x22931A, size: 0x8, addend: 0x0, symName: __ZN6VSTGUI5CKnob10drawHandleEPNS_12CDrawContextE, symObjAddr: 0x24AC, symBinAddr: 0x5850C, symSize: 0xD4 }
  - { offset: 0x2294DF, size: 0x8, addend: 0x0, symName: __ZN6VSTGUI5CKnob14setCoronaInsetEd, symObjAddr: 0x2580, symBinAddr: 0x585E0, symSize: 0x24 }
  - { offset: 0x22954F, size: 0x8, addend: 0x0, symName: __ZN6VSTGUI5CKnob14setCoronaColorENS_6CColorE, symObjAddr: 0x25A4, symBinAddr: 0x58604, symSize: 0x64 }
  - { offset: 0x2295D8, size: 0x8, addend: 0x0, symName: __ZN6VSTGUI5CKnob20setColorShadowHandleENS_6CColorE, symObjAddr: 0x2608, symBinAddr: 0x58668, symSize: 0x64 }
  - { offset: 0x229661, size: 0x8, addend: 0x0, symName: __ZN6VSTGUI5CKnob14setColorHandleENS_6CColorE, symObjAddr: 0x266C, symBinAddr: 0x586CC, symSize: 0x64 }
  - { offset: 0x2296EA, size: 0x8, addend: 0x0, symName: __ZN6VSTGUI5CKnob18setHandleLineWidthEd, symObjAddr: 0x26D0, symBinAddr: 0x58730, symSize: 0x24 }
  - { offset: 0x229734, size: 0x8, addend: 0x0, symName: __ZN6VSTGUI5CKnob24setCoronaOutlineWidthAddEd, symObjAddr: 0x26F4, symBinAddr: 0x58754, symSize: 0x24 }
  - { offset: 0x229799, size: 0x8, addend: 0x0, symName: __ZNK6VSTGUI5CKnob23getCoronaDashDotLengthsEv, symObjAddr: 0x2718, symBinAddr: 0x58778, symSize: 0x8 }
  - { offset: 0x2297C6, size: 0x8, addend: 0x0, symName: __ZNK6VSTGUI5CKnob23getCoronaDashDotLengthsEv, symObjAddr: 0x2718, symBinAddr: 0x58778, symSize: 0x8 }
  - { offset: 0x2298B9, size: 0x8, addend: 0x0, symName: __ZN6VSTGUI5CKnob23setCoronaDashDotLengthsERKNSt3__16vectorIdNS1_9allocatorIdEEEE, symObjAddr: 0x2720, symBinAddr: 0x58780, symSize: 0x90 }
  - { offset: 0x22A152, size: 0x8, addend: 0x0, symName: __ZN6VSTGUI5CKnob12setDrawStyleEi, symObjAddr: 0x27B0, symBinAddr: 0x58810, symSize: 0x24 }
  - { offset: 0x22A19D, size: 0x8, addend: 0x0, symName: __ZN6VSTGUI5CKnob15setHandleBitmapEPNS_7CBitmapE, symObjAddr: 0x27D4, symBinAddr: 0x58834, symSize: 0x80 }
  - { offset: 0x22A272, size: 0x8, addend: 0x0, symName: __ZN6VSTGUI9CAnimKnobC2ERKNS_5CRectEPNS_16IControlListenerEiPNS_7CBitmapE, symObjAddr: 0x2854, symBinAddr: 0x588B4, symSize: 0x204 }
  - { offset: 0x22A56B, size: 0x8, addend: 0x0, symName: __ZN6VSTGUI9CAnimKnobC1ERKNS_5CRectEPNS_16IControlListenerEiPNS_7CBitmapE, symObjAddr: 0x2A58, symBinAddr: 0x58AB8, symSize: 0x1D4 }
  - { offset: 0x22A844, size: 0x8, addend: 0x0, symName: __ZN6VSTGUI9CAnimKnobC2ERKS0_, symObjAddr: 0x2C2C, symBinAddr: 0x58C8C, symSize: 0xFC }
  - { offset: 0x22A9A5, size: 0x8, addend: 0x0, symName: __ZN6VSTGUI9CAnimKnobC1ERKS0_, symObjAddr: 0x2D28, symBinAddr: 0x58D88, symSize: 0xE0 }
  - { offset: 0x22AB95, size: 0x8, addend: 0x0, symName: __ZN6VSTGUI9CAnimKnob9sizeToFitEv, symObjAddr: 0x2E08, symBinAddr: 0x58E68, symSize: 0xDC }
  - { offset: 0x22ACBA, size: 0x8, addend: 0x0, symName: __ZN6VSTGUI9CAnimKnobC2ERKNS_5CRectEPNS_16IControlListenerEiidPNS_7CBitmapERKNS_6CPointE, symObjAddr: 0x2EE4, symBinAddr: 0x58F44, symSize: 0x1CC }
  - { offset: 0x22AF35, size: 0x8, addend: 0x0, symName: __ZN6VSTGUI9CAnimKnobC1ERKNS_5CRectEPNS_16IControlListenerEiidPNS_7CBitmapERKNS_6CPointE, symObjAddr: 0x30B0, symBinAddr: 0x59110, symSize: 0x1B4 }
  - { offset: 0x22B203, size: 0x8, addend: 0x0, symName: __ZN6VSTGUI9CAnimKnob19setHeightOfOneImageERKd, symObjAddr: 0x3264, symBinAddr: 0x592C4, symSize: 0x94 }
  - { offset: 0x22B288, size: 0x8, addend: 0x0, symName: __ZThn96_N6VSTGUI9CAnimKnob19setHeightOfOneImageERKd, symObjAddr: 0x32F8, symBinAddr: 0x59358, symSize: 0xA8 }
  - { offset: 0x22B2F2, size: 0x8, addend: 0x0, symName: __ZN6VSTGUI9CAnimKnob13setBackgroundEPNS_7CBitmapE, symObjAddr: 0x33A0, symBinAddr: 0x59400, symSize: 0xCC }
  - { offset: 0x22B404, size: 0x8, addend: 0x0, symName: __ZN6VSTGUI9CAnimKnob4drawEPNS_12CDrawContextE, symObjAddr: 0x346C, symBinAddr: 0x594CC, symSize: 0x200 }
  - { offset: 0x22B66E, size: 0x8, addend: 0x0, symName: __ZN6VSTGUI9CKnobBaseD1Ev, symObjAddr: 0x3894, symBinAddr: 0x15D8E8, symSize: 0x4 }
  - { offset: 0x22B68E, size: 0x8, addend: 0x0, symName: __ZN6VSTGUI9CKnobBaseD0Ev, symObjAddr: 0x3898, symBinAddr: 0x15D8EC, symSize: 0x4 }
  - { offset: 0x22B6AE, size: 0x8, addend: 0x0, symName: __ZNK6VSTGUI9CKnobBase13getStartAngleEv, symObjAddr: 0x389C, symBinAddr: 0x596CC, symSize: 0x8 }
  - { offset: 0x22B6D3, size: 0x8, addend: 0x0, symName: __ZNK6VSTGUI9CKnobBase13getRangeAngleEv, symObjAddr: 0x38A4, symBinAddr: 0x596D4, symSize: 0x8 }
  - { offset: 0x22B6F8, size: 0x8, addend: 0x0, symName: __ZN6VSTGUI9CKnobBase13setZoomFactorEf, symObjAddr: 0x38AC, symBinAddr: 0x596DC, symSize: 0x8 }
  - { offset: 0x22B72C, size: 0x8, addend: 0x0, symName: __ZNK6VSTGUI9CKnobBase13getZoomFactorEv, symObjAddr: 0x38B4, symBinAddr: 0x596E4, symSize: 0x8 }
  - { offset: 0x22B751, size: 0x8, addend: 0x0, symName: __ZNK6VSTGUI9CKnobBase13getInsetValueEv, symObjAddr: 0x38BC, symBinAddr: 0x596EC, symSize: 0x8 }
  - { offset: 0x22B776, size: 0x8, addend: 0x0, symName: __ZN6VSTGUI9CKnobBase13setInsetValueEd, symObjAddr: 0x38C4, symBinAddr: 0x596F4, symSize: 0x8 }
  - { offset: 0x22B7AA, size: 0x8, addend: 0x0, symName: __ZN6VSTGUI9CKnobBase12setKnobRangeEf, symObjAddr: 0x38CC, symBinAddr: 0x596FC, symSize: 0x10 }
  - { offset: 0x22B7DE, size: 0x8, addend: 0x0, symName: __ZNK6VSTGUI9CKnobBase12getKnobRangeEv, symObjAddr: 0x38DC, symBinAddr: 0x5970C, symSize: 0x8 }
  - { offset: 0x22B81F, size: 0x8, addend: 0x0, symName: __ZThn24_N6VSTGUI9CKnobBaseD1Ev, symObjAddr: 0x38E4, symBinAddr: 0x15D8F0, symSize: 0x4 }
  - { offset: 0x22B839, size: 0x8, addend: 0x0, symName: __ZThn24_N6VSTGUI9CKnobBaseD1Ev, symObjAddr: 0x38E4, symBinAddr: 0x15D8F0, symSize: 0x4 }
  - { offset: 0x22B870, size: 0x8, addend: 0x0, symName: __ZThn24_N6VSTGUI9CKnobBaseD0Ev, symObjAddr: 0x38E8, symBinAddr: 0x15D8F4, symSize: 0x4 }
  - { offset: 0x22B88A, size: 0x8, addend: 0x0, symName: __ZThn24_N6VSTGUI9CKnobBaseD0Ev, symObjAddr: 0x38E8, symBinAddr: 0x15D8F4, symSize: 0x4 }
  - { offset: 0x22B8A5, size: 0x8, addend: 0x0, symName: __ZNK6VSTGUI5CKnob7newCopyEv, symObjAddr: 0x38EC, symBinAddr: 0x59714, symSize: 0x48 }
  - { offset: 0x22B904, size: 0x8, addend: 0x0, symName: __ZN6VSTGUI9CAnimKnobD1Ev, symObjAddr: 0x3934, symBinAddr: 0x5975C, symSize: 0x40 }
  - { offset: 0x22B9CD, size: 0x8, addend: 0x0, symName: __ZN6VSTGUI9CAnimKnobD0Ev, symObjAddr: 0x3974, symBinAddr: 0x5979C, symSize: 0x44 }
  - { offset: 0x22BA85, size: 0x8, addend: 0x0, symName: __ZNK6VSTGUI9CAnimKnob7newCopyEv, symObjAddr: 0x39B8, symBinAddr: 0x597E0, symSize: 0x48 }
  - { offset: 0x22BAC0, size: 0x8, addend: 0x0, symName: __ZN6VSTGUI9CAnimKnob16setNumSubPixmapsEi, symObjAddr: 0x3A00, symBinAddr: 0x59828, symSize: 0x10 }
  - { offset: 0x22BAEB, size: 0x8, addend: 0x0, symName: __ZN6VSTGUI9CAnimKnob16setNumSubPixmapsEi, symObjAddr: 0x3A00, symBinAddr: 0x59828, symSize: 0x10 }
  - { offset: 0x22BB23, size: 0x8, addend: 0x0, symName: __ZThn24_N6VSTGUI9CAnimKnobD1Ev, symObjAddr: 0x3A10, symBinAddr: 0x59838, symSize: 0x40 }
  - { offset: 0x22BBE9, size: 0x8, addend: 0x0, symName: __ZThn24_N6VSTGUI9CAnimKnobD0Ev, symObjAddr: 0x3A50, symBinAddr: 0x59878, symSize: 0x44 }
  - { offset: 0x22BCAC, size: 0x8, addend: 0x0, symName: __ZThn96_N6VSTGUI9CAnimKnobD1Ev, symObjAddr: 0x3A94, symBinAddr: 0x598BC, symSize: 0x40 }
  - { offset: 0x22BD58, size: 0x8, addend: 0x0, symName: __ZThn96_N6VSTGUI9CAnimKnobD0Ev, symObjAddr: 0x3AD4, symBinAddr: 0x598FC, symSize: 0x44 }
  - { offset: 0x22BE1B, size: 0x8, addend: 0x0, symName: __ZThn96_N6VSTGUI9CAnimKnob16setNumSubPixmapsEi, symObjAddr: 0x3B20, symBinAddr: 0x59940, symSize: 0x10 }
  - { offset: 0x22BE35, size: 0x8, addend: 0x0, symName: __ZThn96_N6VSTGUI9CAnimKnob16setNumSubPixmapsEi, symObjAddr: 0x3B20, symBinAddr: 0x59940, symSize: 0x10 }
  - { offset: 0x23A97C, size: 0x8, addend: 0x0, symName: __ZN6VSTGUI12CListControlC2ERKNS_5CRectEPNS_16IControlListenerEi, symObjAddr: 0x0, symBinAddr: 0x59950, symSize: 0xA8 }
  - { offset: 0x23AB8A, size: 0x8, addend: 0x0, symName: __ZNSt3__110unique_ptrIN6VSTGUI12CListControl4ImplENS_14default_deleteIS3_EEED1B8ne180100Ev, symObjAddr: 0xA8, symBinAddr: 0x599F8, symSize: 0x8C }
  - { offset: 0x23AFED, size: 0x8, addend: 0x0, symName: __ZN6VSTGUI12CListControlC1ERKNS_5CRectEPNS_16IControlListenerEi, symObjAddr: 0x134, symBinAddr: 0x59A84, symSize: 0xB4 }
  - { offset: 0x23B223, size: 0x8, addend: 0x0, symName: __ZN6VSTGUI12CListControlD2Ev, symObjAddr: 0x1E8, symBinAddr: 0x59B38, symSize: 0x9C }
  - { offset: 0x23B4A9, size: 0x8, addend: 0x0, symName: __ZN6VSTGUI12CListControlD1Ev, symObjAddr: 0x284, symBinAddr: 0x59BD4, symSize: 0xC }
  - { offset: 0x23B500, size: 0x8, addend: 0x0, symName: __ZThn24_N6VSTGUI12CListControlD1Ev, symObjAddr: 0x290, symBinAddr: 0x59BE0, symSize: 0x10 }
  - { offset: 0x23B541, size: 0x8, addend: 0x0, symName: __ZN6VSTGUI12CListControlD0Ev, symObjAddr: 0x2A0, symBinAddr: 0x59BF0, symSize: 0x1C }
  - { offset: 0x23B5AE, size: 0x8, addend: 0x0, symName: __ZThn24_N6VSTGUI12CListControlD0Ev, symObjAddr: 0x2BC, symBinAddr: 0x59C0C, symSize: 0x20 }
  - { offset: 0x23B64B, size: 0x8, addend: 0x0, symName: __ZN6VSTGUI12CListControl9setDrawerEPNS_18IListControlDrawerE, symObjAddr: 0x2DC, symBinAddr: 0x59C2C, symSize: 0x6C }
  - { offset: 0x23B6FD, size: 0x8, addend: 0x0, symName: __ZN6VSTGUI12CListControl15setConfiguratorEPNS_24IListControlConfiguratorE, symObjAddr: 0x348, symBinAddr: 0x59C98, symSize: 0x7C }
  - { offset: 0x23B798, size: 0x8, addend: 0x0, symName: __ZN6VSTGUI12CListControl17recalculateLayoutEv, symObjAddr: 0x3C4, symBinAddr: 0x59D14, symSize: 0x180 }
  - { offset: 0x23BC14, size: 0x8, addend: 0x0, symName: __ZNSt3__16vectorIN6VSTGUI19CListControlRowDescENS_9allocatorIS2_EEE8__appendEm, symObjAddr: 0x1F8C, symBinAddr: 0x5B668, symSize: 0x140 }
  - { offset: 0x23C1B2, size: 0x8, addend: 0x0, symName: __ZNK6VSTGUI12CListControl9getDrawerEv, symObjAddr: 0x544, symBinAddr: 0x59E94, symSize: 0xC }
  - { offset: 0x23C1DD, size: 0x8, addend: 0x0, symName: __ZNK6VSTGUI12CListControl9getDrawerEv, symObjAddr: 0x544, symBinAddr: 0x59E94, symSize: 0xC }
  - { offset: 0x23C215, size: 0x8, addend: 0x0, symName: __ZNK6VSTGUI12CListControl15getConfiguratorEv, symObjAddr: 0x550, symBinAddr: 0x59EA0, symSize: 0xC }
  - { offset: 0x23C240, size: 0x8, addend: 0x0, symName: __ZNK6VSTGUI12CListControl15getConfiguratorEv, symObjAddr: 0x550, symBinAddr: 0x59EA0, symSize: 0xC }
  - { offset: 0x23C296, size: 0x8, addend: 0x0, symName: __ZNK6VSTGUI12CListControl13getHoveredRowEv, symObjAddr: 0x55C, symBinAddr: 0x59EAC, symSize: 0x24 }
  - { offset: 0x23C2C1, size: 0x8, addend: 0x0, symName: __ZNK6VSTGUI12CListControl13getHoveredRowEv, symObjAddr: 0x55C, symBinAddr: 0x59EAC, symSize: 0x24 }
  - { offset: 0x23C2FB, size: 0x8, addend: 0x0, symName: __ZNK6VSTGUI12CListControl10getNumRowsEv, symObjAddr: 0x580, symBinAddr: 0x59ED0, symSize: 0x58 }
  - { offset: 0x23C380, size: 0x8, addend: 0x0, symName: __ZNK6VSTGUI12CListControl11getIntValueEv, symObjAddr: 0x5D8, symBinAddr: 0x59F28, symSize: 0xC }
  - { offset: 0x23C3A4, size: 0x8, addend: 0x0, symName: __ZNK6VSTGUI12CListControl11getIntValueEv, symObjAddr: 0x5D8, symBinAddr: 0x59F28, symSize: 0xC }
  - { offset: 0x23C3BE, size: 0x8, addend: 0x0, symName: __ZN6VSTGUI12CListControl11setViewSizeERKNS_5CRectEb, symObjAddr: 0x5EC, symBinAddr: 0x59F34, symSize: 0x2C }
  - { offset: 0x23C67A, size: 0x8, addend: 0x0, symName: __ZNK6VSTGUI12CListControl10getRowRectEi, symObjAddr: 0x618, symBinAddr: 0x59F60, symSize: 0x12C }
  - { offset: 0x23C8C9, size: 0x8, addend: 0x0, symName: __ZNK6VSTGUI12CListControl14getMinRowIndexEv, symObjAddr: 0x744, symBinAddr: 0x5A08C, symSize: 0x18 }
  - { offset: 0x23C8EB, size: 0x8, addend: 0x0, symName: __ZNK6VSTGUI12CListControl14getMaxRowIndexEv, symObjAddr: 0x75C, symBinAddr: 0x5A0A4, symSize: 0x18 }
  - { offset: 0x23C940, size: 0x8, addend: 0x0, symName: __ZN6VSTGUI12CListControl10invalidRowEi, symObjAddr: 0x774, symBinAddr: 0x5A0BC, symSize: 0x44 }
  - { offset: 0x23CA1F, size: 0x8, addend: 0x0, symName: __ZNK6VSTGUI12CListControl13getRowAtPointENS_6CPointE, symObjAddr: 0x7B8, symBinAddr: 0x5A100, symSize: 0xD4 }
  - { offset: 0x23CB2E, size: 0x8, addend: 0x0, symName: __ZN6VSTGUI12CListControl4drawEPNS_12CDrawContextE, symObjAddr: 0x88C, symBinAddr: 0x5A1D4, symSize: 0x30 }
  - { offset: 0x23CB75, size: 0x8, addend: 0x0, symName: __ZN6VSTGUI12CListControl8drawRectEPNS_12CDrawContextERKNS_5CRectE, symObjAddr: 0x8BC, symBinAddr: 0x5A204, symSize: 0x4A0 }
  - { offset: 0x23D441, size: 0x8, addend: 0x0, symName: __ZNK6VSTGUI12CListControl21getNormalizedRowIndexEi, symObjAddr: 0xD5C, symBinAddr: 0x5A6A4, symSize: 0x64 }
  - { offset: 0x23D4BB, size: 0x8, addend: 0x0, symName: __ZN6VSTGUI12CListControl8attachedEPNS_5CViewE, symObjAddr: 0xDF0, symBinAddr: 0x5A708, symSize: 0xBC }
  - { offset: 0x23D6F1, size: 0x8, addend: 0x0, symName: __ZN6VSTGUI12CListControl6setMinEf, symObjAddr: 0xEAC, symBinAddr: 0x5A7C4, symSize: 0x8C }
  - { offset: 0x23D7B3, size: 0x8, addend: 0x0, symName: __ZN6VSTGUI12CListControl6setMaxEf, symObjAddr: 0xF38, symBinAddr: 0x5A850, symSize: 0x8C }
  - { offset: 0x23D8AD, size: 0x8, addend: 0x0, symName: __ZN6VSTGUI12CListControl11onMouseDownERNS_6CPointERKNS_12CButtonStateE, symObjAddr: 0xFC4, symBinAddr: 0x5A8DC, symSize: 0x1C }
  - { offset: 0x23D8F2, size: 0x8, addend: 0x0, symName: __ZN6VSTGUI12CListControl11onMouseDownERNS_6CPointERKNS_12CButtonStateE, symObjAddr: 0xFC4, symBinAddr: 0x5A8DC, symSize: 0x1C }
  - { offset: 0x23D90E, size: 0x8, addend: 0x0, symName: __ZN6VSTGUI12CListControl11onMouseDownERNS_6CPointERKNS_12CButtonStateE, symObjAddr: 0xFC4, symBinAddr: 0x5A8DC, symSize: 0x1C }
  - { offset: 0x23D959, size: 0x8, addend: 0x0, symName: __ZN6VSTGUI12CListControl15clearHoveredRowEv, symObjAddr: 0xFE0, symBinAddr: 0x5A8F8, symSize: 0x60 }
  - { offset: 0x23DB0C, size: 0x8, addend: 0x0, symName: __ZN6VSTGUI12CListControl12onMouseMovedERNS_6CPointERKNS_12CButtonStateE, symObjAddr: 0x1040, symBinAddr: 0x5A958, symSize: 0x1F0 }
  - { offset: 0x23E01E, size: 0x8, addend: 0x0, symName: __ZN6VSTGUI12CListControl9onMouseUpERNS_6CPointERKNS_12CButtonStateE, symObjAddr: 0x1230, symBinAddr: 0x5AB48, symSize: 0x1D4 }
  - { offset: 0x23E47F, size: 0x8, addend: 0x0, symName: __ZNK6VSTGUI12CListControl13rowSelectableEi, symObjAddr: 0x1404, symBinAddr: 0x5AD1C, symSize: 0x7C }
  - { offset: 0x23E55E, size: 0x8, addend: 0x0, symName: __ZN6VSTGUI12CListControl13onMouseExitedERNS_6CPointERKNS_12CButtonStateE, symObjAddr: 0x1480, symBinAddr: 0x5AD98, symSize: 0x64 }
  - { offset: 0x23E6BE, size: 0x8, addend: 0x0, symName: __ZNK6VSTGUI12CListControl20getNextSelectableRowEii, symObjAddr: 0x14E4, symBinAddr: 0x5ADFC, symSize: 0xEC }
  - { offset: 0x23E8B3, size: 0x8, addend: 0x0, symName: __ZN6VSTGUI12CListControl15onKeyboardEventERNS_13KeyboardEventE, symObjAddr: 0x15D0, symBinAddr: 0x5AEE8, symSize: 0x578 }
  - { offset: 0x23F28E, size: 0x8, addend: 0x0, symName: __ZN6VSTGUI12CListControl14drawFocusOnTopEv, symObjAddr: 0x1B48, symBinAddr: 0x5B460, symSize: 0x8 }
  - { offset: 0x23F2B4, size: 0x8, addend: 0x0, symName: __ZThn24_N6VSTGUI12CListControl14drawFocusOnTopEv, symObjAddr: 0x1B50, symBinAddr: 0x5B468, symSize: 0x8 }
  - { offset: 0x23F2F8, size: 0x8, addend: 0x0, symName: __ZN6VSTGUI12CListControl12getFocusPathERNS_13CGraphicsPathE, symObjAddr: 0x1B58, symBinAddr: 0x5B470, symSize: 0x70 }
  - { offset: 0x23F3A6, size: 0x8, addend: 0x0, symName: __ZThn24_N6VSTGUI12CListControl12getFocusPathERNS_13CGraphicsPathE, symObjAddr: 0x1BC8, symBinAddr: 0x5B4E0, symSize: 0x74 }
  - { offset: 0x23F424, size: 0x8, addend: 0x0, symName: __ZNK6VSTGUI12CListControl7newCopyEv, symObjAddr: 0x1E5C, symBinAddr: 0x5B554, symSize: 0x8 }
  - { offset: 0x23F465, size: 0x8, addend: 0x0, symName: __ZZN6VSTGUI12CListControl8attachedEPNS_5CViewEEN12SizeListenerD1Ev, symObjAddr: 0x1E74, symBinAddr: 0x5B55C, symSize: 0x48 }
  - { offset: 0x23F4B8, size: 0x8, addend: 0x0, symName: __ZZN6VSTGUI12CListControl8attachedEPNS_5CViewEEN12SizeListenerD0Ev, symObjAddr: 0x1EBC, symBinAddr: 0x5B5A4, symSize: 0x48 }
  - { offset: 0x23F511, size: 0x8, addend: 0x0, symName: __ZZN6VSTGUI12CListControl8attachedEPNS_5CViewEEN12SizeListener15viewSizeChangedES2_RKNS_5CRectE, symObjAddr: 0x1F04, symBinAddr: 0x5B5EC, symSize: 0x4C }
  - { offset: 0x23F598, size: 0x8, addend: 0x0, symName: __ZZN6VSTGUI12CListControl8attachedEPNS_5CViewEEN12SizeListener12viewAttachedES2_, symObjAddr: 0x1F50, symBinAddr: 0x5B638, symSize: 0x4 }
  - { offset: 0x23F5CA, size: 0x8, addend: 0x0, symName: __ZZN6VSTGUI12CListControl8attachedEPNS_5CViewEEN12SizeListener11viewRemovedES2_, symObjAddr: 0x1F54, symBinAddr: 0x5B63C, symSize: 0x4 }
  - { offset: 0x23F5FC, size: 0x8, addend: 0x0, symName: __ZZN6VSTGUI12CListControl8attachedEPNS_5CViewEEN12SizeListener14viewWillDeleteES2_, symObjAddr: 0x1F60, symBinAddr: 0x5B640, symSize: 0x28 }
  - { offset: 0x241940, size: 0x8, addend: 0x0, symName: __ZN6VSTGUI12CMovieBitmapC2ERKNS_5CRectEPNS_16IControlListenerEiPNS_7CBitmapE, symObjAddr: 0x0, symBinAddr: 0x5B7A8, symSize: 0xE8 }
  - { offset: 0x241959, size: 0x8, addend: 0x0, symName: __ZN6VSTGUI12CMovieBitmap25useLegacyFrameCalculationE, symObjAddr: 0x2EEDD, symBinAddr: 0x1E0490, symSize: 0x0 }
  - { offset: 0x248277, size: 0x8, addend: 0x0, symName: __ZN6VSTGUI12CMovieBitmapC2ERKNS_5CRectEPNS_16IControlListenerEiPNS_7CBitmapE, symObjAddr: 0x0, symBinAddr: 0x5B7A8, symSize: 0xE8 }
  - { offset: 0x2483DC, size: 0x8, addend: 0x0, symName: __ZN6VSTGUI12CMovieBitmapC1ERKNS_5CRectEPNS_16IControlListenerEiPNS_7CBitmapE, symObjAddr: 0xE8, symBinAddr: 0x5B890, symSize: 0xE0 }
  - { offset: 0x24852E, size: 0x8, addend: 0x0, symName: __ZN6VSTGUI12CMovieBitmapC2ERKNS_5CRectEPNS_16IControlListenerEiidPNS_7CBitmapERKNS_6CPointE, symObjAddr: 0x1C8, symBinAddr: 0x5B970, symSize: 0xE8 }
  - { offset: 0x248690, size: 0x8, addend: 0x0, symName: __ZN6VSTGUI12CMovieBitmapC1ERKNS_5CRectEPNS_16IControlListenerEiidPNS_7CBitmapERKNS_6CPointE, symObjAddr: 0x2B0, symBinAddr: 0x5BA58, symSize: 0xF0 }
  - { offset: 0x248814, size: 0x8, addend: 0x0, symName: __ZN6VSTGUI12CMovieBitmapC2ERKS0_, symObjAddr: 0x3A0, symBinAddr: 0x5BB48, symSize: 0xD8 }
  - { offset: 0x2488FE, size: 0x8, addend: 0x0, symName: __ZN6VSTGUI12CMovieBitmapC1ERKS0_, symObjAddr: 0x478, symBinAddr: 0x5BC20, symSize: 0xE0 }
  - { offset: 0x248B09, size: 0x8, addend: 0x0, symName: __ZN6VSTGUI12CMovieBitmap4drawEPNS_12CDrawContextE, symObjAddr: 0x558, symBinAddr: 0x5BD00, symSize: 0x20C }
  - { offset: 0x248DC4, size: 0x8, addend: 0x0, symName: __ZN6VSTGUI12CMovieBitmap9sizeToFitEv, symObjAddr: 0x764, symBinAddr: 0x5BF0C, symSize: 0xDC }
  - { offset: 0x248F52, size: 0x8, addend: 0x0, symName: __ZN6VSTGUI12CMovieBitmapD1Ev, symObjAddr: 0xA68, symBinAddr: 0x5BFE8, symSize: 0xC }
  - { offset: 0x248F74, size: 0x8, addend: 0x0, symName: __ZN6VSTGUI12CMovieBitmapD1Ev, symObjAddr: 0xA68, symBinAddr: 0x5BFE8, symSize: 0xC }
  - { offset: 0x248FA8, size: 0x8, addend: 0x0, symName: __ZN6VSTGUI12CMovieBitmapD0Ev, symObjAddr: 0xA74, symBinAddr: 0x5BFF4, symSize: 0x1C }
  - { offset: 0x249027, size: 0x8, addend: 0x0, symName: __ZNK6VSTGUI12CMovieBitmap7newCopyEv, symObjAddr: 0xA90, symBinAddr: 0x5C010, symSize: 0xFC }
  - { offset: 0x249158, size: 0x8, addend: 0x0, symName: __ZN6VSTGUI12CMovieBitmap16setNumSubPixmapsEi, symObjAddr: 0xB8C, symBinAddr: 0x5C10C, symSize: 0x10 }
  - { offset: 0x249183, size: 0x8, addend: 0x0, symName: __ZN6VSTGUI12CMovieBitmap16setNumSubPixmapsEi, symObjAddr: 0xB8C, symBinAddr: 0x5C10C, symSize: 0x10 }
  - { offset: 0x2491BB, size: 0x8, addend: 0x0, symName: __ZThn24_N6VSTGUI12CMovieBitmapD1Ev, symObjAddr: 0xB9C, symBinAddr: 0x5C11C, symSize: 0x10 }
  - { offset: 0x249224, size: 0x8, addend: 0x0, symName: __ZThn24_N6VSTGUI12CMovieBitmapD0Ev, symObjAddr: 0xBAC, symBinAddr: 0x5C12C, symSize: 0x20 }
  - { offset: 0x24928F, size: 0x8, addend: 0x0, symName: __ZThn64_N6VSTGUI12CMovieBitmapD1Ev, symObjAddr: 0xBCC, symBinAddr: 0x5C14C, symSize: 0x10 }
  - { offset: 0x2492DE, size: 0x8, addend: 0x0, symName: __ZThn64_N6VSTGUI12CMovieBitmapD0Ev, symObjAddr: 0xBDC, symBinAddr: 0x5C15C, symSize: 0x20 }
  - { offset: 0x249349, size: 0x8, addend: 0x0, symName: __ZThn64_N6VSTGUI12CMovieBitmap16setNumSubPixmapsEi, symObjAddr: 0xC10, symBinAddr: 0x5C17C, symSize: 0x10 }
  - { offset: 0x249363, size: 0x8, addend: 0x0, symName: __ZThn64_N6VSTGUI12CMovieBitmap16setNumSubPixmapsEi, symObjAddr: 0xC10, symBinAddr: 0x5C17C, symSize: 0x10 }
  - { offset: 0x24B27E, size: 0x8, addend: 0x0, symName: __ZN6VSTGUI12CMovieButtonC2ERKNS_5CRectEPNS_16IControlListenerEiPNS_7CBitmapE, symObjAddr: 0x0, symBinAddr: 0x5C18C, symSize: 0xC4 }
  - { offset: 0x251C1E, size: 0x8, addend: 0x0, symName: __ZN6VSTGUI12CMovieButtonC2ERKNS_5CRectEPNS_16IControlListenerEiPNS_7CBitmapE, symObjAddr: 0x0, symBinAddr: 0x5C18C, symSize: 0xC4 }
  - { offset: 0x251D63, size: 0x8, addend: 0x0, symName: __ZN6VSTGUI12CMovieButtonC1ERKNS_5CRectEPNS_16IControlListenerEiPNS_7CBitmapE, symObjAddr: 0xC4, symBinAddr: 0x5C250, symSize: 0xB4 }
  - { offset: 0x251EA4, size: 0x8, addend: 0x0, symName: __ZN6VSTGUI12CMovieButtonC2ERKNS_5CRectEPNS_16IControlListenerEidPNS_7CBitmapERKNS_6CPointE, symObjAddr: 0x178, symBinAddr: 0x5C304, symSize: 0xC8 }
  - { offset: 0x251FAD, size: 0x8, addend: 0x0, symName: __ZN6VSTGUI12CMovieButtonC1ERKNS_5CRectEPNS_16IControlListenerEidPNS_7CBitmapERKNS_6CPointE, symObjAddr: 0x240, symBinAddr: 0x5C3CC, symSize: 0xB8 }
  - { offset: 0x2520AB, size: 0x8, addend: 0x0, symName: __ZN6VSTGUI12CMovieButtonC2ERKS0_, symObjAddr: 0x2F8, symBinAddr: 0x5C484, symSize: 0xC4 }
  - { offset: 0x2521AC, size: 0x8, addend: 0x0, symName: __ZN6VSTGUI12CMovieButtonC1ERKS0_, symObjAddr: 0x3BC, symBinAddr: 0x5C548, symSize: 0xA8 }
  - { offset: 0x2522EF, size: 0x8, addend: 0x0, symName: __ZN6VSTGUI12CMovieButton4drawEPNS_12CDrawContextE, symObjAddr: 0x464, symBinAddr: 0x5C5F0, symSize: 0x174 }
  - { offset: 0x2524B6, size: 0x8, addend: 0x0, symName: __ZN6VSTGUI12CMovieButton11onMouseDownERNS_6CPointERKNS_12CButtonStateE, symObjAddr: 0x5D8, symBinAddr: 0x5C764, symSize: 0x70 }
  - { offset: 0x252516, size: 0x8, addend: 0x0, symName: __ZN6VSTGUI12CMovieButton9onMouseUpERNS_6CPointERKNS_12CButtonStateE, symObjAddr: 0x648, symBinAddr: 0x5C7D4, symSize: 0x38 }
  - { offset: 0x252568, size: 0x8, addend: 0x0, symName: __ZN6VSTGUI12CMovieButton12onMouseMovedERNS_6CPointERKNS_12CButtonStateE, symObjAddr: 0x680, symBinAddr: 0x5C80C, symSize: 0x134 }
  - { offset: 0x25261E, size: 0x8, addend: 0x0, symName: __ZN6VSTGUI12CMovieButton13onMouseCancelEv, symObjAddr: 0x7B4, symBinAddr: 0x5C940, symSize: 0x74 }
  - { offset: 0x2526D4, size: 0x8, addend: 0x0, symName: __ZN6VSTGUI12CMovieButton15onKeyboardEventERNS_13KeyboardEventE, symObjAddr: 0x828, symBinAddr: 0x5C9B4, symSize: 0xC8 }
  - { offset: 0x252802, size: 0x8, addend: 0x0, symName: __ZN6VSTGUI12CMovieButton9sizeToFitEv, symObjAddr: 0x8F0, symBinAddr: 0x5CA7C, symSize: 0xDC }
  - { offset: 0x25294C, size: 0x8, addend: 0x0, symName: __ZN6VSTGUI12CMovieButtonD1Ev, symObjAddr: 0xBF4, symBinAddr: 0x5CB58, symSize: 0xC }
  - { offset: 0x25296E, size: 0x8, addend: 0x0, symName: __ZN6VSTGUI12CMovieButtonD1Ev, symObjAddr: 0xBF4, symBinAddr: 0x5CB58, symSize: 0xC }
  - { offset: 0x2529A2, size: 0x8, addend: 0x0, symName: __ZN6VSTGUI12CMovieButtonD0Ev, symObjAddr: 0xC00, symBinAddr: 0x5CB64, symSize: 0x1C }
  - { offset: 0x252A21, size: 0x8, addend: 0x0, symName: __ZNK6VSTGUI12CMovieButton7newCopyEv, symObjAddr: 0xC1C, symBinAddr: 0x5CB80, symSize: 0xC8 }
  - { offset: 0x252B0B, size: 0x8, addend: 0x0, symName: __ZN6VSTGUI12CMovieButton16setNumSubPixmapsEi, symObjAddr: 0xCE4, symBinAddr: 0x5CC48, symSize: 0x10 }
  - { offset: 0x252B36, size: 0x8, addend: 0x0, symName: __ZN6VSTGUI12CMovieButton16setNumSubPixmapsEi, symObjAddr: 0xCE4, symBinAddr: 0x5CC48, symSize: 0x10 }
  - { offset: 0x252B6E, size: 0x8, addend: 0x0, symName: __ZThn24_N6VSTGUI12CMovieButtonD1Ev, symObjAddr: 0xCF4, symBinAddr: 0x5CC58, symSize: 0x10 }
  - { offset: 0x252BD7, size: 0x8, addend: 0x0, symName: __ZThn24_N6VSTGUI12CMovieButtonD0Ev, symObjAddr: 0xD04, symBinAddr: 0x5CC68, symSize: 0x20 }
  - { offset: 0x252C42, size: 0x8, addend: 0x0, symName: __ZThn64_N6VSTGUI12CMovieButtonD1Ev, symObjAddr: 0xD24, symBinAddr: 0x5CC88, symSize: 0x10 }
  - { offset: 0x252C91, size: 0x8, addend: 0x0, symName: __ZThn64_N6VSTGUI12CMovieButtonD0Ev, symObjAddr: 0xD34, symBinAddr: 0x5CC98, symSize: 0x20 }
  - { offset: 0x252D1D, size: 0x8, addend: 0x0, symName: __ZThn64_N6VSTGUI12CMovieButton16setNumSubPixmapsEi, symObjAddr: 0xD68, symBinAddr: 0x5CCB8, symSize: 0x10 }
  - { offset: 0x252D37, size: 0x8, addend: 0x0, symName: __ZThn64_N6VSTGUI12CMovieButton16setNumSubPixmapsEi, symObjAddr: 0xD68, symBinAddr: 0x5CCB8, symSize: 0x10 }
  - { offset: 0x26D075, size: 0x8, addend: 0x0, symName: __ZN6VSTGUI11COptionMenu15onKeyboardEventERNS_13KeyboardEventE, symObjAddr: 0x2540, symBinAddr: 0x5EF2C, symSize: 0x368 }
  - { offset: 0x26D8B6, size: 0x8, addend: 0x0, symName: __ZN6VSTGUI11COptionMenu5popupERKNSt3__18functionIFvPS0_EEE, symObjAddr: 0x2BC8, symBinAddr: 0x5F5B4, symSize: 0x338 }
  - { offset: 0x26E618, size: 0x8, addend: 0x0, symName: __ZN6VSTGUI11COptionMenu5popupEPNS_6CFrameERKNS_6CPointERKNSt3__18functionIFvPS0_EEE, symObjAddr: 0x2F68, symBinAddr: 0x5F954, symSize: 0x338 }
  - { offset: 0x26F4A1, size: 0x8, addend: 0x0, symName: __ZN6VSTGUI11COptionMenu11onMouseDownERNS_6CPointERKNS_12CButtonStateE, symObjAddr: 0x4588, symBinAddr: 0x60F14, symSize: 0x16C }
  - { offset: 0x26FE00, size: 0x8, addend: 0x0, symName: __ZN6VSTGUI9CMenuItemC2Ev, symObjAddr: 0x0, symBinAddr: 0x5CCC8, symSize: 0x124 }
  - { offset: 0x2701C0, size: 0x8, addend: 0x0, symName: __ZN6VSTGUI9CMenuItem4ImplD2Ev, symObjAddr: 0x4BBC, symBinAddr: 0x61320, symSize: 0xBC }
  - { offset: 0x27055F, size: 0x8, addend: 0x0, symName: __ZNSt3__110unique_ptrIN6VSTGUI9CMenuItem4ImplENS_14default_deleteIS3_EEED1B8ne180100Ev, symObjAddr: 0x124, symBinAddr: 0x5CDEC, symSize: 0x34 }
  - { offset: 0x270632, size: 0x8, addend: 0x0, symName: __ZN6VSTGUI9CMenuItemC1Ev, symObjAddr: 0x158, symBinAddr: 0x5CE20, symSize: 0xF4 }
  - { offset: 0x2709EC, size: 0x8, addend: 0x0, symName: __ZN6VSTGUI9CMenuItemD2Ev, symObjAddr: 0x24C, symBinAddr: 0x5CF14, symSize: 0x48 }
  - { offset: 0x270AF5, size: 0x8, addend: 0x0, symName: __ZN6VSTGUI9CMenuItemD1Ev, symObjAddr: 0x294, symBinAddr: 0x5CF5C, symSize: 0x40 }
  - { offset: 0x270C07, size: 0x8, addend: 0x0, symName: __ZN6VSTGUI9CMenuItemD0Ev, symObjAddr: 0x2D4, symBinAddr: 0x5CF9C, symSize: 0x40 }
  - { offset: 0x270D3F, size: 0x8, addend: 0x0, symName: __ZN6VSTGUI9CMenuItemC2ERKNS_10UTF8StringES3_iPNS_7CBitmapEi, symObjAddr: 0x314, symBinAddr: 0x5CFDC, symSize: 0xB0 }
  - { offset: 0x270E36, size: 0x8, addend: 0x0, symName: __ZN6VSTGUI9CMenuItemC1ERKNS_10UTF8StringES3_iPNS_7CBitmapEi, symObjAddr: 0x3C4, symBinAddr: 0x5D08C, symSize: 0xA0 }
  - { offset: 0x270F17, size: 0x8, addend: 0x0, symName: __ZN6VSTGUI9CMenuItemC2ERKNS_10UTF8StringEPNS_11COptionMenuEPNS_7CBitmapE, symObjAddr: 0x464, symBinAddr: 0x5D12C, symSize: 0x94 }
  - { offset: 0x270FFD, size: 0x8, addend: 0x0, symName: __ZN6VSTGUI9CMenuItemC1ERKNS_10UTF8StringEPNS_11COptionMenuEPNS_7CBitmapE, symObjAddr: 0x4F8, symBinAddr: 0x5D1C0, symSize: 0x84 }
  - { offset: 0x2710A8, size: 0x8, addend: 0x0, symName: __ZN6VSTGUI9CMenuItemC2ERKNS_10UTF8StringEi, symObjAddr: 0x57C, symBinAddr: 0x5D244, symSize: 0x74 }
  - { offset: 0x271165, size: 0x8, addend: 0x0, symName: __ZN6VSTGUI9CMenuItemC1ERKNS_10UTF8StringEi, symObjAddr: 0x5F0, symBinAddr: 0x5D2B8, symSize: 0x6C }
  - { offset: 0x2712D2, size: 0x8, addend: 0x0, symName: __ZN6VSTGUI9CMenuItemC2ERKS0_, symObjAddr: 0x65C, symBinAddr: 0x5D324, symSize: 0xEC }
  - { offset: 0x27154F, size: 0x8, addend: 0x0, symName: __ZNK6VSTGUI9CMenuItem8getTitleEv, symObjAddr: 0x748, symBinAddr: 0x5D410, symSize: 0x8 }
  - { offset: 0x271573, size: 0x8, addend: 0x0, symName: __ZNK6VSTGUI9CMenuItem8getTitleEv, symObjAddr: 0x748, symBinAddr: 0x5D410, symSize: 0x8 }
  - { offset: 0x27158F, size: 0x8, addend: 0x0, symName: __ZNK6VSTGUI9CMenuItem7getIconEv, symObjAddr: 0x750, symBinAddr: 0x5D418, symSize: 0xC }
  - { offset: 0x2715B3, size: 0x8, addend: 0x0, symName: __ZNK6VSTGUI9CMenuItem7getIconEv, symObjAddr: 0x750, symBinAddr: 0x5D418, symSize: 0xC }
  - { offset: 0x2715EE, size: 0x8, addend: 0x0, symName: __ZNK6VSTGUI9CMenuItem13getVirtualKeyEv, symObjAddr: 0x75C, symBinAddr: 0x5D424, symSize: 0xC }
  - { offset: 0x271612, size: 0x8, addend: 0x0, symName: __ZNK6VSTGUI9CMenuItem13getVirtualKeyEv, symObjAddr: 0x75C, symBinAddr: 0x5D424, symSize: 0xC }
  - { offset: 0x27162E, size: 0x8, addend: 0x0, symName: __ZNK6VSTGUI9CMenuItem15getKeyModifiersEv, symObjAddr: 0x768, symBinAddr: 0x5D430, symSize: 0xC }
  - { offset: 0x271652, size: 0x8, addend: 0x0, symName: __ZNK6VSTGUI9CMenuItem15getKeyModifiersEv, symObjAddr: 0x768, symBinAddr: 0x5D430, symSize: 0xC }
  - { offset: 0x27166E, size: 0x8, addend: 0x0, symName: __ZNK6VSTGUI9CMenuItem10getKeycodeEv, symObjAddr: 0x774, symBinAddr: 0x5D43C, symSize: 0xC }
  - { offset: 0x271692, size: 0x8, addend: 0x0, symName: __ZNK6VSTGUI9CMenuItem10getKeycodeEv, symObjAddr: 0x774, symBinAddr: 0x5D43C, symSize: 0xC }
  - { offset: 0x2716AE, size: 0x8, addend: 0x0, symName: __ZNK6VSTGUI9CMenuItem6getTagEv, symObjAddr: 0x780, symBinAddr: 0x5D448, symSize: 0xC }
  - { offset: 0x2716D2, size: 0x8, addend: 0x0, symName: __ZNK6VSTGUI9CMenuItem6getTagEv, symObjAddr: 0x780, symBinAddr: 0x5D448, symSize: 0xC }
  - { offset: 0x2716EE, size: 0x8, addend: 0x0, symName: __ZNK6VSTGUI9CMenuItem10getSubmenuEv, symObjAddr: 0x78C, symBinAddr: 0x5D454, symSize: 0xC }
  - { offset: 0x271712, size: 0x8, addend: 0x0, symName: __ZNK6VSTGUI9CMenuItem10getSubmenuEv, symObjAddr: 0x78C, symBinAddr: 0x5D454, symSize: 0xC }
  - { offset: 0x27174D, size: 0x8, addend: 0x0, symName: __ZN6VSTGUI9CMenuItemC1ERKS0_, symObjAddr: 0x798, symBinAddr: 0x5D460, symSize: 0xDC }
  - { offset: 0x2719AF, size: 0x8, addend: 0x0, symName: __ZN6VSTGUI9CMenuItem8setTitleERKNS_10UTF8StringE, symObjAddr: 0x874, symBinAddr: 0x5D53C, symSize: 0x8 }
  - { offset: 0x2719E8, size: 0x8, addend: 0x0, symName: __ZN6VSTGUI9CMenuItem8setTitleERKNS_10UTF8StringE, symObjAddr: 0x874, symBinAddr: 0x5D53C, symSize: 0x8 }
  - { offset: 0x271A04, size: 0x8, addend: 0x0, symName: __ZN6VSTGUI9CMenuItem6setKeyERKNS_10UTF8StringEi, symObjAddr: 0x87C, symBinAddr: 0x5D544, symSize: 0x34 }
  - { offset: 0x271A89, size: 0x8, addend: 0x0, symName: __ZN6VSTGUI9CMenuItem13setVirtualKeyEii, symObjAddr: 0x8B0, symBinAddr: 0x5D578, symSize: 0xA4 }
  - { offset: 0x271DB0, size: 0x8, addend: 0x0, symName: __ZNK6VSTGUI9CMenuItem17getVirtualKeyCodeEv, symObjAddr: 0x9AC, symBinAddr: 0x5D61C, symSize: 0x18 }
  - { offset: 0x271DDB, size: 0x8, addend: 0x0, symName: __ZNK6VSTGUI9CMenuItem17getVirtualKeyCodeEv, symObjAddr: 0x9AC, symBinAddr: 0x5D61C, symSize: 0x18 }
  - { offset: 0x271DF7, size: 0x8, addend: 0x0, symName: __ZN6VSTGUI9CMenuItem13setVirtualKeyENS_10VirtualKeyEi, symObjAddr: 0x9C4, symBinAddr: 0x5D634, symSize: 0x9C }
  - { offset: 0x27202E, size: 0x8, addend: 0x0, symName: __ZN6VSTGUI9CMenuItem10setSubmenuEPNS_11COptionMenuE, symObjAddr: 0xA60, symBinAddr: 0x5D6D0, symSize: 0x58 }
  - { offset: 0x2720E8, size: 0x8, addend: 0x0, symName: __ZN6VSTGUI9CMenuItem7setIconEPNS_7CBitmapE, symObjAddr: 0xAB8, symBinAddr: 0x5D728, symSize: 0x58 }
  - { offset: 0x27217D, size: 0x8, addend: 0x0, symName: __ZN6VSTGUI9CMenuItem6setTagEi, symObjAddr: 0xB10, symBinAddr: 0x5D780, symSize: 0xC }
  - { offset: 0x2721B4, size: 0x8, addend: 0x0, symName: __ZN6VSTGUI9CMenuItem6setTagEi, symObjAddr: 0xB10, symBinAddr: 0x5D780, symSize: 0xC }
  - { offset: 0x2721D0, size: 0x8, addend: 0x0, symName: __ZN6VSTGUI9CMenuItem10setEnabledEb, symObjAddr: 0xB1C, symBinAddr: 0x5D78C, symSize: 0x1C }
  - { offset: 0x27220C, size: 0x8, addend: 0x0, symName: __ZN6VSTGUI9CMenuItem10setEnabledEb, symObjAddr: 0xB1C, symBinAddr: 0x5D78C, symSize: 0x1C }
  - { offset: 0x27225C, size: 0x8, addend: 0x0, symName: __ZN6VSTGUI9CMenuItem10setCheckedEb, symObjAddr: 0xB38, symBinAddr: 0x5D7A8, symSize: 0x24 }
  - { offset: 0x272298, size: 0x8, addend: 0x0, symName: __ZN6VSTGUI9CMenuItem10setCheckedEb, symObjAddr: 0xB38, symBinAddr: 0x5D7A8, symSize: 0x24 }
  - { offset: 0x2722E5, size: 0x8, addend: 0x0, symName: __ZN6VSTGUI9CMenuItem10setIsTitleEb, symObjAddr: 0xB5C, symBinAddr: 0x5D7CC, symSize: 0x24 }
  - { offset: 0x272321, size: 0x8, addend: 0x0, symName: __ZN6VSTGUI9CMenuItem10setIsTitleEb, symObjAddr: 0xB5C, symBinAddr: 0x5D7CC, symSize: 0x24 }
  - { offset: 0x27236E, size: 0x8, addend: 0x0, symName: __ZN6VSTGUI9CMenuItem14setIsSeparatorEb, symObjAddr: 0xB80, symBinAddr: 0x5D7F0, symSize: 0x24 }
  - { offset: 0x2723AA, size: 0x8, addend: 0x0, symName: __ZN6VSTGUI9CMenuItem14setIsSeparatorEb, symObjAddr: 0xB80, symBinAddr: 0x5D7F0, symSize: 0x24 }
  - { offset: 0x2723F7, size: 0x8, addend: 0x0, symName: __ZNK6VSTGUI9CMenuItem9isEnabledEv, symObjAddr: 0xBA4, symBinAddr: 0x5D814, symSize: 0x14 }
  - { offset: 0x272422, size: 0x8, addend: 0x0, symName: __ZNK6VSTGUI9CMenuItem9isEnabledEv, symObjAddr: 0xBA4, symBinAddr: 0x5D814, symSize: 0x14 }
  - { offset: 0x272459, size: 0x8, addend: 0x0, symName: __ZNK6VSTGUI9CMenuItem9isCheckedEv, symObjAddr: 0xBB8, symBinAddr: 0x5D828, symSize: 0x10 }
  - { offset: 0x27247D, size: 0x8, addend: 0x0, symName: __ZNK6VSTGUI9CMenuItem9isCheckedEv, symObjAddr: 0xBB8, symBinAddr: 0x5D828, symSize: 0x10 }
  - { offset: 0x2724B4, size: 0x8, addend: 0x0, symName: __ZNK6VSTGUI9CMenuItem7isTitleEv, symObjAddr: 0xBC8, symBinAddr: 0x5D838, symSize: 0x10 }
  - { offset: 0x2724DF, size: 0x8, addend: 0x0, symName: __ZNK6VSTGUI9CMenuItem7isTitleEv, symObjAddr: 0xBC8, symBinAddr: 0x5D838, symSize: 0x10 }
  - { offset: 0x272516, size: 0x8, addend: 0x0, symName: __ZNK6VSTGUI9CMenuItem11isSeparatorEv, symObjAddr: 0xBD8, symBinAddr: 0x5D848, symSize: 0x10 }
  - { offset: 0x27253A, size: 0x8, addend: 0x0, symName: __ZNK6VSTGUI9CMenuItem11isSeparatorEv, symObjAddr: 0xBD8, symBinAddr: 0x5D848, symSize: 0x10 }
  - { offset: 0x272728, size: 0x8, addend: 0x0, symName: __ZN6VSTGUI16CCommandMenuItemC2EONS0_4DescE, symObjAddr: 0xBE8, symBinAddr: 0x5D858, symSize: 0x1A8 }
  - { offset: 0x272B67, size: 0x8, addend: 0x0, symName: __ZN6VSTGUI13SharedPointerINS_22ICommandMenuItemTargetEED1Ev, symObjAddr: 0xD90, symBinAddr: 0x5DA00, symSize: 0x44 }
  - { offset: 0x272BE9, size: 0x8, addend: 0x0, symName: __ZN6VSTGUI16CCommandMenuItemC1EONS0_4DescE, symObjAddr: 0xDD4, symBinAddr: 0x5DA44, symSize: 0x1B0 }
  - { offset: 0x27307A, size: 0x8, addend: 0x0, symName: __ZN6VSTGUI16CCommandMenuItemC2ERKNS0_4DescE, symObjAddr: 0xF84, symBinAddr: 0x5DBF4, symSize: 0x1CC }
  - { offset: 0x273440, size: 0x8, addend: 0x0, symName: __ZN6VSTGUI16CCommandMenuItemC1ERKNS0_4DescE, symObjAddr: 0x1150, symBinAddr: 0x5DDC0, symSize: 0x1CC }
  - { offset: 0x273944, size: 0x8, addend: 0x0, symName: __ZN6VSTGUI16CCommandMenuItemC2ERKS0_, symObjAddr: 0x131C, symBinAddr: 0x5DF8C, symSize: 0x1D0 }
  - { offset: 0x273D05, size: 0x8, addend: 0x0, symName: __ZN6VSTGUI16CCommandMenuItem13setItemTargetEPNS_22ICommandMenuItemTargetE, symObjAddr: 0x14EC, symBinAddr: 0x5E15C, symSize: 0x6C }
  - { offset: 0x273D67, size: 0x8, addend: 0x0, symName: __ZN6VSTGUI16CCommandMenuItemC1ERKS0_, symObjAddr: 0x1558, symBinAddr: 0x5E1C8, symSize: 0x1DC }
  - { offset: 0x274125, size: 0x8, addend: 0x0, symName: __ZN6VSTGUI16CCommandMenuItem18setCommandCategoryERKNS_10UTF8StringE, symObjAddr: 0x1734, symBinAddr: 0x5E3A4, symSize: 0x8 }
  - { offset: 0x27415E, size: 0x8, addend: 0x0, symName: __ZNK6VSTGUI16CCommandMenuItem17isCommandCategoryERKNS_10UTF8StringE, symObjAddr: 0x173C, symBinAddr: 0x5E3AC, symSize: 0x8 }
  - { offset: 0x274197, size: 0x8, addend: 0x0, symName: __ZN6VSTGUI16CCommandMenuItem14setCommandNameERKNS_10UTF8StringE, symObjAddr: 0x1744, symBinAddr: 0x5E3B4, symSize: 0x8 }
  - { offset: 0x2741D0, size: 0x8, addend: 0x0, symName: __ZNK6VSTGUI16CCommandMenuItem13isCommandNameERKNS_10UTF8StringE, symObjAddr: 0x174C, symBinAddr: 0x5E3BC, symSize: 0x8 }
  - { offset: 0x27427D, size: 0x8, addend: 0x0, symName: __ZN6VSTGUI16CCommandMenuItem10setActionsEONSt3__18functionIFvPS0_EEES6_, symObjAddr: 0x1754, symBinAddr: 0x5E3C4, symSize: 0x138 }
  - { offset: 0x27444B, size: 0x8, addend: 0x0, symName: __ZN6VSTGUI16CCommandMenuItem7executeEv, symObjAddr: 0x188C, symBinAddr: 0x5E4FC, symSize: 0x58 }
  - { offset: 0x274545, size: 0x8, addend: 0x0, symName: __ZN6VSTGUI16CCommandMenuItem8validateEv, symObjAddr: 0x18E4, symBinAddr: 0x5E554, symSize: 0x58 }
  - { offset: 0x274839, size: 0x8, addend: 0x0, symName: __ZN6VSTGUI11COptionMenuC2ERKNS_5CRectEPNS_16IControlListenerEiPNS_7CBitmapES7_i, symObjAddr: 0x193C, symBinAddr: 0x5E5AC, symSize: 0x120 }
  - { offset: 0x274AA4, size: 0x8, addend: 0x0, symName: __ZNSt3__110unique_ptrIN6VSTGUI12DispatchListIPNS1_19IOptionMenuListenerEEENS_14default_deleteIS5_EEED1B8ne180100Ev, symObjAddr: 0x1A5C, symBinAddr: 0x5E6CC, symSize: 0x54 }
  - { offset: 0x275077, size: 0x8, addend: 0x0, symName: __ZN6VSTGUI11COptionMenuC1ERKNS_5CRectEPNS_16IControlListenerEiPNS_7CBitmapES7_i, symObjAddr: 0x1AB0, symBinAddr: 0x5E720, symSize: 0x11C }
  - { offset: 0x275380, size: 0x8, addend: 0x0, symName: __ZN6VSTGUI11COptionMenuC2Ev, symObjAddr: 0x1BCC, symBinAddr: 0x5E83C, symSize: 0xF8 }
  - { offset: 0x27550B, size: 0x8, addend: 0x0, symName: __ZN6VSTGUI11COptionMenuC1Ev, symObjAddr: 0x1CC4, symBinAddr: 0x5E934, symSize: 0xF0 }
  - { offset: 0x275709, size: 0x8, addend: 0x0, symName: __ZN6VSTGUI11COptionMenuC2ERKS0_, symObjAddr: 0x1DB4, symBinAddr: 0x5EA24, symSize: 0x120 }
  - { offset: 0x2758EB, size: 0x8, addend: 0x0, symName: __ZNSt3__16vectorIN6VSTGUI13SharedPointerINS1_9CMenuItemEEENS_9allocatorIS4_EEEC2ERKS7_, symObjAddr: 0x4C78, symBinAddr: 0x613DC, symSize: 0x100 }
  - { offset: 0x275D29, size: 0x8, addend: 0x0, symName: __ZN6VSTGUI11COptionMenuC1ERKS0_, symObjAddr: 0x1ED4, symBinAddr: 0x5EB44, symSize: 0x128 }
  - { offset: 0x2760B0, size: 0x8, addend: 0x0, symName: __ZN6VSTGUI11COptionMenuD2Ev, symObjAddr: 0x1FFC, symBinAddr: 0x5EC6C, symSize: 0x110 }
  - { offset: 0x276611, size: 0x8, addend: 0x0, symName: __ZN6VSTGUI11COptionMenuD1Ev, symObjAddr: 0x211C, symBinAddr: 0x5ED7C, symSize: 0xC }
  - { offset: 0x276664, size: 0x8, addend: 0x0, symName: __ZThn24_N6VSTGUI11COptionMenuD1Ev, symObjAddr: 0x2128, symBinAddr: 0x5ED88, symSize: 0x10 }
  - { offset: 0x2766A6, size: 0x8, addend: 0x0, symName: __ZN6VSTGUI11COptionMenuD0Ev, symObjAddr: 0x2138, symBinAddr: 0x5ED98, symSize: 0x1C }
  - { offset: 0x276716, size: 0x8, addend: 0x0, symName: __ZThn24_N6VSTGUI11COptionMenuD0Ev, symObjAddr: 0x2154, symBinAddr: 0x5EDB4, symSize: 0x20 }
  - { offset: 0x27681A, size: 0x8, addend: 0x0, symName: __ZN6VSTGUI11COptionMenu26registerOptionMenuListenerEPNS_19IOptionMenuListenerE, symObjAddr: 0x2174, symBinAddr: 0x5EDD4, symSize: 0x6C }
  - { offset: 0x276EE0, size: 0x8, addend: 0x0, symName: __ZN6VSTGUI11COptionMenu28unregisterOptionMenuListenerEPNS_19IOptionMenuListenerE, symObjAddr: 0x2454, symBinAddr: 0x5EE40, symSize: 0xEC }
  - { offset: 0x277670, size: 0x8, addend: 0x0, symName: '__ZNSt3__110__function6__funcIZN6VSTGUI11COptionMenu15onKeyboardEventERNS2_13KeyboardEventEE3$_0NS_9allocatorIS6_EEFvvEED1Ev', symObjAddr: 0x4E50, symBinAddr: 0x614DC, symSize: 0x44 }
  - { offset: 0x27783A, size: 0x8, addend: 0x0, symName: __ZN6VSTGUI11COptionMenu28unregisterOptionMenuListenerEPNS_19IOptionMenuListenerE, symObjAddr: 0x2454, symBinAddr: 0x5EE40, symSize: 0xEC }
  - { offset: 0x277874, size: 0x8, addend: 0x0, symName: __ZN6VSTGUI11COptionMenu28unregisterOptionMenuListenerEPNS_19IOptionMenuListenerE, symObjAddr: 0x2454, symBinAddr: 0x5EE40, symSize: 0xEC }
  - { offset: 0x277E4B, size: 0x8, addend: 0x0, symName: __ZN6VSTGUI11COptionMenu11beforePopupEv, symObjAddr: 0x28A8, symBinAddr: 0x5F294, symSize: 0x130 }
  - { offset: 0x2782F8, size: 0x8, addend: 0x0, symName: __ZN6VSTGUI12DispatchListIPNS_19IOptionMenuListenerEE11postForEachEv, symObjAddr: 0x5148, symBinAddr: 0x617D4, symSize: 0x398 }
  - { offset: 0x279002, size: 0x8, addend: 0x0, symName: __ZN6VSTGUI11COptionMenu10afterPopupEv, symObjAddr: 0x29D8, symBinAddr: 0x5F3C4, symSize: 0xCC }
  - { offset: 0x2793D1, size: 0x8, addend: 0x0, symName: __ZN6VSTGUI11COptionMenu7doPopupEv, symObjAddr: 0x2AA4, symBinAddr: 0x5F490, symSize: 0x124 }
  - { offset: 0x279DA8, size: 0x8, addend: 0x0, symName: '__ZZN6VSTGUI11COptionMenu5popupERKNSt3__18functionIFvPS0_EEEEN3$_0D1Ev', symObjAddr: 0x2F00, symBinAddr: 0x5F8EC, symSize: 0x68 }
  - { offset: 0x27A673, size: 0x8, addend: 0x0, symName: '__ZZN6VSTGUI11COptionMenu5popupEPNS_6CFrameERKNS_6CPointERKNSt3__18functionIFvPS0_EEEEN3$_0D1Ev', symObjAddr: 0x32A0, symBinAddr: 0x5FC8C, symSize: 0x68 }
  - { offset: 0x27AD1E, size: 0x8, addend: 0x0, symName: __ZN6VSTGUI11COptionMenu17cleanupSeparatorsEb, symObjAddr: 0x3308, symBinAddr: 0x5FCF4, symSize: 0x350 }
  - { offset: 0x27B82C, size: 0x8, addend: 0x0, symName: __ZN6VSTGUI11COptionMenu16setPrefixNumbersEi, symObjAddr: 0x36B8, symBinAddr: 0x60044, symSize: 0x10 }
  - { offset: 0x27BAB8, size: 0x8, addend: 0x0, symName: __ZN6VSTGUI11COptionMenu8addEntryEPNS_9CMenuItemEi, symObjAddr: 0x36C8, symBinAddr: 0x60054, symSize: 0x12C }
  - { offset: 0x27BEDC, size: 0x8, addend: 0x0, symName: __ZNSt3__16vectorIN6VSTGUI13SharedPointerINS1_9CMenuItemEEENS_9allocatorIS4_EEE24__emplace_back_slow_pathIJS4_EEEPS4_DpOT_, symObjAddr: 0x6148, symBinAddr: 0x62560, symSize: 0x1A0 }
  - { offset: 0x27C42E, size: 0x8, addend: 0x0, symName: __ZNSt3__16vectorIN6VSTGUI13SharedPointerINS1_9CMenuItemEEENS_9allocatorIS4_EEE6insertENS_11__wrap_iterIPKS4_EEOS4_, symObjAddr: 0x37F4, symBinAddr: 0x60180, symSize: 0x49C }
  - { offset: 0x27D258, size: 0x8, addend: 0x0, symName: __ZNSt3__114__split_bufferIN6VSTGUI13SharedPointerINS1_9CMenuItemEEERNS_9allocatorIS4_EEE9push_backEOS4_, symObjAddr: 0x6344, symBinAddr: 0x6275C, symSize: 0x208 }
  - { offset: 0x27D822, size: 0x8, addend: 0x0, symName: __ZNSt3__114__split_bufferIN6VSTGUI13SharedPointerINS1_9CMenuItemEEERNS_9allocatorIS4_EEED1Ev, symObjAddr: 0x62E8, symBinAddr: 0x62700, symSize: 0x5C }
  - { offset: 0x27D9F5, size: 0x8, addend: 0x0, symName: __ZN6VSTGUI11COptionMenu8addEntryEPS0_RKNS_10UTF8StringE, symObjAddr: 0x3C90, symBinAddr: 0x6061C, symSize: 0xB8 }
  - { offset: 0x27DB3E, size: 0x8, addend: 0x0, symName: __ZN6VSTGUI11COptionMenu8addEntryERKNS_10UTF8StringEii, symObjAddr: 0x3D48, symBinAddr: 0x606D4, symSize: 0x178 }
  - { offset: 0x27DE4D, size: 0x8, addend: 0x0, symName: __ZN6VSTGUI11COptionMenu12addSeparatorEi, symObjAddr: 0x3EC0, symBinAddr: 0x6084C, symSize: 0x184 }
  - { offset: 0x27E2B7, size: 0x8, addend: 0x0, symName: __ZNK6VSTGUI11COptionMenu10getCurrentEv, symObjAddr: 0x4044, symBinAddr: 0x609D0, symSize: 0x10 }
  - { offset: 0x27E32E, size: 0x8, addend: 0x0, symName: __ZNK6VSTGUI11COptionMenu8getEntryEi, symObjAddr: 0x4054, symBinAddr: 0x609E0, symSize: 0x70 }
  - { offset: 0x27E3CE, size: 0x8, addend: 0x0, symName: __ZNK6VSTGUI11COptionMenu12getNbEntriesEv, symObjAddr: 0x40C4, symBinAddr: 0x60A50, symSize: 0x14 }
  - { offset: 0x27E418, size: 0x8, addend: 0x0, symName: __ZNK6VSTGUI11COptionMenu10getSubMenuEi, symObjAddr: 0x40D8, symBinAddr: 0x60A64, symSize: 0x28 }
  - { offset: 0x27E4DA, size: 0x8, addend: 0x0, symName: __ZNK6VSTGUI11COptionMenu15getCurrentIndexEb, symObjAddr: 0x4100, symBinAddr: 0x60A8C, symSize: 0x68 }
  - { offset: 0x27E619, size: 0x8, addend: 0x0, symName: __ZN6VSTGUI11COptionMenu10setCurrentEib, symObjAddr: 0x4168, symBinAddr: 0x60AF4, symSize: 0x10C }
  - { offset: 0x27E917, size: 0x8, addend: 0x0, symName: __ZN6VSTGUI11COptionMenu11removeEntryEi, symObjAddr: 0x4274, symBinAddr: 0x60C00, symSize: 0xF4 }
  - { offset: 0x27EBAC, size: 0x8, addend: 0x0, symName: __ZN6VSTGUI11COptionMenu14removeAllEntryEv, symObjAddr: 0x4368, symBinAddr: 0x60CF4, symSize: 0x54 }
  - { offset: 0x27ECD1, size: 0x8, addend: 0x0, symName: __ZN6VSTGUI11COptionMenu10checkEntryEib, symObjAddr: 0x43BC, symBinAddr: 0x60D48, symSize: 0x4C }
  - { offset: 0x27ED62, size: 0x8, addend: 0x0, symName: __ZN6VSTGUI11COptionMenu15checkEntryAloneEi, symObjAddr: 0x4408, symBinAddr: 0x60D94, symSize: 0x5C }
  - { offset: 0x27EE7A, size: 0x8, addend: 0x0, symName: __ZNK6VSTGUI11COptionMenu12isCheckEntryEi, symObjAddr: 0x4464, symBinAddr: 0x60DF0, symSize: 0x3C }
  - { offset: 0x27EF35, size: 0x8, addend: 0x0, symName: __ZN6VSTGUI11COptionMenu4drawEPNS_12CDrawContextE, symObjAddr: 0x44A0, symBinAddr: 0x60E2C, symSize: 0xE8 }
  - { offset: 0x27F2CD, size: 0x8, addend: 0x0, symName: __ZNK6VSTGUI11COptionMenu15getLastItemMenuERi, symObjAddr: 0x46F4, symBinAddr: 0x61080, symSize: 0x54 }
  - { offset: 0x27F313, size: 0x8, addend: 0x0, symName: __ZN6VSTGUI11COptionMenu8setValueEf, symObjAddr: 0x4748, symBinAddr: 0x610D4, symSize: 0x9C }
  - { offset: 0x27F418, size: 0x8, addend: 0x0, symName: __ZNK6VSTGUI11COptionMenu6getMaxEv, symObjAddr: 0x47E4, symBinAddr: 0x61170, symSize: 0x28 }
  - { offset: 0x27F45E, size: 0x8, addend: 0x0, symName: __ZN6VSTGUI11COptionMenu9takeFocusEv, symObjAddr: 0x480C, symBinAddr: 0x61198, symSize: 0x4 }
  - { offset: 0x27F486, size: 0x8, addend: 0x0, symName: __ZN6VSTGUI11COptionMenu10looseFocusEv, symObjAddr: 0x4810, symBinAddr: 0x6119C, symSize: 0x8C }
  - { offset: 0x27F4DA, size: 0x8, addend: 0x0, symName: __ZNK6VSTGUI13CParamDisplay7newCopyEv, symObjAddr: 0x4928, symBinAddr: 0x61228, symSize: 0x48 }
  - { offset: 0x27F501, size: 0x8, addend: 0x0, symName: __ZN6VSTGUI13CParamDisplay12setAntialiasEb, symObjAddr: 0x4ABC, symBinAddr: 0x61270, symSize: 0x20 }
  - { offset: 0x27F53B, size: 0x8, addend: 0x0, symName: __ZN6VSTGUI13CParamDisplay12setAntialiasEb, symObjAddr: 0x4ABC, symBinAddr: 0x61270, symSize: 0x20 }
  - { offset: 0x27F56B, size: 0x8, addend: 0x0, symName: __ZNK6VSTGUI11COptionMenu7newCopyEv, symObjAddr: 0x4B2C, symBinAddr: 0x61290, symSize: 0x48 }
  - { offset: 0x27F5A6, size: 0x8, addend: 0x0, symName: __ZN6VSTGUI11COptionMenu6setMinEf, symObjAddr: 0x4B74, symBinAddr: 0x612D8, symSize: 0x4 }
  - { offset: 0x27F5DB, size: 0x8, addend: 0x0, symName: __ZNK6VSTGUI11COptionMenu6getMinEv, symObjAddr: 0x4B78, symBinAddr: 0x612DC, symSize: 0x8 }
  - { offset: 0x27F600, size: 0x8, addend: 0x0, symName: __ZN6VSTGUI11COptionMenu6setMaxEf, symObjAddr: 0x4B80, symBinAddr: 0x612E4, symSize: 0x4 }
  - { offset: 0x27F635, size: 0x8, addend: 0x0, symName: __ZN6VSTGUI11COptionMenu19setNbItemsPerColumnEi, symObjAddr: 0x4B84, symBinAddr: 0x612E8, symSize: 0x8 }
  - { offset: 0x27F669, size: 0x8, addend: 0x0, symName: __ZNK6VSTGUI11COptionMenu19getNbItemsPerColumnEv, symObjAddr: 0x4B8C, symBinAddr: 0x612F0, symSize: 0x8 }
  - { offset: 0x27F690, size: 0x8, addend: 0x0, symName: __ZN6VSTGUI16CCommandMenuItemD1Ev, symObjAddr: 0x4B94, symBinAddr: 0x612F8, symSize: 0xC }
  - { offset: 0x27F6C6, size: 0x8, addend: 0x0, symName: __ZN6VSTGUI16CCommandMenuItemD2Ev, symObjAddr: 0x6844, symBinAddr: 0x62C5C, symSize: 0x150 }
  - { offset: 0x27FC31, size: 0x8, addend: 0x0, symName: __ZN6VSTGUI16CCommandMenuItemD0Ev, symObjAddr: 0x4BA0, symBinAddr: 0x61304, symSize: 0x1C }
  - { offset: 0x27FFD4, size: 0x8, addend: 0x0, symName: '__ZNSt3__110__function6__funcIZN6VSTGUI11COptionMenu15onKeyboardEventERNS2_13KeyboardEventEE3$_0NS_9allocatorIS6_EEFvvEED1Ev', symObjAddr: 0x4E50, symBinAddr: 0x614DC, symSize: 0x44 }
  - { offset: 0x280106, size: 0x8, addend: 0x0, symName: '__ZNSt3__110__function6__funcIZN6VSTGUI11COptionMenu15onKeyboardEventERNS2_13KeyboardEventEE3$_0NS_9allocatorIS6_EEFvvEED0Ev', symObjAddr: 0x4E94, symBinAddr: 0x61520, symSize: 0x44 }
  - { offset: 0x280469, size: 0x8, addend: 0x0, symName: '__ZNKSt3__110__function6__funcIZN6VSTGUI11COptionMenu15onKeyboardEventERNS2_13KeyboardEventEE3$_0NS_9allocatorIS6_EEFvvEE7__cloneEv', symObjAddr: 0x4ED8, symBinAddr: 0x61564, symSize: 0x50 }
  - { offset: 0x280797, size: 0x8, addend: 0x0, symName: '__ZNKSt3__110__function6__funcIZN6VSTGUI11COptionMenu15onKeyboardEventERNS2_13KeyboardEventEE3$_0NS_9allocatorIS6_EEFvvEE7__cloneEPNS0_6__baseIS9_EE', symObjAddr: 0x4F28, symBinAddr: 0x615B4, symSize: 0x34 }
  - { offset: 0x2808F5, size: 0x8, addend: 0x0, symName: '__ZNSt3__110__function6__funcIZN6VSTGUI11COptionMenu15onKeyboardEventERNS2_13KeyboardEventEE3$_0NS_9allocatorIS6_EEFvvEE7destroyEv', symObjAddr: 0x4F5C, symBinAddr: 0x615E8, symSize: 0x28 }
  - { offset: 0x2809C8, size: 0x8, addend: 0x0, symName: '__ZNSt3__110__function6__funcIZN6VSTGUI11COptionMenu15onKeyboardEventERNS2_13KeyboardEventEE3$_0NS_9allocatorIS6_EEFvvEE18destroy_deallocateEv', symObjAddr: 0x4F84, symBinAddr: 0x61610, symSize: 0x38 }
  - { offset: 0x280BA3, size: 0x8, addend: 0x0, symName: '__ZNSt3__110__function6__funcIZN6VSTGUI11COptionMenu15onKeyboardEventERNS2_13KeyboardEventEE3$_0NS_9allocatorIS6_EEFvvEEclEv', symObjAddr: 0x4FBC, symBinAddr: 0x61648, symSize: 0x114 }
  - { offset: 0x280E98, size: 0x8, addend: 0x0, symName: '__ZNKSt3__110__function6__funcIZN6VSTGUI11COptionMenu15onKeyboardEventERNS2_13KeyboardEventEE3$_0NS_9allocatorIS6_EEFvvEE6targetERKSt9type_info', symObjAddr: 0x50D0, symBinAddr: 0x6175C, symSize: 0x6C }
  - { offset: 0x280F4C, size: 0x8, addend: 0x0, symName: '__ZNKSt3__110__function6__funcIZN6VSTGUI11COptionMenu15onKeyboardEventERNS2_13KeyboardEventEE3$_0NS_9allocatorIS6_EEFvvEE11target_typeEv', symObjAddr: 0x513C, symBinAddr: 0x617C8, symSize: 0xC }
  - { offset: 0x281726, size: 0x8, addend: 0x0, symName: '__ZNSt3__110__function6__funcIZN6VSTGUI11COptionMenu5popupERKNS_8functionIFvPS3_EEEE3$_0NS_9allocatorISA_EEFvS5_NS2_24PlatformOptionMenuResultEEED1Ev', symObjAddr: 0x5754, symBinAddr: 0x61B6C, symSize: 0x74 }
  - { offset: 0x281871, size: 0x8, addend: 0x0, symName: '__ZNSt3__110__function6__funcIZN6VSTGUI11COptionMenu5popupERKNS_8functionIFvPS3_EEEE3$_0NS_9allocatorISA_EEFvS5_NS2_24PlatformOptionMenuResultEEED1Ev', symObjAddr: 0x5754, symBinAddr: 0x61B6C, symSize: 0x74 }
  - { offset: 0x281A2E, size: 0x8, addend: 0x0, symName: '__ZNSt3__110__function6__funcIZN6VSTGUI11COptionMenu5popupERKNS_8functionIFvPS3_EEEE3$_0NS_9allocatorISA_EEFvS5_NS2_24PlatformOptionMenuResultEEED0Ev', symObjAddr: 0x57C8, symBinAddr: 0x61BE0, symSize: 0x74 }
  - { offset: 0x281E8B, size: 0x8, addend: 0x0, symName: '__ZNKSt3__110__function6__funcIZN6VSTGUI11COptionMenu5popupERKNS_8functionIFvPS3_EEEE3$_0NS_9allocatorISA_EEFvS5_NS2_24PlatformOptionMenuResultEEE7__cloneEv', symObjAddr: 0x583C, symBinAddr: 0x61C54, symSize: 0xC4 }
  - { offset: 0x2823FE, size: 0x8, addend: 0x0, symName: '__ZNKSt3__110__function6__funcIZN6VSTGUI11COptionMenu5popupERKNS_8functionIFvPS3_EEEE3$_0NS_9allocatorISA_EEFvS5_NS2_24PlatformOptionMenuResultEEE7__cloneEPNS0_6__baseISE_EE', symObjAddr: 0x5900, symBinAddr: 0x61D18, symSize: 0xB0 }
  - { offset: 0x282699, size: 0x8, addend: 0x0, symName: '__ZNSt3__110__function6__funcIZN6VSTGUI11COptionMenu5popupERKNS_8functionIFvPS3_EEEE3$_0NS_9allocatorISA_EEFvS5_NS2_24PlatformOptionMenuResultEEE7destroyEv', symObjAddr: 0x59B0, symBinAddr: 0x61DC8, symSize: 0x64 }
  - { offset: 0x282814, size: 0x8, addend: 0x0, symName: '__ZNSt3__110__function6__funcIZN6VSTGUI11COptionMenu5popupERKNS_8functionIFvPS3_EEEE3$_0NS_9allocatorISA_EEFvS5_NS2_24PlatformOptionMenuResultEEE18destroy_deallocateEv', symObjAddr: 0x5A14, symBinAddr: 0x61E2C, symSize: 0x68 }
  - { offset: 0x282D69, size: 0x8, addend: 0x0, symName: '__ZNSt3__110__function6__funcIZN6VSTGUI11COptionMenu5popupERKNS_8functionIFvPS3_EEEE3$_0NS_9allocatorISA_EEFvS5_NS2_24PlatformOptionMenuResultEEEclEOS5_OSD_', symObjAddr: 0x5A7C, symBinAddr: 0x61E94, symSize: 0x224 }
  - { offset: 0x283369, size: 0x8, addend: 0x0, symName: '__ZNKSt3__110__function6__funcIZN6VSTGUI11COptionMenu5popupERKNS_8functionIFvPS3_EEEE3$_0NS_9allocatorISA_EEFvS5_NS2_24PlatformOptionMenuResultEEE6targetERKSt9type_info', symObjAddr: 0x5CA0, symBinAddr: 0x620B8, symSize: 0x6C }
  - { offset: 0x283406, size: 0x8, addend: 0x0, symName: '__ZNKSt3__110__function6__funcIZN6VSTGUI11COptionMenu5popupERKNS_8functionIFvPS3_EEEE3$_0NS_9allocatorISA_EEFvS5_NS2_24PlatformOptionMenuResultEEE11target_typeEv', symObjAddr: 0x5D0C, symBinAddr: 0x62124, symSize: 0xC }
  - { offset: 0x2834D3, size: 0x8, addend: 0x0, symName: '__ZNSt3__110__function6__funcIZN6VSTGUI11COptionMenu5popupEPNS2_6CFrameERKNS2_6CPointERKNS_8functionIFvPS3_EEEE3$_0NS_9allocatorISF_EESB_ED1Ev', symObjAddr: 0x5D18, symBinAddr: 0x62130, symSize: 0x74 }
  - { offset: 0x283690, size: 0x8, addend: 0x0, symName: '__ZNSt3__110__function6__funcIZN6VSTGUI11COptionMenu5popupEPNS2_6CFrameERKNS2_6CPointERKNS_8functionIFvPS3_EEEE3$_0NS_9allocatorISF_EESB_ED0Ev', symObjAddr: 0x5D8C, symBinAddr: 0x621A4, symSize: 0x74 }
  - { offset: 0x283AED, size: 0x8, addend: 0x0, symName: '__ZNKSt3__110__function6__funcIZN6VSTGUI11COptionMenu5popupEPNS2_6CFrameERKNS2_6CPointERKNS_8functionIFvPS3_EEEE3$_0NS_9allocatorISF_EESB_E7__cloneEv', symObjAddr: 0x5E00, symBinAddr: 0x62218, symSize: 0xC4 }
  - { offset: 0x284060, size: 0x8, addend: 0x0, symName: '__ZNKSt3__110__function6__funcIZN6VSTGUI11COptionMenu5popupEPNS2_6CFrameERKNS2_6CPointERKNS_8functionIFvPS3_EEEE3$_0NS_9allocatorISF_EESB_E7__cloneEPNS0_6__baseISB_EE', symObjAddr: 0x5EC4, symBinAddr: 0x622DC, symSize: 0xB0 }
  - { offset: 0x2842FB, size: 0x8, addend: 0x0, symName: '__ZNSt3__110__function6__funcIZN6VSTGUI11COptionMenu5popupEPNS2_6CFrameERKNS2_6CPointERKNS_8functionIFvPS3_EEEE3$_0NS_9allocatorISF_EESB_E7destroyEv', symObjAddr: 0x5F74, symBinAddr: 0x6238C, symSize: 0x64 }
  - { offset: 0x284476, size: 0x8, addend: 0x0, symName: '__ZNSt3__110__function6__funcIZN6VSTGUI11COptionMenu5popupEPNS2_6CFrameERKNS2_6CPointERKNS_8functionIFvPS3_EEEE3$_0NS_9allocatorISF_EESB_E18destroy_deallocateEv', symObjAddr: 0x5FD8, symBinAddr: 0x623F0, symSize: 0x68 }
  - { offset: 0x284751, size: 0x8, addend: 0x0, symName: '__ZNSt3__110__function6__funcIZN6VSTGUI11COptionMenu5popupEPNS2_6CFrameERKNS2_6CPointERKNS_8functionIFvPS3_EEEE3$_0NS_9allocatorISF_EESB_EclEOSA_', symObjAddr: 0x6040, symBinAddr: 0x62458, symSize: 0x90 }
  - { offset: 0x2848B8, size: 0x8, addend: 0x0, symName: '__ZNKSt3__110__function6__funcIZN6VSTGUI11COptionMenu5popupEPNS2_6CFrameERKNS2_6CPointERKNS_8functionIFvPS3_EEEE3$_0NS_9allocatorISF_EESB_E6targetERKSt9type_info', symObjAddr: 0x60D0, symBinAddr: 0x624E8, symSize: 0x6C }
  - { offset: 0x284955, size: 0x8, addend: 0x0, symName: '__ZNKSt3__110__function6__funcIZN6VSTGUI11COptionMenu5popupEPNS2_6CFrameERKNS2_6CPointERKNS_8functionIFvPS3_EEEE3$_0NS_9allocatorISF_EESB_E11target_typeEv', symObjAddr: 0x613C, symBinAddr: 0x62554, symSize: 0xC }
  - { offset: 0x284B18, size: 0x8, addend: 0x0, symName: '__ZNSt3__110__function6__funcIZN6VSTGUI11COptionMenu11onMouseDownERNS2_6CPointERKNS2_12CButtonStateEE3$_0NS_9allocatorIS9_EEFvvEED1Ev', symObjAddr: 0x654C, symBinAddr: 0x62964, symSize: 0x44 }
  - { offset: 0x284C4A, size: 0x8, addend: 0x0, symName: '__ZNSt3__110__function6__funcIZN6VSTGUI11COptionMenu11onMouseDownERNS2_6CPointERKNS2_12CButtonStateEE3$_0NS_9allocatorIS9_EEFvvEED0Ev', symObjAddr: 0x6590, symBinAddr: 0x629A8, symSize: 0x44 }
  - { offset: 0x284FAD, size: 0x8, addend: 0x0, symName: '__ZNKSt3__110__function6__funcIZN6VSTGUI11COptionMenu11onMouseDownERNS2_6CPointERKNS2_12CButtonStateEE3$_0NS_9allocatorIS9_EEFvvEE7__cloneEv', symObjAddr: 0x65D4, symBinAddr: 0x629EC, symSize: 0x50 }
  - { offset: 0x2852DB, size: 0x8, addend: 0x0, symName: '__ZNKSt3__110__function6__funcIZN6VSTGUI11COptionMenu11onMouseDownERNS2_6CPointERKNS2_12CButtonStateEE3$_0NS_9allocatorIS9_EEFvvEE7__cloneEPNS0_6__baseISC_EE', symObjAddr: 0x6624, symBinAddr: 0x62A3C, symSize: 0x34 }
  - { offset: 0x285439, size: 0x8, addend: 0x0, symName: '__ZNSt3__110__function6__funcIZN6VSTGUI11COptionMenu11onMouseDownERNS2_6CPointERKNS2_12CButtonStateEE3$_0NS_9allocatorIS9_EEFvvEE7destroyEv', symObjAddr: 0x6658, symBinAddr: 0x62A70, symSize: 0x28 }
  - { offset: 0x28550C, size: 0x8, addend: 0x0, symName: '__ZNSt3__110__function6__funcIZN6VSTGUI11COptionMenu11onMouseDownERNS2_6CPointERKNS2_12CButtonStateEE3$_0NS_9allocatorIS9_EEFvvEE18destroy_deallocateEv', symObjAddr: 0x6680, symBinAddr: 0x62A98, symSize: 0x38 }
  - { offset: 0x2856C1, size: 0x8, addend: 0x0, symName: '__ZNSt3__110__function6__funcIZN6VSTGUI11COptionMenu11onMouseDownERNS2_6CPointERKNS2_12CButtonStateEE3$_0NS_9allocatorIS9_EEFvvEEclEv', symObjAddr: 0x66B8, symBinAddr: 0x62AD0, symSize: 0x114 }
  - { offset: 0x28595D, size: 0x8, addend: 0x0, symName: '__ZNKSt3__110__function6__funcIZN6VSTGUI11COptionMenu11onMouseDownERNS2_6CPointERKNS2_12CButtonStateEE3$_0NS_9allocatorIS9_EEFvvEE6targetERKSt9type_info', symObjAddr: 0x67CC, symBinAddr: 0x62BE4, symSize: 0x6C }
  - { offset: 0x2859FA, size: 0x8, addend: 0x0, symName: '__ZNKSt3__110__function6__funcIZN6VSTGUI11COptionMenu11onMouseDownERNS2_6CPointERKNS2_12CButtonStateEE3$_0NS_9allocatorIS9_EEFvvEE11target_typeEv', symObjAddr: 0x6838, symBinAddr: 0x62C50, symSize: 0xC }
  - { offset: 0x2939B3, size: 0x8, addend: 0x0, symName: __ZN6VSTGUI13CParamDisplay24setValueToStringFunctionERKNSt3__18functionIFbfPcPS0_EEE, symObjAddr: 0xA08, symBinAddr: 0x637A4, symSize: 0x20C }
  - { offset: 0x294623, size: 0x8, addend: 0x0, symName: __ZN6VSTGUI13CParamDisplayC2ERKNS_5CRectEPNS_7CBitmapEi, symObjAddr: 0x0, symBinAddr: 0x62DAC, symSize: 0x14C }
  - { offset: 0x294927, size: 0x8, addend: 0x0, symName: __ZN6VSTGUI13CParamDisplayC1ERKNS_5CRectEPNS_7CBitmapEi, symObjAddr: 0x14C, symBinAddr: 0x62EF8, symSize: 0x148 }
  - { offset: 0x294D02, size: 0x8, addend: 0x0, symName: __ZN6VSTGUI13CParamDisplayC2ERKS0_, symObjAddr: 0x294, symBinAddr: 0x63040, symSize: 0x168 }
  - { offset: 0x294FF4, size: 0x8, addend: 0x0, symName: __ZN6VSTGUI13CParamDisplayC1ERKS0_, symObjAddr: 0x3FC, symBinAddr: 0x631A8, symSize: 0x170 }
  - { offset: 0x2952F4, size: 0x8, addend: 0x0, symName: __ZN6VSTGUI13CParamDisplayD2Ev, symObjAddr: 0x56C, symBinAddr: 0x63318, symSize: 0x90 }
  - { offset: 0x2953DE, size: 0x8, addend: 0x0, symName: __ZN6VSTGUI13CParamDisplayD1Ev, symObjAddr: 0x60C, symBinAddr: 0x633A8, symSize: 0x84 }
  - { offset: 0x2954CE, size: 0x8, addend: 0x0, symName: __ZThn24_N6VSTGUI13CParamDisplayD1Ev, symObjAddr: 0x690, symBinAddr: 0x6342C, symSize: 0x88 }
  - { offset: 0x2955B5, size: 0x8, addend: 0x0, symName: __ZN6VSTGUI13CParamDisplayD0Ev, symObjAddr: 0x718, symBinAddr: 0x634B4, symSize: 0x88 }
  - { offset: 0x2956B5, size: 0x8, addend: 0x0, symName: __ZThn24_N6VSTGUI13CParamDisplayD0Ev, symObjAddr: 0x7A0, symBinAddr: 0x6353C, symSize: 0x8C }
  - { offset: 0x2957AC, size: 0x8, addend: 0x0, symName: __ZN6VSTGUI13CParamDisplay7removedEPNS_5CViewE, symObjAddr: 0x82C, symBinAddr: 0x635C8, symSize: 0x4 }
  - { offset: 0x2957E1, size: 0x8, addend: 0x0, symName: __ZN6VSTGUI13CParamDisplay8setStyleEi, symObjAddr: 0x830, symBinAddr: 0x635CC, symSize: 0x28 }
  - { offset: 0x295840, size: 0x8, addend: 0x0, symName: __ZNK6VSTGUI13CParamDisplay8getStyleEv, symObjAddr: 0x858, symBinAddr: 0x635F4, symSize: 0xC }
  - { offset: 0x29589D, size: 0x8, addend: 0x0, symName: __ZN6VSTGUI13CParamDisplay12setPrecisionEh, symObjAddr: 0x864, symBinAddr: 0x63600, symSize: 0x20 }
  - { offset: 0x29592A, size: 0x8, addend: 0x0, symName: __ZN6VSTGUI13CParamDisplay25setValueToStringFunction2ERKNSt3__18functionIFbfRNS1_12basic_stringIcNS1_11char_traitsIcEENS1_9allocatorIcEEEEPS0_EEE, symObjAddr: 0x884, symBinAddr: 0x63620, symSize: 0xD8 }
  - { offset: 0x295B16, size: 0x8, addend: 0x0, symName: __ZNSt3__110__function12__value_funcIFbfRNS_12basic_stringIcNS_11char_traitsIcEENS_9allocatorIcEEEEPN6VSTGUI13CParamDisplayEEE4swapB8ne180100ERSD_, symObjAddr: 0x1E6C, symBinAddr: 0x64920, symSize: 0x1A0 }
  - { offset: 0x295CC0, size: 0x8, addend: 0x0, symName: __ZN6VSTGUI13CParamDisplay25setValueToStringFunction2EONSt3__18functionIFbfRNS1_12basic_stringIcNS1_11char_traitsIcEENS1_9allocatorIcEEEEPS0_EEE, symObjAddr: 0x95C, symBinAddr: 0x636F8, symSize: 0xAC }
  - { offset: 0x296448, size: 0x8, addend: 0x0, symName: __ZN6VSTGUI13CParamDisplay24setValueToStringFunctionEONSt3__18functionIFbfPcPS0_EEE, symObjAddr: 0xC14, symBinAddr: 0x639B0, symSize: 0x4 }
  - { offset: 0x296480, size: 0x8, addend: 0x0, symName: __ZN6VSTGUI13CParamDisplay24setValueToStringFunctionEONSt3__18functionIFbfPcPS0_EEE, symObjAddr: 0xC14, symBinAddr: 0x639B0, symSize: 0x4 }
  - { offset: 0x29650F, size: 0x8, addend: 0x0, symName: __ZN6VSTGUI13CParamDisplay12getFocusPathERNS_13CGraphicsPathE, symObjAddr: 0xC18, symBinAddr: 0x639B4, symSize: 0x110 }
  - { offset: 0x296665, size: 0x8, addend: 0x0, symName: __ZThn24_N6VSTGUI13CParamDisplay12getFocusPathERNS_13CGraphicsPathE, symObjAddr: 0xD28, symBinAddr: 0x63AC4, symSize: 0x1C }
  - { offset: 0x296990, size: 0x8, addend: 0x0, symName: __ZN6VSTGUI13CParamDisplay4drawEPNS_12CDrawContextE, symObjAddr: 0xD44, symBinAddr: 0x63AE0, symSize: 0x1A8 }
  - { offset: 0x2971F6, size: 0x8, addend: 0x0, symName: __ZN6VSTGUI13CParamDisplay8drawBackEPNS_12CDrawContextEPNS_7CBitmapE, symObjAddr: 0xF44, symBinAddr: 0x63C88, symSize: 0x52C }
  - { offset: 0x297788, size: 0x8, addend: 0x0, symName: __ZN6VSTGUI13CParamDisplay16drawPlatformTextEPNS_12CDrawContextERKNS_10UTF8StringE, symObjAddr: 0x1470, symBinAddr: 0x641B4, symSize: 0x48 }
  - { offset: 0x297862, size: 0x8, addend: 0x0, symName: __ZN6VSTGUI13CParamDisplay16drawPlatformTextEPNS_12CDrawContextERKNS_10UTF8StringERKNS_5CRectE, symObjAddr: 0x14B8, symBinAddr: 0x641FC, symSize: 0x35C }
  - { offset: 0x298021, size: 0x8, addend: 0x0, symName: __ZN6VSTGUI13CParamDisplay7setFontEPNS_9CFontDescE, symObjAddr: 0x1814, symBinAddr: 0x64558, symSize: 0x58 }
  - { offset: 0x2980AC, size: 0x8, addend: 0x0, symName: __ZN6VSTGUI13CParamDisplay12setFontColorENS_6CColorE, symObjAddr: 0x186C, symBinAddr: 0x645B0, symSize: 0x70 }
  - { offset: 0x2980E8, size: 0x8, addend: 0x0, symName: __ZN6VSTGUI13CParamDisplay12setFontColorENS_6CColorE, symObjAddr: 0x186C, symBinAddr: 0x645B0, symSize: 0x70 }
  - { offset: 0x298139, size: 0x8, addend: 0x0, symName: __ZN6VSTGUI13CParamDisplay12setBackColorENS_6CColorE, symObjAddr: 0x18DC, symBinAddr: 0x64620, symSize: 0x70 }
  - { offset: 0x298175, size: 0x8, addend: 0x0, symName: __ZN6VSTGUI13CParamDisplay12setBackColorENS_6CColorE, symObjAddr: 0x18DC, symBinAddr: 0x64620, symSize: 0x70 }
  - { offset: 0x2981C6, size: 0x8, addend: 0x0, symName: __ZN6VSTGUI13CParamDisplay13setFrameColorENS_6CColorE, symObjAddr: 0x194C, symBinAddr: 0x64690, symSize: 0x70 }
  - { offset: 0x298202, size: 0x8, addend: 0x0, symName: __ZN6VSTGUI13CParamDisplay13setFrameColorENS_6CColorE, symObjAddr: 0x194C, symBinAddr: 0x64690, symSize: 0x70 }
  - { offset: 0x298253, size: 0x8, addend: 0x0, symName: __ZN6VSTGUI13CParamDisplay14setShadowColorENS_6CColorE, symObjAddr: 0x19BC, symBinAddr: 0x64700, symSize: 0x70 }
  - { offset: 0x29828F, size: 0x8, addend: 0x0, symName: __ZN6VSTGUI13CParamDisplay14setShadowColorENS_6CColorE, symObjAddr: 0x19BC, symBinAddr: 0x64700, symSize: 0x70 }
  - { offset: 0x298306, size: 0x8, addend: 0x0, symName: __ZN6VSTGUI13CParamDisplay19setShadowTextOffsetERKNS_6CPointE, symObjAddr: 0x1A2C, symBinAddr: 0x64770, symSize: 0x3C }
  - { offset: 0x298342, size: 0x8, addend: 0x0, symName: __ZN6VSTGUI13CParamDisplay19setShadowTextOffsetERKNS_6CPointE, symObjAddr: 0x1A2C, symBinAddr: 0x64770, symSize: 0x3C }
  - { offset: 0x298372, size: 0x8, addend: 0x0, symName: __ZN6VSTGUI13CParamDisplay12setHoriAlignENS_13CHoriTxtAlignE, symObjAddr: 0x1A68, symBinAddr: 0x647AC, symSize: 0x20 }
  - { offset: 0x2983B7, size: 0x8, addend: 0x0, symName: __ZN6VSTGUI13CParamDisplay12setTextInsetERKNS_6CPointE, symObjAddr: 0x1A88, symBinAddr: 0x647CC, symSize: 0x3C }
  - { offset: 0x2983F3, size: 0x8, addend: 0x0, symName: __ZN6VSTGUI13CParamDisplay12setTextInsetERKNS_6CPointE, symObjAddr: 0x1A88, symBinAddr: 0x647CC, symSize: 0x3C }
  - { offset: 0x298423, size: 0x8, addend: 0x0, symName: __ZN6VSTGUI13CParamDisplay15setTextRotationEd, symObjAddr: 0x1AC4, symBinAddr: 0x64808, symSize: 0x78 }
  - { offset: 0x298467, size: 0x8, addend: 0x0, symName: __ZN6VSTGUI13CParamDisplay18setRoundRectRadiusERKd, symObjAddr: 0x1B3C, symBinAddr: 0x64880, symSize: 0x24 }
  - { offset: 0x2984AC, size: 0x8, addend: 0x0, symName: __ZN6VSTGUI13CParamDisplay13setFrameWidthERKd, symObjAddr: 0x1B60, symBinAddr: 0x648A4, symSize: 0x24 }
  - { offset: 0x2984F1, size: 0x8, addend: 0x0, symName: __ZN6VSTGUI13CParamDisplay16drawStyleChangedEv, symObjAddr: 0x1B84, symBinAddr: 0x648C8, symSize: 0x10 }
  - { offset: 0x298532, size: 0x8, addend: 0x0, symName: __ZN6VSTGUI13CParamDisplay13setBackOffsetERKNS_6CPointE, symObjAddr: 0x1B94, symBinAddr: 0x648D8, symSize: 0xC }
  - { offset: 0x298569, size: 0x8, addend: 0x0, symName: __ZN6VSTGUI13CParamDisplay14copyBackOffsetEv, symObjAddr: 0x1BA0, symBinAddr: 0x648E4, symSize: 0x3C }
  - { offset: 0x298672, size: 0x8, addend: 0x0, symName: '__ZNSt3__110__function6__funcIZN6VSTGUI13CParamDisplay24setValueToStringFunctionERKNS_8functionIFbfPcPS3_EEEE3$_0NS_9allocatorISB_EEFbfRNS_12basic_stringIcNS_11char_traitsIcEENSC_IcEEEES6_EED1Ev', symObjAddr: 0x200C, symBinAddr: 0x64AC0, symSize: 0x5C }
  - { offset: 0x298827, size: 0x8, addend: 0x0, symName: '__ZNSt3__110__function6__funcIZN6VSTGUI13CParamDisplay24setValueToStringFunctionERKNS_8functionIFbfPcPS3_EEEE3$_0NS_9allocatorISB_EEFbfRNS_12basic_stringIcNS_11char_traitsIcEENSC_IcEEEES6_EED0Ev', symObjAddr: 0x2068, symBinAddr: 0x64B1C, symSize: 0x5C }
  - { offset: 0x298C7F, size: 0x8, addend: 0x0, symName: '__ZNKSt3__110__function6__funcIZN6VSTGUI13CParamDisplay24setValueToStringFunctionERKNS_8functionIFbfPcPS3_EEEE3$_0NS_9allocatorISB_EEFbfRNS_12basic_stringIcNS_11char_traitsIcEENSC_IcEEEES6_EE7__cloneEv', symObjAddr: 0x20C4, symBinAddr: 0x64B78, symSize: 0x94 }
  - { offset: 0x299160, size: 0x8, addend: 0x0, symName: '__ZNKSt3__110__function6__funcIZN6VSTGUI13CParamDisplay24setValueToStringFunctionERKNS_8functionIFbfPcPS3_EEEE3$_0NS_9allocatorISB_EEFbfRNS_12basic_stringIcNS_11char_traitsIcEENSC_IcEEEES6_EE7__cloneEPNS0_6__baseISK_EE', symObjAddr: 0x2158, symBinAddr: 0x64C0C, symSize: 0x7C }
  - { offset: 0x29936D, size: 0x8, addend: 0x0, symName: '__ZNSt3__110__function6__funcIZN6VSTGUI13CParamDisplay24setValueToStringFunctionERKNS_8functionIFbfPcPS3_EEEE3$_0NS_9allocatorISB_EEFbfRNS_12basic_stringIcNS_11char_traitsIcEENSC_IcEEEES6_EE7destroyEv', symObjAddr: 0x21D4, symBinAddr: 0x64C88, symSize: 0x3C }
  - { offset: 0x2994E2, size: 0x8, addend: 0x0, symName: '__ZNSt3__110__function6__funcIZN6VSTGUI13CParamDisplay24setValueToStringFunctionERKNS_8functionIFbfPcPS3_EEEE3$_0NS_9allocatorISB_EEFbfRNS_12basic_stringIcNS_11char_traitsIcEENSC_IcEEEES6_EE18destroy_deallocateEv', symObjAddr: 0x2210, symBinAddr: 0x64CC4, symSize: 0x50 }
  - { offset: 0x29986F, size: 0x8, addend: 0x0, symName: '__ZNSt3__110__function6__funcIZN6VSTGUI13CParamDisplay24setValueToStringFunctionERKNS_8functionIFbfPcPS3_EEEE3$_0NS_9allocatorISB_EEFbfRNS_12basic_stringIcNS_11char_traitsIcEENSC_IcEEEES6_EEclEOfSJ_OS6_', symObjAddr: 0x2260, symBinAddr: 0x64D14, symSize: 0xAC }
  - { offset: 0x299A1F, size: 0x8, addend: 0x0, symName: '__ZNKSt3__110__function6__funcIZN6VSTGUI13CParamDisplay24setValueToStringFunctionERKNS_8functionIFbfPcPS3_EEEE3$_0NS_9allocatorISB_EEFbfRNS_12basic_stringIcNS_11char_traitsIcEENSC_IcEEEES6_EE6targetERKSt9type_info', symObjAddr: 0x230C, symBinAddr: 0x64DC0, symSize: 0x6C }
  - { offset: 0x299AD3, size: 0x8, addend: 0x0, symName: '__ZNKSt3__110__function6__funcIZN6VSTGUI13CParamDisplay24setValueToStringFunctionERKNS_8functionIFbfPcPS3_EEEE3$_0NS_9allocatorISB_EEFbfRNS_12basic_stringIcNS_11char_traitsIcEENSC_IcEEEES6_EE11target_typeEv', symObjAddr: 0x2378, symBinAddr: 0x64E2C, symSize: 0xC }
  - { offset: 0x29B9EB, size: 0x8, addend: 0x0, symName: __ZN6VSTGUI10CScrollbarC2ERKNS_5CRectEPNS_16IControlListenerEiNS0_18ScrollbarDirectionES3_, symObjAddr: 0x0, symBinAddr: 0x64E38, symSize: 0x138 }
  - { offset: 0x2A5011, size: 0x8, addend: 0x0, symName: __ZN6VSTGUI10CScrollbarC2ERKNS_5CRectEPNS_16IControlListenerEiNS0_18ScrollbarDirectionES3_, symObjAddr: 0x0, symBinAddr: 0x64E38, symSize: 0x138 }
  - { offset: 0x2A51D8, size: 0x8, addend: 0x0, symName: __ZN6VSTGUI10CScrollbar23calculateScrollerLengthEv, symObjAddr: 0x138, symBinAddr: 0x64F70, symSize: 0x134 }
  - { offset: 0x2A542C, size: 0x8, addend: 0x0, symName: __ZN6VSTGUI10CScrollbarC1ERKNS_5CRectEPNS_16IControlListenerEiNS0_18ScrollbarDirectionES3_, symObjAddr: 0x2D8, symBinAddr: 0x650A4, symSize: 0x134 }
  - { offset: 0x2A5672, size: 0x8, addend: 0x0, symName: __ZN6VSTGUI10CScrollbarC2ERKS0_, symObjAddr: 0x40C, symBinAddr: 0x651D8, symSize: 0xEC }
  - { offset: 0x2A5813, size: 0x8, addend: 0x0, symName: __ZN6VSTGUI10CScrollbarC1ERKS0_, symObjAddr: 0x4F8, symBinAddr: 0x652C4, symSize: 0xF0 }
  - { offset: 0x2A59C2, size: 0x8, addend: 0x0, symName: __ZN6VSTGUI10CScrollbar11setViewSizeERKNS_5CRectEb, symObjAddr: 0x5E8, symBinAddr: 0x653B4, symSize: 0x44 }
  - { offset: 0x2A5A76, size: 0x8, addend: 0x0, symName: __ZN6VSTGUI10CScrollbar13setScrollSizeERKNS_5CRectE, symObjAddr: 0x62C, symBinAddr: 0x653F8, symSize: 0x8C }
  - { offset: 0x2A5B27, size: 0x8, addend: 0x0, symName: __ZN6VSTGUI10CScrollbar15getScrollerRectEv, symObjAddr: 0x6B8, symBinAddr: 0x65484, symSize: 0x4C }
  - { offset: 0x2A5C18, size: 0x8, addend: 0x0, symName: __ZN6VSTGUI10CScrollbar10doSteppingEv, symObjAddr: 0x704, symBinAddr: 0x654D0, symSize: 0x1EC }
  - { offset: 0x2A5D9E, size: 0x8, addend: 0x0, symName: __ZN6VSTGUI10CScrollbar6notifyEPNS_11CBaseObjectEPKc, symObjAddr: 0x8F0, symBinAddr: 0x656BC, symSize: 0x60 }
  - { offset: 0x2A5E2A, size: 0x8, addend: 0x0, symName: __ZN6VSTGUI10CScrollbar15setOverlayStyleEb, symObjAddr: 0x950, symBinAddr: 0x6571C, symSize: 0x38 }
  - { offset: 0x2A5F5D, size: 0x8, addend: 0x0, symName: __ZN6VSTGUI10CScrollbar14onMouseEnteredERNS_6CPointERKNS_12CButtonStateE, symObjAddr: 0x988, symBinAddr: 0x65754, symSize: 0x160 }
  - { offset: 0x2A614B, size: 0x8, addend: 0x0, symName: __ZN6VSTGUI10CScrollbar13onMouseExitedERNS_6CPointERKNS_12CButtonStateE, symObjAddr: 0xAE8, symBinAddr: 0x658B4, symSize: 0x1B4 }
  - { offset: 0x2A63B8, size: 0x8, addend: 0x0, symName: __ZN6VSTGUI10CScrollbar11onMouseDownERNS_6CPointERKNS_12CButtonStateE, symObjAddr: 0xC9C, symBinAddr: 0x65A68, symSize: 0x208 }
  - { offset: 0x2A65CC, size: 0x8, addend: 0x0, symName: __ZN6VSTGUI10CScrollbar9onMouseUpERNS_6CPointERKNS_12CButtonStateE, symObjAddr: 0xEA4, symBinAddr: 0x65C70, symSize: 0x60 }
  - { offset: 0x2A666F, size: 0x8, addend: 0x0, symName: __ZN6VSTGUI10CScrollbar12onMouseMovedERNS_6CPointERKNS_12CButtonStateE, symObjAddr: 0xF04, symBinAddr: 0x65CD0, symSize: 0x220 }
  - { offset: 0x2A6868, size: 0x8, addend: 0x0, symName: __ZN6VSTGUI10CScrollbar13onMouseCancelEv, symObjAddr: 0x1124, symBinAddr: 0x65EF0, symSize: 0x60 }
  - { offset: 0x2A6912, size: 0x8, addend: 0x0, symName: __ZN6VSTGUI10CScrollbar14onVisualChangeEv, symObjAddr: 0x1184, symBinAddr: 0x65F50, symSize: 0x204 }
  - { offset: 0x2A6B7C, size: 0x8, addend: 0x0, symName: __ZN6VSTGUI10CScrollbar17onMouseWheelEventERNS_15MouseWheelEventE, symObjAddr: 0x1388, symBinAddr: 0x66154, symSize: 0x144 }
  - { offset: 0x2A6CB3, size: 0x8, addend: 0x0, symName: __ZN6VSTGUI10CScrollbar14drawBackgroundEPNS_12CDrawContextE, symObjAddr: 0x14CC, symBinAddr: 0x66298, symSize: 0xB8 }
  - { offset: 0x2A6D7B, size: 0x8, addend: 0x0, symName: __ZN6VSTGUI10CScrollbar12drawScrollerEPNS_12CDrawContextERKNS_5CRectE, symObjAddr: 0x1584, symBinAddr: 0x66350, symSize: 0x194 }
  - { offset: 0x2A6E8E, size: 0x8, addend: 0x0, symName: __ZN6VSTGUI10CScrollbar4drawEPNS_12CDrawContextE, symObjAddr: 0x1718, symBinAddr: 0x664E4, symSize: 0xA4 }
  - { offset: 0x2A6FEB, size: 0x8, addend: 0x0, symName: __ZN6VSTGUI10CScrollbarD1Ev, symObjAddr: 0x19E4, symBinAddr: 0x66588, symSize: 0x90 }
  - { offset: 0x2A70B2, size: 0x8, addend: 0x0, symName: __ZN6VSTGUI10CScrollbarD0Ev, symObjAddr: 0x1A74, symBinAddr: 0x66618, symSize: 0x7C }
  - { offset: 0x2A7175, size: 0x8, addend: 0x0, symName: __ZNK6VSTGUI10CScrollbar7newCopyEv, symObjAddr: 0x1AF0, symBinAddr: 0x66694, symSize: 0x48 }
  - { offset: 0x2A71B0, size: 0x8, addend: 0x0, symName: __ZN6VSTGUI10CScrollbar9setDrawerEPNS_16IScrollbarDrawerE, symObjAddr: 0x1B38, symBinAddr: 0x666DC, symSize: 0x8 }
  - { offset: 0x2A71E3, size: 0x8, addend: 0x0, symName: __ZN6VSTGUI10CScrollbar7setStepEf, symObjAddr: 0x1B40, symBinAddr: 0x666E4, symSize: 0x8 }
  - { offset: 0x2A7238, size: 0x8, addend: 0x0, symName: __ZN6VSTGUI10CScrollbar13setFrameColorERKNS_6CColorE, symObjAddr: 0x1B48, symBinAddr: 0x666EC, symSize: 0xC }
  - { offset: 0x2A726D, size: 0x8, addend: 0x0, symName: __ZN6VSTGUI10CScrollbar13setFrameColorERKNS_6CColorE, symObjAddr: 0x1B48, symBinAddr: 0x666EC, symSize: 0xC }
  - { offset: 0x2A7291, size: 0x8, addend: 0x0, symName: __ZN6VSTGUI10CScrollbar16setScrollerColorERKNS_6CColorE, symObjAddr: 0x1B54, symBinAddr: 0x666F8, symSize: 0xC }
  - { offset: 0x2A72C6, size: 0x8, addend: 0x0, symName: __ZN6VSTGUI10CScrollbar16setScrollerColorERKNS_6CColorE, symObjAddr: 0x1B54, symBinAddr: 0x666F8, symSize: 0xC }
  - { offset: 0x2A72EA, size: 0x8, addend: 0x0, symName: __ZN6VSTGUI10CScrollbar18setBackgroundColorERKNS_6CColorE, symObjAddr: 0x1B60, symBinAddr: 0x66704, symSize: 0xC }
  - { offset: 0x2A731F, size: 0x8, addend: 0x0, symName: __ZN6VSTGUI10CScrollbar18setBackgroundColorERKNS_6CColorE, symObjAddr: 0x1B60, symBinAddr: 0x66704, symSize: 0xC }
  - { offset: 0x2A7343, size: 0x8, addend: 0x0, symName: __ZThn24_N6VSTGUI10CScrollbarD1Ev, symObjAddr: 0x1B6C, symBinAddr: 0x66710, symSize: 0x90 }
  - { offset: 0x2A741D, size: 0x8, addend: 0x0, symName: __ZThn24_N6VSTGUI10CScrollbarD0Ev, symObjAddr: 0x1BFC, symBinAddr: 0x667A0, symSize: 0x7C }
  - { offset: 0x2B6C4C, size: 0x8, addend: 0x0, symName: __ZN6VSTGUI15CSearchTextEditC2ERKNS_5CRectEPNS_16IControlListenerEiPKcPNS_7CBitmapEi, symObjAddr: 0x0, symBinAddr: 0x6681C, symSize: 0x110 }
  - { offset: 0x2B7009, size: 0x8, addend: 0x0, symName: __ZN6VSTGUI15CSearchTextEditC1ERKNS_5CRectEPNS_16IControlListenerEiPKcPNS_7CBitmapEi, symObjAddr: 0x168, symBinAddr: 0x6692C, symSize: 0x11C }
  - { offset: 0x2B72E3, size: 0x8, addend: 0x0, symName: __ZN6VSTGUI15CSearchTextEdit17setClearMarkInsetENS_6CPointE, symObjAddr: 0x284, symBinAddr: 0x66A48, symSize: 0x2C }
  - { offset: 0x2B731B, size: 0x8, addend: 0x0, symName: __ZN6VSTGUI15CSearchTextEdit17setClearMarkInsetENS_6CPointE, symObjAddr: 0x284, symBinAddr: 0x66A48, symSize: 0x2C }
  - { offset: 0x2B7344, size: 0x8, addend: 0x0, symName: __ZNK6VSTGUI15CSearchTextEdit17getClearMarkInsetEv, symObjAddr: 0x2B0, symBinAddr: 0x66A74, symSize: 0x8 }
  - { offset: 0x2B7425, size: 0x8, addend: 0x0, symName: __ZNK6VSTGUI15CSearchTextEdit16getClearMarkRectEv, symObjAddr: 0x2B8, symBinAddr: 0x66A7C, symSize: 0x94 }
  - { offset: 0x2B75F6, size: 0x8, addend: 0x0, symName: __ZN6VSTGUI15CSearchTextEdit11onMouseDownERNS_6CPointERKNS_12CButtonStateE, symObjAddr: 0x34C, symBinAddr: 0x66B10, symSize: 0x1CC }
  - { offset: 0x2B7B02, size: 0x8, addend: 0x0, symName: __ZNK6VSTGUI15CSearchTextEdit13drawClearMarkEPNS_12CDrawContextE, symObjAddr: 0x518, symBinAddr: 0x66CDC, symSize: 0x300 }
  - { offset: 0x2B8107, size: 0x8, addend: 0x0, symName: __ZN6VSTGUI15CSearchTextEdit4drawEPNS_12CDrawContextE, symObjAddr: 0x818, symBinAddr: 0x66FDC, symSize: 0x1FC }
  - { offset: 0x2B84C2, size: 0x8, addend: 0x0, symName: __ZNK6VSTGUI15CSearchTextEdit11getTextRectEv, symObjAddr: 0xA14, symBinAddr: 0x671D8, symSize: 0xB4 }
  - { offset: 0x2B86FD, size: 0x8, addend: 0x0, symName: __ZNK6VSTGUI15CSearchTextEdit15platformGetSizeEv, symObjAddr: 0xAC8, symBinAddr: 0x6728C, symSize: 0x100 }
  - { offset: 0x2B891E, size: 0x8, addend: 0x0, symName: __ZThn280_NK6VSTGUI15CSearchTextEdit15platformGetSizeEv, symObjAddr: 0xBC8, symBinAddr: 0x6738C, symSize: 0x8 }
  - { offset: 0x2B897C, size: 0x8, addend: 0x0, symName: __ZNK6VSTGUI15CSearchTextEdit22platformGetVisibleSizeEv, symObjAddr: 0xBD0, symBinAddr: 0x67394, symSize: 0x160 }
  - { offset: 0x2B8BE3, size: 0x8, addend: 0x0, symName: __ZThn280_NK6VSTGUI15CSearchTextEdit22platformGetVisibleSizeEv, symObjAddr: 0xD30, symBinAddr: 0x674F4, symSize: 0x8 }
  - { offset: 0x2B8C08, size: 0x8, addend: 0x0, symName: __ZN6VSTGUI15CSearchTextEdit21platformTextDidChangeEv, symObjAddr: 0xD38, symBinAddr: 0x674FC, symSize: 0xC0 }
  - { offset: 0x2B8D55, size: 0x8, addend: 0x0, symName: __ZThn280_N6VSTGUI15CSearchTextEdit21platformTextDidChangeEv, symObjAddr: 0xDF8, symBinAddr: 0x675BC, symSize: 0x8 }
  - { offset: 0x2B8D7A, size: 0x8, addend: 0x0, symName: __ZNK6VSTGUI9CTextEdit7newCopyEv, symObjAddr: 0xE68, symBinAddr: 0x675C4, symSize: 0x48 }
  - { offset: 0x2B8DA1, size: 0x8, addend: 0x0, symName: __ZN6VSTGUI10CTextLabel7onWheelERKNS_6CPointERKNS_15CMouseWheelAxisERKfRKNS_12CButtonStateE, symObjAddr: 0xFA8, symBinAddr: 0x6760C, symSize: 0x8 }
  - { offset: 0x2B8E00, size: 0x8, addend: 0x0, symName: __ZN6VSTGUI9CTextEdit15setTextRotationEd, symObjAddr: 0x1010, symBinAddr: 0x67614, symSize: 0x4 }
  - { offset: 0x2B8E4A, size: 0x8, addend: 0x0, symName: __ZNK6VSTGUI9CTextEdit20platformGetBackColorEv, symObjAddr: 0x1014, symBinAddr: 0x67618, symSize: 0xC }
  - { offset: 0x2B8E6C, size: 0x8, addend: 0x0, symName: __ZNK6VSTGUI9CTextEdit20platformGetBackColorEv, symObjAddr: 0x1014, symBinAddr: 0x67618, symSize: 0xC }
  - { offset: 0x2B8E87, size: 0x8, addend: 0x0, symName: __ZNK6VSTGUI9CTextEdit20platformGetBackColorEv, symObjAddr: 0x1014, symBinAddr: 0x67618, symSize: 0xC }
  - { offset: 0x2B8EAC, size: 0x8, addend: 0x0, symName: __ZNK6VSTGUI9CTextEdit20platformGetBackColorEv, symObjAddr: 0x1014, symBinAddr: 0x67618, symSize: 0xC }
  - { offset: 0x2B8EE8, size: 0x8, addend: 0x0, symName: __ZNK6VSTGUI9CTextEdit20platformGetFontColorEv, symObjAddr: 0x1020, symBinAddr: 0x67624, symSize: 0xC }
  - { offset: 0x2B8F0A, size: 0x8, addend: 0x0, symName: __ZNK6VSTGUI9CTextEdit20platformGetFontColorEv, symObjAddr: 0x1020, symBinAddr: 0x67624, symSize: 0xC }
  - { offset: 0x2B8F25, size: 0x8, addend: 0x0, symName: __ZNK6VSTGUI9CTextEdit20platformGetFontColorEv, symObjAddr: 0x1020, symBinAddr: 0x67624, symSize: 0xC }
  - { offset: 0x2B8F4A, size: 0x8, addend: 0x0, symName: __ZNK6VSTGUI9CTextEdit20platformGetFontColorEv, symObjAddr: 0x1020, symBinAddr: 0x67624, symSize: 0xC }
  - { offset: 0x2B8F70, size: 0x8, addend: 0x0, symName: __ZNK6VSTGUI9CTextEdit23platformGetHoriTxtAlignEv, symObjAddr: 0x102C, symBinAddr: 0x67630, symSize: 0x8 }
  - { offset: 0x2B8F94, size: 0x8, addend: 0x0, symName: __ZNK6VSTGUI9CTextEdit23platformGetHoriTxtAlignEv, symObjAddr: 0x102C, symBinAddr: 0x67630, symSize: 0x8 }
  - { offset: 0x2B8FAE, size: 0x8, addend: 0x0, symName: __ZNK6VSTGUI9CTextEdit15platformGetTextEv, symObjAddr: 0x1034, symBinAddr: 0x67638, symSize: 0x8 }
  - { offset: 0x2B8FD0, size: 0x8, addend: 0x0, symName: __ZNK6VSTGUI9CTextEdit26platformGetPlaceholderTextEv, symObjAddr: 0x103C, symBinAddr: 0x67640, symSize: 0x8 }
  - { offset: 0x2B9008, size: 0x8, addend: 0x0, symName: __ZNK6VSTGUI9CTextEdit20platformGetTextInsetEv, symObjAddr: 0x1044, symBinAddr: 0x67648, symSize: 0x8 }
  - { offset: 0x2B902A, size: 0x8, addend: 0x0, symName: __ZNK6VSTGUI9CTextEdit20platformGetTextInsetEv, symObjAddr: 0x1044, symBinAddr: 0x67648, symSize: 0x8 }
  - { offset: 0x2B9044, size: 0x8, addend: 0x0, symName: __ZN6VSTGUI10CTextLabelD1Ev, symObjAddr: 0x104C, symBinAddr: 0x67650, symSize: 0xC }
  - { offset: 0x2B907A, size: 0x8, addend: 0x0, symName: __ZN6VSTGUI10CTextLabelD2Ev, symObjAddr: 0x122C, symBinAddr: 0x67750, symSize: 0xFC }
  - { offset: 0x2B9717, size: 0x8, addend: 0x0, symName: __ZN6VSTGUI10CTextLabelD0Ev, symObjAddr: 0x1058, symBinAddr: 0x6765C, symSize: 0x1C }
  - { offset: 0x2B9771, size: 0x8, addend: 0x0, symName: __ZNK6VSTGUI10CTextLabel7newCopyEv, symObjAddr: 0x1074, symBinAddr: 0x67678, symSize: 0x48 }
  - { offset: 0x2B97C8, size: 0x8, addend: 0x0, symName: __ZN6VSTGUI15CSearchTextEditD1Ev, symObjAddr: 0x118C, symBinAddr: 0x676C0, symSize: 0xC }
  - { offset: 0x2B97EA, size: 0x8, addend: 0x0, symName: __ZN6VSTGUI15CSearchTextEditD1Ev, symObjAddr: 0x118C, symBinAddr: 0x676C0, symSize: 0xC }
  - { offset: 0x2B9820, size: 0x8, addend: 0x0, symName: __ZN6VSTGUI15CSearchTextEditD0Ev, symObjAddr: 0x1198, symBinAddr: 0x676CC, symSize: 0x1C }
  - { offset: 0x2B9878, size: 0x8, addend: 0x0, symName: __ZThn24_N6VSTGUI15CSearchTextEditD1Ev, symObjAddr: 0x11B4, symBinAddr: 0x676E8, symSize: 0x10 }
  - { offset: 0x2B98E3, size: 0x8, addend: 0x0, symName: __ZThn24_N6VSTGUI15CSearchTextEditD0Ev, symObjAddr: 0x11C4, symBinAddr: 0x676F8, symSize: 0x20 }
  - { offset: 0x2B9964, size: 0x8, addend: 0x0, symName: __ZThn280_NK6VSTGUI9CTextEdit20platformGetBackColorEv, symObjAddr: 0x11E4, symBinAddr: 0x67718, symSize: 0xC }
  - { offset: 0x2B997E, size: 0x8, addend: 0x0, symName: __ZThn280_NK6VSTGUI9CTextEdit20platformGetBackColorEv, symObjAddr: 0x11E4, symBinAddr: 0x67718, symSize: 0xC }
  - { offset: 0x2B999B, size: 0x8, addend: 0x0, symName: __ZThn280_NK6VSTGUI9CTextEdit20platformGetBackColorEv, symObjAddr: 0x11E4, symBinAddr: 0x67718, symSize: 0xC }
  - { offset: 0x2B99B9, size: 0x8, addend: 0x0, symName: __ZThn280_NK6VSTGUI9CTextEdit20platformGetBackColorEv, symObjAddr: 0x11E4, symBinAddr: 0x67718, symSize: 0xC }
  - { offset: 0x2B99DE, size: 0x8, addend: 0x0, symName: __ZThn280_NK6VSTGUI9CTextEdit20platformGetBackColorEv, symObjAddr: 0x11E4, symBinAddr: 0x67718, symSize: 0xC }
  - { offset: 0x2B9A1B, size: 0x8, addend: 0x0, symName: __ZThn280_NK6VSTGUI9CTextEdit20platformGetFontColorEv, symObjAddr: 0x11F0, symBinAddr: 0x67724, symSize: 0xC }
  - { offset: 0x2B9A35, size: 0x8, addend: 0x0, symName: __ZThn280_NK6VSTGUI9CTextEdit20platformGetFontColorEv, symObjAddr: 0x11F0, symBinAddr: 0x67724, symSize: 0xC }
  - { offset: 0x2B9A52, size: 0x8, addend: 0x0, symName: __ZThn280_NK6VSTGUI9CTextEdit20platformGetFontColorEv, symObjAddr: 0x11F0, symBinAddr: 0x67724, symSize: 0xC }
  - { offset: 0x2B9A70, size: 0x8, addend: 0x0, symName: __ZThn280_NK6VSTGUI9CTextEdit20platformGetFontColorEv, symObjAddr: 0x11F0, symBinAddr: 0x67724, symSize: 0xC }
  - { offset: 0x2B9A95, size: 0x8, addend: 0x0, symName: __ZThn280_NK6VSTGUI9CTextEdit20platformGetFontColorEv, symObjAddr: 0x11F0, symBinAddr: 0x67724, symSize: 0xC }
  - { offset: 0x2B9AD2, size: 0x8, addend: 0x0, symName: __ZThn280_NK6VSTGUI9CTextEdit23platformGetHoriTxtAlignEv, symObjAddr: 0x11FC, symBinAddr: 0x67730, symSize: 0x8 }
  - { offset: 0x2B9AEC, size: 0x8, addend: 0x0, symName: __ZThn280_NK6VSTGUI9CTextEdit23platformGetHoriTxtAlignEv, symObjAddr: 0x11FC, symBinAddr: 0x67730, symSize: 0x8 }
  - { offset: 0x2B9B09, size: 0x8, addend: 0x0, symName: __ZThn280_NK6VSTGUI9CTextEdit23platformGetHoriTxtAlignEv, symObjAddr: 0x11FC, symBinAddr: 0x67730, symSize: 0x8 }
  - { offset: 0x2B9B3D, size: 0x8, addend: 0x0, symName: __ZThn280_NK6VSTGUI9CTextEdit15platformGetTextEv, symObjAddr: 0x1204, symBinAddr: 0x67738, symSize: 0x8 }
  - { offset: 0x2B9B57, size: 0x8, addend: 0x0, symName: __ZThn280_NK6VSTGUI9CTextEdit15platformGetTextEv, symObjAddr: 0x1204, symBinAddr: 0x67738, symSize: 0x8 }
  - { offset: 0x2B9B89, size: 0x8, addend: 0x0, symName: __ZThn280_NK6VSTGUI9CTextEdit26platformGetPlaceholderTextEv, symObjAddr: 0x120C, symBinAddr: 0x67740, symSize: 0x8 }
  - { offset: 0x2B9BA3, size: 0x8, addend: 0x0, symName: __ZThn280_NK6VSTGUI9CTextEdit26platformGetPlaceholderTextEv, symObjAddr: 0x120C, symBinAddr: 0x67740, symSize: 0x8 }
  - { offset: 0x2B9BD5, size: 0x8, addend: 0x0, symName: __ZThn280_NK6VSTGUI9CTextEdit20platformGetTextInsetEv, symObjAddr: 0x1214, symBinAddr: 0x67748, symSize: 0x8 }
  - { offset: 0x2B9BEF, size: 0x8, addend: 0x0, symName: __ZThn280_NK6VSTGUI9CTextEdit20platformGetTextInsetEv, symObjAddr: 0x1214, symBinAddr: 0x67748, symSize: 0x8 }
  - { offset: 0x2B9C0C, size: 0x8, addend: 0x0, symName: __ZThn280_NK6VSTGUI9CTextEdit20platformGetTextInsetEv, symObjAddr: 0x1214, symBinAddr: 0x67748, symSize: 0x8 }
  - { offset: 0x2C8F03, size: 0x8, addend: 0x0, symName: __ZNSt3__16vectorIN6VSTGUI14CSegmentButton7SegmentENS_9allocatorIS3_EEE26__swap_out_circular_bufferERNS_14__split_bufferIS3_RS5_EEPS3_, symObjAddr: 0x3E68, symBinAddr: 0x6B314, symSize: 0x180 }
  - { offset: 0x2C9873, size: 0x8, addend: 0x0, symName: __ZN6VSTGUI14CSegmentButtonC2ERKNS_5CRectEPNS_16IControlListenerEi, symObjAddr: 0x0, symBinAddr: 0x6784C, symSize: 0x148 }
  - { offset: 0x2C9B01, size: 0x8, addend: 0x0, symName: __ZNSt3__16vectorIN6VSTGUI14CSegmentButton7SegmentENS_9allocatorIS3_EEED1B8ne180100Ev, symObjAddr: 0x148, symBinAddr: 0x67994, symSize: 0x58 }
  - { offset: 0x2C9FE2, size: 0x8, addend: 0x0, symName: __ZN6VSTGUI14CSegmentButtonC1ERKNS_5CRectEPNS_16IControlListenerEi, symObjAddr: 0x1A0, symBinAddr: 0x679EC, symSize: 0x154 }
  - { offset: 0x2CA2B4, size: 0x8, addend: 0x0, symName: __ZNK6VSTGUI14CSegmentButton20canAddOneMoreSegmentEv, symObjAddr: 0x2F4, symBinAddr: 0x67B40, symSize: 0x40 }
  - { offset: 0x2CA2D8, size: 0x8, addend: 0x0, symName: __ZNK6VSTGUI14CSegmentButton20canAddOneMoreSegmentEv, symObjAddr: 0x2F4, symBinAddr: 0x67B40, symSize: 0x40 }
  - { offset: 0x2CA4C8, size: 0x8, addend: 0x0, symName: __ZN6VSTGUI14CSegmentButton10addSegmentERKNS0_7SegmentEj, symObjAddr: 0x334, symBinAddr: 0x67B80, symSize: 0x154 }
  - { offset: 0x2CA793, size: 0x8, addend: 0x0, symName: __ZN6VSTGUI14CSegmentButton7SegmentC2ERKS1_, symObjAddr: 0x377C, symBinAddr: 0x6ACE0, symSize: 0xA8 }
  - { offset: 0x2CA8FA, size: 0x8, addend: 0x0, symName: __ZN6VSTGUI14CSegmentButton18updateSegmentSizesEv, symObjAddr: 0x75C, symBinAddr: 0x67FA8, symSize: 0x534 }
  - { offset: 0x2CADEA, size: 0x8, addend: 0x0, symName: __ZNSt3__16vectorIN6VSTGUI14CSegmentButton7SegmentENS_9allocatorIS3_EEE6insertENS_11__wrap_iterIPKS3_EERS8_, symObjAddr: 0x488, symBinAddr: 0x67CD4, symSize: 0x2D4 }
  - { offset: 0x2CB7A9, size: 0x8, addend: 0x0, symName: __ZNSt3__16vectorIN6VSTGUI14CSegmentButton7SegmentENS_9allocatorIS3_EEE24__emplace_back_slow_pathIJRKS3_EEEPS3_DpOT_, symObjAddr: 0x38DC, symBinAddr: 0x6AD88, symSize: 0x1F0 }
  - { offset: 0x2CC396, size: 0x8, addend: 0x0, symName: __ZNSt3__114__split_bufferIN6VSTGUI14CSegmentButton7SegmentERNS_9allocatorIS3_EEE9push_backB8ne180100ERKS3_, symObjAddr: 0x3C4C, symBinAddr: 0x6B0F8, symSize: 0x21C }
  - { offset: 0x2CCB0C, size: 0x8, addend: 0x0, symName: __ZNSt3__16vectorIN6VSTGUI14CSegmentButton7SegmentENS_9allocatorIS3_EEE26__swap_out_circular_bufferERNS_14__split_bufferIS3_RS5_EEPS3_, symObjAddr: 0x3E68, symBinAddr: 0x6B314, symSize: 0x180 }
  - { offset: 0x2CCB17, size: 0x8, addend: 0x0, symName: __ZN6VSTGUI14CSegmentButton7SegmentaSEOS1_, symObjAddr: 0x3FE8, symBinAddr: 0x6B494, symSize: 0xD8 }
  - { offset: 0x2CCBF6, size: 0x8, addend: 0x0, symName: __ZN6VSTGUI14CSegmentButton7SegmentaSERKS1_, symObjAddr: 0x3B1C, symBinAddr: 0x6AFC8, symSize: 0x130 }
  - { offset: 0x2CCDC8, size: 0x8, addend: 0x0, symName: __ZNSt3__114__split_bufferIN6VSTGUI14CSegmentButton7SegmentERNS_9allocatorIS3_EEED1Ev, symObjAddr: 0x3ACC, symBinAddr: 0x6AF78, symSize: 0x50 }
  - { offset: 0x2CD13D, size: 0x8, addend: 0x0, symName: __ZN6VSTGUI14CSegmentButton10addSegmentEONS0_7SegmentEj, symObjAddr: 0xC90, symBinAddr: 0x684DC, symSize: 0x198 }
  - { offset: 0x2CD5B3, size: 0x8, addend: 0x0, symName: __ZNSt3__16vectorIN6VSTGUI14CSegmentButton7SegmentENS_9allocatorIS3_EEE6insertENS_11__wrap_iterIPKS3_EEOS3_, symObjAddr: 0xE28, symBinAddr: 0x68674, symSize: 0x304 }
  - { offset: 0x2CE0D0, size: 0x8, addend: 0x0, symName: __ZNSt3__16vectorIN6VSTGUI14CSegmentButton7SegmentENS_9allocatorIS3_EEE24__emplace_back_slow_pathIJS3_EEEPS3_DpOT_, symObjAddr: 0x40C0, symBinAddr: 0x6B56C, symSize: 0x1EC }
  - { offset: 0x2CE758, size: 0x8, addend: 0x0, symName: __ZNSt3__114__split_bufferIN6VSTGUI14CSegmentButton7SegmentERNS_9allocatorIS3_EEE9push_backEOS3_, symObjAddr: 0x42AC, symBinAddr: 0x6B758, symSize: 0x26C }
  - { offset: 0x2CE770, size: 0x8, addend: 0x0, symName: __ZNSt3__114__split_bufferIN6VSTGUI14CSegmentButton7SegmentERNS_9allocatorIS3_EEE9push_backEOS3_, symObjAddr: 0x42AC, symBinAddr: 0x6B758, symSize: 0x26C }
  - { offset: 0x2CF1AE, size: 0x8, addend: 0x0, symName: __ZN6VSTGUI14CSegmentButton13removeSegmentEj, symObjAddr: 0x112C, symBinAddr: 0x68978, symSize: 0xAC }
  - { offset: 0x2CF4B7, size: 0x8, addend: 0x0, symName: __ZN6VSTGUI14CSegmentButton17removeAllSegmentsEv, symObjAddr: 0x11D8, symBinAddr: 0x68A24, symSize: 0x4C }
  - { offset: 0x2CF63D, size: 0x8, addend: 0x0, symName: __ZN6VSTGUI14CSegmentButton12valueChangedEv, symObjAddr: 0x1224, symBinAddr: 0x68A70, symSize: 0x164 }
  - { offset: 0x2CF8BE, size: 0x8, addend: 0x0, symName: __ZNK6VSTGUI14CSegmentButton18getSelectedSegmentEv, symObjAddr: 0x1388, symBinAddr: 0x68BD4, symSize: 0x80 }
  - { offset: 0x2CF934, size: 0x8, addend: 0x0, symName: __ZN6VSTGUI14CSegmentButton18setSelectedSegmentEj, symObjAddr: 0x1408, symBinAddr: 0x68C54, symSize: 0xB8 }
  - { offset: 0x2CF9CF, size: 0x8, addend: 0x0, symName: __ZNK6VSTGUI14CSegmentButton15getSegmentIndexEf, symObjAddr: 0x14C0, symBinAddr: 0x68D0C, symSize: 0x54 }
  - { offset: 0x2CFA1A, size: 0x8, addend: 0x0, symName: __ZN6VSTGUI14CSegmentButton8setStyleENS0_5StyleE, symObjAddr: 0x1514, symBinAddr: 0x68D60, symSize: 0x48 }
  - { offset: 0x2CFAED, size: 0x8, addend: 0x0, symName: __ZN6VSTGUI14CSegmentButton16setSelectionModeENS0_13SelectionModeE, symObjAddr: 0x155C, symBinAddr: 0x68DA8, symSize: 0x280 }
  - { offset: 0x2CFC5C, size: 0x8, addend: 0x0, symName: __ZN6VSTGUI14CSegmentButton16verifySelectionsEv, symObjAddr: 0x17DC, symBinAddr: 0x69028, symSize: 0x240 }
  - { offset: 0x2CFD7A, size: 0x8, addend: 0x0, symName: __ZN6VSTGUI14CSegmentButton19setTextTruncateModeENS_12CDrawMethods16TextTruncateModeE, symObjAddr: 0x1A1C, symBinAddr: 0x69268, symSize: 0x20 }
  - { offset: 0x2CFDFD, size: 0x8, addend: 0x0, symName: __ZN6VSTGUI14CSegmentButton11setGradientEPNS_9CGradientE, symObjAddr: 0x1A3C, symBinAddr: 0x69288, symSize: 0x70 }
  - { offset: 0x2CFE9F, size: 0x8, addend: 0x0, symName: __ZN6VSTGUI14CSegmentButton22setGradientHighlightedEPNS_9CGradientE, symObjAddr: 0x1AAC, symBinAddr: 0x692F8, symSize: 0x70 }
  - { offset: 0x2CFF41, size: 0x8, addend: 0x0, symName: __ZN6VSTGUI14CSegmentButton14setRoundRadiusEd, symObjAddr: 0x1B1C, symBinAddr: 0x69368, symSize: 0x20 }
  - { offset: 0x2CFFC3, size: 0x8, addend: 0x0, symName: __ZN6VSTGUI14CSegmentButton7setFontEPNS_9CFontDescE, symObjAddr: 0x1B3C, symBinAddr: 0x69388, symSize: 0x70 }
  - { offset: 0x2D0065, size: 0x8, addend: 0x0, symName: __ZN6VSTGUI14CSegmentButton16setTextAlignmentENS_13CHoriTxtAlignE, symObjAddr: 0x1BAC, symBinAddr: 0x693F8, symSize: 0x20 }
  - { offset: 0x2D00A8, size: 0x8, addend: 0x0, symName: __ZN6VSTGUI14CSegmentButton13setTextMarginEd, symObjAddr: 0x1BCC, symBinAddr: 0x69418, symSize: 0x20 }
  - { offset: 0x2D0131, size: 0x8, addend: 0x0, symName: __ZN6VSTGUI14CSegmentButton12setTextColorENS_6CColorE, symObjAddr: 0x1BEC, symBinAddr: 0x69438, symSize: 0x70 }
  - { offset: 0x2D016A, size: 0x8, addend: 0x0, symName: __ZN6VSTGUI14CSegmentButton12setTextColorENS_6CColorE, symObjAddr: 0x1BEC, symBinAddr: 0x69438, symSize: 0x70 }
  - { offset: 0x2D01B8, size: 0x8, addend: 0x0, symName: __ZN6VSTGUI14CSegmentButton23setTextColorHighlightedENS_6CColorE, symObjAddr: 0x1C5C, symBinAddr: 0x694A8, symSize: 0x70 }
  - { offset: 0x2D01F1, size: 0x8, addend: 0x0, symName: __ZN6VSTGUI14CSegmentButton23setTextColorHighlightedENS_6CColorE, symObjAddr: 0x1C5C, symBinAddr: 0x694A8, symSize: 0x70 }
  - { offset: 0x2D023F, size: 0x8, addend: 0x0, symName: __ZN6VSTGUI14CSegmentButton13setFrameColorENS_6CColorE, symObjAddr: 0x1CCC, symBinAddr: 0x69518, symSize: 0x70 }
  - { offset: 0x2D0279, size: 0x8, addend: 0x0, symName: __ZN6VSTGUI14CSegmentButton13setFrameColorENS_6CColorE, symObjAddr: 0x1CCC, symBinAddr: 0x69518, symSize: 0x70 }
  - { offset: 0x2D02CA, size: 0x8, addend: 0x0, symName: __ZN6VSTGUI14CSegmentButton13setFrameWidthEd, symObjAddr: 0x1D3C, symBinAddr: 0x69588, symSize: 0x20 }
  - { offset: 0x2D030E, size: 0x8, addend: 0x0, symName: __ZN6VSTGUI14CSegmentButton8attachedEPNS_5CViewE, symObjAddr: 0x1D5C, symBinAddr: 0x695A8, symSize: 0x250 }
  - { offset: 0x2D0460, size: 0x8, addend: 0x0, symName: __ZN6VSTGUI14CSegmentButton11setViewSizeERKNS_5CRectEb, symObjAddr: 0x1FAC, symBinAddr: 0x697F8, symSize: 0x24 }
  - { offset: 0x2D04C0, size: 0x8, addend: 0x0, symName: __ZN6VSTGUI14CSegmentButton13selectSegmentEjb, symObjAddr: 0x1FD0, symBinAddr: 0x6981C, symSize: 0x7C }
  - { offset: 0x2D0580, size: 0x8, addend: 0x0, symName: __ZNK6VSTGUI14CSegmentButton17isSegmentSelectedEj, symObjAddr: 0x204C, symBinAddr: 0x69898, symSize: 0x14 }
  - { offset: 0x2D05BC, size: 0x8, addend: 0x0, symName: __ZNK6VSTGUI14CSegmentButton17isSegmentSelectedEj, symObjAddr: 0x204C, symBinAddr: 0x69898, symSize: 0x14 }
  - { offset: 0x2D0692, size: 0x8, addend: 0x0, symName: __ZN6VSTGUI14CSegmentButton11onMouseDownERNS_6CPointERKNS_12CButtonStateE, symObjAddr: 0x2060, symBinAddr: 0x698AC, symSize: 0x330 }
  - { offset: 0x2D0AF2, size: 0x8, addend: 0x0, symName: __ZN6VSTGUI14CSegmentButton15onKeyboardEventERNS_13KeyboardEventE, symObjAddr: 0x2390, symBinAddr: 0x69BDC, symSize: 0x28C }
  - { offset: 0x2D0CD2, size: 0x8, addend: 0x0, symName: __ZN6VSTGUI14CSegmentButton4drawEPNS_12CDrawContextE, symObjAddr: 0x261C, symBinAddr: 0x69E68, symSize: 0x4 }
  - { offset: 0x2D0E9C, size: 0x8, addend: 0x0, symName: __ZN6VSTGUI14CSegmentButton8drawRectEPNS_12CDrawContextERKNS_5CRectE, symObjAddr: 0x2620, symBinAddr: 0x69E6C, symSize: 0x8D4 }
  - { offset: 0x2D1B2B, size: 0x8, addend: 0x0, symName: __ZN6VSTGUI14CSegmentButton14drawFocusOnTopEv, symObjAddr: 0x2EF4, symBinAddr: 0x6A740, symSize: 0x8 }
  - { offset: 0x2D1B51, size: 0x8, addend: 0x0, symName: __ZThn24_N6VSTGUI14CSegmentButton14drawFocusOnTopEv, symObjAddr: 0x2EFC, symBinAddr: 0x6A748, symSize: 0x8 }
  - { offset: 0x2D1B95, size: 0x8, addend: 0x0, symName: __ZN6VSTGUI14CSegmentButton12getFocusPathERNS_13CGraphicsPathE, symObjAddr: 0x2F04, symBinAddr: 0x6A750, symSize: 0xB0 }
  - { offset: 0x2D1D00, size: 0x8, addend: 0x0, symName: __ZThn24_N6VSTGUI14CSegmentButton12getFocusPathERNS_13CGraphicsPathE, symObjAddr: 0x2FB4, symBinAddr: 0x6A800, symSize: 0xC0 }
  - { offset: 0x2D1E26, size: 0x8, addend: 0x0, symName: __ZN6VSTGUI14CSegmentButtonD1Ev, symObjAddr: 0x329C, symBinAddr: 0x6A8C0, symSize: 0xC }
  - { offset: 0x2D1E5C, size: 0x8, addend: 0x0, symName: __ZN6VSTGUI14CSegmentButtonD2Ev, symObjAddr: 0x333C, symBinAddr: 0x6A960, symSize: 0xD0 }
  - { offset: 0x2D20F9, size: 0x8, addend: 0x0, symName: __ZN6VSTGUI14CSegmentButtonD0Ev, symObjAddr: 0x32A8, symBinAddr: 0x6A8CC, symSize: 0x1C }
  - { offset: 0x2D214A, size: 0x8, addend: 0x0, symName: __ZNK6VSTGUI14CSegmentButton7newCopyEv, symObjAddr: 0x32C4, symBinAddr: 0x6A8E8, symSize: 0x48 }
  - { offset: 0x2D218B, size: 0x8, addend: 0x0, symName: __ZN6VSTGUI14CSegmentButtonC1ERKS0_, symObjAddr: 0x340C, symBinAddr: 0x6AA30, symSize: 0x120 }
  - { offset: 0x2D2436, size: 0x8, addend: 0x0, symName: __ZThn24_N6VSTGUI14CSegmentButtonD1Ev, symObjAddr: 0x330C, symBinAddr: 0x6A930, symSize: 0x10 }
  - { offset: 0x2D2493, size: 0x8, addend: 0x0, symName: __ZThn24_N6VSTGUI14CSegmentButtonD0Ev, symObjAddr: 0x331C, symBinAddr: 0x6A940, symSize: 0x20 }
  - { offset: 0x2D262C, size: 0x8, addend: 0x0, symName: __ZNSt3__16vectorIN6VSTGUI14CSegmentButton7SegmentENS_9allocatorIS3_EEE16__init_with_sizeB8ne180100IPS3_S8_EEvT_T0_m, symObjAddr: 0x352C, symBinAddr: 0x6AB50, symSize: 0x10C }
  - { offset: 0x2D2C83, size: 0x8, addend: 0x0, symName: __ZNSt3__128__exception_guard_exceptionsINS_6vectorIN6VSTGUI14CSegmentButton7SegmentENS_9allocatorIS4_EEE16__destroy_vectorEED1B8ne180100Ev, symObjAddr: 0x3638, symBinAddr: 0x6AC5C, symSize: 0x84 }
  - { offset: 0x2D506F, size: 0x8, addend: 0x0, symName: __ZN6VSTGUI11CSliderBase20kAlwaysUseZoomFactorE, symObjAddr: 0x64DFE, symBinAddr: 0x1E0491, symSize: 0x0 }
  - { offset: 0x2D7DEE, size: 0x8, addend: 0x0, symName: __ZN6VSTGUI11CSliderBase4Impl10globalModeE, symObjAddr: 0x3A88, symBinAddr: 0x1B98E8, symSize: 0x0 }
  - { offset: 0x2DECC4, size: 0x8, addend: 0x0, symName: __ZN6VSTGUI11CSliderBase11onMouseDownERNS_6CPointERKNS_12CButtonStateE, symObjAddr: 0xBEC, symBinAddr: 0x6C5B0, symSize: 0x304 }
  - { offset: 0x2DF5D9, size: 0x8, addend: 0x0, symName: __ZN6VSTGUI11CSliderBaseC2ERKNS_5CRectEPNS_16IControlListenerEi, symObjAddr: 0x0, symBinAddr: 0x6B9C4, symSize: 0xE4 }
  - { offset: 0x2DF928, size: 0x8, addend: 0x0, symName: __ZNSt3__110unique_ptrIN6VSTGUI11CSliderBase4ImplENS_14default_deleteIS3_EEED1B8ne180100Ev, symObjAddr: 0xE4, symBinAddr: 0x6BAA8, symSize: 0x78 }
  - { offset: 0x2DFC32, size: 0x8, addend: 0x0, symName: __ZN6VSTGUI11CSliderBaseC2ERKS0_, symObjAddr: 0x15C, symBinAddr: 0x6BB20, symSize: 0x110 }
  - { offset: 0x2DFF32, size: 0x8, addend: 0x0, symName: __ZN6VSTGUI11CSliderBaseD2Ev, symObjAddr: 0x26C, symBinAddr: 0x6BC30, symSize: 0xB8 }
  - { offset: 0x2E00D8, size: 0x8, addend: 0x0, symName: __ZN6VSTGUI11CSliderBaseD1Ev, symObjAddr: 0x324, symBinAddr: 0x6BCE8, symSize: 0x4 }
  - { offset: 0x2E0113, size: 0x8, addend: 0x0, symName: __ZThn24_N6VSTGUI11CSliderBaseD1Ev, symObjAddr: 0x328, symBinAddr: 0x6BCEC, symSize: 0x4 }
  - { offset: 0x2E012D, size: 0x8, addend: 0x0, symName: __ZThn24_N6VSTGUI11CSliderBaseD1Ev, symObjAddr: 0x328, symBinAddr: 0x6BCEC, symSize: 0x4 }
  - { offset: 0x2E013E, size: 0x8, addend: 0x0, symName: __ZN6VSTGUI11CSliderBaseD0Ev, symObjAddr: 0x32C, symBinAddr: 0x6BCF0, symSize: 0x4 }
  - { offset: 0x2E0179, size: 0x8, addend: 0x0, symName: __ZThn24_N6VSTGUI11CSliderBaseD0Ev, symObjAddr: 0x330, symBinAddr: 0x6BCF4, symSize: 0x4 }
  - { offset: 0x2E0193, size: 0x8, addend: 0x0, symName: __ZThn24_N6VSTGUI11CSliderBaseD0Ev, symObjAddr: 0x330, symBinAddr: 0x6BCF4, symSize: 0x4 }
  - { offset: 0x2E01EF, size: 0x8, addend: 0x0, symName: __ZN6VSTGUI11CSliderBase21setHandleRangePrivateEd, symObjAddr: 0x334, symBinAddr: 0x6BCF8, symSize: 0x48 }
  - { offset: 0x2E021A, size: 0x8, addend: 0x0, symName: __ZN6VSTGUI11CSliderBase21setHandleRangePrivateEd, symObjAddr: 0x334, symBinAddr: 0x6BCF8, symSize: 0x48 }
  - { offset: 0x2E0261, size: 0x8, addend: 0x0, symName: __ZN6VSTGUI11CSliderBase26updateInternalHandleValuesEv, symObjAddr: 0x37C, symBinAddr: 0x6BD40, symSize: 0x48 }
  - { offset: 0x2E0283, size: 0x8, addend: 0x0, symName: __ZN6VSTGUI11CSliderBase26updateInternalHandleValuesEv, symObjAddr: 0x37C, symBinAddr: 0x6BD40, symSize: 0x48 }
  - { offset: 0x2E029E, size: 0x8, addend: 0x0, symName: __ZN6VSTGUI11CSliderBase26updateInternalHandleValuesEv, symObjAddr: 0x37C, symBinAddr: 0x6BD40, symSize: 0x48 }
  - { offset: 0x2E02BC, size: 0x8, addend: 0x0, symName: __ZN6VSTGUI11CSliderBase22setHandleMinPosPrivateEd, symObjAddr: 0x3C4, symBinAddr: 0x6BD88, symSize: 0x48 }
  - { offset: 0x2E02E7, size: 0x8, addend: 0x0, symName: __ZN6VSTGUI11CSliderBase22setHandleMinPosPrivateEd, symObjAddr: 0x3C4, symBinAddr: 0x6BD88, symSize: 0x48 }
  - { offset: 0x2E032E, size: 0x8, addend: 0x0, symName: __ZNK6VSTGUI11CSliderBase22getHandleMinPosPrivateEv, symObjAddr: 0x40C, symBinAddr: 0x6BDD0, symSize: 0xC }
  - { offset: 0x2E0357, size: 0x8, addend: 0x0, symName: __ZNK6VSTGUI11CSliderBase22getHandleMinPosPrivateEv, symObjAddr: 0x40C, symBinAddr: 0x6BDD0, symSize: 0xC }
  - { offset: 0x2E0374, size: 0x8, addend: 0x0, symName: __ZN6VSTGUI11CSliderBase15setOffsetHandleERKNS_6CPointE, symObjAddr: 0x418, symBinAddr: 0x6BDDC, symSize: 0x54 }
  - { offset: 0x2E039D, size: 0x8, addend: 0x0, symName: __ZN6VSTGUI11CSliderBase15setOffsetHandleERKNS_6CPointE, symObjAddr: 0x418, symBinAddr: 0x6BDDC, symSize: 0x54 }
  - { offset: 0x2E0411, size: 0x8, addend: 0x0, symName: __ZNK6VSTGUI11CSliderBase15getOffsetHandleEv, symObjAddr: 0x46C, symBinAddr: 0x6BE30, symSize: 0xC }
  - { offset: 0x2E043A, size: 0x8, addend: 0x0, symName: __ZNK6VSTGUI11CSliderBase15getOffsetHandleEv, symObjAddr: 0x46C, symBinAddr: 0x6BE30, symSize: 0xC }
  - { offset: 0x2E0457, size: 0x8, addend: 0x0, symName: __ZN6VSTGUI11CSliderBase20setHandleSizePrivateEdd, symObjAddr: 0x478, symBinAddr: 0x6BE3C, symSize: 0x40 }
  - { offset: 0x2E048A, size: 0x8, addend: 0x0, symName: __ZN6VSTGUI11CSliderBase20setHandleSizePrivateEdd, symObjAddr: 0x478, symBinAddr: 0x6BE3C, symSize: 0x40 }
  - { offset: 0x2E04D1, size: 0x8, addend: 0x0, symName: __ZNK6VSTGUI11CSliderBase20getHandleSizePrivateEv, symObjAddr: 0x4B8, symBinAddr: 0x6BE7C, symSize: 0xC }
  - { offset: 0x2E04F3, size: 0x8, addend: 0x0, symName: __ZNK6VSTGUI11CSliderBase20getHandleSizePrivateEv, symObjAddr: 0x4B8, symBinAddr: 0x6BE7C, symSize: 0xC }
  - { offset: 0x2E0574, size: 0x8, addend: 0x0, symName: __ZNK6VSTGUI11CSliderBase21getControlSizePrivateEv, symObjAddr: 0x4C4, symBinAddr: 0x6BE88, symSize: 0x4C }
  - { offset: 0x2E0606, size: 0x8, addend: 0x0, symName: __ZN6VSTGUI11CSliderBase8setStyleEi, symObjAddr: 0x510, symBinAddr: 0x6BED4, symSize: 0x58 }
  - { offset: 0x2E0663, size: 0x8, addend: 0x0, symName: __ZNK6VSTGUI11CSliderBase8getStyleEv, symObjAddr: 0x568, symBinAddr: 0x6BF2C, symSize: 0xC }
  - { offset: 0x2E0687, size: 0x8, addend: 0x0, symName: __ZNK6VSTGUI11CSliderBase8getStyleEv, symObjAddr: 0x568, symBinAddr: 0x6BF2C, symSize: 0xC }
  - { offset: 0x2E06A4, size: 0x8, addend: 0x0, symName: __ZNK6VSTGUI11CSliderBase17isStyleHorizontalEv, symObjAddr: 0x574, symBinAddr: 0x6BF38, symSize: 0x10 }
  - { offset: 0x2E06C8, size: 0x8, addend: 0x0, symName: __ZNK6VSTGUI11CSliderBase17isStyleHorizontalEv, symObjAddr: 0x574, symBinAddr: 0x6BF38, symSize: 0x10 }
  - { offset: 0x2E06E5, size: 0x8, addend: 0x0, symName: __ZNK6VSTGUI11CSliderBase12isStyleRightEv, symObjAddr: 0x584, symBinAddr: 0x6BF48, symSize: 0x10 }
  - { offset: 0x2E0709, size: 0x8, addend: 0x0, symName: __ZNK6VSTGUI11CSliderBase12isStyleRightEv, symObjAddr: 0x584, symBinAddr: 0x6BF48, symSize: 0x10 }
  - { offset: 0x2E0726, size: 0x8, addend: 0x0, symName: __ZNK6VSTGUI11CSliderBase13isStyleBottomEv, symObjAddr: 0x594, symBinAddr: 0x6BF58, symSize: 0x10 }
  - { offset: 0x2E0751, size: 0x8, addend: 0x0, symName: __ZNK6VSTGUI11CSliderBase13isStyleBottomEv, symObjAddr: 0x594, symBinAddr: 0x6BF58, symSize: 0x10 }
  - { offset: 0x2E076E, size: 0x8, addend: 0x0, symName: __ZNK6VSTGUI11CSliderBase14isInverseStyleEv, symObjAddr: 0x5A4, symBinAddr: 0x6BF68, symSize: 0x24 }
  - { offset: 0x2E0792, size: 0x8, addend: 0x0, symName: __ZNK6VSTGUI11CSliderBase14isInverseStyleEv, symObjAddr: 0x5A4, symBinAddr: 0x6BF68, symSize: 0x24 }
  - { offset: 0x2E07AD, size: 0x8, addend: 0x0, symName: __ZNK6VSTGUI11CSliderBase14isInverseStyleEv, symObjAddr: 0x5A4, symBinAddr: 0x6BF68, symSize: 0x24 }
  - { offset: 0x2E07CB, size: 0x8, addend: 0x0, symName: __ZN6VSTGUI11CSliderBase13setZoomFactorEf, symObjAddr: 0x5C8, symBinAddr: 0x6BF8C, symSize: 0xC }
  - { offset: 0x2E0803, size: 0x8, addend: 0x0, symName: __ZN6VSTGUI11CSliderBase13setZoomFactorEf, symObjAddr: 0x5C8, symBinAddr: 0x6BF8C, symSize: 0xC }
  - { offset: 0x2E0820, size: 0x8, addend: 0x0, symName: __ZNK6VSTGUI11CSliderBase13getZoomFactorEv, symObjAddr: 0x5D4, symBinAddr: 0x6BF98, symSize: 0xC }
  - { offset: 0x2E0849, size: 0x8, addend: 0x0, symName: __ZNK6VSTGUI11CSliderBase13getZoomFactorEv, symObjAddr: 0x5D4, symBinAddr: 0x6BF98, symSize: 0xC }
  - { offset: 0x2E0866, size: 0x8, addend: 0x0, symName: __ZN6VSTGUI11CSliderBase13setSliderModeENS_11CSliderModeE, symObjAddr: 0x5E0, symBinAddr: 0x6BFA4, symSize: 0xC }
  - { offset: 0x2E089D, size: 0x8, addend: 0x0, symName: __ZN6VSTGUI11CSliderBase13setSliderModeENS_11CSliderModeE, symObjAddr: 0x5E0, symBinAddr: 0x6BFA4, symSize: 0xC }
  - { offset: 0x2E08BA, size: 0x8, addend: 0x0, symName: __ZNK6VSTGUI11CSliderBase13getSliderModeEv, symObjAddr: 0x5EC, symBinAddr: 0x6BFB0, symSize: 0xC }
  - { offset: 0x2E08E5, size: 0x8, addend: 0x0, symName: __ZNK6VSTGUI11CSliderBase13getSliderModeEv, symObjAddr: 0x5EC, symBinAddr: 0x6BFB0, symSize: 0xC }
  - { offset: 0x2E0902, size: 0x8, addend: 0x0, symName: __ZNK6VSTGUI11CSliderBase22getEffectiveSliderModeEv, symObjAddr: 0x5F8, symBinAddr: 0x6BFBC, symSize: 0x1C }
  - { offset: 0x2E0926, size: 0x8, addend: 0x0, symName: __ZNK6VSTGUI11CSliderBase22getEffectiveSliderModeEv, symObjAddr: 0x5F8, symBinAddr: 0x6BFBC, symSize: 0x1C }
  - { offset: 0x2E0943, size: 0x8, addend: 0x0, symName: __ZN6VSTGUI11CSliderBase13setGlobalModeENS_11CSliderModeE, symObjAddr: 0x614, symBinAddr: 0x6BFD8, symSize: 0x50 }
  - { offset: 0x2E0978, size: 0x8, addend: 0x0, symName: __ZN6VSTGUI11CSliderBase13getGlobalModeEv, symObjAddr: 0x664, symBinAddr: 0x6C028, symSize: 0xC }
  - { offset: 0x2E098E, size: 0x8, addend: 0x0, symName: __ZN6VSTGUI11CSliderBase11setViewSizeERKNS_5CRectEb, symObjAddr: 0x670, symBinAddr: 0x6C034, symSize: 0xE0 }
  - { offset: 0x2E0AE3, size: 0x8, addend: 0x0, symName: __ZNK6VSTGUI11CSliderBase19calculateHandleRectEf, symObjAddr: 0x750, symBinAddr: 0x6C114, symSize: 0xDC }
  - { offset: 0x2E0BA6, size: 0x8, addend: 0x0, symName: __ZNK6VSTGUI11CSliderBase14calculateDeltaERKNS_6CPointEPNS_5CRectE, symObjAddr: 0x82C, symBinAddr: 0x6C1F0, symSize: 0x184 }
  - { offset: 0x2E0D79, size: 0x8, addend: 0x0, symName: __ZN6VSTGUI11CSliderBase9doRampingEv, symObjAddr: 0x9B0, symBinAddr: 0x6C374, symSize: 0x23C }
  - { offset: 0x2E12FE, size: 0x8, addend: 0x0, symName: __ZN6VSTGUI11CSliderBase13onMouseCancelEv, symObjAddr: 0xEF0, symBinAddr: 0x6C8B4, symSize: 0xC8 }
  - { offset: 0x2E1437, size: 0x8, addend: 0x0, symName: __ZN6VSTGUI11CSliderBase9onMouseUpERNS_6CPointERKNS_12CButtonStateE, symObjAddr: 0xFB8, symBinAddr: 0x6C97C, symSize: 0x88 }
  - { offset: 0x2E15BE, size: 0x8, addend: 0x0, symName: __ZN6VSTGUI11CSliderBase12onMouseMovedERNS_6CPointERKNS_12CButtonStateE, symObjAddr: 0x1040, symBinAddr: 0x6CA04, symSize: 0x3DC }
  - { offset: 0x2E1B04, size: 0x8, addend: 0x0, symName: __ZN6VSTGUI11CSliderBase17onMouseWheelEventERNS_15MouseWheelEventE, symObjAddr: 0x141C, symBinAddr: 0x6CDE0, symSize: 0x174 }
  - { offset: 0x2E1CC6, size: 0x8, addend: 0x0, symName: __ZN6VSTGUI11CSliderBase15onKeyboardEventERNS_13KeyboardEventE, symObjAddr: 0x1590, symBinAddr: 0x6CF54, symSize: 0x1E4 }
  - { offset: 0x2E2139, size: 0x8, addend: 0x0, symName: __ZN6VSTGUI7CSliderC2ERKNS_5CRectEPNS_16IControlListenerEiiiPNS_7CBitmapES7_RKNS_6CPointEi, symObjAddr: 0x1774, symBinAddr: 0x6D138, symSize: 0x208 }
  - { offset: 0x2E251A, size: 0x8, addend: 0x0, symName: __ZNSt3__110unique_ptrIN6VSTGUI7CSlider4ImplENS_14default_deleteIS3_EEED1B8ne180100Ev, symObjAddr: 0x197C, symBinAddr: 0x6D340, symSize: 0x4C }
  - { offset: 0x2E26DA, size: 0x8, addend: 0x0, symName: __ZN6VSTGUI7CSlider19setBackgroundOffsetERKNS_6CPointE, symObjAddr: 0x19C8, symBinAddr: 0x6D38C, symSize: 0x10 }
  - { offset: 0x2E2704, size: 0x8, addend: 0x0, symName: __ZN6VSTGUI7CSlider19setBackgroundOffsetERKNS_6CPointE, symObjAddr: 0x19C8, symBinAddr: 0x6D38C, symSize: 0x10 }
  - { offset: 0x2E277B, size: 0x8, addend: 0x0, symName: __ZN6VSTGUI7CSliderC1ERKNS_5CRectEPNS_16IControlListenerEiiiPNS_7CBitmapES7_RKNS_6CPointEi, symObjAddr: 0x19D8, symBinAddr: 0x6D39C, symSize: 0x20C }
  - { offset: 0x2E2BC9, size: 0x8, addend: 0x0, symName: __ZN6VSTGUI7CSliderC2ERKNS_5CRectEPNS_16IControlListenerEiRKNS_6CPointEiPNS_7CBitmapESA_S8_i, symObjAddr: 0x1BE4, symBinAddr: 0x6D5A8, symSize: 0x1DC }
  - { offset: 0x2E2FFE, size: 0x8, addend: 0x0, symName: __ZN6VSTGUI7CSliderC1ERKNS_5CRectEPNS_16IControlListenerEiRKNS_6CPointEiPNS_7CBitmapESA_S8_i, symObjAddr: 0x1DC0, symBinAddr: 0x6D784, symSize: 0x1E0 }
  - { offset: 0x2E351C, size: 0x8, addend: 0x0, symName: __ZN6VSTGUI7CSliderC2ERKS0_, symObjAddr: 0x1FA0, symBinAddr: 0x6D964, symSize: 0x11C }
  - { offset: 0x2E3888, size: 0x8, addend: 0x0, symName: __ZN6VSTGUI7CSliderC1ERKS0_, symObjAddr: 0x20BC, symBinAddr: 0x6DA80, symSize: 0x120 }
  - { offset: 0x2E3C11, size: 0x8, addend: 0x0, symName: __ZN6VSTGUI7CSliderD2Ev, symObjAddr: 0x21DC, symBinAddr: 0x6DBA0, symSize: 0x7C }
  - { offset: 0x2E3D5A, size: 0x8, addend: 0x0, symName: __ZN6VSTGUI7CSliderD1Ev, symObjAddr: 0x2258, symBinAddr: 0x6DC1C, symSize: 0x68 }
  - { offset: 0x2E3EAB, size: 0x8, addend: 0x0, symName: __ZThn24_N6VSTGUI7CSliderD1Ev, symObjAddr: 0x22C0, symBinAddr: 0x6DC84, symSize: 0x68 }
  - { offset: 0x2E3FEA, size: 0x8, addend: 0x0, symName: __ZN6VSTGUI7CSliderD0Ev, symObjAddr: 0x2328, symBinAddr: 0x6DCEC, symSize: 0x6C }
  - { offset: 0x2E4151, size: 0x8, addend: 0x0, symName: __ZThn24_N6VSTGUI7CSliderD0Ev, symObjAddr: 0x2394, symBinAddr: 0x6DD58, symSize: 0x6C }
  - { offset: 0x2E42A6, size: 0x8, addend: 0x0, symName: __ZN6VSTGUI7CSlider9setOffsetERKNS_6CPointE, symObjAddr: 0x2400, symBinAddr: 0x6DDC4, symSize: 0x10 }
  - { offset: 0x2E42E0, size: 0x8, addend: 0x0, symName: __ZN6VSTGUI7CSlider9setOffsetERKNS_6CPointE, symObjAddr: 0x2400, symBinAddr: 0x6DDC4, symSize: 0x10 }
  - { offset: 0x2E4304, size: 0x8, addend: 0x0, symName: __ZN6VSTGUI7CSlider9setOffsetERKNS_6CPointE, symObjAddr: 0x2400, symBinAddr: 0x6DDC4, symSize: 0x10 }
  - { offset: 0x2E4341, size: 0x8, addend: 0x0, symName: __ZNK6VSTGUI7CSlider9getOffsetEv, symObjAddr: 0x2410, symBinAddr: 0x6DDD4, symSize: 0xC }
  - { offset: 0x2E436C, size: 0x8, addend: 0x0, symName: __ZNK6VSTGUI7CSlider9getOffsetEv, symObjAddr: 0x2410, symBinAddr: 0x6DDD4, symSize: 0xC }
  - { offset: 0x2E4389, size: 0x8, addend: 0x0, symName: __ZNK6VSTGUI7CSlider9getOffsetEv, symObjAddr: 0x2410, symBinAddr: 0x6DDD4, symSize: 0xC }
  - { offset: 0x2E43A8, size: 0x8, addend: 0x0, symName: __ZNK6VSTGUI7CSlider19getBackgroundOffsetEv, symObjAddr: 0x241C, symBinAddr: 0x6DDE0, symSize: 0xC }
  - { offset: 0x2E43CB, size: 0x8, addend: 0x0, symName: __ZNK6VSTGUI7CSlider19getBackgroundOffsetEv, symObjAddr: 0x241C, symBinAddr: 0x6DDE0, symSize: 0xC }
  - { offset: 0x2E442D, size: 0x8, addend: 0x0, symName: __ZN6VSTGUI7CSlider9sizeToFitEv, symObjAddr: 0x2428, symBinAddr: 0x6DDEC, symSize: 0xA0 }
  - { offset: 0x2E469F, size: 0x8, addend: 0x0, symName: __ZN6VSTGUI7CSlider4drawEPNS_12CDrawContextE, symObjAddr: 0x24C8, symBinAddr: 0x6DE8C, symSize: 0x58C }
  - { offset: 0x2E4FD2, size: 0x8, addend: 0x0, symName: __ZNK6VSTGUI7CSlider13getFrameWidthEv, symObjAddr: 0x2A54, symBinAddr: 0x6E418, symSize: 0xC }
  - { offset: 0x2E4FF5, size: 0x8, addend: 0x0, symName: __ZNK6VSTGUI7CSlider13getFrameWidthEv, symObjAddr: 0x2A54, symBinAddr: 0x6E418, symSize: 0xC }
  - { offset: 0x2E5066, size: 0x8, addend: 0x0, symName: __ZN6VSTGUI7CSlider9setHandleEPNS_7CBitmapE, symObjAddr: 0x2A60, symBinAddr: 0x6E424, symSize: 0x138 }
  - { offset: 0x2E5288, size: 0x8, addend: 0x0, symName: __ZNK6VSTGUI7CSlider9getHandleEv, symObjAddr: 0x2B98, symBinAddr: 0x6E55C, symSize: 0xC }
  - { offset: 0x2E52B5, size: 0x8, addend: 0x0, symName: __ZNK6VSTGUI7CSlider9getHandleEv, symObjAddr: 0x2B98, symBinAddr: 0x6E55C, symSize: 0xC }
  - { offset: 0x2E52F3, size: 0x8, addend: 0x0, symName: __ZN6VSTGUI7CSlider12setDrawStyleEi, symObjAddr: 0x2BA4, symBinAddr: 0x6E568, symSize: 0x24 }
  - { offset: 0x2E532F, size: 0x8, addend: 0x0, symName: __ZN6VSTGUI7CSlider12setDrawStyleEi, symObjAddr: 0x2BA4, symBinAddr: 0x6E568, symSize: 0x24 }
  - { offset: 0x2E5359, size: 0x8, addend: 0x0, symName: __ZN6VSTGUI7CSlider13setFrameWidthEd, symObjAddr: 0x2BC8, symBinAddr: 0x6E58C, symSize: 0x24 }
  - { offset: 0x2E5394, size: 0x8, addend: 0x0, symName: __ZN6VSTGUI7CSlider13setFrameWidthEd, symObjAddr: 0x2BC8, symBinAddr: 0x6E58C, symSize: 0x24 }
  - { offset: 0x2E5405, size: 0x8, addend: 0x0, symName: __ZN6VSTGUI7CSlider13setFrameColorENS_6CColorE, symObjAddr: 0x2BEC, symBinAddr: 0x6E5B0, symSize: 0x64 }
  - { offset: 0x2E5441, size: 0x8, addend: 0x0, symName: __ZN6VSTGUI7CSlider13setFrameColorENS_6CColorE, symObjAddr: 0x2BEC, symBinAddr: 0x6E5B0, symSize: 0x64 }
  - { offset: 0x2E54A8, size: 0x8, addend: 0x0, symName: __ZN6VSTGUI7CSlider12setBackColorENS_6CColorE, symObjAddr: 0x2C50, symBinAddr: 0x6E614, symSize: 0x64 }
  - { offset: 0x2E54E4, size: 0x8, addend: 0x0, symName: __ZN6VSTGUI7CSlider12setBackColorENS_6CColorE, symObjAddr: 0x2C50, symBinAddr: 0x6E614, symSize: 0x64 }
  - { offset: 0x2E554B, size: 0x8, addend: 0x0, symName: __ZN6VSTGUI7CSlider13setValueColorENS_6CColorE, symObjAddr: 0x2CB4, symBinAddr: 0x6E678, symSize: 0x64 }
  - { offset: 0x2E5587, size: 0x8, addend: 0x0, symName: __ZN6VSTGUI7CSlider13setValueColorENS_6CColorE, symObjAddr: 0x2CB4, symBinAddr: 0x6E678, symSize: 0x64 }
  - { offset: 0x2E55EE, size: 0x8, addend: 0x0, symName: __ZNK6VSTGUI7CSlider12getDrawStyleEv, symObjAddr: 0x2D18, symBinAddr: 0x6E6DC, symSize: 0xC }
  - { offset: 0x2E561B, size: 0x8, addend: 0x0, symName: __ZNK6VSTGUI7CSlider12getDrawStyleEv, symObjAddr: 0x2D18, symBinAddr: 0x6E6DC, symSize: 0xC }
  - { offset: 0x2E5639, size: 0x8, addend: 0x0, symName: __ZNK6VSTGUI7CSlider13getFrameColorEv, symObjAddr: 0x2D24, symBinAddr: 0x6E6E8, symSize: 0x10 }
  - { offset: 0x2E5664, size: 0x8, addend: 0x0, symName: __ZNK6VSTGUI7CSlider13getFrameColorEv, symObjAddr: 0x2D24, symBinAddr: 0x6E6E8, symSize: 0x10 }
  - { offset: 0x2E56CE, size: 0x8, addend: 0x0, symName: __ZNK6VSTGUI7CSlider12getBackColorEv, symObjAddr: 0x2D34, symBinAddr: 0x6E6F8, symSize: 0x10 }
  - { offset: 0x2E56F9, size: 0x8, addend: 0x0, symName: __ZNK6VSTGUI7CSlider12getBackColorEv, symObjAddr: 0x2D34, symBinAddr: 0x6E6F8, symSize: 0x10 }
  - { offset: 0x2E5763, size: 0x8, addend: 0x0, symName: __ZNK6VSTGUI7CSlider13getValueColorEv, symObjAddr: 0x2D44, symBinAddr: 0x6E708, symSize: 0x10 }
  - { offset: 0x2E578E, size: 0x8, addend: 0x0, symName: __ZNK6VSTGUI7CSlider13getValueColorEv, symObjAddr: 0x2D44, symBinAddr: 0x6E708, symSize: 0x10 }
  - { offset: 0x2E5808, size: 0x8, addend: 0x0, symName: __ZN6VSTGUI15CVerticalSliderC2ERKNS_5CRectEPNS_16IControlListenerEiiiPNS_7CBitmapES7_RKNS_6CPointEi, symObjAddr: 0x2D54, symBinAddr: 0x6E718, symSize: 0x60 }
  - { offset: 0x2E5917, size: 0x8, addend: 0x0, symName: __ZN6VSTGUI15CVerticalSliderC1ERKNS_5CRectEPNS_16IControlListenerEiiiPNS_7CBitmapES7_RKNS_6CPointEi, symObjAddr: 0x2DB4, symBinAddr: 0x6E778, symSize: 0x74 }
  - { offset: 0x2E5A37, size: 0x8, addend: 0x0, symName: __ZN6VSTGUI15CVerticalSliderC2ERKNS_5CRectEPNS_16IControlListenerEiRKNS_6CPointEiPNS_7CBitmapESA_S8_i, symObjAddr: 0x2E28, symBinAddr: 0x6E7EC, symSize: 0x60 }
  - { offset: 0x2E5B46, size: 0x8, addend: 0x0, symName: __ZN6VSTGUI15CVerticalSliderC1ERKNS_5CRectEPNS_16IControlListenerEiRKNS_6CPointEiPNS_7CBitmapESA_S8_i, symObjAddr: 0x2E88, symBinAddr: 0x6E84C, symSize: 0x74 }
  - { offset: 0x2E5C76, size: 0x8, addend: 0x0, symName: __ZN6VSTGUI17CHorizontalSliderC2ERKNS_5CRectEPNS_16IControlListenerEiiiPNS_7CBitmapES7_RKNS_6CPointEi, symObjAddr: 0x2EFC, symBinAddr: 0x6E8C0, symSize: 0x60 }
  - { offset: 0x2E5D85, size: 0x8, addend: 0x0, symName: __ZN6VSTGUI17CHorizontalSliderC1ERKNS_5CRectEPNS_16IControlListenerEiiiPNS_7CBitmapES7_RKNS_6CPointEi, symObjAddr: 0x2F5C, symBinAddr: 0x6E920, symSize: 0x74 }
  - { offset: 0x2E5EA5, size: 0x8, addend: 0x0, symName: __ZN6VSTGUI17CHorizontalSliderC2ERKNS_5CRectEPNS_16IControlListenerEiRKNS_6CPointEiPNS_7CBitmapESA_S8_i, symObjAddr: 0x2FD0, symBinAddr: 0x6E994, symSize: 0x60 }
  - { offset: 0x2E5FB4, size: 0x8, addend: 0x0, symName: __ZN6VSTGUI17CHorizontalSliderC1ERKNS_5CRectEPNS_16IControlListenerEiRKNS_6CPointEiPNS_7CBitmapESA_S8_i, symObjAddr: 0x3030, symBinAddr: 0x6E9F4, symSize: 0x74 }
  - { offset: 0x2E60D4, size: 0x8, addend: 0x0, symName: __ZNK6VSTGUI7CSlider7newCopyEv, symObjAddr: 0x32CC, symBinAddr: 0x6EA68, symSize: 0x48 }
  - { offset: 0x2E613A, size: 0x8, addend: 0x0, symName: __ZN6VSTGUI15CVerticalSliderD1Ev, symObjAddr: 0x3314, symBinAddr: 0x6EAB0, symSize: 0x6C }
  - { offset: 0x2E62A6, size: 0x8, addend: 0x0, symName: __ZN6VSTGUI15CVerticalSliderD0Ev, symObjAddr: 0x3380, symBinAddr: 0x6EB1C, symSize: 0x70 }
  - { offset: 0x2E6405, size: 0x8, addend: 0x0, symName: __ZThn24_N6VSTGUI15CVerticalSliderD1Ev, symObjAddr: 0x33F0, symBinAddr: 0x6EB8C, symSize: 0x6C }
  - { offset: 0x2E657B, size: 0x8, addend: 0x0, symName: __ZThn24_N6VSTGUI15CVerticalSliderD0Ev, symObjAddr: 0x345C, symBinAddr: 0x6EBF8, symSize: 0x70 }
  - { offset: 0x2E670F, size: 0x8, addend: 0x0, symName: __ZN6VSTGUI17CHorizontalSliderD1Ev, symObjAddr: 0x34CC, symBinAddr: 0x6EC68, symSize: 0x6C }
  - { offset: 0x2E687B, size: 0x8, addend: 0x0, symName: __ZN6VSTGUI17CHorizontalSliderD0Ev, symObjAddr: 0x3538, symBinAddr: 0x6ECD4, symSize: 0x70 }
  - { offset: 0x2E69DA, size: 0x8, addend: 0x0, symName: __ZThn24_N6VSTGUI17CHorizontalSliderD1Ev, symObjAddr: 0x35A8, symBinAddr: 0x6ED44, symSize: 0x6C }
  - { offset: 0x2E6B50, size: 0x8, addend: 0x0, symName: __ZThn24_N6VSTGUI17CHorizontalSliderD0Ev, symObjAddr: 0x3614, symBinAddr: 0x6EDB0, symSize: 0x70 }
  - { offset: 0x2E6CB9, size: 0x8, addend: 0x0, symName: '__ZNSt3__110__function6__funcIZN6VSTGUI11CSliderBase11onMouseDownERNS2_6CPointERKNS2_12CButtonStateEE3$_0NS_9allocatorIS9_EEFvPNS2_12CVSTGUITimerEEED1Ev', symObjAddr: 0x3694, symBinAddr: 0x6EE20, symSize: 0x4 }
  - { offset: 0x2E6CE4, size: 0x8, addend: 0x0, symName: '__ZNSt3__110__function6__funcIZN6VSTGUI11CSliderBase11onMouseDownERNS2_6CPointERKNS2_12CButtonStateEE3$_0NS_9allocatorIS9_EEFvPNS2_12CVSTGUITimerEEED0Ev', symObjAddr: 0x3698, symBinAddr: 0x6EE24, symSize: 0x4 }
  - { offset: 0x2E6DA2, size: 0x8, addend: 0x0, symName: '__ZNKSt3__110__function6__funcIZN6VSTGUI11CSliderBase11onMouseDownERNS2_6CPointERKNS2_12CButtonStateEE3$_0NS_9allocatorIS9_EEFvPNS2_12CVSTGUITimerEEE7__cloneEv', symObjAddr: 0x369C, symBinAddr: 0x6EE28, symSize: 0x34 }
  - { offset: 0x2E6EF4, size: 0x8, addend: 0x0, symName: '__ZNKSt3__110__function6__funcIZN6VSTGUI11CSliderBase11onMouseDownERNS2_6CPointERKNS2_12CButtonStateEE3$_0NS_9allocatorIS9_EEFvPNS2_12CVSTGUITimerEEE7__cloneEPNS0_6__baseISE_EE', symObjAddr: 0x36D0, symBinAddr: 0x6EE5C, symSize: 0x14 }
  - { offset: 0x2E6F66, size: 0x8, addend: 0x0, symName: '__ZNSt3__110__function6__funcIZN6VSTGUI11CSliderBase11onMouseDownERNS2_6CPointERKNS2_12CButtonStateEE3$_0NS_9allocatorIS9_EEFvPNS2_12CVSTGUITimerEEE7destroyEv', symObjAddr: 0x36E4, symBinAddr: 0x6EE70, symSize: 0x4 }
  - { offset: 0x2E6FB7, size: 0x8, addend: 0x0, symName: '__ZNSt3__110__function6__funcIZN6VSTGUI11CSliderBase11onMouseDownERNS2_6CPointERKNS2_12CButtonStateEE3$_0NS_9allocatorIS9_EEFvPNS2_12CVSTGUITimerEEE18destroy_deallocateEv', symObjAddr: 0x36E8, symBinAddr: 0x6EE74, symSize: 0x4 }
  - { offset: 0x2E6FEE, size: 0x8, addend: 0x0, symName: '__ZNSt3__110__function6__funcIZN6VSTGUI11CSliderBase11onMouseDownERNS2_6CPointERKNS2_12CButtonStateEE3$_0NS_9allocatorIS9_EEFvPNS2_12CVSTGUITimerEEE18destroy_deallocateEv', symObjAddr: 0x36E8, symBinAddr: 0x6EE74, symSize: 0x4 }
  - { offset: 0x2E7010, size: 0x8, addend: 0x0, symName: '__ZNSt3__110__function6__funcIZN6VSTGUI11CSliderBase11onMouseDownERNS2_6CPointERKNS2_12CButtonStateEE3$_0NS_9allocatorIS9_EEFvPNS2_12CVSTGUITimerEEE18destroy_deallocateEv', symObjAddr: 0x36E8, symBinAddr: 0x6EE74, symSize: 0x4 }
  - { offset: 0x2E703C, size: 0x8, addend: 0x0, symName: '__ZNSt3__110__function6__funcIZN6VSTGUI11CSliderBase11onMouseDownERNS2_6CPointERKNS2_12CButtonStateEE3$_0NS_9allocatorIS9_EEFvPNS2_12CVSTGUITimerEEE18destroy_deallocateEv', symObjAddr: 0x36E8, symBinAddr: 0x6EE74, symSize: 0x4 }
  - { offset: 0x2E7063, size: 0x8, addend: 0x0, symName: '__ZNSt3__110__function6__funcIZN6VSTGUI11CSliderBase11onMouseDownERNS2_6CPointERKNS2_12CButtonStateEE3$_0NS_9allocatorIS9_EEFvPNS2_12CVSTGUITimerEEE18destroy_deallocateEv', symObjAddr: 0x36E8, symBinAddr: 0x6EE74, symSize: 0x4 }
  - { offset: 0x2E710B, size: 0x8, addend: 0x0, symName: '__ZNSt3__110__function6__funcIZN6VSTGUI11CSliderBase11onMouseDownERNS2_6CPointERKNS2_12CButtonStateEE3$_0NS_9allocatorIS9_EEFvPNS2_12CVSTGUITimerEEEclEOSD_', symObjAddr: 0x36EC, symBinAddr: 0x6EE78, symSize: 0x8 }
  - { offset: 0x2E7201, size: 0x8, addend: 0x0, symName: '__ZNKSt3__110__function6__funcIZN6VSTGUI11CSliderBase11onMouseDownERNS2_6CPointERKNS2_12CButtonStateEE3$_0NS_9allocatorIS9_EEFvPNS2_12CVSTGUITimerEEE6targetERKSt9type_info', symObjAddr: 0x36F4, symBinAddr: 0x6EE80, symSize: 0x6C }
  - { offset: 0x2E72B5, size: 0x8, addend: 0x0, symName: '__ZNKSt3__110__function6__funcIZN6VSTGUI11CSliderBase11onMouseDownERNS2_6CPointERKNS2_12CButtonStateEE3$_0NS_9allocatorIS9_EEFvPNS2_12CVSTGUITimerEEE11target_typeEv', symObjAddr: 0x3760, symBinAddr: 0x6EEEC, symSize: 0xC }
  - { offset: 0x2F2DC1, size: 0x8, addend: 0x0, symName: __ZN6VSTGUI22CAnimationSplashScreen15createAnimationEjjPNS_5CViewEb, symObjAddr: 0xF18, symBinAddr: 0x6FE00, symSize: 0x248 }
  - { offset: 0x2F34B7, size: 0x8, addend: 0x0, symName: __ZN6VSTGUI13CSplashScreenC2ERKNS_5CRectEPNS_16IControlListenerEiPNS_7CBitmapES3_RKNS_6CPointE, symObjAddr: 0x0, symBinAddr: 0x6EEF8, symSize: 0x160 }
  - { offset: 0x2F3678, size: 0x8, addend: 0x0, symName: __ZN6VSTGUI13CSplashScreenC1ERKNS_5CRectEPNS_16IControlListenerEiPNS_7CBitmapES3_RKNS_6CPointE, symObjAddr: 0x160, symBinAddr: 0x6F058, symSize: 0x160 }
  - { offset: 0x2F3832, size: 0x8, addend: 0x0, symName: __ZN6VSTGUI13CSplashScreenC2ERKNS_5CRectEPNS_16IControlListenerEiPNS_5CViewE, symObjAddr: 0x2C0, symBinAddr: 0x6F1B8, symSize: 0x7C }
  - { offset: 0x2F3983, size: 0x8, addend: 0x0, symName: __ZN6VSTGUI13CSplashScreenC1ERKNS_5CRectEPNS_16IControlListenerEiPNS_5CViewE, symObjAddr: 0x33C, symBinAddr: 0x6F234, symSize: 0x7C }
  - { offset: 0x2F3AC4, size: 0x8, addend: 0x0, symName: __ZN6VSTGUI13CSplashScreenC2ERKS0_, symObjAddr: 0x3B8, symBinAddr: 0x6F2B0, symSize: 0xC0 }
  - { offset: 0x2F3BB4, size: 0x8, addend: 0x0, symName: __ZN6VSTGUI13CSplashScreenC1ERKS0_, symObjAddr: 0x478, symBinAddr: 0x6F370, symSize: 0xB0 }
  - { offset: 0x2F3C82, size: 0x8, addend: 0x0, symName: __ZN6VSTGUI13CSplashScreenD2Ev, symObjAddr: 0x528, symBinAddr: 0x6F420, symSize: 0x68 }
  - { offset: 0x2F3CE8, size: 0x8, addend: 0x0, symName: __ZN6VSTGUI13CSplashScreenD1Ev, symObjAddr: 0x5A0, symBinAddr: 0x6F488, symSize: 0x5C }
  - { offset: 0x2F3D4F, size: 0x8, addend: 0x0, symName: __ZThn24_N6VSTGUI13CSplashScreenD1Ev, symObjAddr: 0x5FC, symBinAddr: 0x6F4E4, symSize: 0x5C }
  - { offset: 0x2F3DAD, size: 0x8, addend: 0x0, symName: __ZThn56_N6VSTGUI13CSplashScreenD1Ev, symObjAddr: 0x658, symBinAddr: 0x6F540, symSize: 0x5C }
  - { offset: 0x2F3E0B, size: 0x8, addend: 0x0, symName: __ZN6VSTGUI13CSplashScreenD0Ev, symObjAddr: 0x6B4, symBinAddr: 0x6F59C, symSize: 0x60 }
  - { offset: 0x2F3E82, size: 0x8, addend: 0x0, symName: __ZThn24_N6VSTGUI13CSplashScreenD0Ev, symObjAddr: 0x714, symBinAddr: 0x6F5FC, symSize: 0x60 }
  - { offset: 0x2F3EF0, size: 0x8, addend: 0x0, symName: __ZThn56_N6VSTGUI13CSplashScreenD0Ev, symObjAddr: 0x774, symBinAddr: 0x6F65C, symSize: 0x60 }
  - { offset: 0x2F3F5E, size: 0x8, addend: 0x0, symName: __ZN6VSTGUI13CSplashScreen4drawEPNS_12CDrawContextE, symObjAddr: 0x7D4, symBinAddr: 0x6F6BC, symSize: 0x10 }
  - { offset: 0x2F3FC4, size: 0x8, addend: 0x0, symName: __ZN6VSTGUI13CSplashScreen7hitTestERKNS_6CPointERKNS_5EventE, symObjAddr: 0x7E4, symBinAddr: 0x6F6CC, symSize: 0x64 }
  - { offset: 0x2F40CE, size: 0x8, addend: 0x0, symName: __ZN6VSTGUI13CSplashScreen11onMouseDownERNS_6CPointERKNS_12CButtonStateE, symObjAddr: 0x848, symBinAddr: 0x6F730, symSize: 0xFC }
  - { offset: 0x2F41AD, size: 0x8, addend: 0x0, symName: __ZN6VSTGUI13CSplashScreen12valueChangedEPNS_8CControlE, symObjAddr: 0x944, symBinAddr: 0x6F82C, symSize: 0x44 }
  - { offset: 0x2F4206, size: 0x8, addend: 0x0, symName: __ZThn56_N6VSTGUI13CSplashScreen12valueChangedEPNS_8CControlE, symObjAddr: 0x988, symBinAddr: 0x6F870, symSize: 0x48 }
  - { offset: 0x2F424F, size: 0x8, addend: 0x0, symName: __ZN6VSTGUI13CSplashScreen8unSplashEv, symObjAddr: 0x9D0, symBinAddr: 0x6F8B8, symSize: 0x6C }
  - { offset: 0x2F43E9, size: 0x8, addend: 0x0, symName: __ZN6VSTGUI22CAnimationSplashScreenC2ERKNS_5CRectEiPNS_7CBitmapES5_, symObjAddr: 0xA3C, symBinAddr: 0x6F924, symSize: 0xB4 }
  - { offset: 0x2F457B, size: 0x8, addend: 0x0, symName: __ZN6VSTGUI22CAnimationSplashScreenC1ERKNS_5CRectEiPNS_7CBitmapES5_, symObjAddr: 0xAF0, symBinAddr: 0x6F9D8, symSize: 0xB4 }
  - { offset: 0x2F4719, size: 0x8, addend: 0x0, symName: __ZN6VSTGUI22CAnimationSplashScreen15setSplashBitmapEPNS_7CBitmapE, symObjAddr: 0xBA4, symBinAddr: 0x6FA8C, symSize: 0x18 }
  - { offset: 0x2F475C, size: 0x8, addend: 0x0, symName: __ZNK6VSTGUI22CAnimationSplashScreen15getSplashBitmapEv, symObjAddr: 0xBBC, symBinAddr: 0x6FAA4, symSize: 0x10 }
  - { offset: 0x2F4785, size: 0x8, addend: 0x0, symName: __ZN6VSTGUI22CAnimationSplashScreen13setSplashRectERKNS_5CRectE, symObjAddr: 0xBCC, symBinAddr: 0x6FAB4, symSize: 0x54 }
  - { offset: 0x2F47DC, size: 0x8, addend: 0x0, symName: __ZNK6VSTGUI22CAnimationSplashScreen13getSplashRectEv, symObjAddr: 0xC20, symBinAddr: 0x6FB08, symSize: 0x10 }
  - { offset: 0x2F4805, size: 0x8, addend: 0x0, symName: __ZN6VSTGUI22CAnimationSplashScreen11onMouseDownERNS_6CPointERKNS_12CButtonStateE, symObjAddr: 0xC30, symBinAddr: 0x6FB18, symSize: 0x70 }
  - { offset: 0x2F48A0, size: 0x8, addend: 0x0, symName: __ZN6VSTGUI22CAnimationSplashScreen8unSplashEv, symObjAddr: 0xCA0, symBinAddr: 0x6FB88, symSize: 0xB8 }
  - { offset: 0x2F497D, size: 0x8, addend: 0x0, symName: __ZN6VSTGUI22CAnimationSplashScreen4drawEPNS_12CDrawContextE, symObjAddr: 0xD58, symBinAddr: 0x6FC40, symSize: 0x30 }
  - { offset: 0x2F4ABB, size: 0x8, addend: 0x0, symName: __ZN6VSTGUI22CAnimationSplashScreen9sizeToFitEv, symObjAddr: 0xD88, symBinAddr: 0x6FC70, symSize: 0x190 }
  - { offset: 0x2F4FB3, size: 0x8, addend: 0x0, symName: __ZNK6VSTGUI13CSplashScreen7newCopyEv, symObjAddr: 0x1388, symBinAddr: 0x70048, symSize: 0xD0 }
  - { offset: 0x2F509D, size: 0x8, addend: 0x0, symName: __ZN6VSTGUI13CSplashScreen14setDisplayAreaERKNS_5CRectE, symObjAddr: 0x1458, symBinAddr: 0x70118, symSize: 0xC }
  - { offset: 0x2F50D0, size: 0x8, addend: 0x0, symName: __ZNK6VSTGUI13CSplashScreen14getDisplayAreaERNS_5CRectE, symObjAddr: 0x1464, symBinAddr: 0x70124, symSize: 0x10 }
  - { offset: 0x2F5129, size: 0x8, addend: 0x0, symName: __ZN6VSTGUI22CAnimationSplashScreenD1Ev, symObjAddr: 0x148C, symBinAddr: 0x70134, symSize: 0x60 }
  - { offset: 0x2F51AC, size: 0x8, addend: 0x0, symName: __ZN6VSTGUI22CAnimationSplashScreenD0Ev, symObjAddr: 0x14EC, symBinAddr: 0x70194, symSize: 0x64 }
  - { offset: 0x2F521E, size: 0x8, addend: 0x0, symName: __ZN6VSTGUI22CAnimationSplashScreen17setAnimationIndexEj, symObjAddr: 0x1550, symBinAddr: 0x701F8, symSize: 0x8 }
  - { offset: 0x2F5251, size: 0x8, addend: 0x0, symName: __ZN6VSTGUI22CAnimationSplashScreen16setAnimationTimeEj, symObjAddr: 0x1558, symBinAddr: 0x70200, symSize: 0x8 }
  - { offset: 0x2F5284, size: 0x8, addend: 0x0, symName: __ZThn24_N6VSTGUI22CAnimationSplashScreenD1Ev, symObjAddr: 0x1560, symBinAddr: 0x70208, symSize: 0x60 }
  - { offset: 0x2F531A, size: 0x8, addend: 0x0, symName: __ZThn24_N6VSTGUI22CAnimationSplashScreenD0Ev, symObjAddr: 0x15C0, symBinAddr: 0x70268, symSize: 0x64 }
  - { offset: 0x2F539F, size: 0x8, addend: 0x0, symName: __ZThn56_N6VSTGUI22CAnimationSplashScreenD1Ev, symObjAddr: 0x1624, symBinAddr: 0x702CC, symSize: 0x60 }
  - { offset: 0x2F541B, size: 0x8, addend: 0x0, symName: __ZThn56_N6VSTGUI22CAnimationSplashScreenD0Ev, symObjAddr: 0x1684, symBinAddr: 0x7032C, symSize: 0x64 }
  - { offset: 0x2F54A0, size: 0x8, addend: 0x0, symName: __ZN6VSTGUI16IControlListenerD1Ev, symObjAddr: 0x16E8, symBinAddr: 0x15D8F8, symSize: 0x4 }
  - { offset: 0x2F54C9, size: 0x8, addend: 0x0, symName: __ZN6VSTGUI16IControlListenerD0Ev, symObjAddr: 0x16EC, symBinAddr: 0x15D8FC, symSize: 0x4 }
  - { offset: 0x2F5518, size: 0x8, addend: 0x0, symName: __ZN6VSTGUI24CDefaultSplashScreenViewD1Ev, symObjAddr: 0x16F0, symBinAddr: 0x70390, symSize: 0xC }
  - { offset: 0x2F553A, size: 0x8, addend: 0x0, symName: __ZN6VSTGUI24CDefaultSplashScreenViewD1Ev, symObjAddr: 0x16F0, symBinAddr: 0x70390, symSize: 0xC }
  - { offset: 0x2F5570, size: 0x8, addend: 0x0, symName: __ZN6VSTGUI24CDefaultSplashScreenViewD0Ev, symObjAddr: 0x16FC, symBinAddr: 0x7039C, symSize: 0x1C }
  - { offset: 0x2F561B, size: 0x8, addend: 0x0, symName: __ZNK6VSTGUI24CDefaultSplashScreenView7newCopyEv, symObjAddr: 0x1718, symBinAddr: 0x703B8, symSize: 0x78 }
  - { offset: 0x2F5681, size: 0x8, addend: 0x0, symName: __ZN6VSTGUI24CDefaultSplashScreenView4drawEPNS_12CDrawContextE, symObjAddr: 0x1790, symBinAddr: 0x70430, symSize: 0x74 }
  - { offset: 0x2F571A, size: 0x8, addend: 0x0, symName: __ZN6VSTGUI24CDefaultSplashScreenView11onMouseDownERNS_6CPointERKNS_12CButtonStateE, symObjAddr: 0x1804, symBinAddr: 0x704A4, symSize: 0x40 }
  - { offset: 0x2F57A4, size: 0x8, addend: 0x0, symName: __ZThn24_N6VSTGUI24CDefaultSplashScreenViewD1Ev, symObjAddr: 0x1844, symBinAddr: 0x704E4, symSize: 0x10 }
  - { offset: 0x2F580F, size: 0x8, addend: 0x0, symName: __ZThn24_N6VSTGUI24CDefaultSplashScreenViewD0Ev, symObjAddr: 0x1854, symBinAddr: 0x704F4, symSize: 0x20 }
  - { offset: 0x2F587A, size: 0x8, addend: 0x0, symName: '__ZNSt3__110__function6__funcIZN6VSTGUI22CAnimationSplashScreen15createAnimationEjjPNS2_5CViewEbE3$_0NS_9allocatorIS6_EEFvS5_PKcPNS2_9Animation16IAnimationTargetEEED1Ev', symObjAddr: 0x1874, symBinAddr: 0x70514, symSize: 0x4 }
  - { offset: 0x2F58A5, size: 0x8, addend: 0x0, symName: '__ZNSt3__110__function6__funcIZN6VSTGUI22CAnimationSplashScreen15createAnimationEjjPNS2_5CViewEbE3$_0NS_9allocatorIS6_EEFvS5_PKcPNS2_9Animation16IAnimationTargetEEED0Ev', symObjAddr: 0x1878, symBinAddr: 0x70518, symSize: 0x4 }
  - { offset: 0x2F5963, size: 0x8, addend: 0x0, symName: '__ZNKSt3__110__function6__funcIZN6VSTGUI22CAnimationSplashScreen15createAnimationEjjPNS2_5CViewEbE3$_0NS_9allocatorIS6_EEFvS5_PKcPNS2_9Animation16IAnimationTargetEEE7__cloneEv', symObjAddr: 0x187C, symBinAddr: 0x7051C, symSize: 0x34 }
  - { offset: 0x2F5AB5, size: 0x8, addend: 0x0, symName: '__ZNKSt3__110__function6__funcIZN6VSTGUI22CAnimationSplashScreen15createAnimationEjjPNS2_5CViewEbE3$_0NS_9allocatorIS6_EEFvS5_PKcPNS2_9Animation16IAnimationTargetEEE7__cloneEPNS0_6__baseISE_EE', symObjAddr: 0x18B0, symBinAddr: 0x70550, symSize: 0x14 }
  - { offset: 0x2F5B27, size: 0x8, addend: 0x0, symName: '__ZNSt3__110__function6__funcIZN6VSTGUI22CAnimationSplashScreen15createAnimationEjjPNS2_5CViewEbE3$_0NS_9allocatorIS6_EEFvS5_PKcPNS2_9Animation16IAnimationTargetEEE7destroyEv', symObjAddr: 0x18C4, symBinAddr: 0x70564, symSize: 0x4 }
  - { offset: 0x2F5B78, size: 0x8, addend: 0x0, symName: '__ZNSt3__110__function6__funcIZN6VSTGUI22CAnimationSplashScreen15createAnimationEjjPNS2_5CViewEbE3$_0NS_9allocatorIS6_EEFvS5_PKcPNS2_9Animation16IAnimationTargetEEE18destroy_deallocateEv', symObjAddr: 0x18C8, symBinAddr: 0x70568, symSize: 0x4 }
  - { offset: 0x2F5BAF, size: 0x8, addend: 0x0, symName: '__ZNSt3__110__function6__funcIZN6VSTGUI22CAnimationSplashScreen15createAnimationEjjPNS2_5CViewEbE3$_0NS_9allocatorIS6_EEFvS5_PKcPNS2_9Animation16IAnimationTargetEEE18destroy_deallocateEv', symObjAddr: 0x18C8, symBinAddr: 0x70568, symSize: 0x4 }
  - { offset: 0x2F5BD1, size: 0x8, addend: 0x0, symName: '__ZNSt3__110__function6__funcIZN6VSTGUI22CAnimationSplashScreen15createAnimationEjjPNS2_5CViewEbE3$_0NS_9allocatorIS6_EEFvS5_PKcPNS2_9Animation16IAnimationTargetEEE18destroy_deallocateEv', symObjAddr: 0x18C8, symBinAddr: 0x70568, symSize: 0x4 }
  - { offset: 0x2F5BFD, size: 0x8, addend: 0x0, symName: '__ZNSt3__110__function6__funcIZN6VSTGUI22CAnimationSplashScreen15createAnimationEjjPNS2_5CViewEbE3$_0NS_9allocatorIS6_EEFvS5_PKcPNS2_9Animation16IAnimationTargetEEE18destroy_deallocateEv', symObjAddr: 0x18C8, symBinAddr: 0x70568, symSize: 0x4 }
  - { offset: 0x2F5C24, size: 0x8, addend: 0x0, symName: '__ZNSt3__110__function6__funcIZN6VSTGUI22CAnimationSplashScreen15createAnimationEjjPNS2_5CViewEbE3$_0NS_9allocatorIS6_EEFvS5_PKcPNS2_9Animation16IAnimationTargetEEE18destroy_deallocateEv', symObjAddr: 0x18C8, symBinAddr: 0x70568, symSize: 0x4 }
  - { offset: 0x2F5D2E, size: 0x8, addend: 0x0, symName: '__ZNSt3__110__function6__funcIZN6VSTGUI22CAnimationSplashScreen15createAnimationEjjPNS2_5CViewEbE3$_0NS_9allocatorIS6_EEFvS5_PKcPNS2_9Animation16IAnimationTargetEEEclEOS5_OSA_OSD_', symObjAddr: 0x18CC, symBinAddr: 0x7056C, symSize: 0x78 }
  - { offset: 0x2F5EC9, size: 0x8, addend: 0x0, symName: '__ZNKSt3__110__function6__funcIZN6VSTGUI22CAnimationSplashScreen15createAnimationEjjPNS2_5CViewEbE3$_0NS_9allocatorIS6_EEFvS5_PKcPNS2_9Animation16IAnimationTargetEEE6targetERKSt9type_info', symObjAddr: 0x1944, symBinAddr: 0x705E4, symSize: 0x6C }
  - { offset: 0x2F5F7D, size: 0x8, addend: 0x0, symName: '__ZNKSt3__110__function6__funcIZN6VSTGUI22CAnimationSplashScreen15createAnimationEjjPNS2_5CViewEbE3$_0NS_9allocatorIS6_EEFvS5_PKcPNS2_9Animation16IAnimationTargetEEE11target_typeEv', symObjAddr: 0x19B0, symBinAddr: 0x70650, symSize: 0xC }
  - { offset: 0x2FD923, size: 0x8, addend: 0x0, symName: __ZN6VSTGUI23StringListControlDrawerC2Ev, symObjAddr: 0x0, symBinAddr: 0x7065C, symSize: 0x15C }
  - { offset: 0x2FDD5B, size: 0x8, addend: 0x0, symName: __ZNSt3__110unique_ptrIN6VSTGUI23StringListControlDrawer4ImplENS_14default_deleteIS3_EEED1B8ne180100Ev, symObjAddr: 0x15C, symBinAddr: 0x707B8, symSize: 0x78 }
  - { offset: 0x2FDEE2, size: 0x8, addend: 0x0, symName: __ZN6VSTGUI23StringListControlDrawerC1Ev, symObjAddr: 0x1D4, symBinAddr: 0x70830, symSize: 0x124 }
  - { offset: 0x2FE2F8, size: 0x8, addend: 0x0, symName: __ZN6VSTGUI23StringListControlDrawerD2Ev, symObjAddr: 0x2F8, symBinAddr: 0x70954, symSize: 0x94 }
  - { offset: 0x2FE4B0, size: 0x8, addend: 0x0, symName: __ZN6VSTGUI23StringListControlDrawerD1Ev, symObjAddr: 0x38C, symBinAddr: 0x709E8, symSize: 0x88 }
  - { offset: 0x2FE667, size: 0x8, addend: 0x0, symName: __ZThn8_N6VSTGUI23StringListControlDrawerD1Ev, symObjAddr: 0x414, symBinAddr: 0x70A70, symSize: 0x84 }
  - { offset: 0x2FE804, size: 0x8, addend: 0x0, symName: __ZN6VSTGUI23StringListControlDrawerD0Ev, symObjAddr: 0x498, symBinAddr: 0x70AF4, symSize: 0x88 }
  - { offset: 0x2FE9D2, size: 0x8, addend: 0x0, symName: __ZThn8_N6VSTGUI23StringListControlDrawerD0Ev, symObjAddr: 0x520, symBinAddr: 0x70B7C, symSize: 0x8C }
  - { offset: 0x2FEC1D, size: 0x8, addend: 0x0, symName: __ZN6VSTGUI23StringListControlDrawer17setStringProviderEONSt3__18functionIFNS_13SharedPointerINS_15IPlatformStringEEEiEEE, symObjAddr: 0x5AC, symBinAddr: 0x70C08, symSize: 0xAC }
  - { offset: 0x2FEDDC, size: 0x8, addend: 0x0, symName: __ZN6VSTGUI23StringListControlDrawer17setStringProviderERKNSt3__18functionIFNS_13SharedPointerINS_15IPlatformStringEEEiEEE, symObjAddr: 0x658, symBinAddr: 0x70CB4, symSize: 0xD8 }
  - { offset: 0x2FEFE6, size: 0x8, addend: 0x0, symName: __ZNSt3__110__function12__value_funcIFN6VSTGUI13SharedPointerINS2_15IPlatformStringEEEiEE4swapB8ne180100ERS7_, symObjAddr: 0xCE8, symBinAddr: 0x712B8, symSize: 0x1A0 }
  - { offset: 0x2FF141, size: 0x8, addend: 0x0, symName: __ZN6VSTGUI23StringListControlDrawer7setFontEPNS_9CFontDescE, symObjAddr: 0x730, symBinAddr: 0x70D8C, symSize: 0x58 }
  - { offset: 0x2FF1F7, size: 0x8, addend: 0x0, symName: __ZN6VSTGUI23StringListControlDrawer12setFontColorENS_6CColorE, symObjAddr: 0x788, symBinAddr: 0x70DE4, symSize: 0x10 }
  - { offset: 0x2FF22F, size: 0x8, addend: 0x0, symName: __ZN6VSTGUI23StringListControlDrawer12setFontColorENS_6CColorE, symObjAddr: 0x788, symBinAddr: 0x70DE4, symSize: 0x10 }
  - { offset: 0x2FF270, size: 0x8, addend: 0x0, symName: __ZN6VSTGUI23StringListControlDrawer20setSelectedFontColorENS_6CColorE, symObjAddr: 0x798, symBinAddr: 0x70DF4, symSize: 0x10 }
  - { offset: 0x2FF2A8, size: 0x8, addend: 0x0, symName: __ZN6VSTGUI23StringListControlDrawer20setSelectedFontColorENS_6CColorE, symObjAddr: 0x798, symBinAddr: 0x70DF4, symSize: 0x10 }
  - { offset: 0x2FF2E9, size: 0x8, addend: 0x0, symName: __ZN6VSTGUI23StringListControlDrawer12setBackColorENS_6CColorE, symObjAddr: 0x7A8, symBinAddr: 0x70E04, symSize: 0x10 }
  - { offset: 0x2FF321, size: 0x8, addend: 0x0, symName: __ZN6VSTGUI23StringListControlDrawer12setBackColorENS_6CColorE, symObjAddr: 0x7A8, symBinAddr: 0x70E04, symSize: 0x10 }
  - { offset: 0x2FF362, size: 0x8, addend: 0x0, symName: __ZN6VSTGUI23StringListControlDrawer20setSelectedBackColorENS_6CColorE, symObjAddr: 0x7B8, symBinAddr: 0x70E14, symSize: 0x10 }
  - { offset: 0x2FF39A, size: 0x8, addend: 0x0, symName: __ZN6VSTGUI23StringListControlDrawer20setSelectedBackColorENS_6CColorE, symObjAddr: 0x7B8, symBinAddr: 0x70E14, symSize: 0x10 }
  - { offset: 0x2FF3DB, size: 0x8, addend: 0x0, symName: __ZN6VSTGUI23StringListControlDrawer13setHoverColorENS_6CColorE, symObjAddr: 0x7C8, symBinAddr: 0x70E24, symSize: 0x10 }
  - { offset: 0x2FF413, size: 0x8, addend: 0x0, symName: __ZN6VSTGUI23StringListControlDrawer13setHoverColorENS_6CColorE, symObjAddr: 0x7C8, symBinAddr: 0x70E24, symSize: 0x10 }
  - { offset: 0x2FF454, size: 0x8, addend: 0x0, symName: __ZN6VSTGUI23StringListControlDrawer12setLineColorENS_6CColorE, symObjAddr: 0x7D8, symBinAddr: 0x70E34, symSize: 0x10 }
  - { offset: 0x2FF48C, size: 0x8, addend: 0x0, symName: __ZN6VSTGUI23StringListControlDrawer12setLineColorENS_6CColorE, symObjAddr: 0x7D8, symBinAddr: 0x70E34, symSize: 0x10 }
  - { offset: 0x2FF4CD, size: 0x8, addend: 0x0, symName: __ZN6VSTGUI23StringListControlDrawer12setLineWidthEd, symObjAddr: 0x7E8, symBinAddr: 0x70E44, symSize: 0xC }
  - { offset: 0x2FF505, size: 0x8, addend: 0x0, symName: __ZN6VSTGUI23StringListControlDrawer12setLineWidthEd, symObjAddr: 0x7E8, symBinAddr: 0x70E44, symSize: 0xC }
  - { offset: 0x2FF521, size: 0x8, addend: 0x0, symName: __ZN6VSTGUI23StringListControlDrawer12setTextInsetEd, symObjAddr: 0x7F4, symBinAddr: 0x70E50, symSize: 0xC }
  - { offset: 0x2FF559, size: 0x8, addend: 0x0, symName: __ZN6VSTGUI23StringListControlDrawer12setTextInsetEd, symObjAddr: 0x7F4, symBinAddr: 0x70E50, symSize: 0xC }
  - { offset: 0x2FF575, size: 0x8, addend: 0x0, symName: __ZN6VSTGUI23StringListControlDrawer12setTextAlignENS_13CHoriTxtAlignE, symObjAddr: 0x800, symBinAddr: 0x70E5C, symSize: 0xC }
  - { offset: 0x2FF5AC, size: 0x8, addend: 0x0, symName: __ZN6VSTGUI23StringListControlDrawer12setTextAlignENS_13CHoriTxtAlignE, symObjAddr: 0x800, symBinAddr: 0x70E5C, symSize: 0xC }
  - { offset: 0x2FF5E3, size: 0x8, addend: 0x0, symName: __ZNK6VSTGUI23StringListControlDrawer7getFontEv, symObjAddr: 0x80C, symBinAddr: 0x70E68, symSize: 0xC }
  - { offset: 0x2FF60E, size: 0x8, addend: 0x0, symName: __ZNK6VSTGUI23StringListControlDrawer7getFontEv, symObjAddr: 0x80C, symBinAddr: 0x70E68, symSize: 0xC }
  - { offset: 0x2FF648, size: 0x8, addend: 0x0, symName: __ZNK6VSTGUI23StringListControlDrawer12getFontColorEv, symObjAddr: 0x818, symBinAddr: 0x70E74, symSize: 0x10 }
  - { offset: 0x2FF671, size: 0x8, addend: 0x0, symName: __ZNK6VSTGUI23StringListControlDrawer12getFontColorEv, symObjAddr: 0x818, symBinAddr: 0x70E74, symSize: 0x10 }
  - { offset: 0x2FF6D7, size: 0x8, addend: 0x0, symName: __ZNK6VSTGUI23StringListControlDrawer20getSelectedFontColorEv, symObjAddr: 0x828, symBinAddr: 0x70E84, symSize: 0x10 }
  - { offset: 0x2FF700, size: 0x8, addend: 0x0, symName: __ZNK6VSTGUI23StringListControlDrawer20getSelectedFontColorEv, symObjAddr: 0x828, symBinAddr: 0x70E84, symSize: 0x10 }
  - { offset: 0x2FF766, size: 0x8, addend: 0x0, symName: __ZNK6VSTGUI23StringListControlDrawer12getBackColorEv, symObjAddr: 0x838, symBinAddr: 0x70E94, symSize: 0x10 }
  - { offset: 0x2FF78F, size: 0x8, addend: 0x0, symName: __ZNK6VSTGUI23StringListControlDrawer12getBackColorEv, symObjAddr: 0x838, symBinAddr: 0x70E94, symSize: 0x10 }
  - { offset: 0x2FF7F5, size: 0x8, addend: 0x0, symName: __ZNK6VSTGUI23StringListControlDrawer20getSelectedBackColorEv, symObjAddr: 0x848, symBinAddr: 0x70EA4, symSize: 0x10 }
  - { offset: 0x2FF81E, size: 0x8, addend: 0x0, symName: __ZNK6VSTGUI23StringListControlDrawer20getSelectedBackColorEv, symObjAddr: 0x848, symBinAddr: 0x70EA4, symSize: 0x10 }
  - { offset: 0x2FF884, size: 0x8, addend: 0x0, symName: __ZNK6VSTGUI23StringListControlDrawer13getHoverColorEv, symObjAddr: 0x858, symBinAddr: 0x70EB4, symSize: 0x10 }
  - { offset: 0x2FF8AD, size: 0x8, addend: 0x0, symName: __ZNK6VSTGUI23StringListControlDrawer13getHoverColorEv, symObjAddr: 0x858, symBinAddr: 0x70EB4, symSize: 0x10 }
  - { offset: 0x2FF913, size: 0x8, addend: 0x0, symName: __ZNK6VSTGUI23StringListControlDrawer12getLineColorEv, symObjAddr: 0x868, symBinAddr: 0x70EC4, symSize: 0x10 }
  - { offset: 0x2FF93C, size: 0x8, addend: 0x0, symName: __ZNK6VSTGUI23StringListControlDrawer12getLineColorEv, symObjAddr: 0x868, symBinAddr: 0x70EC4, symSize: 0x10 }
  - { offset: 0x2FF9A2, size: 0x8, addend: 0x0, symName: __ZNK6VSTGUI23StringListControlDrawer12getLineWidthEv, symObjAddr: 0x878, symBinAddr: 0x70ED4, symSize: 0xC }
  - { offset: 0x2FF9CB, size: 0x8, addend: 0x0, symName: __ZNK6VSTGUI23StringListControlDrawer12getLineWidthEv, symObjAddr: 0x878, symBinAddr: 0x70ED4, symSize: 0xC }
  - { offset: 0x2FF9E7, size: 0x8, addend: 0x0, symName: __ZNK6VSTGUI23StringListControlDrawer12getTextInsetEv, symObjAddr: 0x884, symBinAddr: 0x70EE0, symSize: 0xC }
  - { offset: 0x2FFA10, size: 0x8, addend: 0x0, symName: __ZNK6VSTGUI23StringListControlDrawer12getTextInsetEv, symObjAddr: 0x884, symBinAddr: 0x70EE0, symSize: 0xC }
  - { offset: 0x2FFA2C, size: 0x8, addend: 0x0, symName: __ZNK6VSTGUI23StringListControlDrawer12getTextAlignEv, symObjAddr: 0x890, symBinAddr: 0x70EEC, symSize: 0xC }
  - { offset: 0x2FFA57, size: 0x8, addend: 0x0, symName: __ZNK6VSTGUI23StringListControlDrawer12getTextAlignEv, symObjAddr: 0x890, symBinAddr: 0x70EEC, symSize: 0xC }
  - { offset: 0x2FFA73, size: 0x8, addend: 0x0, symName: __ZN6VSTGUI23StringListControlDrawer14drawBackgroundEPNS_12CDrawContextENS_5CRectE, symObjAddr: 0x89C, symBinAddr: 0x70EF8, symSize: 0x4C }
  - { offset: 0x2FFBAC, size: 0x8, addend: 0x0, symName: __ZN6VSTGUI23StringListControlDrawer7drawRowEPNS_12CDrawContextENS_5CRectENS_18IListControlDrawer3RowE, symObjAddr: 0x8E8, symBinAddr: 0x70F44, symSize: 0x214 }
  - { offset: 0x2FFE33, size: 0x8, addend: 0x0, symName: __ZNK6VSTGUI23StringListControlDrawer9getStringEi, symObjAddr: 0xAFC, symBinAddr: 0x71158, symSize: 0xE8 }
  - { offset: 0x3004CA, size: 0x8, addend: 0x0, symName: __ZN6VSTGUI18IListControlDrawerD1Ev, symObjAddr: 0xBE4, symBinAddr: 0x15D900, symSize: 0x4 }
  - { offset: 0x3004F3, size: 0x8, addend: 0x0, symName: __ZN6VSTGUI18IListControlDrawerD0Ev, symObjAddr: 0xBE8, symBinAddr: 0x15D904, symSize: 0x4 }
  - { offset: 0x300532, size: 0x8, addend: 0x0, symName: __ZTv0_n24_N6VSTGUI16ReferenceCountedIiE6forgetEv, symObjAddr: 0xC60, symBinAddr: 0x71240, symSize: 0x5C }
  - { offset: 0x300595, size: 0x8, addend: 0x0, symName: __ZTv0_n32_N6VSTGUI16ReferenceCountedIiE8rememberEv, symObjAddr: 0xCBC, symBinAddr: 0x7129C, symSize: 0x1C }
  - { offset: 0x3024B5, size: 0x8, addend: 0x0, symName: __ZN6VSTGUI11CSwitchBase25useLegacyIndexCalculationE, symObjAddr: 0x45B04, symBinAddr: 0x1E0492, symSize: 0x0 }
  - { offset: 0x309512, size: 0x8, addend: 0x0, symName: __ZN6VSTGUI11CSwitchBaseC2ERKNS_5CRectEPNS_16IControlListenerEiPNS_7CBitmapE, symObjAddr: 0x0, symBinAddr: 0x71458, symSize: 0xC0 }
  - { offset: 0x3095FF, size: 0x8, addend: 0x0, symName: __ZN6VSTGUI11CSwitchBaseC2ERKNS_5CRectEPNS_16IControlListenerEiidiPNS_7CBitmapERKNS_6CPointE, symObjAddr: 0xC0, symBinAddr: 0x71518, symSize: 0x114 }
  - { offset: 0x309704, size: 0x8, addend: 0x0, symName: __ZN6VSTGUI11CSwitchBaseC2ERKS0_, symObjAddr: 0x1D4, symBinAddr: 0x7162C, symSize: 0xF0 }
  - { offset: 0x309836, size: 0x8, addend: 0x0, symName: __ZNK6VSTGUI11CSwitchBase17normalizedToIndexEf, symObjAddr: 0x2C4, symBinAddr: 0x7171C, symSize: 0x16C }
  - { offset: 0x309997, size: 0x8, addend: 0x0, symName: __ZNK6VSTGUI11CSwitchBase17indexToNormalizedEi, symObjAddr: 0x430, symBinAddr: 0x71888, symSize: 0xEC }
  - { offset: 0x309B2A, size: 0x8, addend: 0x0, symName: __ZN6VSTGUI11CSwitchBase4drawEPNS_12CDrawContextE, symObjAddr: 0x51C, symBinAddr: 0x71974, symSize: 0x1A8 }
  - { offset: 0x309DAF, size: 0x8, addend: 0x0, symName: __ZN6VSTGUI11CSwitchBase9sizeToFitEv, symObjAddr: 0x6C4, symBinAddr: 0x71B1C, symSize: 0xDC }
  - { offset: 0x309ECB, size: 0x8, addend: 0x0, symName: __ZN6VSTGUI11CSwitchBase11onMouseDownERNS_6CPointERKNS_12CButtonStateE, symObjAddr: 0x7A0, symBinAddr: 0x71BF8, symSize: 0x90 }
  - { offset: 0x309F51, size: 0x8, addend: 0x0, symName: __ZN6VSTGUI11CSwitchBase9onMouseUpERNS_6CPointERKNS_12CButtonStateE, symObjAddr: 0x830, symBinAddr: 0x71C88, symSize: 0x38 }
  - { offset: 0x309FA3, size: 0x8, addend: 0x0, symName: __ZN6VSTGUI11CSwitchBase13onMouseCancelEv, symObjAddr: 0x868, symBinAddr: 0x71CC0, symSize: 0x74 }
  - { offset: 0x30A018, size: 0x8, addend: 0x0, symName: __ZN6VSTGUI11CSwitchBase12onMouseMovedERNS_6CPointERKNS_12CButtonStateE, symObjAddr: 0x8DC, symBinAddr: 0x71D34, symSize: 0xEC }
  - { offset: 0x30A119, size: 0x8, addend: 0x0, symName: __ZN6VSTGUI11CSwitchBase16setInverseBitmapEb, symObjAddr: 0x9C8, symBinAddr: 0x71E20, symSize: 0x20 }
  - { offset: 0x30A1E4, size: 0x8, addend: 0x0, symName: __ZN6VSTGUI15CVerticalSwitchC2ERKNS_5CRectEPNS_16IControlListenerEiPNS_7CBitmapE, symObjAddr: 0x9E8, symBinAddr: 0x71E40, symSize: 0x150 }
  - { offset: 0x30A392, size: 0x8, addend: 0x0, symName: __ZN6VSTGUI15CVerticalSwitchC1ERKNS_5CRectEPNS_16IControlListenerEiPNS_7CBitmapE, symObjAddr: 0xB38, symBinAddr: 0x71F90, symSize: 0x124 }
  - { offset: 0x30A590, size: 0x8, addend: 0x0, symName: __ZN6VSTGUI15CVerticalSwitchC2ERKNS_5CRectEPNS_16IControlListenerEiidiPNS_7CBitmapERKNS_6CPointE, symObjAddr: 0xC5C, symBinAddr: 0x720B4, symSize: 0x13C }
  - { offset: 0x30A794, size: 0x8, addend: 0x0, symName: __ZN6VSTGUI15CVerticalSwitchC1ERKNS_5CRectEPNS_16IControlListenerEiidiPNS_7CBitmapERKNS_6CPointE, symObjAddr: 0xD98, symBinAddr: 0x721F0, symSize: 0x140 }
  - { offset: 0x30A9DA, size: 0x8, addend: 0x0, symName: __ZN6VSTGUI15CVerticalSwitchC2ERKS0_, symObjAddr: 0xED8, symBinAddr: 0x72330, symSize: 0x118 }
  - { offset: 0x30AB08, size: 0x8, addend: 0x0, symName: __ZN6VSTGUI15CVerticalSwitchC1ERKS0_, symObjAddr: 0xFF0, symBinAddr: 0x72448, symSize: 0x118 }
  - { offset: 0x30ACCF, size: 0x8, addend: 0x0, symName: __ZNK6VSTGUI15CVerticalSwitch13calculateCoefEv, symObjAddr: 0x1108, symBinAddr: 0x72560, symSize: 0xA4 }
  - { offset: 0x30AD6F, size: 0x8, addend: 0x0, symName: __ZNK6VSTGUI15CVerticalSwitch17calcNormFromPointERKNS_6CPointE, symObjAddr: 0x11AC, symBinAddr: 0x72604, symSize: 0xD4 }
  - { offset: 0x30AE55, size: 0x8, addend: 0x0, symName: __ZN6VSTGUI15CVerticalSwitch15onKeyboardEventERNS_13KeyboardEventE, symObjAddr: 0x1280, symBinAddr: 0x726D8, symSize: 0x1D0 }
  - { offset: 0x30B063, size: 0x8, addend: 0x0, symName: __ZN6VSTGUI17CHorizontalSwitchC2ERKNS_5CRectEPNS_16IControlListenerEiPNS_7CBitmapE, symObjAddr: 0x1450, symBinAddr: 0x728A8, symSize: 0x150 }
  - { offset: 0x30B1F9, size: 0x8, addend: 0x0, symName: __ZN6VSTGUI17CHorizontalSwitchC1ERKNS_5CRectEPNS_16IControlListenerEiPNS_7CBitmapE, symObjAddr: 0x15A0, symBinAddr: 0x729F8, symSize: 0x124 }
  - { offset: 0x30B384, size: 0x8, addend: 0x0, symName: __ZN6VSTGUI17CHorizontalSwitchC2ERKNS_5CRectEPNS_16IControlListenerEiidiPNS_7CBitmapERKNS_6CPointE, symObjAddr: 0x16C4, symBinAddr: 0x72B1C, symSize: 0x13C }
  - { offset: 0x30B53A, size: 0x8, addend: 0x0, symName: __ZN6VSTGUI17CHorizontalSwitchC1ERKNS_5CRectEPNS_16IControlListenerEiidiPNS_7CBitmapERKNS_6CPointE, symObjAddr: 0x1800, symBinAddr: 0x72C58, symSize: 0x140 }
  - { offset: 0x30B75B, size: 0x8, addend: 0x0, symName: __ZN6VSTGUI17CHorizontalSwitchC2ERKS0_, symObjAddr: 0x1940, symBinAddr: 0x72D98, symSize: 0x118 }
  - { offset: 0x30B889, size: 0x8, addend: 0x0, symName: __ZN6VSTGUI17CHorizontalSwitchC1ERKS0_, symObjAddr: 0x1A58, symBinAddr: 0x72EB0, symSize: 0x118 }
  - { offset: 0x30BA24, size: 0x8, addend: 0x0, symName: __ZNK6VSTGUI17CHorizontalSwitch13calculateCoefEv, symObjAddr: 0x1B70, symBinAddr: 0x72FC8, symSize: 0xB0 }
  - { offset: 0x30BAA9, size: 0x8, addend: 0x0, symName: __ZNK6VSTGUI17CHorizontalSwitch17calcNormFromPointERKNS_6CPointE, symObjAddr: 0x1C20, symBinAddr: 0x73078, symSize: 0xD4 }
  - { offset: 0x30BB69, size: 0x8, addend: 0x0, symName: __ZN6VSTGUI17CHorizontalSwitch15onKeyboardEventERNS_13KeyboardEventE, symObjAddr: 0x1CF4, symBinAddr: 0x7314C, symSize: 0x1D0 }
  - { offset: 0x30BD6C, size: 0x8, addend: 0x0, symName: __ZN6VSTGUI13CRockerSwitchC2ERKNS_5CRectEPNS_16IControlListenerEiPNS_7CBitmapEi, symObjAddr: 0x1EC4, symBinAddr: 0x7331C, symSize: 0x1A4 }
  - { offset: 0x30BF74, size: 0x8, addend: 0x0, symName: __ZN6VSTGUI13CRockerSwitchC1ERKNS_5CRectEPNS_16IControlListenerEiPNS_7CBitmapEi, symObjAddr: 0x2068, symBinAddr: 0x734C0, symSize: 0x1A0 }
  - { offset: 0x30C1CA, size: 0x8, addend: 0x0, symName: __ZN6VSTGUI13CRockerSwitchC2ERKNS_5CRectEPNS_16IControlListenerEiPNS_7CBitmapERKNS_6CPointEi, symObjAddr: 0x2208, symBinAddr: 0x73660, symSize: 0x1B4 }
  - { offset: 0x30C37F, size: 0x8, addend: 0x0, symName: __ZN6VSTGUI13CRockerSwitchC1ERKNS_5CRectEPNS_16IControlListenerEiPNS_7CBitmapERKNS_6CPointEi, symObjAddr: 0x23BC, symBinAddr: 0x73814, symSize: 0x1B4 }
  - { offset: 0x30C5A0, size: 0x8, addend: 0x0, symName: __ZN6VSTGUI13CRockerSwitchC2ERKNS_5CRectEPNS_16IControlListenerEidPNS_7CBitmapERKNS_6CPointEi, symObjAddr: 0x2570, symBinAddr: 0x739C8, symSize: 0x184 }
  - { offset: 0x30C748, size: 0x8, addend: 0x0, symName: __ZN6VSTGUI13CRockerSwitchC1ERKNS_5CRectEPNS_16IControlListenerEidPNS_7CBitmapERKNS_6CPointEi, symObjAddr: 0x26F4, symBinAddr: 0x73B4C, symSize: 0x198 }
  - { offset: 0x30C97D, size: 0x8, addend: 0x0, symName: __ZN6VSTGUI13CRockerSwitchC2ERKS0_, symObjAddr: 0x288C, symBinAddr: 0x73CE4, symSize: 0xC8 }
  - { offset: 0x30CA86, size: 0x8, addend: 0x0, symName: __ZN6VSTGUI13CRockerSwitchC1ERKS0_, symObjAddr: 0x2954, symBinAddr: 0x73DAC, symSize: 0xAC }
  - { offset: 0x30CB8C, size: 0x8, addend: 0x0, symName: __ZN6VSTGUI13CRockerSwitchD2Ev, symObjAddr: 0x2A00, symBinAddr: 0x73E58, symSize: 0xAC }
  - { offset: 0x30CC1C, size: 0x8, addend: 0x0, symName: __ZN6VSTGUI13CRockerSwitchD1Ev, symObjAddr: 0x2B0C, symBinAddr: 0x73F04, symSize: 0x98 }
  - { offset: 0x30CCB9, size: 0x8, addend: 0x0, symName: __ZThn24_N6VSTGUI13CRockerSwitchD1Ev, symObjAddr: 0x2BA4, symBinAddr: 0x73F9C, symSize: 0x98 }
  - { offset: 0x30CD4D, size: 0x8, addend: 0x0, symName: __ZThn64_N6VSTGUI13CRockerSwitchD1Ev, symObjAddr: 0x2C3C, symBinAddr: 0x74034, symSize: 0x98 }
  - { offset: 0x30CDE1, size: 0x8, addend: 0x0, symName: __ZN6VSTGUI13CRockerSwitchD0Ev, symObjAddr: 0x2CD4, symBinAddr: 0x740CC, symSize: 0x84 }
  - { offset: 0x30CE94, size: 0x8, addend: 0x0, symName: __ZThn24_N6VSTGUI13CRockerSwitchD0Ev, symObjAddr: 0x2D58, symBinAddr: 0x74150, symSize: 0x84 }
  - { offset: 0x30CF3E, size: 0x8, addend: 0x0, symName: __ZThn64_N6VSTGUI13CRockerSwitchD0Ev, symObjAddr: 0x2DDC, symBinAddr: 0x741D4, symSize: 0x84 }
  - { offset: 0x30D02F, size: 0x8, addend: 0x0, symName: __ZN6VSTGUI13CRockerSwitch4drawEPNS_12CDrawContextE, symObjAddr: 0x2E60, symBinAddr: 0x74258, symSize: 0x1D8 }
  - { offset: 0x30D25D, size: 0x8, addend: 0x0, symName: __ZN6VSTGUI13CRockerSwitch11onMouseDownERNS_6CPointERKNS_12CButtonStateE, symObjAddr: 0x3038, symBinAddr: 0x74430, symSize: 0x70 }
  - { offset: 0x30D2C0, size: 0x8, addend: 0x0, symName: __ZN6VSTGUI13CRockerSwitch9onMouseUpERNS_6CPointERKNS_12CButtonStateE, symObjAddr: 0x30A8, symBinAddr: 0x744A0, symSize: 0xA8 }
  - { offset: 0x30D376, size: 0x8, addend: 0x0, symName: __ZN6VSTGUI13CRockerSwitch13onMouseCancelEv, symObjAddr: 0x3150, symBinAddr: 0x74548, symSize: 0x74 }
  - { offset: 0x30D3EC, size: 0x8, addend: 0x0, symName: __ZN6VSTGUI13CRockerSwitch12onMouseMovedERNS_6CPointERKNS_12CButtonStateE, symObjAddr: 0x31C4, symBinAddr: 0x745BC, symSize: 0x250 }
  - { offset: 0x30D512, size: 0x8, addend: 0x0, symName: __ZN6VSTGUI13CRockerSwitch15onKeyboardEventERNS_13KeyboardEventE, symObjAddr: 0x3414, symBinAddr: 0x7480C, symSize: 0x1D0 }
  - { offset: 0x30D67A, size: 0x8, addend: 0x0, symName: __ZN6VSTGUI13CRockerSwitch17onMouseWheelEventERNS_15MouseWheelEventE, symObjAddr: 0x35E4, symBinAddr: 0x749DC, symSize: 0x108 }
  - { offset: 0x30D745, size: 0x8, addend: 0x0, symName: __ZN6VSTGUI13CRockerSwitch6notifyEPNS_11CBaseObjectEPKc, symObjAddr: 0x36EC, symBinAddr: 0x74AE4, symSize: 0x138 }
  - { offset: 0x30D870, size: 0x8, addend: 0x0, symName: __ZN6VSTGUI13CRockerSwitch9sizeToFitEv, symObjAddr: 0x3824, symBinAddr: 0x74C1C, symSize: 0xDC }
  - { offset: 0x30D995, size: 0x8, addend: 0x0, symName: __ZN6VSTGUI11CSwitchBaseD1Ev, symObjAddr: 0x3AD8, symBinAddr: 0x15D908, symSize: 0x4 }
  - { offset: 0x30D9B5, size: 0x8, addend: 0x0, symName: __ZN6VSTGUI11CSwitchBaseD0Ev, symObjAddr: 0x3ADC, symBinAddr: 0x15D90C, symSize: 0x4 }
  - { offset: 0x30D9D5, size: 0x8, addend: 0x0, symName: __ZN6VSTGUI11CSwitchBase16setNumSubPixmapsEi, symObjAddr: 0x3AE0, symBinAddr: 0x74CF8, symSize: 0x10 }
  - { offset: 0x30DA00, size: 0x8, addend: 0x0, symName: __ZN6VSTGUI11CSwitchBase16setNumSubPixmapsEi, symObjAddr: 0x3AE0, symBinAddr: 0x74CF8, symSize: 0x10 }
  - { offset: 0x30DA52, size: 0x8, addend: 0x0, symName: __ZThn24_N6VSTGUI11CSwitchBaseD1Ev, symObjAddr: 0x3AF0, symBinAddr: 0x15D910, symSize: 0x4 }
  - { offset: 0x30DA6C, size: 0x8, addend: 0x0, symName: __ZThn24_N6VSTGUI11CSwitchBaseD1Ev, symObjAddr: 0x3AF0, symBinAddr: 0x15D910, symSize: 0x4 }
  - { offset: 0x30DAA1, size: 0x8, addend: 0x0, symName: __ZThn24_N6VSTGUI11CSwitchBaseD0Ev, symObjAddr: 0x3AF4, symBinAddr: 0x15D914, symSize: 0x4 }
  - { offset: 0x30DABB, size: 0x8, addend: 0x0, symName: __ZThn24_N6VSTGUI11CSwitchBaseD0Ev, symObjAddr: 0x3AF4, symBinAddr: 0x15D914, symSize: 0x4 }
  - { offset: 0x30DAD6, size: 0x8, addend: 0x0, symName: __ZThn64_N6VSTGUI11CSwitchBaseD1Ev, symObjAddr: 0x3AF8, symBinAddr: 0x15D918, symSize: 0x4 }
  - { offset: 0x30DAF0, size: 0x8, addend: 0x0, symName: __ZThn64_N6VSTGUI11CSwitchBaseD1Ev, symObjAddr: 0x3AF8, symBinAddr: 0x15D918, symSize: 0x4 }
  - { offset: 0x30DB0B, size: 0x8, addend: 0x0, symName: __ZThn64_N6VSTGUI11CSwitchBaseD0Ev, symObjAddr: 0x3AFC, symBinAddr: 0x15D91C, symSize: 0x4 }
  - { offset: 0x30DB25, size: 0x8, addend: 0x0, symName: __ZThn64_N6VSTGUI11CSwitchBaseD0Ev, symObjAddr: 0x3AFC, symBinAddr: 0x15D91C, symSize: 0x4 }
  - { offset: 0x30DB40, size: 0x8, addend: 0x0, symName: __ZThn64_N6VSTGUI11CSwitchBase16setNumSubPixmapsEi, symObjAddr: 0x3B14, symBinAddr: 0x74D08, symSize: 0x10 }
  - { offset: 0x30DB5A, size: 0x8, addend: 0x0, symName: __ZThn64_N6VSTGUI11CSwitchBase16setNumSubPixmapsEi, symObjAddr: 0x3B14, symBinAddr: 0x74D08, symSize: 0x10 }
  - { offset: 0x30DBFD, size: 0x8, addend: 0x0, symName: __ZN6VSTGUI15CVerticalSwitchD1Ev, symObjAddr: 0x3B2C, symBinAddr: 0x74D18, symSize: 0xC }
  - { offset: 0x30DC1F, size: 0x8, addend: 0x0, symName: __ZN6VSTGUI15CVerticalSwitchD1Ev, symObjAddr: 0x3B2C, symBinAddr: 0x74D18, symSize: 0xC }
  - { offset: 0x30DC3A, size: 0x8, addend: 0x0, symName: __ZN6VSTGUI15CVerticalSwitchD1Ev, symObjAddr: 0x3B2C, symBinAddr: 0x74D18, symSize: 0xC }
  - { offset: 0x30DC6F, size: 0x8, addend: 0x0, symName: __ZN6VSTGUI15CVerticalSwitchD0Ev, symObjAddr: 0x3B38, symBinAddr: 0x74D24, symSize: 0x1C }
  - { offset: 0x30DCE3, size: 0x8, addend: 0x0, symName: __ZNK6VSTGUI15CVerticalSwitch7newCopyEv, symObjAddr: 0x3B54, symBinAddr: 0x74D40, symSize: 0x48 }
  - { offset: 0x30DD1E, size: 0x8, addend: 0x0, symName: __ZThn24_N6VSTGUI15CVerticalSwitchD1Ev, symObjAddr: 0x3B9C, symBinAddr: 0x74D88, symSize: 0x10 }
  - { offset: 0x30DDA3, size: 0x8, addend: 0x0, symName: __ZThn24_N6VSTGUI15CVerticalSwitchD0Ev, symObjAddr: 0x3BAC, symBinAddr: 0x74D98, symSize: 0x20 }
  - { offset: 0x30DE2A, size: 0x8, addend: 0x0, symName: __ZThn64_N6VSTGUI15CVerticalSwitchD1Ev, symObjAddr: 0x3BCC, symBinAddr: 0x74DB8, symSize: 0x10 }
  - { offset: 0x30DE95, size: 0x8, addend: 0x0, symName: __ZThn64_N6VSTGUI15CVerticalSwitchD0Ev, symObjAddr: 0x3BDC, symBinAddr: 0x74DC8, symSize: 0x20 }
  - { offset: 0x30DF45, size: 0x8, addend: 0x0, symName: __ZN6VSTGUI17CHorizontalSwitchD1Ev, symObjAddr: 0x3BFC, symBinAddr: 0x74DE8, symSize: 0xC }
  - { offset: 0x30DF67, size: 0x8, addend: 0x0, symName: __ZN6VSTGUI17CHorizontalSwitchD1Ev, symObjAddr: 0x3BFC, symBinAddr: 0x74DE8, symSize: 0xC }
  - { offset: 0x30DF82, size: 0x8, addend: 0x0, symName: __ZN6VSTGUI17CHorizontalSwitchD1Ev, symObjAddr: 0x3BFC, symBinAddr: 0x74DE8, symSize: 0xC }
  - { offset: 0x30DFB7, size: 0x8, addend: 0x0, symName: __ZN6VSTGUI17CHorizontalSwitchD0Ev, symObjAddr: 0x3C08, symBinAddr: 0x74DF4, symSize: 0x1C }
  - { offset: 0x30E02B, size: 0x8, addend: 0x0, symName: __ZNK6VSTGUI17CHorizontalSwitch7newCopyEv, symObjAddr: 0x3C24, symBinAddr: 0x74E10, symSize: 0x48 }
  - { offset: 0x30E066, size: 0x8, addend: 0x0, symName: __ZThn24_N6VSTGUI17CHorizontalSwitchD1Ev, symObjAddr: 0x3C6C, symBinAddr: 0x74E58, symSize: 0x10 }
  - { offset: 0x30E0EB, size: 0x8, addend: 0x0, symName: __ZThn24_N6VSTGUI17CHorizontalSwitchD0Ev, symObjAddr: 0x3C7C, symBinAddr: 0x74E68, symSize: 0x20 }
  - { offset: 0x30E172, size: 0x8, addend: 0x0, symName: __ZThn64_N6VSTGUI17CHorizontalSwitchD1Ev, symObjAddr: 0x3C9C, symBinAddr: 0x74E88, symSize: 0x10 }
  - { offset: 0x30E1DD, size: 0x8, addend: 0x0, symName: __ZThn64_N6VSTGUI17CHorizontalSwitchD0Ev, symObjAddr: 0x3CAC, symBinAddr: 0x74E98, symSize: 0x20 }
  - { offset: 0x30E28E, size: 0x8, addend: 0x0, symName: __ZNK6VSTGUI13CRockerSwitch7newCopyEv, symObjAddr: 0x3CCC, symBinAddr: 0x74EB8, symSize: 0xCC }
  - { offset: 0x30E35F, size: 0x8, addend: 0x0, symName: __ZN6VSTGUI13CRockerSwitch16setNumSubPixmapsEi, symObjAddr: 0x3D98, symBinAddr: 0x74F84, symSize: 0x10 }
  - { offset: 0x30E38A, size: 0x8, addend: 0x0, symName: __ZN6VSTGUI13CRockerSwitch16setNumSubPixmapsEi, symObjAddr: 0x3D98, symBinAddr: 0x74F84, symSize: 0x10 }
  - { offset: 0x30E3C2, size: 0x8, addend: 0x0, symName: __ZThn64_N6VSTGUI13CRockerSwitch16setNumSubPixmapsEi, symObjAddr: 0x3DA8, symBinAddr: 0x74F94, symSize: 0x10 }
  - { offset: 0x30E3DC, size: 0x8, addend: 0x0, symName: __ZThn64_N6VSTGUI13CRockerSwitch16setNumSubPixmapsEi, symObjAddr: 0x3DA8, symBinAddr: 0x74F94, symSize: 0x10 }
  - { offset: 0x31FA86, size: 0x8, addend: 0x0, symName: __ZN6VSTGUI9CTextEditC2ERKNS_5CRectEPNS_16IControlListenerEiPKcPNS_7CBitmapEi, symObjAddr: 0x0, symBinAddr: 0x74FA4, symSize: 0x16C }
  - { offset: 0x31FDE6, size: 0x8, addend: 0x0, symName: __ZN6VSTGUI12DispatchListIPNS_17ITextEditListenerEED1Ev, symObjAddr: 0x16C, symBinAddr: 0x75110, symSize: 0x40 }
  - { offset: 0x320BA2, size: 0x8, addend: 0x0, symName: __ZN6VSTGUI9CTextEditC1ERKNS_5CRectEPNS_16IControlListenerEiPKcPNS_7CBitmapEi, symObjAddr: 0x300, symBinAddr: 0x75150, symSize: 0x164 }
  - { offset: 0x320FDD, size: 0x8, addend: 0x0, symName: __ZN6VSTGUI9CTextEditC2ERKS0_, symObjAddr: 0x464, symBinAddr: 0x752B4, symSize: 0x1BC }
  - { offset: 0x32133B, size: 0x8, addend: 0x0, symName: __ZN6VSTGUI9CTextEditC1ERKS0_, symObjAddr: 0x620, symBinAddr: 0x75470, symSize: 0x1AC }
  - { offset: 0x3216B9, size: 0x8, addend: 0x0, symName: __ZN6VSTGUI9CTextEditD2Ev, symObjAddr: 0x7CC, symBinAddr: 0x7561C, symSize: 0x130 }
  - { offset: 0x321C7A, size: 0x8, addend: 0x0, symName: __ZN6VSTGUI9CTextEditD1Ev, symObjAddr: 0x90C, symBinAddr: 0x7574C, symSize: 0xC }
  - { offset: 0x321CCC, size: 0x8, addend: 0x0, symName: __ZThn24_N6VSTGUI9CTextEditD1Ev, symObjAddr: 0x918, symBinAddr: 0x75758, symSize: 0x10 }
  - { offset: 0x321D0D, size: 0x8, addend: 0x0, symName: __ZN6VSTGUI9CTextEditD0Ev, symObjAddr: 0x928, symBinAddr: 0x75768, symSize: 0x1C }
  - { offset: 0x321D7A, size: 0x8, addend: 0x0, symName: __ZThn24_N6VSTGUI9CTextEditD0Ev, symObjAddr: 0x944, symBinAddr: 0x75784, symSize: 0x20 }
  - { offset: 0x321E21, size: 0x8, addend: 0x0, symName: __ZN6VSTGUI9CTextEdit24setStringToValueFunctionERKNSt3__18functionIFbPKcRfPS0_EEE, symObjAddr: 0x964, symBinAddr: 0x757A4, symSize: 0xD8 }
  - { offset: 0x32200D, size: 0x8, addend: 0x0, symName: __ZNSt3__110__function12__value_funcIFbPKcRfPN6VSTGUI9CTextEditEEE4swapB8ne180100ERS9_, symObjAddr: 0x23A8, symBinAddr: 0x76BB0, symSize: 0x1A0 }
  - { offset: 0x3221B7, size: 0x8, addend: 0x0, symName: __ZN6VSTGUI9CTextEdit24setStringToValueFunctionEONSt3__18functionIFbPKcRfPS0_EEE, symObjAddr: 0xA3C, symBinAddr: 0x7587C, symSize: 0xB0 }
  - { offset: 0x32226B, size: 0x8, addend: 0x0, symName: __ZN6VSTGUI9CTextEdit22setImmediateTextChangeEb, symObjAddr: 0xAEC, symBinAddr: 0x7592C, symSize: 0x8 }
  - { offset: 0x32229D, size: 0x8, addend: 0x0, symName: __ZN6VSTGUI9CTextEdit14setSecureStyleEb, symObjAddr: 0xAF4, symBinAddr: 0x75934, symSize: 0x14 }
  - { offset: 0x3222D4, size: 0x8, addend: 0x0, symName: __ZNK6VSTGUI9CTextEdit14getSecureStyleEv, symObjAddr: 0xB08, symBinAddr: 0x75948, symSize: 0x8 }
  - { offset: 0x3222F6, size: 0x8, addend: 0x0, symName: __ZN6VSTGUI9CTextEdit24registerTextEditListenerEPNS_17ITextEditListenerE, symObjAddr: 0xB10, symBinAddr: 0x75950, symSize: 0x28 }
  - { offset: 0x3228D2, size: 0x8, addend: 0x0, symName: __ZN6VSTGUI9CTextEdit26unregisterTextEditListenerEPNS_17ITextEditListenerE, symObjAddr: 0xDAC, symBinAddr: 0x75978, symSize: 0xE4 }
  - { offset: 0x32322C, size: 0x8, addend: 0x0, symName: __ZN6VSTGUI9CTextEdit26unregisterTextEditListenerEPNS_17ITextEditListenerE, symObjAddr: 0xDAC, symBinAddr: 0x75978, symSize: 0xE4 }
  - { offset: 0x323283, size: 0x8, addend: 0x0, symName: __ZN6VSTGUI9CTextEdit26unregisterTextEditListenerEPNS_17ITextEditListenerE, symObjAddr: 0xDAC, symBinAddr: 0x75978, symSize: 0xE4 }
  - { offset: 0x323617, size: 0x8, addend: 0x0, symName: __ZN6VSTGUI9CTextEdit8setValueEf, symObjAddr: 0xE90, symBinAddr: 0x75A5C, symSize: 0x214 }
  - { offset: 0x323FEF, size: 0x8, addend: 0x0, symName: __ZN6VSTGUI9CTextEdit7setTextERKNS_10UTF8StringE, symObjAddr: 0x10A4, symBinAddr: 0x75C70, symSize: 0x1DC }
  - { offset: 0x324796, size: 0x8, addend: 0x0, symName: __ZN6VSTGUI9CTextEdit12valueChangedEv, symObjAddr: 0x1280, symBinAddr: 0x75E4C, symSize: 0x30 }
  - { offset: 0x3247FF, size: 0x8, addend: 0x0, symName: __ZN6VSTGUI9CTextEdit20setPlaceholderStringERKNS_10UTF8StringE, symObjAddr: 0x12B0, symBinAddr: 0x75E7C, symSize: 0x8 }
  - { offset: 0x324903, size: 0x8, addend: 0x0, symName: __ZN6VSTGUI9CTextEdit4drawEPNS_12CDrawContextE, symObjAddr: 0x12B8, symBinAddr: 0x75E84, symSize: 0x27C }
  - { offset: 0x325035, size: 0x8, addend: 0x0, symName: __ZN6VSTGUI9CTextEdit11onMouseDownERNS_6CPointERKNS_12CButtonStateE, symObjAddr: 0x1534, symBinAddr: 0x76100, symSize: 0x70 }
  - { offset: 0x3250CE, size: 0x8, addend: 0x0, symName: __ZN6VSTGUI9CTextEdit15onKeyboardEventERNS_13KeyboardEventE, symObjAddr: 0x15A4, symBinAddr: 0x76170, symSize: 0x94 }
  - { offset: 0x3251BC, size: 0x8, addend: 0x0, symName: __ZNK6VSTGUI9CTextEdit15platformGetFontEv, symObjAddr: 0x1638, symBinAddr: 0x76204, symSize: 0xBC }
  - { offset: 0x325295, size: 0x8, addend: 0x0, symName: __ZThn280_NK6VSTGUI9CTextEdit15platformGetFontEv, symObjAddr: 0x16F4, symBinAddr: 0x762C0, symSize: 0x8 }
  - { offset: 0x3253AB, size: 0x8, addend: 0x0, symName: __ZNK6VSTGUI9CTextEdit15platformGetSizeEv, symObjAddr: 0x16FC, symBinAddr: 0x762C8, symSize: 0x8C }
  - { offset: 0x3254A5, size: 0x8, addend: 0x0, symName: __ZThn280_NK6VSTGUI9CTextEdit15platformGetSizeEv, symObjAddr: 0x1788, symBinAddr: 0x76354, symSize: 0x90 }
  - { offset: 0x325598, size: 0x8, addend: 0x0, symName: __ZNK6VSTGUI9CTextEdit22platformGetVisibleSizeEv, symObjAddr: 0x1818, symBinAddr: 0x763E4, symSize: 0x9C }
  - { offset: 0x32569D, size: 0x8, addend: 0x0, symName: __ZThn280_NK6VSTGUI9CTextEdit22platformGetVisibleSizeEv, symObjAddr: 0x18B4, symBinAddr: 0x76480, symSize: 0xA0 }
  - { offset: 0x32579A, size: 0x8, addend: 0x0, symName: __ZN6VSTGUI9CTextEdit18platformLooseFocusEb, symObjAddr: 0x1954, symBinAddr: 0x76520, symSize: 0x78 }
  - { offset: 0x325814, size: 0x8, addend: 0x0, symName: __ZThn280_N6VSTGUI9CTextEdit18platformLooseFocusEb, symObjAddr: 0x19CC, symBinAddr: 0x76598, symSize: 0x70 }
  - { offset: 0x325869, size: 0x8, addend: 0x0, symName: __ZN6VSTGUI9CTextEdit23platformOnKeyboardEventERNS_13KeyboardEventE, symObjAddr: 0x1A3C, symBinAddr: 0x76608, symSize: 0x70 }
  - { offset: 0x3258E1, size: 0x8, addend: 0x0, symName: __ZThn280_N6VSTGUI9CTextEdit23platformOnKeyboardEventERNS_13KeyboardEventE, symObjAddr: 0x1AAC, symBinAddr: 0x76678, symSize: 0x74 }
  - { offset: 0x325943, size: 0x8, addend: 0x0, symName: __ZN6VSTGUI9CTextEdit21platformTextDidChangeEv, symObjAddr: 0x1B20, symBinAddr: 0x766EC, symSize: 0x18 }
  - { offset: 0x325966, size: 0x8, addend: 0x0, symName: __ZN6VSTGUI9CTextEdit21platformTextDidChangeEv, symObjAddr: 0x1B20, symBinAddr: 0x766EC, symSize: 0x18 }
  - { offset: 0x325992, size: 0x8, addend: 0x0, symName: __ZN6VSTGUI9CTextEdit10updateTextEPNS_17IPlatformTextEditE, symObjAddr: 0x1B38, symBinAddr: 0x76704, symSize: 0xE0 }
  - { offset: 0x325BDF, size: 0x8, addend: 0x0, symName: __ZThn280_N6VSTGUI9CTextEdit21platformTextDidChangeEv, symObjAddr: 0x1C18, symBinAddr: 0x767E4, symSize: 0x1C }
  - { offset: 0x325C0F, size: 0x8, addend: 0x0, symName: __ZThn280_N6VSTGUI9CTextEdit21platformTextDidChangeEv, symObjAddr: 0x1C18, symBinAddr: 0x767E4, symSize: 0x1C }
  - { offset: 0x325C3B, size: 0x8, addend: 0x0, symName: __ZN6VSTGUI9CTextEdit24platformIsSecureTextEditEv, symObjAddr: 0x1C34, symBinAddr: 0x76800, symSize: 0x8 }
  - { offset: 0x325C60, size: 0x8, addend: 0x0, symName: __ZN6VSTGUI9CTextEdit24platformIsSecureTextEditEv, symObjAddr: 0x1C34, symBinAddr: 0x76800, symSize: 0x8 }
  - { offset: 0x325C94, size: 0x8, addend: 0x0, symName: __ZThn280_N6VSTGUI9CTextEdit24platformIsSecureTextEditEv, symObjAddr: 0x1C3C, symBinAddr: 0x76808, symSize: 0x8 }
  - { offset: 0x325CAF, size: 0x8, addend: 0x0, symName: __ZThn280_N6VSTGUI9CTextEdit24platformIsSecureTextEditEv, symObjAddr: 0x1C3C, symBinAddr: 0x76808, symSize: 0x8 }
  - { offset: 0x325CCD, size: 0x8, addend: 0x0, symName: __ZThn280_N6VSTGUI9CTextEdit24platformIsSecureTextEditEv, symObjAddr: 0x1C3C, symBinAddr: 0x76808, symSize: 0x8 }
  - { offset: 0x325CEC, size: 0x8, addend: 0x0, symName: __ZN6VSTGUI9CTextEdit17parentSizeChangedEv, symObjAddr: 0x1C44, symBinAddr: 0x76810, symSize: 0x18 }
  - { offset: 0x325D19, size: 0x8, addend: 0x0, symName: __ZN6VSTGUI9CTextEdit17parentSizeChangedEv, symObjAddr: 0x1C44, symBinAddr: 0x76810, symSize: 0x18 }
  - { offset: 0x325D43, size: 0x8, addend: 0x0, symName: __ZN6VSTGUI9CTextEdit11setViewSizeERKNS_5CRectEb, symObjAddr: 0x1C5C, symBinAddr: 0x76828, symSize: 0x3C }
  - { offset: 0x325DF7, size: 0x8, addend: 0x0, symName: __ZN6VSTGUI9CTextEdit22createPlatformTextEditEv, symObjAddr: 0x1C98, symBinAddr: 0x76864, symSize: 0xF0 }
  - { offset: 0x32601D, size: 0x8, addend: 0x0, symName: __ZN6VSTGUI12DispatchListIPNS_17ITextEditListenerEE11postForEachEv, symObjAddr: 0x2658, symBinAddr: 0x76D50, symSize: 0x398 }
  - { offset: 0x326D3D, size: 0x8, addend: 0x0, symName: __ZNK6VSTGUI9CTextEdit10wantsFocusEv, symObjAddr: 0x1D88, symBinAddr: 0x76954, symSize: 0x44 }
  - { offset: 0x326DC6, size: 0x8, addend: 0x0, symName: __ZN6VSTGUI9CTextEdit9takeFocusEv, symObjAddr: 0x1DD4, symBinAddr: 0x76998, symSize: 0x70 }
  - { offset: 0x326F50, size: 0x8, addend: 0x0, symName: __ZN6VSTGUI9CTextEdit10looseFocusEv, symObjAddr: 0x1E44, symBinAddr: 0x76A08, symSize: 0x1A8 }
  - { offset: 0x337B82, size: 0x8, addend: 0x0, symName: __ZNSt3__17getlineB8ne180100IcNS_11char_traitsIcEENS_9allocatorIcEEEERNS_13basic_istreamIT_T0_EES9_RNS_12basic_stringIS6_S7_T1_EES6_, symObjAddr: 0x301C, symBinAddr: 0x79D54, symSize: 0x184 }
  - { offset: 0x339F9B, size: 0x8, addend: 0x0, symName: __ZN6VSTGUI10CTextLabelC2ERKNS_5CRectEPKcPNS_7CBitmapEi, symObjAddr: 0x0, symBinAddr: 0x770E8, symSize: 0x144 }
  - { offset: 0x33A7EB, size: 0x8, addend: 0x0, symName: __ZN6VSTGUI10CTextLabelC1ERKNS_5CRectEPKcPNS_7CBitmapEi, symObjAddr: 0x1F0, symBinAddr: 0x7722C, symSize: 0x154 }
  - { offset: 0x33AAAF, size: 0x8, addend: 0x0, symName: __ZN6VSTGUI10CTextLabelC2ERKS0_, symObjAddr: 0x344, symBinAddr: 0x77380, symSize: 0x108 }
  - { offset: 0x33ABE8, size: 0x8, addend: 0x0, symName: __ZN6VSTGUI10CTextLabelC1ERKS0_, symObjAddr: 0x44C, symBinAddr: 0x77488, symSize: 0x110 }
  - { offset: 0x33ADD3, size: 0x8, addend: 0x0, symName: __ZN6VSTGUI10CTextLabel25registerTextLabelListenerEPNS_18ITextLabelListenerE, symObjAddr: 0x55C, symBinAddr: 0x77598, symSize: 0x6C }
  - { offset: 0x33B491, size: 0x8, addend: 0x0, symName: __ZN6VSTGUI10CTextLabel27unregisterTextLabelListenerEPNS_18ITextLabelListenerE, symObjAddr: 0x83C, symBinAddr: 0x77604, symSize: 0xEC }
  - { offset: 0x33BC21, size: 0x8, addend: 0x0, symName: __ZN6VSTGUI12DispatchListIPNS_18ITextLabelListenerEE11postForEachEv, symObjAddr: 0x41A0, symBinAddr: 0x7A230, symSize: 0x398 }
  - { offset: 0x33BDEB, size: 0x8, addend: 0x0, symName: __ZN6VSTGUI10CTextLabel27unregisterTextLabelListenerEPNS_18ITextLabelListenerE, symObjAddr: 0x83C, symBinAddr: 0x77604, symSize: 0xEC }
  - { offset: 0x33BE22, size: 0x8, addend: 0x0, symName: __ZN6VSTGUI10CTextLabel27unregisterTextLabelListenerEPNS_18ITextLabelListenerE, symObjAddr: 0x83C, symBinAddr: 0x77604, symSize: 0xEC }
  - { offset: 0x33C043, size: 0x8, addend: 0x0, symName: __ZN6VSTGUI10CTextLabel7setTextERKNS_10UTF8StringE, symObjAddr: 0x928, symBinAddr: 0x776F0, symSize: 0x74 }
  - { offset: 0x33C094, size: 0x8, addend: 0x0, symName: __ZN6VSTGUI10CTextLabel22calculateTruncatedTextEv, symObjAddr: 0x99C, symBinAddr: 0x77764, symSize: 0x2B8 }
  - { offset: 0x33C92E, size: 0x8, addend: 0x0, symName: __ZN6VSTGUI12DispatchListIPNS_18ITextLabelListenerEE11postForEachEv, symObjAddr: 0x41A0, symBinAddr: 0x7A230, symSize: 0x398 }
  - { offset: 0x33D638, size: 0x8, addend: 0x0, symName: __ZN6VSTGUI10CTextLabel19setTextTruncateModeENS0_16TextTruncateModeE, symObjAddr: 0xC54, symBinAddr: 0x77A1C, symSize: 0x18 }
  - { offset: 0x33D66D, size: 0x8, addend: 0x0, symName: __ZNK6VSTGUI10CTextLabel7getTextEv, symObjAddr: 0xC6C, symBinAddr: 0x77A34, symSize: 0x8 }
  - { offset: 0x33D696, size: 0x8, addend: 0x0, symName: __ZN6VSTGUI10CTextLabel4drawEPNS_12CDrawContextE, symObjAddr: 0xC74, symBinAddr: 0x77A3C, symSize: 0x78 }
  - { offset: 0x33D8B2, size: 0x8, addend: 0x0, symName: __ZN6VSTGUI10CTextLabel9sizeToFitEv, symObjAddr: 0xCEC, symBinAddr: 0x77AB4, symSize: 0x244 }
  - { offset: 0x33DD0A, size: 0x8, addend: 0x0, symName: __ZN6VSTGUI10CTextLabel11setViewSizeERKNS_5CRectEb, symObjAddr: 0xF90, symBinAddr: 0x77CF8, symSize: 0x90 }
  - { offset: 0x33DDA3, size: 0x8, addend: 0x0, symName: __ZN6VSTGUI10CTextLabel16drawStyleChangedEv, symObjAddr: 0x1020, symBinAddr: 0x77D88, symSize: 0x30 }
  - { offset: 0x33DF6B, size: 0x8, addend: 0x0, symName: __ZN6VSTGUI10CTextLabel12valueChangedEv, symObjAddr: 0x1050, symBinAddr: 0x77DB8, symSize: 0x124 }
  - { offset: 0x33E4F7, size: 0x8, addend: 0x0, symName: __ZN6VSTGUI19CMultiLineTextLabelC2ERKNS_5CRectE, symObjAddr: 0x1174, symBinAddr: 0x77EDC, symSize: 0x64 }
  - { offset: 0x33E56B, size: 0x8, addend: 0x0, symName: __ZN6VSTGUI19CMultiLineTextLabelC1ERKNS_5CRectE, symObjAddr: 0x11D8, symBinAddr: 0x77F40, symSize: 0x60 }
  - { offset: 0x33E5ED, size: 0x8, addend: 0x0, symName: __ZN6VSTGUI19CMultiLineTextLabel8setValueEf, symObjAddr: 0x1238, symBinAddr: 0x77FA0, symSize: 0x100 }
  - { offset: 0x33EB96, size: 0x8, addend: 0x0, symName: __ZN6VSTGUI19CMultiLineTextLabel19setTextTruncateModeENS_10CTextLabel16TextTruncateModeE, symObjAddr: 0x1338, symBinAddr: 0x780A0, symSize: 0x14 }
  - { offset: 0x33EBC7, size: 0x8, addend: 0x0, symName: __ZN6VSTGUI19CMultiLineTextLabel19setTextTruncateModeENS_10CTextLabel16TextTruncateModeE, symObjAddr: 0x1338, symBinAddr: 0x780A0, symSize: 0x14 }
  - { offset: 0x33ED0E, size: 0x8, addend: 0x0, symName: __ZN6VSTGUI19CMultiLineTextLabel13setLineLayoutENS0_10LineLayoutE, symObjAddr: 0x134C, symBinAddr: 0x780B4, symSize: 0x78 }
  - { offset: 0x33EFE0, size: 0x8, addend: 0x0, symName: __ZN6VSTGUI19CMultiLineTextLabel13setAutoHeightEb, symObjAddr: 0x13C4, symBinAddr: 0x7812C, symSize: 0x78 }
  - { offset: 0x33F089, size: 0x8, addend: 0x0, symName: __ZN6VSTGUI19CMultiLineTextLabel17recalculateHeightEv, symObjAddr: 0x1B24, symBinAddr: 0x7888C, symSize: 0xB4 }
  - { offset: 0x33F208, size: 0x8, addend: 0x0, symName: __ZN6VSTGUI19CMultiLineTextLabel16recalculateLinesEPNS_12CDrawContextE, symObjAddr: 0x143C, symBinAddr: 0x781A4, symSize: 0x6E8 }
  - { offset: 0x34145E, size: 0x8, addend: 0x0, symName: __ZNSt3__118basic_stringstreamIcNS_11char_traitsIcEENS_9allocatorIcEEEC1B8ne180100ERKNS_12basic_stringIcS2_S4_EEj, symObjAddr: 0x2EEC, symBinAddr: 0x79C24, symSize: 0x130 }
  - { offset: 0x34168C, size: 0x8, addend: 0x0, symName: __ZNSt3__16vectorINS_4pairIN6VSTGUI10UTF8StringEdEENS_9allocatorIS4_EEE24__emplace_back_slow_pathIJS3_RdEEEPS4_DpOT_, symObjAddr: 0x4ADC, symBinAddr: 0x7A884, symSize: 0x190 }
  - { offset: 0x341D99, size: 0x8, addend: 0x0, symName: __ZNSt3__16vectorIN6VSTGUI19CMultiLineTextLabel4LineENS_9allocatorIS3_EEE24__emplace_back_slow_pathIJS3_EEEPS3_DpOT_, symObjAddr: 0x480C, symBinAddr: 0x7A5C8, symSize: 0x16C }
  - { offset: 0x3423E6, size: 0x8, addend: 0x0, symName: __ZN6VSTGUI19CMultiLineTextLabel17calculateWrapLineEPNS_12CDrawContextERNSt3__14pairINS_10UTF8StringEdEERKPKNS_12IFontPainterEdddRKNS_6CPointERd, symObjAddr: 0x24FC, symBinAddr: 0x79234, symSize: 0x998 }
  - { offset: 0x34421C, size: 0x8, addend: 0x0, symName: __ZN6VSTGUI19CMultiLineTextLabel4LineD1Ev, symObjAddr: 0x2E94, symBinAddr: 0x79BCC, symSize: 0x58 }
  - { offset: 0x3444C2, size: 0x8, addend: 0x0, symName: __ZNSt3__16vectorINS_4pairIN6VSTGUI10UTF8StringEdEENS_9allocatorIS4_EEED1B8ne180100Ev, symObjAddr: 0x3234, symBinAddr: 0x79ED8, symSize: 0x88 }
  - { offset: 0x34480D, size: 0x8, addend: 0x0, symName: __ZN6VSTGUI19CMultiLineTextLabel19setVerticalCenteredEb, symObjAddr: 0x1BD8, symBinAddr: 0x78940, symSize: 0x78 }
  - { offset: 0x344AB3, size: 0x8, addend: 0x0, symName: __ZN6VSTGUI19CMultiLineTextLabel15getMaxLineWidthEv, symObjAddr: 0x1C50, symBinAddr: 0x789B8, symSize: 0x158 }
  - { offset: 0x344F3D, size: 0x8, addend: 0x0, symName: __ZN6VSTGUI19CMultiLineTextLabel8drawRectEPNS_12CDrawContextERKNS_5CRectE, symObjAddr: 0x1DA8, symBinAddr: 0x78B10, symSize: 0x47C }
  - { offset: 0x34575E, size: 0x8, addend: 0x0, symName: __ZN6VSTGUI19CMultiLineTextLabel9sizeToFitEv, symObjAddr: 0x2254, symBinAddr: 0x78F8C, symSize: 0x8 }
  - { offset: 0x3457A7, size: 0x8, addend: 0x0, symName: __ZN6VSTGUI19CMultiLineTextLabel7setTextERKNS_10UTF8StringE, symObjAddr: 0x225C, symBinAddr: 0x78F94, symSize: 0x100 }
  - { offset: 0x345B33, size: 0x8, addend: 0x0, symName: __ZN6VSTGUI19CMultiLineTextLabel11setViewSizeERKNS_5CRectEb, symObjAddr: 0x235C, symBinAddr: 0x79094, symSize: 0x124 }
  - { offset: 0x345F2C, size: 0x8, addend: 0x0, symName: __ZN6VSTGUI19CMultiLineTextLabel16drawStyleChangedEv, symObjAddr: 0x2480, symBinAddr: 0x791B8, symSize: 0x7C }
  - { offset: 0x34666A, size: 0x8, addend: 0x0, symName: __ZNSt3__16vectorIN6VSTGUI19CMultiLineTextLabel4LineENS_9allocatorIS3_EEE24__emplace_back_slow_pathIJS3_EEEPS3_DpOT_, symObjAddr: 0x480C, symBinAddr: 0x7A5C8, symSize: 0x16C }
  - { offset: 0x346771, size: 0x8, addend: 0x0, symName: __ZNSt3__115basic_stringbufIcNS_11char_traitsIcEENS_9allocatorIcEEE3strERKNS_12basic_stringIcS2_S4_EE, symObjAddr: 0x498C, symBinAddr: 0x7A734, symSize: 0x150 }
  - { offset: 0x346EF9, size: 0x8, addend: 0x0, symName: __ZThn24_N6VSTGUI10CTextLabelD1Ev, symObjAddr: 0x35C4, symBinAddr: 0x79F60, symSize: 0x10 }
  - { offset: 0x346F54, size: 0x8, addend: 0x0, symName: __ZThn24_N6VSTGUI10CTextLabelD0Ev, symObjAddr: 0x35D4, symBinAddr: 0x79F70, symSize: 0x20 }
  - { offset: 0x347086, size: 0x8, addend: 0x0, symName: __ZN6VSTGUI19CMultiLineTextLabelD1Ev, symObjAddr: 0x35F4, symBinAddr: 0x79F90, symSize: 0xA4 }
  - { offset: 0x3473F3, size: 0x8, addend: 0x0, symName: __ZN6VSTGUI19CMultiLineTextLabelD0Ev, symObjAddr: 0x3698, symBinAddr: 0x7A034, symSize: 0xA8 }
  - { offset: 0x34775A, size: 0x8, addend: 0x0, symName: __ZThn24_N6VSTGUI19CMultiLineTextLabelD1Ev, symObjAddr: 0x3740, symBinAddr: 0x7A0DC, symSize: 0xA8 }
  - { offset: 0x347ADA, size: 0x8, addend: 0x0, symName: __ZThn24_N6VSTGUI19CMultiLineTextLabelD0Ev, symObjAddr: 0x37E8, symBinAddr: 0x7A184, symSize: 0xAC }
  - { offset: 0x348A27, size: 0x8, addend: 0x0, symName: __ZNSt3__115basic_stringbufIcNS_11char_traitsIcEENS_9allocatorIcEEE3strERKNS_12basic_stringIcS2_S4_EE, symObjAddr: 0x498C, symBinAddr: 0x7A734, symSize: 0x150 }
  - { offset: 0x351588, size: 0x8, addend: 0x0, symName: __ZN6VSTGUI8CVuMeterC2ERKNS_5CRectEPNS_7CBitmapES5_ii, symObjAddr: 0x0, symBinAddr: 0x7AA14, symSize: 0x140 }
  - { offset: 0x351770, size: 0x8, addend: 0x0, symName: __ZN6VSTGUI8CVuMeterC1ERKNS_5CRectEPNS_7CBitmapES5_ii, symObjAddr: 0x140, symBinAddr: 0x7AB54, symSize: 0x124 }
  - { offset: 0x351923, size: 0x8, addend: 0x0, symName: __ZN6VSTGUI8CVuMeterC2ERKS0_, symObjAddr: 0x264, symBinAddr: 0x7AC78, symSize: 0xB4 }
  - { offset: 0x35199C, size: 0x8, addend: 0x0, symName: __ZN6VSTGUI8CVuMeterC1ERKS0_, symObjAddr: 0x318, symBinAddr: 0x7AD2C, symSize: 0xB8 }
  - { offset: 0x351A11, size: 0x8, addend: 0x0, symName: __ZN6VSTGUI8CVuMeterD2Ev, symObjAddr: 0x3D0, symBinAddr: 0x7ADE4, symSize: 0x70 }
  - { offset: 0x351A98, size: 0x8, addend: 0x0, symName: __ZN6VSTGUI8CVuMeterD1Ev, symObjAddr: 0x450, symBinAddr: 0x7AE54, symSize: 0x5C }
  - { offset: 0x351B2E, size: 0x8, addend: 0x0, symName: __ZThn24_N6VSTGUI8CVuMeterD1Ev, symObjAddr: 0x4AC, symBinAddr: 0x7AEB0, symSize: 0x60 }
  - { offset: 0x351BBB, size: 0x8, addend: 0x0, symName: __ZN6VSTGUI8CVuMeterD0Ev, symObjAddr: 0x50C, symBinAddr: 0x7AF10, symSize: 0x60 }
  - { offset: 0x351C61, size: 0x8, addend: 0x0, symName: __ZThn24_N6VSTGUI8CVuMeterD0Ev, symObjAddr: 0x56C, symBinAddr: 0x7AF70, symSize: 0x64 }
  - { offset: 0x351CFE, size: 0x8, addend: 0x0, symName: __ZN6VSTGUI8CVuMeter11setViewSizeERKNS_5CRectEb, symObjAddr: 0x5D0, symBinAddr: 0x7AFD4, symSize: 0x40 }
  - { offset: 0x351D8B, size: 0x8, addend: 0x0, symName: __ZN6VSTGUI8CVuMeter9sizeToFitEv, symObjAddr: 0x610, symBinAddr: 0x7B014, symSize: 0xA0 }
  - { offset: 0x351E4D, size: 0x8, addend: 0x0, symName: __ZN6VSTGUI8CVuMeter12setOffBitmapEPNS_7CBitmapE, symObjAddr: 0x6B0, symBinAddr: 0x7B0B4, symSize: 0x54 }
  - { offset: 0x351E8F, size: 0x8, addend: 0x0, symName: __ZN6VSTGUI8CVuMeter8setDirtyEb, symObjAddr: 0x704, symBinAddr: 0x7B108, symSize: 0x4 }
  - { offset: 0x351EC9, size: 0x8, addend: 0x0, symName: __ZN6VSTGUI8CVuMeter6onIdleEv, symObjAddr: 0x708, symBinAddr: 0x7B10C, symSize: 0x4C }
  - { offset: 0x351F92, size: 0x8, addend: 0x0, symName: __ZN6VSTGUI8CVuMeter4drawEPNS_12CDrawContextE, symObjAddr: 0x754, symBinAddr: 0x7B158, symSize: 0x220 }
  - { offset: 0x3522BE, size: 0x8, addend: 0x0, symName: __ZNK6VSTGUI8CVuMeter7newCopyEv, symObjAddr: 0xB9C, symBinAddr: 0x7B378, symSize: 0xD4 }
  - { offset: 0x35234F, size: 0x8, addend: 0x0, symName: __ZN6VSTGUI8CVuMeter20setDecreaseStepValueEf, symObjAddr: 0xC70, symBinAddr: 0x7B44C, symSize: 0x8 }
  - { offset: 0x352377, size: 0x8, addend: 0x0, symName: __ZNK6VSTGUI8CVuMeter11getOnBitmapEv, symObjAddr: 0xC78, symBinAddr: 0x7B454, symSize: 0x4 }
  - { offset: 0x35239C, size: 0x8, addend: 0x0, symName: __ZNK6VSTGUI8CVuMeter12getOffBitmapEv, symObjAddr: 0xC7C, symBinAddr: 0x7B458, symSize: 0x8 }
  - { offset: 0x3523C3, size: 0x8, addend: 0x0, symName: __ZN6VSTGUI8CVuMeter11setOnBitmapEPNS_7CBitmapE, symObjAddr: 0xC84, symBinAddr: 0x7B460, symSize: 0xC }
  - { offset: 0x3542D1, size: 0x8, addend: 0x0, symName: __ZN6VSTGUI6CXYPadC2ERKNS_5CRectE, symObjAddr: 0x0, symBinAddr: 0x7B46C, symSize: 0xC8 }
  - { offset: 0x35B518, size: 0x8, addend: 0x0, symName: __ZN6VSTGUI6CXYPadC2ERKNS_5CRectE, symObjAddr: 0x0, symBinAddr: 0x7B46C, symSize: 0xC8 }
  - { offset: 0x35B708, size: 0x8, addend: 0x0, symName: __ZN6VSTGUI6CXYPadC1ERKNS_5CRectE, symObjAddr: 0xC8, symBinAddr: 0x7B534, symSize: 0xC4 }
  - { offset: 0x35B90A, size: 0x8, addend: 0x0, symName: __ZN6VSTGUI6CXYPad15setHandleBitmapEPNS_7CBitmapE, symObjAddr: 0x18C, symBinAddr: 0x7B5F8, symSize: 0x64 }
  - { offset: 0x35B9A8, size: 0x8, addend: 0x0, symName: __ZNK6VSTGUI6CXYPad15getHandleBitmapEv, symObjAddr: 0x1F0, symBinAddr: 0x7B65C, symSize: 0x8 }
  - { offset: 0x35B9CC, size: 0x8, addend: 0x0, symName: __ZNK6VSTGUI6CXYPad15getHandleBitmapEv, symObjAddr: 0x1F0, symBinAddr: 0x7B65C, symSize: 0x8 }
  - { offset: 0x35BBFA, size: 0x8, addend: 0x0, symName: __ZN6VSTGUI6CXYPad4drawEPNS_12CDrawContextE, symObjAddr: 0x1F8, symBinAddr: 0x7B664, symSize: 0x234 }
  - { offset: 0x35C072, size: 0x8, addend: 0x0, symName: __ZN6VSTGUI6CXYPad8drawBackEPNS_12CDrawContextEPNS_7CBitmapE, symObjAddr: 0x42C, symBinAddr: 0x7B898, symSize: 0x8 }
  - { offset: 0x35C11A, size: 0x8, addend: 0x0, symName: __ZN6VSTGUI6CXYPad16onMouseDownEventERNS_14MouseDownEventE, symObjAddr: 0x434, symBinAddr: 0x7B8A0, symSize: 0xD8 }
  - { offset: 0x35C1F1, size: 0x8, addend: 0x0, symName: __ZN6VSTGUI6CXYPad11onMouseMoveERNS_20MouseDownUpMoveEventE, symObjAddr: 0x50C, symBinAddr: 0x7B978, symSize: 0x1BC }
  - { offset: 0x35C4E3, size: 0x8, addend: 0x0, symName: __ZN6VSTGUI6CXYPad14onMouseUpEventERNS_12MouseUpEventE, symObjAddr: 0x6C8, symBinAddr: 0x7BB34, symSize: 0x44 }
  - { offset: 0x35C555, size: 0x8, addend: 0x0, symName: __ZN6VSTGUI6CXYPad18onMouseCancelEventERNS_16MouseCancelEventE, symObjAddr: 0x70C, symBinAddr: 0x7BB78, symSize: 0x80 }
  - { offset: 0x35C600, size: 0x8, addend: 0x0, symName: __ZN6VSTGUI6CXYPad16onMouseMoveEventERNS_14MouseMoveEventE, symObjAddr: 0x78C, symBinAddr: 0x7BBF8, symSize: 0x48 }
  - { offset: 0x35C665, size: 0x8, addend: 0x0, symName: __ZN6VSTGUI6CXYPad11boundValuesERfS1_, symObjAddr: 0x7D4, symBinAddr: 0x7BC40, symSize: 0x44 }
  - { offset: 0x35C6B9, size: 0x8, addend: 0x0, symName: __ZN6VSTGUI6CXYPad17onMouseWheelEventERNS_15MouseWheelEventE, symObjAddr: 0x818, symBinAddr: 0x7BC84, symSize: 0x1D8 }
  - { offset: 0x35C8B3, size: 0x8, addend: 0x0, symName: __ZN6VSTGUI6CXYPad15onKeyboardEventERNS_13KeyboardEventE, symObjAddr: 0x9F0, symBinAddr: 0x7BE5C, symSize: 0x58 }
  - { offset: 0x35C925, size: 0x8, addend: 0x0, symName: __ZN6VSTGUI6CXYPad15setDefaultValueEf, symObjAddr: 0xA48, symBinAddr: 0x7BEB4, symSize: 0x28 }
  - { offset: 0x35C9A1, size: 0x8, addend: 0x0, symName: __ZN6VSTGUI6CXYPad16setDefaultValuesEff, symObjAddr: 0xA70, symBinAddr: 0x7BEDC, symSize: 0x2C }
  - { offset: 0x35C9EA, size: 0x8, addend: 0x0, symName: __ZN6VSTGUI6CXYPad16setDefaultValuesEff, symObjAddr: 0xA70, symBinAddr: 0x7BEDC, symSize: 0x2C }
  - { offset: 0x35CA4F, size: 0x8, addend: 0x0, symName: __ZN6VSTGUI6CXYPadD1Ev, symObjAddr: 0xD2C, symBinAddr: 0x7BF08, symSize: 0x6C }
  - { offset: 0x35CB36, size: 0x8, addend: 0x0, symName: __ZN6VSTGUI6CXYPadD0Ev, symObjAddr: 0xD98, symBinAddr: 0x7BF74, symSize: 0x70 }
  - { offset: 0x35CC11, size: 0x8, addend: 0x0, symName: __ZN6VSTGUI6CXYPad6setMinEf, symObjAddr: 0xE08, symBinAddr: 0x7BFE4, symSize: 0x4 }
  - { offset: 0x35CC45, size: 0x8, addend: 0x0, symName: __ZN6VSTGUI6CXYPad6setMaxEf, symObjAddr: 0xE0C, symBinAddr: 0x7BFE8, symSize: 0x4 }
  - { offset: 0x35CC79, size: 0x8, addend: 0x0, symName: __ZThn24_N6VSTGUI6CXYPadD1Ev, symObjAddr: 0xE10, symBinAddr: 0x7BFEC, symSize: 0x70 }
  - { offset: 0x35CD73, size: 0x8, addend: 0x0, symName: __ZThn24_N6VSTGUI6CXYPadD0Ev, symObjAddr: 0xE80, symBinAddr: 0x7C05C, symSize: 0x74 }
  - { offset: 0x35ED21, size: 0x8, addend: 0x0, symName: __ZN6VSTGUI9Layouting9translateENS_14CRowColumnView11LayoutStyleE, symObjAddr: 0x0, symBinAddr: 0x7C0D0, symSize: 0x14 }
  - { offset: 0x35EDA8, size: 0x8, addend: 0x0, symName: __ZN6VSTGUI9Layouting9translateENS_14CRowColumnView11LayoutStyleE, symObjAddr: 0x0, symBinAddr: 0x7C0D0, symSize: 0x14 }
  - { offset: 0x35EDC6, size: 0x8, addend: 0x0, symName: __ZN6VSTGUI9Layouting9translateENS_14CRowColumnView5StyleE, symObjAddr: 0x14, symBinAddr: 0x7C0E4, symSize: 0xC }
  - { offset: 0x35EDE4, size: 0x8, addend: 0x0, symName: __ZN6VSTGUI9Layouting17computeRectOffsetERKNS_6CPointES3_NS0_9AlignmentE, symObjAddr: 0x20, symBinAddr: 0x7C0F0, symSize: 0xF4 }
  - { offset: 0x35EE55, size: 0x8, addend: 0x0, symName: __ZN6VSTGUI9Layouting16computeGroupRectERKNS_5CRectERKNSt3__16vectorIS1_NS4_9allocatorIS1_EEEENS0_9AlignmentENS0_5StyleEd, symObjAddr: 0x114, symBinAddr: 0x7C1E4, symSize: 0x398 }
  - { offset: 0x35F04D, size: 0x8, addend: 0x0, symName: __ZN6VSTGUI9Layouting16computeGroupRectERKNS_14CViewContainerENS0_9AlignmentENS0_5StyleEd, symObjAddr: 0x4AC, symBinAddr: 0x7C57C, symSize: 0x228 }
  - { offset: 0x3640F2, size: 0x8, addend: 0x0, symName: __ZN6VSTGUI14CRowColumnViewC2ERKNS_5CRectENS0_5StyleENS0_11LayoutStyleEdS3_, symObjAddr: 0x6D4, symBinAddr: 0x7C7A4, symSize: 0x8C }
  - { offset: 0x3641A9, size: 0x8, addend: 0x0, symName: __ZN6VSTGUI24CAutoLayoutContainerViewC2ERKNS_5CRectE, symObjAddr: 0x760, symBinAddr: 0x7C830, symSize: 0x38 }
  - { offset: 0x3641FC, size: 0x8, addend: 0x0, symName: __ZN6VSTGUI14CRowColumnViewC1ERKNS_5CRectENS0_5StyleENS0_11LayoutStyleEdS3_, symObjAddr: 0x798, symBinAddr: 0x7C868, symSize: 0x80 }
  - { offset: 0x3642CC, size: 0x8, addend: 0x0, symName: __ZN6VSTGUI14CRowColumnView8setStyleENS0_5StyleE, symObjAddr: 0x818, symBinAddr: 0x7C8E8, symSize: 0x50 }
  - { offset: 0x36432D, size: 0x8, addend: 0x0, symName: __ZN6VSTGUI14CRowColumnView10setSpacingEd, symObjAddr: 0x868, symBinAddr: 0x7C938, symSize: 0x50 }
  - { offset: 0x3643B4, size: 0x8, addend: 0x0, symName: __ZN6VSTGUI14CRowColumnView9setMarginERKNS_5CRectE, symObjAddr: 0x8B8, symBinAddr: 0x7C988, symSize: 0x90 }
  - { offset: 0x364442, size: 0x8, addend: 0x0, symName: __ZN6VSTGUI14CRowColumnView14setLayoutStyleENS0_11LayoutStyleE, symObjAddr: 0x948, symBinAddr: 0x7CA18, symSize: 0x50 }
  - { offset: 0x3644A7, size: 0x8, addend: 0x0, symName: __ZNK6VSTGUI14CRowColumnView21isAnimateViewResizingEv, symObjAddr: 0x998, symBinAddr: 0x7CA68, symSize: 0xC }
  - { offset: 0x3644FB, size: 0x8, addend: 0x0, symName: __ZN6VSTGUI14CRowColumnView22setAnimateViewResizingEb, symObjAddr: 0x9A4, symBinAddr: 0x7CA74, symSize: 0x14 }
  - { offset: 0x36453A, size: 0x8, addend: 0x0, symName: __ZN6VSTGUI14CRowColumnView22setAnimateViewResizingEb, symObjAddr: 0x9A4, symBinAddr: 0x7CA74, symSize: 0x14 }
  - { offset: 0x36455E, size: 0x8, addend: 0x0, symName: __ZNK6VSTGUI14CRowColumnView19hideClippedSubviewsEv, symObjAddr: 0x9B8, symBinAddr: 0x7CA88, symSize: 0xC }
  - { offset: 0x36458B, size: 0x8, addend: 0x0, symName: __ZNK6VSTGUI14CRowColumnView19hideClippedSubviewsEv, symObjAddr: 0x9B8, symBinAddr: 0x7CA88, symSize: 0xC }
  - { offset: 0x3645A5, size: 0x8, addend: 0x0, symName: __ZN6VSTGUI14CRowColumnView22setHideClippedSubviewsEb, symObjAddr: 0x9C4, symBinAddr: 0x7CA94, symSize: 0x20 }
  - { offset: 0x3645E4, size: 0x8, addend: 0x0, symName: __ZN6VSTGUI14CRowColumnView22setHideClippedSubviewsEb, symObjAddr: 0x9C4, symBinAddr: 0x7CA94, symSize: 0x20 }
  - { offset: 0x364704, size: 0x8, addend: 0x0, symName: __ZN6VSTGUI14CRowColumnView13resizeSubViewEPNS_5CViewERKNS_5CRectE, symObjAddr: 0x9E4, symBinAddr: 0x7CAB4, symSize: 0x204 }
  - { offset: 0x364952, size: 0x8, addend: 0x0, symName: __ZN6VSTGUI14CRowColumnView19getMaxChildViewSizeERNS_6CPointE, symObjAddr: 0xBE8, symBinAddr: 0x7CCB8, symSize: 0xA8 }
  - { offset: 0x364C1F, size: 0x8, addend: 0x0, symName: __ZN6VSTGUI14CRowColumnView20layoutViewsEqualSizeEv, symObjAddr: 0xC90, symBinAddr: 0x7CD60, symSize: 0x36C }
  - { offset: 0x365331, size: 0x8, addend: 0x0, symName: __ZN6VSTGUI14CRowColumnView11layoutViewsEv, symObjAddr: 0xFFC, symBinAddr: 0x7D0CC, symSize: 0xF0 }
  - { offset: 0x365533, size: 0x8, addend: 0x0, symName: __ZN6VSTGUI14CRowColumnView9sizeToFitEv, symObjAddr: 0x10EC, symBinAddr: 0x7D1BC, symSize: 0x1B8 }
  - { offset: 0x36595C, size: 0x8, addend: 0x0, symName: __ZN6VSTGUI14CRowColumnView6notifyEPNS_11CBaseObjectEPKc, symObjAddr: 0x12A4, symBinAddr: 0x7D374, symSize: 0x6C }
  - { offset: 0x3659D9, size: 0x8, addend: 0x0, symName: __ZN6VSTGUI24CAutoLayoutContainerView8attachedEPNS_5CViewE, symObjAddr: 0x1310, symBinAddr: 0x7D3E0, symSize: 0x54 }
  - { offset: 0x365A45, size: 0x8, addend: 0x0, symName: __ZN6VSTGUI24CAutoLayoutContainerView11setViewSizeERKNS_5CRectEb, symObjAddr: 0x1364, symBinAddr: 0x7D434, symSize: 0x48 }
  - { offset: 0x365ABB, size: 0x8, addend: 0x0, symName: __ZN6VSTGUI24CAutoLayoutContainerView7addViewEPNS_5CViewES2_, symObjAddr: 0x13AC, symBinAddr: 0x7D47C, symSize: 0x4C }
  - { offset: 0x365B38, size: 0x8, addend: 0x0, symName: __ZN6VSTGUI24CAutoLayoutContainerView10removeViewEPNS_5CViewEb, symObjAddr: 0x13F8, symBinAddr: 0x7D4C8, symSize: 0x4C }
  - { offset: 0x365BB5, size: 0x8, addend: 0x0, symName: __ZN6VSTGUI24CAutoLayoutContainerView16changeViewZOrderEPNS_5CViewEj, symObjAddr: 0x1444, symBinAddr: 0x7D514, symSize: 0x4C }
  - { offset: 0x365C32, size: 0x8, addend: 0x0, symName: __ZN6VSTGUI24CAutoLayoutContainerViewD1Ev, symObjAddr: 0x14F0, symBinAddr: 0x15D920, symSize: 0x4 }
  - { offset: 0x365C5D, size: 0x8, addend: 0x0, symName: __ZN6VSTGUI24CAutoLayoutContainerViewD0Ev, symObjAddr: 0x14F4, symBinAddr: 0x15D924, symSize: 0x4 }
  - { offset: 0x365CD4, size: 0x8, addend: 0x0, symName: __ZN6VSTGUI14CRowColumnViewD1Ev, symObjAddr: 0x16F0, symBinAddr: 0x7D560, symSize: 0xC }
  - { offset: 0x365CF6, size: 0x8, addend: 0x0, symName: __ZN6VSTGUI14CRowColumnViewD1Ev, symObjAddr: 0x16F0, symBinAddr: 0x7D560, symSize: 0xC }
  - { offset: 0x365D11, size: 0x8, addend: 0x0, symName: __ZN6VSTGUI14CRowColumnViewD1Ev, symObjAddr: 0x16F0, symBinAddr: 0x7D560, symSize: 0xC }
  - { offset: 0x365D48, size: 0x8, addend: 0x0, symName: __ZN6VSTGUI14CRowColumnViewD0Ev, symObjAddr: 0x16FC, symBinAddr: 0x7D56C, symSize: 0x1C }
  - { offset: 0x365E4B, size: 0x8, addend: 0x0, symName: __ZNK6VSTGUI14CRowColumnView7newCopyEv, symObjAddr: 0x1718, symBinAddr: 0x7D588, symSize: 0x80 }
  - { offset: 0x370E35, size: 0x8, addend: 0x0, symName: __ZN6VSTGUI16CScrollContainerC2ERKNS_5CRectES3_, symObjAddr: 0x0, symBinAddr: 0x7D608, symSize: 0x88 }
  - { offset: 0x370F18, size: 0x8, addend: 0x0, symName: __ZN6VSTGUI16CScrollContainerC1ERKNS_5CRectES3_, symObjAddr: 0x88, symBinAddr: 0x7D690, symSize: 0x80 }
  - { offset: 0x370FBE, size: 0x8, addend: 0x0, symName: __ZN6VSTGUI16CScrollContainerC2ERKS0_, symObjAddr: 0x108, symBinAddr: 0x7D710, symSize: 0x58 }
  - { offset: 0x371006, size: 0x8, addend: 0x0, symName: __ZN6VSTGUI16CScrollContainerC1ERKS0_, symObjAddr: 0x160, symBinAddr: 0x7D768, symSize: 0x60 }
  - { offset: 0x37104B, size: 0x8, addend: 0x0, symName: __ZN6VSTGUI16CScrollContainer16setContainerSizeERKNS_5CRectE, symObjAddr: 0x1C0, symBinAddr: 0x7D7C8, symSize: 0x14 }
  - { offset: 0x37108F, size: 0x8, addend: 0x0, symName: __ZN6VSTGUI16CScrollContainer15setScrollOffsetENS_6CPointEb, symObjAddr: 0x1D4, symBinAddr: 0x7D7DC, symSize: 0x3E0 }
  - { offset: 0x37172E, size: 0x8, addend: 0x0, symName: __ZNK6VSTGUI16CScrollContainer7isDirtyEv, symObjAddr: 0x5B4, symBinAddr: 0x7DBBC, symSize: 0xF8 }
  - { offset: 0x37188D, size: 0x8, addend: 0x0, symName: __ZN6VSTGUI16CScrollContainer14getScrollValueERKNS_6CPointERfS4_, symObjAddr: 0x6B4, symBinAddr: 0x7DCB4, symSize: 0x140 }
  - { offset: 0x371A05, size: 0x8, addend: 0x0, symName: __ZN6VSTGUI16CScrollContainer13getDropTargetEv, symObjAddr: 0x7F4, symBinAddr: 0x7DDF4, symSize: 0x90 }
  - { offset: 0x371BCE, size: 0x8, addend: 0x0, symName: __ZN6VSTGUI16CScrollContainer10onDragMoveENS_6CPointE, symObjAddr: 0x8C8, symBinAddr: 0x7DE84, symSize: 0x90 }
  - { offset: 0x371D0C, size: 0x8, addend: 0x0, symName: __ZN6VSTGUI16CScrollContainer8attachedEPNS_5CViewE, symObjAddr: 0x958, symBinAddr: 0x7DF14, symSize: 0xD8 }
  - { offset: 0x371E5C, size: 0x8, addend: 0x0, symName: __ZN6VSTGUI16CScrollContainer6notifyEPNS_11CBaseObjectEPKc, symObjAddr: 0xA30, symBinAddr: 0x7DFEC, symSize: 0x124 }
  - { offset: 0x37200C, size: 0x8, addend: 0x0, symName: __ZN6VSTGUI11CScrollViewC2ERKNS_5CRectES3_idPNS_7CBitmapE, symObjAddr: 0xB54, symBinAddr: 0x7E110, symSize: 0xF0 }
  - { offset: 0x3720F7, size: 0x8, addend: 0x0, symName: __ZN6VSTGUI11CScrollViewC1ERKNS_5CRectES3_idPNS_7CBitmapE, symObjAddr: 0xC44, symBinAddr: 0x7E200, symSize: 0xD0 }
  - { offset: 0x3721AB, size: 0x8, addend: 0x0, symName: __ZN6VSTGUI11CScrollViewC2ERKS0_, symObjAddr: 0xD14, symBinAddr: 0x7E2D0, symSize: 0x168 }
  - { offset: 0x372275, size: 0x8, addend: 0x0, symName: __ZN6VSTGUI11CScrollViewC1ERKS0_, symObjAddr: 0xE7C, symBinAddr: 0x7E438, symSize: 0x14C }
  - { offset: 0x372319, size: 0x8, addend: 0x0, symName: __ZNK6VSTGUI11CScrollView29calculateOptimalContainerSizeEv, symObjAddr: 0xFC8, symBinAddr: 0x7E584, symSize: 0x90 }
  - { offset: 0x3723FE, size: 0x8, addend: 0x0, symName: __ZN6VSTGUI11CScrollView19recalculateSubViewsEv, symObjAddr: 0x1058, symBinAddr: 0x7E614, symSize: 0x5B0 }
  - { offset: 0x37288F, size: 0x8, addend: 0x0, symName: __ZN6VSTGUI11CScrollView11setViewSizeERKNS_5CRectEb, symObjAddr: 0x1608, symBinAddr: 0x7EBC4, symSize: 0x50 }
  - { offset: 0x3728FA, size: 0x8, addend: 0x0, symName: __ZN6VSTGUI11CScrollView16setAutosizeFlagsEi, symObjAddr: 0x1658, symBinAddr: 0x7EC14, symSize: 0x44 }
  - { offset: 0x372941, size: 0x8, addend: 0x0, symName: __ZN6VSTGUI11CScrollView8setStyleEi, symObjAddr: 0x169C, symBinAddr: 0x7EC58, symSize: 0x74 }
  - { offset: 0x37299B, size: 0x8, addend: 0x0, symName: __ZN6VSTGUI11CScrollView17setScrollbarWidthEd, symObjAddr: 0x1710, symBinAddr: 0x7ECCC, symSize: 0x20 }
  - { offset: 0x372A27, size: 0x8, addend: 0x0, symName: __ZN6VSTGUI11CScrollView16setContainerSizeERKNS_5CRectEb, symObjAddr: 0x1730, symBinAddr: 0x7ECEC, symSize: 0x360 }
  - { offset: 0x372DD1, size: 0x8, addend: 0x0, symName: __ZN6VSTGUI11CScrollView15makeRectVisibleERKNS_5CRectE, symObjAddr: 0x1A90, symBinAddr: 0x7F04C, symSize: 0x220 }
  - { offset: 0x372F46, size: 0x8, addend: 0x0, symName: __ZN6VSTGUI11CScrollView17resetScrollOffsetEv, symObjAddr: 0x1CB0, symBinAddr: 0x7F26C, symSize: 0xDC }
  - { offset: 0x373002, size: 0x8, addend: 0x0, symName: __ZNK6VSTGUI11CScrollView15getScrollOffsetEv, symObjAddr: 0x1D8C, symBinAddr: 0x7F348, symSize: 0xC }
  - { offset: 0x37304A, size: 0x8, addend: 0x0, symName: __ZN6VSTGUI11CScrollView7addViewEPNS_5CViewES2_, symObjAddr: 0x1D98, symBinAddr: 0x7F354, symSize: 0x10 }
  - { offset: 0x3730AD, size: 0x8, addend: 0x0, symName: __ZN6VSTGUI11CScrollView10removeViewEPNS_5CViewEb, symObjAddr: 0x1DA8, symBinAddr: 0x7F364, symSize: 0x10 }
  - { offset: 0x373115, size: 0x8, addend: 0x0, symName: __ZN6VSTGUI11CScrollView9removeAllEb, symObjAddr: 0x1DB8, symBinAddr: 0x7F374, symSize: 0x10 }
  - { offset: 0x373167, size: 0x8, addend: 0x0, symName: __ZNK6VSTGUI11CScrollView10getNbViewsEv, symObjAddr: 0x1DC8, symBinAddr: 0x7F384, symSize: 0x10 }
  - { offset: 0x37319D, size: 0x8, addend: 0x0, symName: __ZNK6VSTGUI11CScrollView7getViewEj, symObjAddr: 0x1DD8, symBinAddr: 0x7F394, symSize: 0x10 }
  - { offset: 0x3731EA, size: 0x8, addend: 0x0, symName: __ZN6VSTGUI11CScrollView16changeViewZOrderEPNS_5CViewEj, symObjAddr: 0x1DE8, symBinAddr: 0x7F3A4, symSize: 0x10 }
  - { offset: 0x37324D, size: 0x8, addend: 0x0, symName: __ZN6VSTGUI11CScrollView15setTransparencyEb, symObjAddr: 0x1DF8, symBinAddr: 0x7F3B4, symSize: 0x4 }
  - { offset: 0x373289, size: 0x8, addend: 0x0, symName: __ZN6VSTGUI11CScrollView18setBackgroundColorERKNS_6CColorE, symObjAddr: 0x1DFC, symBinAddr: 0x7F3B8, symSize: 0x4 }
  - { offset: 0x3732F7, size: 0x8, addend: 0x0, symName: __ZN6VSTGUI11CScrollView12valueChangedEPNS_8CControlE, symObjAddr: 0x1E00, symBinAddr: 0x7F3BC, symSize: 0x138 }
  - { offset: 0x37347E, size: 0x8, addend: 0x0, symName: __ZThn32_N6VSTGUI11CScrollView12valueChangedEPNS_8CControlE, symObjAddr: 0x1F38, symBinAddr: 0x7F4F4, symSize: 0x8 }
  - { offset: 0x3734AC, size: 0x8, addend: 0x0, symName: __ZN6VSTGUI11CScrollView18drawBackgroundRectEPNS_12CDrawContextERKNS_5CRectE, symObjAddr: 0x1F40, symBinAddr: 0x7F4FC, symSize: 0x54 }
  - { offset: 0x37353E, size: 0x8, addend: 0x0, symName: __ZN6VSTGUI11CScrollView17onMouseWheelEventERNS_15MouseWheelEventE, symObjAddr: 0x1F94, symBinAddr: 0x7F550, symSize: 0x7C }
  - { offset: 0x373598, size: 0x8, addend: 0x0, symName: __ZN6VSTGUI11CScrollView6notifyEPNS_11CBaseObjectEPKc, symObjAddr: 0x2010, symBinAddr: 0x7F5CC, symSize: 0xE0 }
  - { offset: 0x3736EE, size: 0x8, addend: 0x0, symName: __ZN6VSTGUI11CScrollView15viewSizeChangedEPNS_5CViewERKNS_5CRectE, symObjAddr: 0x20F0, symBinAddr: 0x7F6AC, symSize: 0x68 }
  - { offset: 0x373769, size: 0x8, addend: 0x0, symName: __ZThn40_N6VSTGUI11CScrollView15viewSizeChangedEPNS_5CViewERKNS_5CRectE, symObjAddr: 0x2158, symBinAddr: 0x7F714, symSize: 0x68 }
  - { offset: 0x3737B7, size: 0x8, addend: 0x0, symName: __ZN6VSTGUI11CScrollView14viewWillDeleteEPNS_5CViewE, symObjAddr: 0x21C0, symBinAddr: 0x7F77C, symSize: 0x2C }
  - { offset: 0x373808, size: 0x8, addend: 0x0, symName: __ZThn40_N6VSTGUI11CScrollView14viewWillDeleteEPNS_5CViewE, symObjAddr: 0x21EC, symBinAddr: 0x7F7A8, symSize: 0x2C }
  - { offset: 0x373863, size: 0x8, addend: 0x0, symName: __ZN6VSTGUI16CScrollContainerD1Ev, symObjAddr: 0x2468, symBinAddr: 0x7F7D4, symSize: 0xC }
  - { offset: 0x373885, size: 0x8, addend: 0x0, symName: __ZN6VSTGUI16CScrollContainerD1Ev, symObjAddr: 0x2468, symBinAddr: 0x7F7D4, symSize: 0xC }
  - { offset: 0x3738B9, size: 0x8, addend: 0x0, symName: __ZN6VSTGUI16CScrollContainerD0Ev, symObjAddr: 0x2474, symBinAddr: 0x7F7E0, symSize: 0x1C }
  - { offset: 0x373940, size: 0x8, addend: 0x0, symName: __ZNK6VSTGUI16CScrollContainer7newCopyEv, symObjAddr: 0x2490, symBinAddr: 0x7F7FC, symSize: 0x84 }
  - { offset: 0x3739E4, size: 0x8, addend: 0x0, symName: __ZThn32_N6VSTGUI11CScrollViewD1Ev, symObjAddr: 0x2584, symBinAddr: 0x7F880, symSize: 0x10 }
  - { offset: 0x373A4D, size: 0x8, addend: 0x0, symName: __ZThn32_N6VSTGUI11CScrollViewD0Ev, symObjAddr: 0x2594, symBinAddr: 0x7F890, symSize: 0x20 }
  - { offset: 0x373AB8, size: 0x8, addend: 0x0, symName: __ZThn40_N6VSTGUI11CScrollViewD1Ev, symObjAddr: 0x25CC, symBinAddr: 0x7F8B0, symSize: 0x10 }
  - { offset: 0x373B07, size: 0x8, addend: 0x0, symName: __ZThn40_N6VSTGUI11CScrollViewD0Ev, symObjAddr: 0x25DC, symBinAddr: 0x7F8C0, symSize: 0x20 }
  - { offset: 0x373B72, size: 0x8, addend: 0x0, symName: __ZN6VSTGUI19ViewListenerAdapterD1Ev, symObjAddr: 0x2618, symBinAddr: 0x7F8E0, symSize: 0x4 }
  - { offset: 0x373B9D, size: 0x8, addend: 0x0, symName: __ZN6VSTGUI19ViewListenerAdapterD0Ev, symObjAddr: 0x261C, symBinAddr: 0x7F8E4, symSize: 0x4 }
  - { offset: 0x373BC8, size: 0x8, addend: 0x0, symName: __ZN6VSTGUI19ViewListenerAdapter15viewSizeChangedEPNS_5CViewERKNS_5CRectE, symObjAddr: 0x2620, symBinAddr: 0x7F8E8, symSize: 0x4 }
  - { offset: 0x373C09, size: 0x8, addend: 0x0, symName: __ZN6VSTGUI19ViewListenerAdapter14viewWillDeleteEPNS_5CViewE, symObjAddr: 0x2624, symBinAddr: 0x7F8EC, symSize: 0x4 }
  - { offset: 0x373C57, size: 0x8, addend: 0x0, symName: __ZN6VSTGUI16CScrollContainer10DropTarget11onDragEnterENS_13DragEventDataE, symObjAddr: 0x26B0, symBinAddr: 0x7F8F0, symSize: 0x34 }
  - { offset: 0x373D11, size: 0x8, addend: 0x0, symName: __ZN6VSTGUI16CScrollContainer10DropTarget10onDragMoveENS_13DragEventDataE, symObjAddr: 0x26E4, symBinAddr: 0x7F924, symSize: 0xC4 }
  - { offset: 0x373E72, size: 0x8, addend: 0x0, symName: __ZN6VSTGUI16CScrollContainer10DropTarget11onDragLeaveENS_13DragEventDataE, symObjAddr: 0x27A8, symBinAddr: 0x7F9E8, symSize: 0x34 }
  - { offset: 0x373EDA, size: 0x8, addend: 0x0, symName: __ZN6VSTGUI16CScrollContainer10DropTarget6onDropENS_13DragEventDataE, symObjAddr: 0x27DC, symBinAddr: 0x7FA1C, symSize: 0x34 }
  - { offset: 0x373F84, size: 0x8, addend: 0x0, symName: __ZN6VSTGUI16CScrollContainer10DropTargetD1Ev, symObjAddr: 0x2810, symBinAddr: 0x7FA50, symSize: 0x54 }
  - { offset: 0x374013, size: 0x8, addend: 0x0, symName: __ZN6VSTGUI16CScrollContainer10DropTargetD0Ev, symObjAddr: 0x2864, symBinAddr: 0x7FAA4, symSize: 0x54 }
  - { offset: 0x37409D, size: 0x8, addend: 0x0, symName: __ZThn8_N6VSTGUI16CScrollContainer10DropTargetD1Ev, symObjAddr: 0x28B8, symBinAddr: 0x7FAF8, symSize: 0x48 }
  - { offset: 0x374137, size: 0x8, addend: 0x0, symName: __ZThn8_N6VSTGUI16CScrollContainer10DropTargetD0Ev, symObjAddr: 0x2900, symBinAddr: 0x7FB40, symSize: 0x58 }
  - { offset: 0x376097, size: 0x8, addend: 0x0, symName: __ZN6VSTGUI20CShadowViewContainerC2ERKNS_5CRectE, symObjAddr: 0x0, symBinAddr: 0x7FB98, symSize: 0xB8 }
  - { offset: 0x3760C9, size: 0x8, addend: 0x0, symName: __ZN6VSTGUIL12kBlackCColorE, symObjAddr: 0x1F51, symBinAddr: 0x177BE0, symSize: 0x0 }
  - { offset: 0x379CF0, size: 0x8, addend: 0x0, symName: __ZN6VSTGUIL13boxesForGaussILm3EEENSt3__15arrayIiXT_EEEd, symObjAddr: 0xA68, symBinAddr: 0x80600, symSize: 0x88 }
  - { offset: 0x37EBBB, size: 0x8, addend: 0x0, symName: __ZN6VSTGUI20CShadowViewContainerC2ERKNS_5CRectE, symObjAddr: 0x0, symBinAddr: 0x7FB98, symSize: 0xB8 }
  - { offset: 0x37EC82, size: 0x8, addend: 0x0, symName: __ZN6VSTGUI20CShadowViewContainerC1ERKNS_5CRectE, symObjAddr: 0xB8, symBinAddr: 0x7FC50, symSize: 0x9C }
  - { offset: 0x37ED17, size: 0x8, addend: 0x0, symName: __ZN6VSTGUI20CShadowViewContainerC2ERKS0_, symObjAddr: 0x154, symBinAddr: 0x7FCEC, symSize: 0xB8 }
  - { offset: 0x37EDC2, size: 0x8, addend: 0x0, symName: __ZN6VSTGUI20CShadowViewContainerC1ERKS0_, symObjAddr: 0x20C, symBinAddr: 0x7FDA4, symSize: 0x9C }
  - { offset: 0x37EE45, size: 0x8, addend: 0x0, symName: __ZN6VSTGUI20CShadowViewContainerD2Ev, symObjAddr: 0x2A8, symBinAddr: 0x7FE40, symSize: 0x8 }
  - { offset: 0x37EE9E, size: 0x8, addend: 0x0, symName: __ZN6VSTGUI20CShadowViewContainerD1Ev, symObjAddr: 0x2B0, symBinAddr: 0x7FE48, symSize: 0xC }
  - { offset: 0x37EEC0, size: 0x8, addend: 0x0, symName: __ZN6VSTGUI20CShadowViewContainerD1Ev, symObjAddr: 0x2B0, symBinAddr: 0x7FE48, symSize: 0xC }
  - { offset: 0x37EEF6, size: 0x8, addend: 0x0, symName: __ZThn32_N6VSTGUI20CShadowViewContainerD1Ev, symObjAddr: 0x2BC, symBinAddr: 0x7FE54, symSize: 0x10 }
  - { offset: 0x37EF45, size: 0x8, addend: 0x0, symName: __ZThn40_N6VSTGUI20CShadowViewContainerD1Ev, symObjAddr: 0x2CC, symBinAddr: 0x7FE64, symSize: 0x10 }
  - { offset: 0x37EF94, size: 0x8, addend: 0x0, symName: __ZN6VSTGUI20CShadowViewContainerD0Ev, symObjAddr: 0x2DC, symBinAddr: 0x7FE74, symSize: 0x1C }
  - { offset: 0x37F008, size: 0x8, addend: 0x0, symName: __ZThn32_N6VSTGUI20CShadowViewContainerD0Ev, symObjAddr: 0x2F8, symBinAddr: 0x7FE90, symSize: 0x20 }
  - { offset: 0x37F073, size: 0x8, addend: 0x0, symName: __ZThn40_N6VSTGUI20CShadowViewContainerD0Ev, symObjAddr: 0x318, symBinAddr: 0x7FEB0, symSize: 0x20 }
  - { offset: 0x37F0DE, size: 0x8, addend: 0x0, symName: __ZN6VSTGUI20CShadowViewContainer12beforeDeleteEv, symObjAddr: 0x338, symBinAddr: 0x7FED0, symSize: 0x28 }
  - { offset: 0x37F107, size: 0x8, addend: 0x0, symName: __ZN6VSTGUI20CShadowViewContainer7removedEPNS_5CViewE, symObjAddr: 0x360, symBinAddr: 0x7FEF8, symSize: 0x48 }
  - { offset: 0x37F170, size: 0x8, addend: 0x0, symName: __ZN6VSTGUI20CShadowViewContainer8attachedEPNS_5CViewE, symObjAddr: 0x3A8, symBinAddr: 0x7FF40, symSize: 0x50 }
  - { offset: 0x37F1D8, size: 0x8, addend: 0x0, symName: __ZN6VSTGUI20CShadowViewContainer16invalidateShadowEv, symObjAddr: 0x3F8, symBinAddr: 0x7FF90, symSize: 0x10 }
  - { offset: 0x37F20C, size: 0x8, addend: 0x0, symName: __ZN6VSTGUI20CShadowViewContainer20onScaleFactorChangedEPNS_6CFrameEd, symObjAddr: 0x408, symBinAddr: 0x7FFA0, symSize: 0x10 }
  - { offset: 0x37F23A, size: 0x8, addend: 0x0, symName: __ZN6VSTGUI20CShadowViewContainer20onScaleFactorChangedEPNS_6CFrameEd, symObjAddr: 0x408, symBinAddr: 0x7FFA0, symSize: 0x10 }
  - { offset: 0x37F296, size: 0x8, addend: 0x0, symName: __ZThn32_N6VSTGUI20CShadowViewContainer20onScaleFactorChangedEPNS_6CFrameEd, symObjAddr: 0x418, symBinAddr: 0x7FFB0, symSize: 0x10 }
  - { offset: 0x37F2B0, size: 0x8, addend: 0x0, symName: __ZThn32_N6VSTGUI20CShadowViewContainer20onScaleFactorChangedEPNS_6CFrameEd, symObjAddr: 0x418, symBinAddr: 0x7FFB0, symSize: 0x10 }
  - { offset: 0x37F2CC, size: 0x8, addend: 0x0, symName: __ZThn32_N6VSTGUI20CShadowViewContainer20onScaleFactorChangedEPNS_6CFrameEd, symObjAddr: 0x418, symBinAddr: 0x7FFB0, symSize: 0x10 }
  - { offset: 0x37F31B, size: 0x8, addend: 0x0, symName: __ZN6VSTGUI20CShadowViewContainer15setShadowOffsetERKNS_6CPointE, symObjAddr: 0x428, symBinAddr: 0x7FFC0, symSize: 0x40 }
  - { offset: 0x37F354, size: 0x8, addend: 0x0, symName: __ZN6VSTGUI20CShadowViewContainer15setShadowOffsetERKNS_6CPointE, symObjAddr: 0x428, symBinAddr: 0x7FFC0, symSize: 0x40 }
  - { offset: 0x37F39F, size: 0x8, addend: 0x0, symName: __ZN6VSTGUI20CShadowViewContainer18setShadowIntensityEf, symObjAddr: 0x468, symBinAddr: 0x80000, symSize: 0x20 }
  - { offset: 0x37F3E1, size: 0x8, addend: 0x0, symName: __ZN6VSTGUI20CShadowViewContainer17setShadowBlurSizeEd, symObjAddr: 0x488, symBinAddr: 0x80020, symSize: 0x24 }
  - { offset: 0x37F43F, size: 0x8, addend: 0x0, symName: __ZN6VSTGUI20CShadowViewContainer6notifyEPNS_11CBaseObjectEPKc, symObjAddr: 0x4AC, symBinAddr: 0x80044, symSize: 0x60 }
  - { offset: 0x37F785, size: 0x8, addend: 0x0, symName: __ZN6VSTGUI20CShadowViewContainer8drawRectEPNS_12CDrawContextERKNS_5CRectE, symObjAddr: 0x50C, symBinAddr: 0x800A4, symSize: 0x55C }
  - { offset: 0x37FDD0, size: 0x8, addend: 0x0, symName: __ZN6VSTGUI20CShadowViewContainer18drawBackgroundRectEPNS_12CDrawContextERKNS_5CRectE, symObjAddr: 0xAF0, symBinAddr: 0x80688, symSize: 0x84 }
  - { offset: 0x37FE5A, size: 0x8, addend: 0x0, symName: __ZN6VSTGUI20CShadowViewContainer11setViewSizeERKNS_5CRectEb, symObjAddr: 0xB74, symBinAddr: 0x8070C, symSize: 0x10C }
  - { offset: 0x37FFAB, size: 0x8, addend: 0x0, symName: __ZN6VSTGUI20CShadowViewContainer22viewContainerViewAddedEPNS_14CViewContainerEPNS_5CViewE, symObjAddr: 0xC80, symBinAddr: 0x80818, symSize: 0x54 }
  - { offset: 0x380047, size: 0x8, addend: 0x0, symName: __ZThn40_N6VSTGUI20CShadowViewContainer22viewContainerViewAddedEPNS_14CViewContainerEPNS_5CViewE, symObjAddr: 0xCD4, symBinAddr: 0x8086C, symSize: 0x58 }
  - { offset: 0x3800C2, size: 0x8, addend: 0x0, symName: __ZN6VSTGUI20CShadowViewContainer24viewContainerViewRemovedEPNS_14CViewContainerEPNS_5CViewE, symObjAddr: 0xD2C, symBinAddr: 0x808C4, symSize: 0x54 }
  - { offset: 0x38015E, size: 0x8, addend: 0x0, symName: __ZThn40_N6VSTGUI20CShadowViewContainer24viewContainerViewRemovedEPNS_14CViewContainerEPNS_5CViewE, symObjAddr: 0xD80, symBinAddr: 0x80918, symSize: 0x58 }
  - { offset: 0x3801D9, size: 0x8, addend: 0x0, symName: __ZN6VSTGUI20CShadowViewContainer30viewContainerViewZOrderChangedEPNS_14CViewContainerEPNS_5CViewE, symObjAddr: 0xDD8, symBinAddr: 0x80970, symSize: 0x54 }
  - { offset: 0x380275, size: 0x8, addend: 0x0, symName: __ZThn40_N6VSTGUI20CShadowViewContainer30viewContainerViewZOrderChangedEPNS_14CViewContainerEPNS_5CViewE, symObjAddr: 0xE2C, symBinAddr: 0x809C4, symSize: 0x58 }
  - { offset: 0x380317, size: 0x8, addend: 0x0, symName: __ZNK6VSTGUI20CShadowViewContainer7newCopyEv, symObjAddr: 0x10DC, symBinAddr: 0x80A1C, symSize: 0xC0 }
  - { offset: 0x385CE8, size: 0x8, addend: 0x0, symName: __ZN6VSTGUI17getViewControllerEPKNS_5CViewEb, symObjAddr: 0x2BB8, symBinAddr: 0x833CC, symSize: 0x98 }
  - { offset: 0x38BA03, size: 0x8, addend: 0x0, symName: __ZN6VSTGUI10CSplitViewC2ERKNS_5CRectENS0_5StyleEdPNS_25ISplitViewSeparatorDrawerE, symObjAddr: 0x0, symBinAddr: 0x80ADC, symSize: 0x64 }
  - { offset: 0x38BA9D, size: 0x8, addend: 0x0, symName: __ZN6VSTGUI10CSplitViewC1ERKNS_5CRectENS0_5StyleEdPNS_25ISplitViewSeparatorDrawerE, symObjAddr: 0x64, symBinAddr: 0x80B40, symSize: 0x64 }
  - { offset: 0x38BB24, size: 0x8, addend: 0x0, symName: __ZN6VSTGUI10CSplitView8setStyleENS0_5StyleE, symObjAddr: 0xC8, symBinAddr: 0x80BA4, symSize: 0x14 }
  - { offset: 0x38BB59, size: 0x8, addend: 0x0, symName: __ZN6VSTGUI10CSplitView15setResizeMethodENS0_12ResizeMethodE, symObjAddr: 0xDC, symBinAddr: 0x80BB8, symSize: 0x8 }
  - { offset: 0x38BD61, size: 0x8, addend: 0x0, symName: __ZN6VSTGUI10CSplitView17setSeparatorWidthEd, symObjAddr: 0xE4, symBinAddr: 0x80BC0, symSize: 0x178 }
  - { offset: 0x38C07F, size: 0x8, addend: 0x0, symName: __ZN6VSTGUI10CSplitView23requestNewSeparatorSizeEPNS_23CSplitViewSeparatorViewERKNS_5CRectE, symObjAddr: 0x25C, symBinAddr: 0x80D38, symSize: 0x65C }
  - { offset: 0x38CF0D, size: 0x8, addend: 0x0, symName: __ZN6VSTGUI10CSplitView15resizeFirstViewENS_6CPointE, symObjAddr: 0x8B8, symBinAddr: 0x81394, symSize: 0x380 }
  - { offset: 0x38DA94, size: 0x8, addend: 0x0, symName: __ZN6VSTGUI10CSplitView16resizeSecondViewENS_6CPointE, symObjAddr: 0xC98, symBinAddr: 0x81714, symSize: 0x2F4 }
  - { offset: 0x38E303, size: 0x8, addend: 0x0, symName: __ZN6VSTGUI10CSplitView14resizeLastViewENS_6CPointE, symObjAddr: 0xF8C, symBinAddr: 0x81A08, symSize: 0x390 }
  - { offset: 0x38EEA6, size: 0x8, addend: 0x0, symName: __ZN6VSTGUI10CSplitView16resizeViewsEqualENS_6CPointE, symObjAddr: 0x131C, symBinAddr: 0x81D98, symSize: 0x3B0 }
  - { offset: 0x38F90A, size: 0x8, addend: 0x0, symName: __ZN6VSTGUI10CSplitView11setViewSizeERKNS_5CRectEb, symObjAddr: 0x16CC, symBinAddr: 0x82148, symSize: 0x13C }
  - { offset: 0x38FB21, size: 0x8, addend: 0x0, symName: __ZN6VSTGUI10CSplitView7addViewEPNS_5CViewES2_, symObjAddr: 0x1808, symBinAddr: 0x82284, symSize: 0x2D8 }
  - { offset: 0x390073, size: 0x8, addend: 0x0, symName: __ZN6VSTGUI23CSplitViewSeparatorViewC1ERKNS_5CRectENS_10CSplitView5StyleEi, symObjAddr: 0x1AE0, symBinAddr: 0x8255C, symSize: 0x90 }
  - { offset: 0x39010C, size: 0x8, addend: 0x0, symName: __ZN6VSTGUI10CSplitView10removeViewEPNS_5CViewEb, symObjAddr: 0x1B70, symBinAddr: 0x825EC, symSize: 0x1D8 }
  - { offset: 0x390622, size: 0x8, addend: 0x0, symName: __ZN6VSTGUI10CSplitView9removeAllEb, symObjAddr: 0x1D48, symBinAddr: 0x827C4, symSize: 0x4 }
  - { offset: 0x39065E, size: 0x8, addend: 0x0, symName: __ZN6VSTGUI10CSplitView9sizeToFitEv, symObjAddr: 0x1D4C, symBinAddr: 0x827C8, symSize: 0x8 }
  - { offset: 0x390684, size: 0x8, addend: 0x0, symName: __ZN6VSTGUI10CSplitView14storeViewSizesEv, symObjAddr: 0x1D54, symBinAddr: 0x827D0, symSize: 0x198 }
  - { offset: 0x390936, size: 0x8, addend: 0x0, symName: __ZN6VSTGUI10CSplitView7removedEPNS_5CViewE, symObjAddr: 0x1EEC, symBinAddr: 0x82968, symSize: 0x2C }
  - { offset: 0x390986, size: 0x8, addend: 0x0, symName: __ZN6VSTGUI10CSplitView8attachedEPNS_5CViewE, symObjAddr: 0x1F18, symBinAddr: 0x82994, symSize: 0x2C0 }
  - { offset: 0x390DD3, size: 0x8, addend: 0x0, symName: __ZN6VSTGUI10CSplitView9getDrawerEv, symObjAddr: 0x21D8, symBinAddr: 0x82C54, symSize: 0x68 }
  - { offset: 0x390E5E, size: 0x8, addend: 0x0, symName: __ZN6VSTGUI10CSplitView18addViewToSeparatorEiPNS_5CViewE, symObjAddr: 0x2240, symBinAddr: 0x82CBC, symSize: 0x120 }
  - { offset: 0x391024, size: 0x8, addend: 0x0, symName: __ZN6VSTGUI23CSplitViewSeparatorViewC2ERKNS_5CRectENS_10CSplitView5StyleEi, symObjAddr: 0x2360, symBinAddr: 0x82DDC, symSize: 0x98 }
  - { offset: 0x391115, size: 0x8, addend: 0x0, symName: __ZN6VSTGUI23CSplitViewSeparatorView8drawRectEPNS_12CDrawContextERKNS_5CRectE, symObjAddr: 0x23F8, symBinAddr: 0x82E74, symSize: 0xBC }
  - { offset: 0x391221, size: 0x8, addend: 0x0, symName: __ZN6VSTGUI23CSplitViewSeparatorView15hitTestSubViewsERKNS_6CPointERKNS_5EventE, symObjAddr: 0x24B4, symBinAddr: 0x82F30, symSize: 0xC }
  - { offset: 0x3912A3, size: 0x8, addend: 0x0, symName: __ZN6VSTGUI23CSplitViewSeparatorView16onMouseDownEventERNS_14MouseDownEventE, symObjAddr: 0x24C0, symBinAddr: 0x82F3C, symSize: 0xAC }
  - { offset: 0x39134D, size: 0x8, addend: 0x0, symName: __ZN6VSTGUI23CSplitViewSeparatorView10mouseMovedERNS_10MouseEventE, symObjAddr: 0x256C, symBinAddr: 0x82FE8, symSize: 0x1CC }
  - { offset: 0x39180B, size: 0x8, addend: 0x0, symName: __ZN6VSTGUI23CSplitViewSeparatorView14onMouseUpEventERNS_12MouseUpEventE, symObjAddr: 0x2738, symBinAddr: 0x831B4, symSize: 0x68 }
  - { offset: 0x3918A5, size: 0x8, addend: 0x0, symName: __ZN6VSTGUI23CSplitViewSeparatorView16onMouseMoveEventERNS_14MouseMoveEventE, symObjAddr: 0x27A0, symBinAddr: 0x8321C, symSize: 0x44 }
  - { offset: 0x3918ED, size: 0x8, addend: 0x0, symName: __ZN6VSTGUI23CSplitViewSeparatorView17onMouseEnterEventERNS_15MouseEnterEventE, symObjAddr: 0x27E4, symBinAddr: 0x83260, symSize: 0x7C }
  - { offset: 0x39197D, size: 0x8, addend: 0x0, symName: __ZN6VSTGUI23CSplitViewSeparatorView16onMouseExitEventERNS_14MouseExitEventE, symObjAddr: 0x2860, symBinAddr: 0x832DC, symSize: 0x54 }
