---
triple:          'x86_64-apple-darwin'
binary-path:     '/Users/noahlynaugh/Desktop/Coding/Studio_PLND/Digital-Effect-Controller/DEC/VST_Plugin/vst3sdk/build/VST3/Release/again-simple.vst3/Contents/MacOS/again-simple'
relocations:
  - { offset: 0x7001, size: 0x8, addend: 0x0, symName: _GetPluginFactory, symObjAddr: 0x2490, symBinAddr: 0x7830, symSize: 0x150 }
  - { offset: 0x7028, size: 0x8, addend: 0x0, symName: __ZZ16GetPluginFactoryE11factoryInfo, symObjAddr: 0x52F0, symBinAddr: 0x1CE0B8, symSize: 0x0 }
  - { offset: 0x703E, size: 0x8, addend: 0x0, symName: __ZZ16GetPluginFactoryE14componentClass, symObjAddr: 0xE9E18, symBinAddr: 0x1CE560, symSize: 0x0 }
  - { offset: 0x2EF56, size: 0x8, addend: 0x0, symName: __ZNSt3__120__throw_length_errorB8ne180100EPKc, symObjAddr: 0x32C0, symBinAddr: 0x8660, symSize: 0x50 }
  - { offset: 0x2EF95, size: 0x8, addend: 0x0, symName: __ZNSt3__120__throw_out_of_rangeB8ne180100EPKc, symObjAddr: 0x3CC0, symBinAddr: 0x9060, symSize: 0x50 }
  - { offset: 0x302E2, size: 0x8, addend: 0x0, symName: __ZSt28__throw_bad_array_new_lengthB8ne180100v, symObjAddr: 0x3340, symBinAddr: 0x86E0, symSize: 0x40 }
  - { offset: 0x33C13, size: 0x8, addend: 0x0, symName: __ZN9Steinberg3Vst13GainParameterC2Eii, symObjAddr: 0x0, symBinAddr: 0x53A0, symSize: 0x150 }
  - { offset: 0x33E7E, size: 0x8, addend: 0x0, symName: __ZN9Steinberg3Vst13GainParameterC1Eii, symObjAddr: 0x150, symBinAddr: 0x54F0, symSize: 0x10 }
  - { offset: 0x33ED0, size: 0x8, addend: 0x0, symName: __ZNK9Steinberg3Vst13GainParameter8toStringEdPDs, symObjAddr: 0x160, symBinAddr: 0x5500, symSize: 0xA0 }
  - { offset: 0x33FB5, size: 0x8, addend: 0x0, symName: __ZNK9Steinberg3Vst13GainParameter10fromStringEPKDsRd, symObjAddr: 0x200, symBinAddr: 0x55A0, symSize: 0x80 }
  - { offset: 0x340A9, size: 0x8, addend: 0x0, symName: __ZN9Steinberg3Vst11AGainSimpleC2Ev, symObjAddr: 0x280, symBinAddr: 0x5620, symSize: 0xE0 }
  - { offset: 0x34127, size: 0x8, addend: 0x0, symName: __ZN9Steinberg3Vst11AGainSimpleC1Ev, symObjAddr: 0x360, symBinAddr: 0x5700, symSize: 0xE0 }
  - { offset: 0x341DC, size: 0x8, addend: 0x0, symName: __ZN9Steinberg3Vst11AGainSimple10initializeEPNS_8FUnknownE, symObjAddr: 0x440, symBinAddr: 0x57E0, symSize: 0x1D0 }
  - { offset: 0x3447A, size: 0x8, addend: 0x0, symName: __ZThn16_N9Steinberg3Vst11AGainSimple10initializeEPNS_8FUnknownE, symObjAddr: 0x610, symBinAddr: 0x59B0, symSize: 0x10 }
  - { offset: 0x344A7, size: 0x8, addend: 0x0, symName: __ZThn48_N9Steinberg3Vst11AGainSimple10initializeEPNS_8FUnknownE, symObjAddr: 0x620, symBinAddr: 0x59C0, symSize: 0x10 }
  - { offset: 0x344D4, size: 0x8, addend: 0x0, symName: __ZThn200_N9Steinberg3Vst11AGainSimple10initializeEPNS_8FUnknownE, symObjAddr: 0x630, symBinAddr: 0x59D0, symSize: 0x20 }
  - { offset: 0x34501, size: 0x8, addend: 0x0, symName: __ZN9Steinberg3Vst11AGainSimple9terminateEv, symObjAddr: 0x650, symBinAddr: 0x59F0, symSize: 0x10 }
  - { offset: 0x34539, size: 0x8, addend: 0x0, symName: __ZThn16_N9Steinberg3Vst11AGainSimple9terminateEv, symObjAddr: 0x660, symBinAddr: 0x5A00, symSize: 0x10 }
  - { offset: 0x3456C, size: 0x8, addend: 0x0, symName: __ZThn48_N9Steinberg3Vst11AGainSimple9terminateEv, symObjAddr: 0x670, symBinAddr: 0x5A10, symSize: 0x10 }
  - { offset: 0x3459F, size: 0x8, addend: 0x0, symName: __ZThn200_N9Steinberg3Vst11AGainSimple9terminateEv, symObjAddr: 0x680, symBinAddr: 0x5A20, symSize: 0x20 }
  - { offset: 0x345D2, size: 0x8, addend: 0x0, symName: __ZN9Steinberg3Vst11AGainSimple9setActiveEh, symObjAddr: 0x6A0, symBinAddr: 0x5A40, symSize: 0x50 }
  - { offset: 0x34620, size: 0x8, addend: 0x0, symName: __ZThn200_N9Steinberg3Vst11AGainSimple9setActiveEh, symObjAddr: 0x6F0, symBinAddr: 0x5A90, symSize: 0x50 }
  - { offset: 0x347B7, size: 0x8, addend: 0x0, symName: __ZN9Steinberg3Vst11AGainSimple7processERNS0_11ProcessDataE, symObjAddr: 0x740, symBinAddr: 0x5AE0, symSize: 0x6D0 }
  - { offset: 0x34CDF, size: 0x8, addend: 0x0, symName: __ZThn208_N9Steinberg3Vst11AGainSimple7processERNS0_11ProcessDataE, symObjAddr: 0xE10, symBinAddr: 0x61B0, symSize: 0x20 }
  - { offset: 0x34DEC, size: 0x8, addend: 0x0, symName: __ZN9Steinberg3Vst11AGainSimple8setStateEPNS_8IBStreamE, symObjAddr: 0xE30, symBinAddr: 0x61D0, symSize: 0x2E0 }
  - { offset: 0x350F0, size: 0x8, addend: 0x0, symName: __ZThn200_N9Steinberg3Vst11AGainSimple8setStateEPNS_8IBStreamE, symObjAddr: 0x1110, symBinAddr: 0x64B0, symSize: 0x20 }
  - { offset: 0x3511E, size: 0x8, addend: 0x0, symName: __ZN9Steinberg3Vst11AGainSimple8getStateEPNS_8IBStreamE, symObjAddr: 0x1130, symBinAddr: 0x64D0, symSize: 0x60 }
  - { offset: 0x35222, size: 0x8, addend: 0x0, symName: __ZThn200_N9Steinberg3Vst11AGainSimple8getStateEPNS_8IBStreamE, symObjAddr: 0x1190, symBinAddr: 0x6530, symSize: 0x60 }
  - { offset: 0x3526B, size: 0x8, addend: 0x0, symName: __ZN9Steinberg3Vst11AGainSimple15setupProcessingERNS0_12ProcessSetupE, symObjAddr: 0x11F0, symBinAddr: 0x6590, symSize: 0x20 }
  - { offset: 0x352B7, size: 0x8, addend: 0x0, symName: __ZThn208_N9Steinberg3Vst11AGainSimple15setupProcessingERNS0_12ProcessSetupE, symObjAddr: 0x1210, symBinAddr: 0x65B0, symSize: 0x20 }
  - { offset: 0x35631, size: 0x8, addend: 0x0, symName: __ZN9Steinberg3Vst11AGainSimple18setBusArrangementsEPyiS2_i, symObjAddr: 0x1230, symBinAddr: 0x65D0, symSize: 0x510 }
  - { offset: 0x36AF7, size: 0x8, addend: 0x0, symName: __ZNSt3__112basic_stringIDsNS_11char_traitsIDsEENS_9allocatorIDsEEE17__assign_no_aliasILb0EEERS5_PKDsm, symObjAddr: 0x30B0, symBinAddr: 0x8450, symSize: 0x80 }
  - { offset: 0x36E20, size: 0x8, addend: 0x0, symName: __ZNKSt3__16vectorIN9Steinberg4IPtrINS1_3Vst3BusEEENS_9allocatorIS5_EEE20__throw_out_of_rangeB8ne180100Ev, symObjAddr: 0x3CB0, symBinAddr: 0x9050, symSize: 0x10 }
  - { offset: 0x36E4A, size: 0x8, addend: 0x0, symName: __ZNSt3__120__throw_out_of_rangeB8ne180100EPKc, symObjAddr: 0x3CC0, symBinAddr: 0x9060, symSize: 0x50 }
  - { offset: 0x36E55, size: 0x8, addend: 0x0, symName: __ZThn208_N9Steinberg3Vst11AGainSimple18setBusArrangementsEPyiS2_i, symObjAddr: 0x1740, symBinAddr: 0x6AE0, symSize: 0x20 }
  - { offset: 0x36E98, size: 0x8, addend: 0x0, symName: __ZN9Steinberg3Vst11AGainSimple20canProcessSampleSizeEi, symObjAddr: 0x1760, symBinAddr: 0x6B00, symSize: 0x10 }
  - { offset: 0x36EE3, size: 0x8, addend: 0x0, symName: __ZThn208_N9Steinberg3Vst11AGainSimple20canProcessSampleSizeEi, symObjAddr: 0x1770, symBinAddr: 0x6B10, symSize: 0x10 }
  - { offset: 0x36F17, size: 0x8, addend: 0x0, symName: __ZN9Steinberg3Vst11AGainSimple10createViewEPKc, symObjAddr: 0x1780, symBinAddr: 0x6B20, symSize: 0xA0 }
  - { offset: 0x36FE7, size: 0x8, addend: 0x0, symName: __ZThn48_N9Steinberg3Vst11AGainSimple10createViewEPKc, symObjAddr: 0x1820, symBinAddr: 0x6BC0, symSize: 0xA0 }
  - { offset: 0x37090, size: 0x8, addend: 0x0, symName: __ZN9Steinberg3Vst11AGainSimple27getMidiControllerAssignmentEissRj, symObjAddr: 0x18C0, symBinAddr: 0x6C60, symSize: 0x20 }
  - { offset: 0x37110, size: 0x8, addend: 0x0, symName: __ZThn456_N9Steinberg3Vst11AGainSimple27getMidiControllerAssignmentEissRj, symObjAddr: 0x18E0, symBinAddr: 0x6C80, symSize: 0x20 }
  - { offset: 0x371C5, size: 0x8, addend: 0x0, symName: __ZN9Steinberg3Vst11AGainSimple19createSubControllerEPKcPKN6VSTGUI14IUIDescriptionEPNS4_10VST3EditorE, symObjAddr: 0x1900, symBinAddr: 0x6CA0, symSize: 0x80 }
  - { offset: 0x372BB, size: 0x8, addend: 0x0, symName: __ZN9Steinberg3Vst11AGainSimple22addUIMessageControllerEPNS0_24AGainUIMessageControllerIS1_EE, symObjAddr: 0x1980, symBinAddr: 0x6D20, symSize: 0x1D0 }
  - { offset: 0x37C0C, size: 0x8, addend: 0x0, symName: __ZNKSt3__16vectorIPN9Steinberg3Vst24AGainUIMessageControllerINS2_11AGainSimpleEEENS_9allocatorIS6_EEE20__throw_length_errorB8ne180100Ev, symObjAddr: 0x44F0, symBinAddr: 0x9890, symSize: 0x10 }
  - { offset: 0x37C8A, size: 0x8, addend: 0x0, symName: __ZThn448_N9Steinberg3Vst11AGainSimple19createSubControllerEPKcPKN6VSTGUI14IUIDescriptionEPNS4_10VST3EditorE, symObjAddr: 0x1B50, symBinAddr: 0x6EF0, symSize: 0x80 }
  - { offset: 0x37DBA, size: 0x8, addend: 0x0, symName: __ZN9Steinberg3Vst11AGainSimple14setEditorStateEPNS_8IBStreamE, symObjAddr: 0x1BD0, symBinAddr: 0x6F70, symSize: 0x180 }
  - { offset: 0x37F1F, size: 0x8, addend: 0x0, symName: __ZN9Steinberg3Vst24AGainUIMessageControllerINS0_11AGainSimpleEE14setMessageTextEPDs, symObjAddr: 0x1D50, symBinAddr: 0x70F0, symSize: 0xB0 }
  - { offset: 0x384A3, size: 0x8, addend: 0x0, symName: __ZN6VSTGUI10UTF8StringD1Ev, symObjAddr: 0x44B0, symBinAddr: 0x9850, symSize: 0x40 }
  - { offset: 0x386AF, size: 0x8, addend: 0x0, symName: __ZThn48_N9Steinberg3Vst11AGainSimple14setEditorStateEPNS_8IBStreamE, symObjAddr: 0x1E00, symBinAddr: 0x71A0, symSize: 0x180 }
  - { offset: 0x38802, size: 0x8, addend: 0x0, symName: __ZN9Steinberg3Vst11AGainSimple14getEditorStateEPNS_8IBStreamE, symObjAddr: 0x1F80, symBinAddr: 0x7320, symSize: 0x60 }
  - { offset: 0x3887D, size: 0x8, addend: 0x0, symName: __ZThn48_N9Steinberg3Vst11AGainSimple14getEditorStateEPNS_8IBStreamE, symObjAddr: 0x1FE0, symBinAddr: 0x7380, symSize: 0x60 }
  - { offset: 0x388CF, size: 0x8, addend: 0x0, symName: __ZN9Steinberg3Vst11AGainSimple18setParamNormalizedEjd, symObjAddr: 0x2040, symBinAddr: 0x73E0, symSize: 0x10 }
  - { offset: 0x38940, size: 0x8, addend: 0x0, symName: __ZThn48_N9Steinberg3Vst11AGainSimple18setParamNormalizedEjd, symObjAddr: 0x2050, symBinAddr: 0x73F0, symSize: 0x10 }
  - { offset: 0x38982, size: 0x8, addend: 0x0, symName: __ZN9Steinberg3Vst11AGainSimple21getParamStringByValueEjdPDs, symObjAddr: 0x2060, symBinAddr: 0x7400, symSize: 0x10 }
  - { offset: 0x389F4, size: 0x8, addend: 0x0, symName: __ZThn48_N9Steinberg3Vst11AGainSimple21getParamStringByValueEjdPDs, symObjAddr: 0x2070, symBinAddr: 0x7410, symSize: 0x10 }
  - { offset: 0x38A3D, size: 0x8, addend: 0x0, symName: __ZN9Steinberg3Vst11AGainSimple21getParamValueByStringEjPDsRd, symObjAddr: 0x2080, symBinAddr: 0x7420, symSize: 0x10 }
  - { offset: 0x38AAF, size: 0x8, addend: 0x0, symName: __ZThn48_N9Steinberg3Vst11AGainSimple21getParamValueByStringEjPDsRd, symObjAddr: 0x2090, symBinAddr: 0x7430, symSize: 0x10 }
  - { offset: 0x38C17, size: 0x8, addend: 0x0, symName: __ZN9Steinberg3Vst11AGainSimple25removeUIMessageControllerEPNS0_24AGainUIMessageControllerIS1_EE, symObjAddr: 0x20A0, symBinAddr: 0x7440, symSize: 0x60 }
  - { offset: 0x38ED2, size: 0x8, addend: 0x0, symName: __ZN9Steinberg3Vst11AGainSimple21setDefaultMessageTextEPDs, symObjAddr: 0x2100, symBinAddr: 0x74A0, symSize: 0x30 }
  - { offset: 0x38F60, size: 0x8, addend: 0x0, symName: __ZN9Steinberg3Vst11AGainSimple21getDefaultMessageTextEv, symObjAddr: 0x2130, symBinAddr: 0x74D0, symSize: 0x10 }
  - { offset: 0x38F80, size: 0x8, addend: 0x0, symName: __ZN9Steinberg3Vst11AGainSimple14queryInterfaceEPKcPPv, symObjAddr: 0x2140, symBinAddr: 0x74E0, symSize: 0x50 }
  - { offset: 0x39030, size: 0x8, addend: 0x0, symName: __ZThn16_N9Steinberg3Vst11AGainSimple14queryInterfaceEPKcPPv, symObjAddr: 0x2190, symBinAddr: 0x7530, symSize: 0x50 }
  - { offset: 0x390AA, size: 0x8, addend: 0x0, symName: __ZThn24_N9Steinberg3Vst11AGainSimple14queryInterfaceEPKcPPv, symObjAddr: 0x21E0, symBinAddr: 0x7580, symSize: 0x50 }
  - { offset: 0x39124, size: 0x8, addend: 0x0, symName: __ZThn48_N9Steinberg3Vst11AGainSimple14queryInterfaceEPKcPPv, symObjAddr: 0x2230, symBinAddr: 0x75D0, symSize: 0x50 }
  - { offset: 0x3919E, size: 0x8, addend: 0x0, symName: __ZThn56_N9Steinberg3Vst11AGainSimple14queryInterfaceEPKcPPv, symObjAddr: 0x2280, symBinAddr: 0x7620, symSize: 0x50 }
  - { offset: 0x39218, size: 0x8, addend: 0x0, symName: __ZThn112_N9Steinberg3Vst11AGainSimple14queryInterfaceEPKcPPv, symObjAddr: 0x22D0, symBinAddr: 0x7670, symSize: 0x50 }
  - { offset: 0x39292, size: 0x8, addend: 0x0, symName: __ZThn200_N9Steinberg3Vst11AGainSimple14queryInterfaceEPKcPPv, symObjAddr: 0x2320, symBinAddr: 0x76C0, symSize: 0x60 }
  - { offset: 0x3930C, size: 0x8, addend: 0x0, symName: __ZThn208_N9Steinberg3Vst11AGainSimple14queryInterfaceEPKcPPv, symObjAddr: 0x2380, symBinAddr: 0x7720, symSize: 0x60 }
  - { offset: 0x39386, size: 0x8, addend: 0x0, symName: __ZThn216_N9Steinberg3Vst11AGainSimple14queryInterfaceEPKcPPv, symObjAddr: 0x23E0, symBinAddr: 0x7780, symSize: 0x60 }
  - { offset: 0x39400, size: 0x8, addend: 0x0, symName: __ZThn456_N9Steinberg3Vst11AGainSimple14queryInterfaceEPKcPPv, symObjAddr: 0x2440, symBinAddr: 0x77E0, symSize: 0x50 }
  - { offset: 0x39505, size: 0x8, addend: 0x0, symName: __ZN9Steinberg11PClassInfo2C2EPKciS2_S2_iS2_S2_S2_S2_, symObjAddr: 0x3380, symBinAddr: 0x8720, symSize: 0x930 }
  - { offset: 0x39759, size: 0x8, addend: 0x0, symName: __ZN9Steinberg3Vst11AGainSimple14createInstanceEPv, symObjAddr: 0x25E0, symBinAddr: 0x7980, symSize: 0x110 }
  - { offset: 0x397F4, size: 0x8, addend: 0x0, symName: __ZN9Steinberg7FObject6updateEPNS_8FUnknownEi, symObjAddr: 0x26F0, symBinAddr: 0x7A90, symSize: 0x10 }
  - { offset: 0x39849, size: 0x8, addend: 0x0, symName: __ZN9Steinberg3Vst13GainParameterD1Ev, symObjAddr: 0x2700, symBinAddr: 0x7AA0, symSize: 0x10 }
  - { offset: 0x398A2, size: 0x8, addend: 0x0, symName: __ZN9Steinberg3Vst13GainParameterD0Ev, symObjAddr: 0x2710, symBinAddr: 0x7AB0, symSize: 0x20 }
  - { offset: 0x39909, size: 0x8, addend: 0x0, symName: __ZNK9Steinberg3Vst9Parameter3isAEv, symObjAddr: 0x2730, symBinAddr: 0x7AD0, symSize: 0x10 }
  - { offset: 0x3992E, size: 0x8, addend: 0x0, symName: __ZNK9Steinberg3Vst9Parameter3isAEPKc, symObjAddr: 0x2740, symBinAddr: 0x7AE0, symSize: 0x10 }
  - { offset: 0x399C9, size: 0x8, addend: 0x0, symName: __ZNK9Steinberg3Vst9Parameter8isTypeOfEPKcb, symObjAddr: 0x2750, symBinAddr: 0x7AF0, symSize: 0x50 }
  - { offset: 0x39A13, size: 0x8, addend: 0x0, symName: __ZNK9Steinberg3Vst9Parameter8isTypeOfEPKcb, symObjAddr: 0x2750, symBinAddr: 0x7AF0, symSize: 0x50 }
  - { offset: 0x39AA2, size: 0x8, addend: 0x0, symName: __ZN9Steinberg7FObject10updateDoneEi, symObjAddr: 0x27A0, symBinAddr: 0x7B40, symSize: 0x10 }
  - { offset: 0x39AD1, size: 0x8, addend: 0x0, symName: __ZN9Steinberg7FObject15isEqualInstanceEPNS_8FUnknownE, symObjAddr: 0x27B0, symBinAddr: 0x7B50, symSize: 0x10 }
  - { offset: 0x39B04, size: 0x8, addend: 0x0, symName: __ZNK9Steinberg3Vst9Parameter7getInfoEv, symObjAddr: 0x27C0, symBinAddr: 0x7B60, symSize: 0x10 }
  - { offset: 0x39B29, size: 0x8, addend: 0x0, symName: __ZN9Steinberg3Vst9Parameter7getInfoEv, symObjAddr: 0x27D0, symBinAddr: 0x7B70, symSize: 0x10 }
  - { offset: 0x39B4E, size: 0x8, addend: 0x0, symName: __ZN9Steinberg3Vst9Parameter9setUnitIDEi, symObjAddr: 0x27E0, symBinAddr: 0x7B80, symSize: 0x10 }
  - { offset: 0x39B81, size: 0x8, addend: 0x0, symName: __ZN9Steinberg3Vst9Parameter9getUnitIDEv, symObjAddr: 0x27F0, symBinAddr: 0x7B90, symSize: 0x10 }
  - { offset: 0x39BA6, size: 0x8, addend: 0x0, symName: __ZNK9Steinberg3Vst9Parameter12getPrecisionEv, symObjAddr: 0x2800, symBinAddr: 0x7BA0, symSize: 0x10 }
  - { offset: 0x39BCB, size: 0x8, addend: 0x0, symName: __ZN9Steinberg3Vst9Parameter12setPrecisionEi, symObjAddr: 0x2810, symBinAddr: 0x7BB0, symSize: 0x10 }
  - { offset: 0x39C65, size: 0x8, addend: 0x0, symName: __ZN9Steinberg3Vst11AGainSimple6addRefEv, symObjAddr: 0x2820, symBinAddr: 0x7BC0, symSize: 0x10 }
  - { offset: 0x39D51, size: 0x8, addend: 0x0, symName: __ZN9Steinberg3Vst11AGainSimple7releaseEv, symObjAddr: 0x2830, symBinAddr: 0x7BD0, symSize: 0x10 }
  - { offset: 0x39E66, size: 0x8, addend: 0x0, symName: __ZN9Steinberg3Vst11AGainSimpleD1Ev, symObjAddr: 0x2840, symBinAddr: 0x7BE0, symSize: 0xC0 }
  - { offset: 0x39FEF, size: 0x8, addend: 0x0, symName: __ZN9Steinberg3Vst11AGainSimpleD0Ev, symObjAddr: 0x2900, symBinAddr: 0x7CA0, symSize: 0xC0 }
  - { offset: 0x3A177, size: 0x8, addend: 0x0, symName: __ZNK9Steinberg3Vst11AGainSimple3isAEv, symObjAddr: 0x29C0, symBinAddr: 0x7D60, symSize: 0x10 }
  - { offset: 0x3A19C, size: 0x8, addend: 0x0, symName: __ZNK9Steinberg3Vst11AGainSimple3isAEPKc, symObjAddr: 0x29D0, symBinAddr: 0x7D70, symSize: 0x10 }
  - { offset: 0x3A2B5, size: 0x8, addend: 0x0, symName: __ZNK9Steinberg3Vst11AGainSimple8isTypeOfEPKcb, symObjAddr: 0x29E0, symBinAddr: 0x7D80, symSize: 0xB0 }
  - { offset: 0x3A50A, size: 0x8, addend: 0x0, symName: __ZN9Steinberg3Vst14EditController11setKnobModeEi, symObjAddr: 0x2A90, symBinAddr: 0x7E30, symSize: 0x20 }
  - { offset: 0x3A531, size: 0x8, addend: 0x0, symName: __ZN9Steinberg3Vst14EditController8openHelpEh, symObjAddr: 0x2AB0, symBinAddr: 0x7E50, symSize: 0x10 }
  - { offset: 0x3A560, size: 0x8, addend: 0x0, symName: __ZN9Steinberg3Vst14EditController12openAboutBoxEh, symObjAddr: 0x2AC0, symBinAddr: 0x7E60, symSize: 0x10 }
  - { offset: 0x3A58F, size: 0x8, addend: 0x0, symName: __ZN9Steinberg3Vst14EditController15editorDestroyedEPNS0_10EditorViewE, symObjAddr: 0x2AD0, symBinAddr: 0x7E70, symSize: 0x10 }
  - { offset: 0x3A5BE, size: 0x8, addend: 0x0, symName: __ZN9Steinberg3Vst14EditController14editorAttachedEPNS0_10EditorViewE, symObjAddr: 0x2AE0, symBinAddr: 0x7E80, symSize: 0x10 }
  - { offset: 0x3A5ED, size: 0x8, addend: 0x0, symName: __ZN9Steinberg3Vst14EditController13editorRemovedEPNS0_10EditorViewE, symObjAddr: 0x2AF0, symBinAddr: 0x7E90, symSize: 0x10 }
  - { offset: 0x3A61C, size: 0x8, addend: 0x0, symName: __ZN9Steinberg3Vst14EditController18getParameterObjectEj, symObjAddr: 0x2B00, symBinAddr: 0x7EA0, symSize: 0x10 }
  - { offset: 0x3A66C, size: 0x8, addend: 0x0, symName: __ZN9Steinberg3Vst17EditControllerEx112getUnitCountEv, symObjAddr: 0x2B10, symBinAddr: 0x7EB0, symSize: 0x20 }
  - { offset: 0x3A6AC, size: 0x8, addend: 0x0, symName: __ZN9Steinberg3Vst17EditControllerEx115getSelectedUnitEv, symObjAddr: 0x2B30, symBinAddr: 0x7ED0, symSize: 0x10 }
  - { offset: 0x3A6CC, size: 0x8, addend: 0x0, symName: __ZN9Steinberg3Vst17EditControllerEx110selectUnitEi, symObjAddr: 0x2B40, symBinAddr: 0x7EE0, symSize: 0x10 }
  - { offset: 0x3A6F3, size: 0x8, addend: 0x0, symName: __ZN9Steinberg3Vst17EditControllerEx112getUnitByBusEiiiiRi, symObjAddr: 0x2B50, symBinAddr: 0x7EF0, symSize: 0x10 }
  - { offset: 0x3A74F, size: 0x8, addend: 0x0, symName: __ZN9Steinberg3Vst17EditControllerEx118setUnitProgramDataEiiPNS_8IBStreamE, symObjAddr: 0x2B60, symBinAddr: 0x7F00, symSize: 0x10 }
  - { offset: 0x3A795, size: 0x8, addend: 0x0, symName: __ZN9Steinberg3Vst21SingleComponentEffect20getControllerClassIdEPc, symObjAddr: 0x2B70, symBinAddr: 0x7F10, symSize: 0x10 }
  - { offset: 0x3A7C4, size: 0x8, addend: 0x0, symName: __ZN9Steinberg3Vst21SingleComponentEffect9setIoModeEi, symObjAddr: 0x2B80, symBinAddr: 0x7F20, symSize: 0x10 }
  - { offset: 0x3A7F3, size: 0x8, addend: 0x0, symName: __ZN9Steinberg3Vst21SingleComponentEffect14getRoutingInfoERNS0_11RoutingInfoES3_, symObjAddr: 0x2B90, symBinAddr: 0x7F30, symSize: 0x10 }
  - { offset: 0x3A82C, size: 0x8, addend: 0x0, symName: __ZN9Steinberg3Vst21SingleComponentEffect17getLatencySamplesEv, symObjAddr: 0x2BA0, symBinAddr: 0x7F40, symSize: 0x10 }
  - { offset: 0x3A851, size: 0x8, addend: 0x0, symName: __ZN9Steinberg3Vst21SingleComponentEffect13setProcessingEh, symObjAddr: 0x2BB0, symBinAddr: 0x7F50, symSize: 0x10 }
  - { offset: 0x3A880, size: 0x8, addend: 0x0, symName: __ZN9Steinberg3Vst21SingleComponentEffect14getTailSamplesEv, symObjAddr: 0x2BC0, symBinAddr: 0x7F60, symSize: 0x10 }
  - { offset: 0x3A8A5, size: 0x8, addend: 0x0, symName: __ZN9Steinberg3Vst21SingleComponentEffect29getProcessContextRequirementsEv, symObjAddr: 0x2BD0, symBinAddr: 0x7F70, symSize: 0x10 }
  - { offset: 0x3A8DB, size: 0x8, addend: 0x0, symName: __ZThn16_N9Steinberg3Vst11AGainSimple6addRefEv, symObjAddr: 0x2BE0, symBinAddr: 0x7F80, symSize: 0x10 }
  - { offset: 0x3A998, size: 0x8, addend: 0x0, symName: __ZThn16_N9Steinberg3Vst11AGainSimple7releaseEv, symObjAddr: 0x2BF0, symBinAddr: 0x7F90, symSize: 0x10 }
  - { offset: 0x3AA3F, size: 0x8, addend: 0x0, symName: __ZThn24_N9Steinberg3Vst11AGainSimple6addRefEv, symObjAddr: 0x2C00, symBinAddr: 0x7FA0, symSize: 0x10 }
  - { offset: 0x3AAE6, size: 0x8, addend: 0x0, symName: __ZThn24_N9Steinberg3Vst11AGainSimple7releaseEv, symObjAddr: 0x2C10, symBinAddr: 0x7FB0, symSize: 0x10 }
  - { offset: 0x3AB8D, size: 0x8, addend: 0x0, symName: __ZThn48_N9Steinberg3Vst11AGainSimple6addRefEv, symObjAddr: 0x2C20, symBinAddr: 0x7FC0, symSize: 0x10 }
  - { offset: 0x3AC34, size: 0x8, addend: 0x0, symName: __ZThn48_N9Steinberg3Vst11AGainSimple7releaseEv, symObjAddr: 0x2C30, symBinAddr: 0x7FD0, symSize: 0x10 }
  - { offset: 0x3ACDB, size: 0x8, addend: 0x0, symName: __ZThn56_N9Steinberg3Vst11AGainSimple6addRefEv, symObjAddr: 0x2C40, symBinAddr: 0x7FE0, symSize: 0x10 }
  - { offset: 0x3AD82, size: 0x8, addend: 0x0, symName: __ZThn56_N9Steinberg3Vst11AGainSimple7releaseEv, symObjAddr: 0x2C50, symBinAddr: 0x7FF0, symSize: 0x10 }
  - { offset: 0x3AE4A, size: 0x8, addend: 0x0, symName: __ZThn56_N9Steinberg3Vst14EditController11setKnobModeEi, symObjAddr: 0x2C60, symBinAddr: 0x8000, symSize: 0x20 }
  - { offset: 0x3AE86, size: 0x8, addend: 0x0, symName: __ZThn56_N9Steinberg3Vst14EditController8openHelpEh, symObjAddr: 0x2C80, symBinAddr: 0x8020, symSize: 0x10 }
  - { offset: 0x3AE9C, size: 0x8, addend: 0x0, symName: __ZThn56_N9Steinberg3Vst14EditController12openAboutBoxEh, symObjAddr: 0x2C90, symBinAddr: 0x8030, symSize: 0x10 }
  - { offset: 0x3AEB2, size: 0x8, addend: 0x0, symName: __ZThn112_N9Steinberg3Vst11AGainSimple6addRefEv, symObjAddr: 0x2CA0, symBinAddr: 0x8040, symSize: 0x10 }
  - { offset: 0x3AF59, size: 0x8, addend: 0x0, symName: __ZThn112_N9Steinberg3Vst11AGainSimple7releaseEv, symObjAddr: 0x2CB0, symBinAddr: 0x8050, symSize: 0x10 }
  - { offset: 0x3B016, size: 0x8, addend: 0x0, symName: __ZThn112_N9Steinberg3Vst17EditControllerEx112getUnitCountEv, symObjAddr: 0x2CC0, symBinAddr: 0x8060, symSize: 0x20 }
  - { offset: 0x3B082, size: 0x8, addend: 0x0, symName: __ZThn112_N9Steinberg3Vst17EditControllerEx115getSelectedUnitEv, symObjAddr: 0x2CE0, symBinAddr: 0x8080, symSize: 0x10 }
  - { offset: 0x3B0DB, size: 0x8, addend: 0x0, symName: __ZThn112_N9Steinberg3Vst17EditControllerEx110selectUnitEi, symObjAddr: 0x2CF0, symBinAddr: 0x8090, symSize: 0x10 }
  - { offset: 0x3B119, size: 0x8, addend: 0x0, symName: __ZThn112_N9Steinberg3Vst17EditControllerEx112getUnitByBusEiiiiRi, symObjAddr: 0x2D00, symBinAddr: 0x80A0, symSize: 0x10 }
  - { offset: 0x3B130, size: 0x8, addend: 0x0, symName: __ZThn112_N9Steinberg3Vst17EditControllerEx118setUnitProgramDataEiiPNS_8IBStreamE, symObjAddr: 0x2D10, symBinAddr: 0x80B0, symSize: 0x10 }
  - { offset: 0x3B147, size: 0x8, addend: 0x0, symName: __ZThn200_N9Steinberg3Vst11AGainSimple6addRefEv, symObjAddr: 0x2D20, symBinAddr: 0x80C0, symSize: 0x20 }
  - { offset: 0x3B1EE, size: 0x8, addend: 0x0, symName: __ZThn200_N9Steinberg3Vst11AGainSimple7releaseEv, symObjAddr: 0x2D40, symBinAddr: 0x80E0, symSize: 0x20 }
  - { offset: 0x3B295, size: 0x8, addend: 0x0, symName: __ZThn200_N9Steinberg3Vst21SingleComponentEffect20getControllerClassIdEPc, symObjAddr: 0x2D60, symBinAddr: 0x8100, symSize: 0x10 }
  - { offset: 0x3B2AB, size: 0x8, addend: 0x0, symName: __ZThn200_N9Steinberg3Vst21SingleComponentEffect9setIoModeEi, symObjAddr: 0x2D70, symBinAddr: 0x8110, symSize: 0x10 }
  - { offset: 0x3B2C1, size: 0x8, addend: 0x0, symName: __ZThn200_N9Steinberg3Vst21SingleComponentEffect14getRoutingInfoERNS0_11RoutingInfoES3_, symObjAddr: 0x2D80, symBinAddr: 0x8120, symSize: 0x10 }
  - { offset: 0x3B2D7, size: 0x8, addend: 0x0, symName: __ZThn208_N9Steinberg3Vst11AGainSimple6addRefEv, symObjAddr: 0x2D90, symBinAddr: 0x8130, symSize: 0x20 }
  - { offset: 0x3B37E, size: 0x8, addend: 0x0, symName: __ZThn208_N9Steinberg3Vst11AGainSimple7releaseEv, symObjAddr: 0x2DB0, symBinAddr: 0x8150, symSize: 0x20 }
  - { offset: 0x3B425, size: 0x8, addend: 0x0, symName: __ZThn208_N9Steinberg3Vst21SingleComponentEffect17getLatencySamplesEv, symObjAddr: 0x2DD0, symBinAddr: 0x8170, symSize: 0x10 }
  - { offset: 0x3B43B, size: 0x8, addend: 0x0, symName: __ZThn208_N9Steinberg3Vst21SingleComponentEffect13setProcessingEh, symObjAddr: 0x2DE0, symBinAddr: 0x8180, symSize: 0x10 }
  - { offset: 0x3B451, size: 0x8, addend: 0x0, symName: __ZThn208_N9Steinberg3Vst21SingleComponentEffect14getTailSamplesEv, symObjAddr: 0x2DF0, symBinAddr: 0x8190, symSize: 0x10 }
  - { offset: 0x3B467, size: 0x8, addend: 0x0, symName: __ZThn216_N9Steinberg3Vst11AGainSimple6addRefEv, symObjAddr: 0x2E00, symBinAddr: 0x81A0, symSize: 0x20 }
  - { offset: 0x3B50E, size: 0x8, addend: 0x0, symName: __ZThn216_N9Steinberg3Vst11AGainSimple7releaseEv, symObjAddr: 0x2E20, symBinAddr: 0x81C0, symSize: 0x20 }
  - { offset: 0x3B5CB, size: 0x8, addend: 0x0, symName: __ZThn216_N9Steinberg3Vst21SingleComponentEffect29getProcessContextRequirementsEv, symObjAddr: 0x2E40, symBinAddr: 0x81E0, symSize: 0x10 }
  - { offset: 0x3B601, size: 0x8, addend: 0x0, symName: __ZThn448_N9Steinberg3Vst11AGainSimpleD1Ev, symObjAddr: 0x2E50, symBinAddr: 0x81F0, symSize: 0xD0 }
  - { offset: 0x3B78F, size: 0x8, addend: 0x0, symName: __ZThn448_N9Steinberg3Vst11AGainSimpleD0Ev, symObjAddr: 0x2F20, symBinAddr: 0x82C0, symSize: 0xD0 }
  - { offset: 0x3B91C, size: 0x8, addend: 0x0, symName: __ZN6VSTGUI18VST3EditorDelegate16createCustomViewEPKcRKNS_12UIAttributesEPKNS_14IUIDescriptionEPNS_10VST3EditorE, symObjAddr: 0x2FF0, symBinAddr: 0x8390, symSize: 0x10 }
  - { offset: 0x3B979, size: 0x8, addend: 0x0, symName: __ZN6VSTGUI18VST3EditorDelegate10verifyViewEPNS_5CViewERKNS_12UIAttributesEPKNS_14IUIDescriptionEPNS_10VST3EditorE, symObjAddr: 0x3000, symBinAddr: 0x83A0, symSize: 0x10 }
  - { offset: 0x3B9D8, size: 0x8, addend: 0x0, symName: __ZN6VSTGUI18VST3EditorDelegate13findParameterERKNS_6CPointERjPNS_10VST3EditorE, symObjAddr: 0x3010, symBinAddr: 0x83B0, symSize: 0x10 }
  - { offset: 0x3BA27, size: 0x8, addend: 0x0, symName: __ZN6VSTGUI18VST3EditorDelegate18isPrivateParameterEj, symObjAddr: 0x3020, symBinAddr: 0x83C0, symSize: 0x10 }
  - { offset: 0x3BA5A, size: 0x8, addend: 0x0, symName: __ZN6VSTGUI18VST3EditorDelegate7didOpenEPNS_10VST3EditorE, symObjAddr: 0x3030, symBinAddr: 0x83D0, symSize: 0x10 }
  - { offset: 0x3BA8D, size: 0x8, addend: 0x0, symName: __ZN6VSTGUI18VST3EditorDelegate9willCloseEPNS_10VST3EditorE, symObjAddr: 0x3040, symBinAddr: 0x83E0, symSize: 0x10 }
  - { offset: 0x3BAC0, size: 0x8, addend: 0x0, symName: __ZN6VSTGUI18VST3EditorDelegate17createContextMenuERKNS_6CPointEPNS_10VST3EditorE, symObjAddr: 0x3050, symBinAddr: 0x83F0, symSize: 0x10 }
  - { offset: 0x3BB01, size: 0x8, addend: 0x0, symName: __ZN6VSTGUI18VST3EditorDelegate13onZoomChangedEPNS_10VST3EditorEd, symObjAddr: 0x3060, symBinAddr: 0x8400, symSize: 0x10 }
  - { offset: 0x3BB42, size: 0x8, addend: 0x0, symName: __ZThn456_N9Steinberg3Vst11AGainSimple6addRefEv, symObjAddr: 0x3070, symBinAddr: 0x8410, symSize: 0x20 }
  - { offset: 0x3BBE9, size: 0x8, addend: 0x0, symName: __ZThn456_N9Steinberg3Vst11AGainSimple7releaseEv, symObjAddr: 0x3090, symBinAddr: 0x8430, symSize: 0x20 }
  - { offset: 0x3BCDE, size: 0x8, addend: 0x0, symName: __ZNSt3__112basic_stringIDsNS_11char_traitsIDsEENS_9allocatorIDsEEE21__grow_by_and_replaceEmmmmmmPKDs, symObjAddr: 0x3130, symBinAddr: 0x84D0, symSize: 0x170 }
  - { offset: 0x3C6FE, size: 0x8, addend: 0x0, symName: __ZNKSt3__112basic_stringIDsNS_11char_traitsIDsEENS_9allocatorIDsEEE20__throw_length_errorB8ne180100Ev, symObjAddr: 0x32B0, symBinAddr: 0x8650, symSize: 0x10 }
  - { offset: 0x3C728, size: 0x8, addend: 0x0, symName: __ZNSt3__120__throw_length_errorB8ne180100EPKc, symObjAddr: 0x32C0, symBinAddr: 0x8660, symSize: 0x50 }
  - { offset: 0x3C733, size: 0x8, addend: 0x0, symName: __ZNSt12length_errorC1B8ne180100EPKc, symObjAddr: 0x3310, symBinAddr: 0x86B0, symSize: 0x30 }
  - { offset: 0x3C7BE, size: 0x8, addend: 0x0, symName: __ZNSt12out_of_rangeC1B8ne180100EPKc, symObjAddr: 0x3D10, symBinAddr: 0x90B0, symSize: 0x30 }
  - { offset: 0x3C8B5, size: 0x8, addend: 0x0, symName: __ZN9Steinberg3Vst24AGainUIMessageControllerINS0_11AGainSimpleEED1Ev, symObjAddr: 0x3D40, symBinAddr: 0x90E0, symSize: 0xD0 }
  - { offset: 0x3CBD8, size: 0x8, addend: 0x0, symName: __ZN9Steinberg3Vst24AGainUIMessageControllerINS0_11AGainSimpleEED0Ev, symObjAddr: 0x3E10, symBinAddr: 0x91B0, symSize: 0xD0 }
  - { offset: 0x3CF01, size: 0x8, addend: 0x0, symName: __ZN9Steinberg3Vst24AGainUIMessageControllerINS0_11AGainSimpleEE12valueChangedEPN6VSTGUI8CControlE, symObjAddr: 0x3EE0, symBinAddr: 0x9280, symSize: 0x10 }
  - { offset: 0x3CF30, size: 0x8, addend: 0x0, symName: __ZN6VSTGUI16IControlListener22controlModifierClickedEPNS_8CControlENS_12CButtonStateE, symObjAddr: 0x3EF0, symBinAddr: 0x9290, symSize: 0x10 }
  - { offset: 0x3CF72, size: 0x8, addend: 0x0, symName: __ZN9Steinberg3Vst24AGainUIMessageControllerINS0_11AGainSimpleEE16controlBeginEditEPN6VSTGUI8CControlE, symObjAddr: 0x3F00, symBinAddr: 0x92A0, symSize: 0x10 }
  - { offset: 0x3D044, size: 0x8, addend: 0x0, symName: __ZN9Steinberg3Vst24AGainUIMessageControllerINS0_11AGainSimpleEE14controlEndEditEPN6VSTGUI8CControlE, symObjAddr: 0x3F10, symBinAddr: 0x92B0, symSize: 0x190 }
  - { offset: 0x3D28F, size: 0x8, addend: 0x0, symName: __ZN6VSTGUI16IControlListener20controlTagWillChangeEPNS_8CControlE, symObjAddr: 0x40A0, symBinAddr: 0x9440, symSize: 0x10 }
  - { offset: 0x3D2C2, size: 0x8, addend: 0x0, symName: __ZN6VSTGUI16IControlListener19controlTagDidChangeEPNS_8CControlE, symObjAddr: 0x40B0, symBinAddr: 0x9450, symSize: 0x10 }
  - { offset: 0x3D2F5, size: 0x8, addend: 0x0, symName: __ZNK6VSTGUI11IController13getTagForNameEPKci, symObjAddr: 0x40C0, symBinAddr: 0x9460, symSize: 0x10 }
  - { offset: 0x3D338, size: 0x8, addend: 0x0, symName: __ZN6VSTGUI11IController18getControlListenerEPKc, symObjAddr: 0x40D0, symBinAddr: 0x9470, symSize: 0x10 }
  - { offset: 0x3D36D, size: 0x8, addend: 0x0, symName: __ZN6VSTGUI11IController10createViewERKNS_12UIAttributesEPKNS_14IUIDescriptionE, symObjAddr: 0x40E0, symBinAddr: 0x9480, symSize: 0x10 }
  - { offset: 0x3D3C7, size: 0x8, addend: 0x0, symName: __ZN9Steinberg3Vst24AGainUIMessageControllerINS0_11AGainSimpleEE10verifyViewEPN6VSTGUI5CViewERKNS4_12UIAttributesEPKNS4_14IUIDescriptionE, symObjAddr: 0x40F0, symBinAddr: 0x9490, symSize: 0xF0 }
  - { offset: 0x3D84D, size: 0x8, addend: 0x0, symName: __ZN6VSTGUI11IController19createSubControllerEPKcPKNS_14IUIDescriptionE, symObjAddr: 0x41E0, symBinAddr: 0x9580, symSize: 0x10 }
  - { offset: 0x3D88E, size: 0x8, addend: 0x0, symName: __ZN9Steinberg3Vst24AGainUIMessageControllerINS0_11AGainSimpleEE14viewWillDeleteEPN6VSTGUI5CViewE, symObjAddr: 0x41F0, symBinAddr: 0x9590, symSize: 0x60 }
  - { offset: 0x3D900, size: 0x8, addend: 0x0, symName: __ZN9Steinberg3Vst24AGainUIMessageControllerINS0_11AGainSimpleEE13viewLostFocusEPN6VSTGUI5CViewE, symObjAddr: 0x4250, symBinAddr: 0x95F0, symSize: 0xC0 }
  - { offset: 0x3DCAB, size: 0x8, addend: 0x0, symName: __ZThn8_N9Steinberg3Vst24AGainUIMessageControllerINS0_11AGainSimpleEED1Ev, symObjAddr: 0x4310, symBinAddr: 0x96B0, symSize: 0xD0 }
  - { offset: 0x3DFC9, size: 0x8, addend: 0x0, symName: __ZThn8_N9Steinberg3Vst24AGainUIMessageControllerINS0_11AGainSimpleEED0Ev, symObjAddr: 0x43E0, symBinAddr: 0x9780, symSize: 0x10 }
  - { offset: 0x3DFEE, size: 0x8, addend: 0x0, symName: __ZN6VSTGUI19ViewListenerAdapter15viewSizeChangedEPNS_5CViewERKNS_5CRectE, symObjAddr: 0x43F0, symBinAddr: 0x9790, symSize: 0x10 }
  - { offset: 0x3E02F, size: 0x8, addend: 0x0, symName: __ZN6VSTGUI19ViewListenerAdapter12viewAttachedEPNS_5CViewE, symObjAddr: 0x4400, symBinAddr: 0x97A0, symSize: 0x10 }
  - { offset: 0x3E062, size: 0x8, addend: 0x0, symName: __ZN6VSTGUI19ViewListenerAdapter11viewRemovedEPNS_5CViewE, symObjAddr: 0x4410, symBinAddr: 0x97B0, symSize: 0x10 }
  - { offset: 0x3E095, size: 0x8, addend: 0x0, symName: __ZThn8_N9Steinberg3Vst24AGainUIMessageControllerINS0_11AGainSimpleEE13viewLostFocusEPN6VSTGUI5CViewE, symObjAddr: 0x4420, symBinAddr: 0x97C0, symSize: 0x10 }
  - { offset: 0x3E0C2, size: 0x8, addend: 0x0, symName: __ZN6VSTGUI19ViewListenerAdapter13viewTookFocusEPNS_5CViewE, symObjAddr: 0x4430, symBinAddr: 0x97D0, symSize: 0x10 }
  - { offset: 0x3E0F5, size: 0x8, addend: 0x0, symName: __ZThn8_N9Steinberg3Vst24AGainUIMessageControllerINS0_11AGainSimpleEE14viewWillDeleteEPN6VSTGUI5CViewE, symObjAddr: 0x4440, symBinAddr: 0x97E0, symSize: 0x60 }
  - { offset: 0x3E12B, size: 0x8, addend: 0x0, symName: __ZN6VSTGUI19ViewListenerAdapter18viewOnMouseEnabledEPNS_5CViewEb, symObjAddr: 0x44A0, symBinAddr: 0x9840, symSize: 0x10 }
  - { offset: 0x40535, size: 0x8, addend: 0x0, symName: _ghInst, symObjAddr: 0x1A5C0, symBinAddr: 0x1F3F00, symSize: 0x0 }
  - { offset: 0x40560, size: 0x8, addend: 0x0, symName: _bundleRefCounter, symObjAddr: 0x1A5C8, symBinAddr: 0x1F3F08, symSize: 0x0 }
  - { offset: 0x4057D, size: 0x8, addend: 0x0, symName: _moduleHandle, symObjAddr: 0x1A5D0, symBinAddr: 0x1F3F10, symSize: 0x0 }
  - { offset: 0x40595, size: 0x8, addend: 0x0, symName: _gPath, symObjAddr: 0x1A5E0, symBinAddr: 0x1F3F20, symSize: 0x0 }
  - { offset: 0x405C6, size: 0x8, addend: 0x0, symName: _gBundleRefs, symObjAddr: 0x1ADE0, symBinAddr: 0x1F4720, symSize: 0x0 }
  - { offset: 0x43214, size: 0x8, addend: 0x0, symName: __ZNSt3__16vectorIP10__CFBundleNS_9allocatorIS2_EEED1B8ne180100Ev, symObjAddr: 0x0, symBinAddr: 0x98A0, symSize: 0x20 }
  - { offset: 0x436E9, size: 0x8, addend: 0x0, symName: _bundleEntry, symObjAddr: 0x20, symBinAddr: 0x98C0, symSize: 0x240 }
  - { offset: 0x43C38, size: 0x8, addend: 0x0, symName: _bundleExit, symObjAddr: 0x260, symBinAddr: 0x9B00, symSize: 0x90 }
  - { offset: 0x43CE5, size: 0x8, addend: 0x0, symName: __ZNKSt3__16vectorIP10__CFBundleNS_9allocatorIS2_EEE20__throw_length_errorB8ne180100Ev, symObjAddr: 0x2F0, symBinAddr: 0x9B90, symSize: 0x10 }
  - { offset: 0x43D3C, size: 0x8, addend: 0x0, symName: _bundleExit, symObjAddr: 0x260, symBinAddr: 0x9B00, symSize: 0x90 }
  - { offset: 0x45D5F, size: 0x8, addend: 0x0, symName: __ZN9Steinberg3Vst14EditController12hostKnobModeE, symObjAddr: 0x13469C, symBinAddr: 0x1F4738, symSize: 0x0 }
  - { offset: 0x6032A, size: 0x8, addend: 0x0, symName: __ZNSt3__127__tree_balance_after_insertB8ne180100IPNS_16__tree_node_baseIPvEEEEvT_S5_, symObjAddr: 0x66B0, symBinAddr: 0xFE20, symSize: 0x160 }
  - { offset: 0x61FCA, size: 0x8, addend: 0x0, symName: __ZNSt3__113__tree_removeB8ne180100IPNS_16__tree_node_baseIPvEEEEvT_S5_, symObjAddr: 0x7ED0, symBinAddr: 0x114C0, symSize: 0x3B0 }
  - { offset: 0x63713, size: 0x8, addend: 0x0, symName: __ZN9Steinberg13UpdateHandler8instanceEb, symObjAddr: 0x2B50, symBinAddr: 0xC720, symSize: 0x80 }
  - { offset: 0x63733, size: 0x8, addend: 0x0, symName: __ZZN9Steinberg13UpdateHandler8instanceEbE4inst, symObjAddr: 0x9DD0, symBinAddr: 0x1CE280, symSize: 0x0 }
  - { offset: 0x6531A, size: 0x8, addend: 0x0, symName: __ZN9Steinberg3Vst21SingleComponentEffectC2Ev, symObjAddr: 0x0, symBinAddr: 0x9BE0, symSize: 0x170 }
  - { offset: 0x6540C, size: 0x8, addend: 0x0, symName: __ZN9Steinberg3Vst17EditControllerEx1C2Ev, symObjAddr: 0x170, symBinAddr: 0x9D50, symSize: 0x160 }
  - { offset: 0x65694, size: 0x8, addend: 0x0, symName: __ZN9Steinberg3Vst7BusListD1Ev, symObjAddr: 0x2D0, symBinAddr: 0x9EB0, symSize: 0x80 }
  - { offset: 0x6582B, size: 0x8, addend: 0x0, symName: __ZN9Steinberg3Vst17EditControllerEx1D2Ev, symObjAddr: 0x350, symBinAddr: 0x9F30, symSize: 0x1B0 }
  - { offset: 0x65F84, size: 0x8, addend: 0x0, symName: __ZNSt3__16vectorIN9Steinberg4IPtrINS1_3Vst11ProgramListEEENS_9allocatorIS5_EEED1B8ne180100Ev, symObjAddr: 0x2BD0, symBinAddr: 0xC7A0, symSize: 0x80 }
  - { offset: 0x660FD, size: 0x8, addend: 0x0, symName: __ZNSt3__16vectorIN9Steinberg4IPtrINS1_3Vst4UnitEEENS_9allocatorIS5_EEED1B8ne180100Ev, symObjAddr: 0x2C50, symBinAddr: 0xC820, symSize: 0x80 }
  - { offset: 0x66276, size: 0x8, addend: 0x0, symName: __ZN9Steinberg3Vst14EditControllerD2Ev, symObjAddr: 0x2CD0, symBinAddr: 0xC8A0, symSize: 0xA0 }
  - { offset: 0x6630A, size: 0x8, addend: 0x0, symName: __ZN9Steinberg4IPtrINS_3Vst18IComponentHandler2EED1Ev, symObjAddr: 0x2060, symBinAddr: 0xBC40, symSize: 0x30 }
  - { offset: 0x6634E, size: 0x8, addend: 0x0, symName: __ZN9Steinberg4IPtrINS_3Vst17IComponentHandlerEED1Ev, symObjAddr: 0x2090, symBinAddr: 0xBC70, symSize: 0x30 }
  - { offset: 0x66886, size: 0x8, addend: 0x0, symName: __ZN9Steinberg3Vst21SingleComponentEffectC1Ev, symObjAddr: 0x500, symBinAddr: 0xA0E0, symSize: 0x10 }
  - { offset: 0x668E3, size: 0x8, addend: 0x0, symName: __ZN9Steinberg3Vst21SingleComponentEffectD2Ev, symObjAddr: 0x510, symBinAddr: 0xA0F0, symSize: 0x240 }
  - { offset: 0x66F2E, size: 0x8, addend: 0x0, symName: __ZN9Steinberg3Vst21SingleComponentEffectD1Ev, symObjAddr: 0x750, symBinAddr: 0xA330, symSize: 0x10 }
  - { offset: 0x66F85, size: 0x8, addend: 0x0, symName: __ZN9Steinberg3Vst21SingleComponentEffectD0Ev, symObjAddr: 0x760, symBinAddr: 0xA340, symSize: 0x20 }
  - { offset: 0x67007, size: 0x8, addend: 0x0, symName: __ZN9Steinberg3Vst21SingleComponentEffect10initializeEPNS_8FUnknownE, symObjAddr: 0x780, symBinAddr: 0xA360, symSize: 0x10 }
  - { offset: 0x67052, size: 0x8, addend: 0x0, symName: __ZN9Steinberg3Vst14EditController10initializeEPNS_8FUnknownE, symObjAddr: 0x790, symBinAddr: 0xA370, symSize: 0x10 }
  - { offset: 0x6709C, size: 0x8, addend: 0x0, symName: __ZThn16_N9Steinberg3Vst21SingleComponentEffect10initializeEPNS_8FUnknownE, symObjAddr: 0x7A0, symBinAddr: 0xA380, symSize: 0x10 }
  - { offset: 0x670FA, size: 0x8, addend: 0x0, symName: __ZThn48_N9Steinberg3Vst21SingleComponentEffect10initializeEPNS_8FUnknownE, symObjAddr: 0x7B0, symBinAddr: 0xA390, symSize: 0x10 }
  - { offset: 0x67158, size: 0x8, addend: 0x0, symName: __ZThn200_N9Steinberg3Vst21SingleComponentEffect10initializeEPNS_8FUnknownE, symObjAddr: 0x7C0, symBinAddr: 0xA3A0, symSize: 0x20 }
  - { offset: 0x67347, size: 0x8, addend: 0x0, symName: __ZN9Steinberg3Vst21SingleComponentEffect9terminateEv, symObjAddr: 0x7E0, symBinAddr: 0xA3C0, symSize: 0x90 }
  - { offset: 0x67506, size: 0x8, addend: 0x0, symName: __ZNSt3__16__treeINS_12__value_typeIjmEENS_19__map_value_compareIjS2_NS_4lessIjEELb1EEENS_9allocatorIS2_EEE7destroyEPNS_11__tree_nodeIS2_PvEE, symObjAddr: 0x5E00, symBinAddr: 0xF700, symSize: 0x40 }
  - { offset: 0x67640, size: 0x8, addend: 0x0, symName: __ZN9Steinberg3Vst21SingleComponentEffect15removeAllBussesEv, symObjAddr: 0x870, symBinAddr: 0xA450, symSize: 0x140 }
  - { offset: 0x679FC, size: 0x8, addend: 0x0, symName: __ZN9Steinberg3Vst17EditControllerEx19terminateEv, symObjAddr: 0x9B0, symBinAddr: 0xA590, symSize: 0x110 }
  - { offset: 0x67F15, size: 0x8, addend: 0x0, symName: __ZN9Steinberg3Vst14EditController9terminateEv, symObjAddr: 0x21A0, symBinAddr: 0xBD80, symSize: 0xB0 }
  - { offset: 0x68133, size: 0x8, addend: 0x0, symName: __ZThn16_N9Steinberg3Vst21SingleComponentEffect9terminateEv, symObjAddr: 0xAC0, symBinAddr: 0xA6A0, symSize: 0x90 }
  - { offset: 0x682FD, size: 0x8, addend: 0x0, symName: __ZThn48_N9Steinberg3Vst21SingleComponentEffect9terminateEv, symObjAddr: 0xB50, symBinAddr: 0xA730, symSize: 0x90 }
  - { offset: 0x684C6, size: 0x8, addend: 0x0, symName: __ZThn200_N9Steinberg3Vst21SingleComponentEffect9terminateEv, symObjAddr: 0xBE0, symBinAddr: 0xA7C0, symSize: 0x90 }
  - { offset: 0x686BE, size: 0x8, addend: 0x0, symName: __ZN9Steinberg3Vst21SingleComponentEffect11getBusCountEii, symObjAddr: 0xC70, symBinAddr: 0xA850, symSize: 0x50 }
  - { offset: 0x686FB, size: 0x8, addend: 0x0, symName: __ZN9Steinberg3Vst21SingleComponentEffect11getBusCountEii, symObjAddr: 0xC70, symBinAddr: 0xA850, symSize: 0x50 }
  - { offset: 0x68744, size: 0x8, addend: 0x0, symName: __ZN9Steinberg3Vst21SingleComponentEffect10getBusListEii, symObjAddr: 0xCC0, symBinAddr: 0xA8A0, symSize: 0x40 }
  - { offset: 0x687AD, size: 0x8, addend: 0x0, symName: __ZThn200_N9Steinberg3Vst21SingleComponentEffect11getBusCountEii, symObjAddr: 0xD00, symBinAddr: 0xA8E0, symSize: 0x40 }
  - { offset: 0x687C7, size: 0x8, addend: 0x0, symName: __ZThn200_N9Steinberg3Vst21SingleComponentEffect11getBusCountEii, symObjAddr: 0xD00, symBinAddr: 0xA8E0, symSize: 0x40 }
  - { offset: 0x687F3, size: 0x8, addend: 0x0, symName: __ZThn200_N9Steinberg3Vst21SingleComponentEffect11getBusCountEii, symObjAddr: 0xD00, symBinAddr: 0xA8E0, symSize: 0x40 }
  - { offset: 0x6886E, size: 0x8, addend: 0x0, symName: __ZN9Steinberg3Vst21SingleComponentEffect10getBusInfoEiiiRNS0_7BusInfoE, symObjAddr: 0xD40, symBinAddr: 0xA920, symSize: 0x80 }
  - { offset: 0x689D5, size: 0x8, addend: 0x0, symName: __ZThn200_N9Steinberg3Vst21SingleComponentEffect10getBusInfoEiiiRNS0_7BusInfoE, symObjAddr: 0xDC0, symBinAddr: 0xA9A0, symSize: 0x80 }
  - { offset: 0x68AE2, size: 0x8, addend: 0x0, symName: __ZN9Steinberg3Vst21SingleComponentEffect11activateBusEiiih, symObjAddr: 0xE40, symBinAddr: 0xAA20, symSize: 0x80 }
  - { offset: 0x68C41, size: 0x8, addend: 0x0, symName: __ZThn200_N9Steinberg3Vst21SingleComponentEffect11activateBusEiiih, symObjAddr: 0xEC0, symBinAddr: 0xAAA0, symSize: 0x80 }
  - { offset: 0x68F02, size: 0x8, addend: 0x0, symName: __ZN9Steinberg3Vst21SingleComponentEffect13addAudioInputEPKDsyii, symObjAddr: 0xF40, symBinAddr: 0xAB20, symSize: 0xE0 }
  - { offset: 0x69181, size: 0x8, addend: 0x0, symName: __ZNSt3__16vectorIN9Steinberg4IPtrINS1_3Vst3BusEEENS_9allocatorIS5_EEE21__push_back_slow_pathIS5_EEPS5_OT_, symObjAddr: 0x6040, symBinAddr: 0xF8B0, symSize: 0x220 }
  - { offset: 0x69720, size: 0x8, addend: 0x0, symName: __ZN9Steinberg3Vst21SingleComponentEffect14addAudioOutputEPKDsyii, symObjAddr: 0x1020, symBinAddr: 0xAC00, symSize: 0xE0 }
  - { offset: 0x6999F, size: 0x8, addend: 0x0, symName: __ZN9Steinberg3Vst21SingleComponentEffect13addEventInputEPKDsiii, symObjAddr: 0x1100, symBinAddr: 0xACE0, symSize: 0xE0 }
  - { offset: 0x69C1E, size: 0x8, addend: 0x0, symName: __ZN9Steinberg3Vst21SingleComponentEffect14addEventOutputEPKDsiii, symObjAddr: 0x11E0, symBinAddr: 0xADC0, symSize: 0xE0 }
  - { offset: 0x69E9D, size: 0x8, addend: 0x0, symName: __ZN9Steinberg3Vst21SingleComponentEffect17removeAudioBussesEv, symObjAddr: 0x12C0, symBinAddr: 0xAEA0, symSize: 0xB0 }
  - { offset: 0x6A072, size: 0x8, addend: 0x0, symName: __ZN9Steinberg3Vst21SingleComponentEffect17removeEventBussesEv, symObjAddr: 0x1370, symBinAddr: 0xAF50, symSize: 0xB0 }
  - { offset: 0x6A283, size: 0x8, addend: 0x0, symName: __ZN9Steinberg3Vst21SingleComponentEffect18setBusArrangementsEPyiS2_i, symObjAddr: 0x1420, symBinAddr: 0xB000, symSize: 0x170 }
  - { offset: 0x6A46E, size: 0x8, addend: 0x0, symName: __ZThn208_N9Steinberg3Vst21SingleComponentEffect18setBusArrangementsEPyiS2_i, symObjAddr: 0x1590, symBinAddr: 0xB170, symSize: 0x20 }
  - { offset: 0x6A4CB, size: 0x8, addend: 0x0, symName: __ZN9Steinberg3Vst21SingleComponentEffect17getBusArrangementEiiRy, symObjAddr: 0x15B0, symBinAddr: 0xB190, symSize: 0xA0 }
  - { offset: 0x6A641, size: 0x8, addend: 0x0, symName: __ZThn208_N9Steinberg3Vst21SingleComponentEffect17getBusArrangementEiiRy, symObjAddr: 0x1650, symBinAddr: 0xB230, symSize: 0x90 }
  - { offset: 0x6A773, size: 0x8, addend: 0x0, symName: __ZN9Steinberg3Vst21SingleComponentEffect15setupProcessingERNS0_12ProcessSetupE, symObjAddr: 0x16E0, symBinAddr: 0xB2C0, symSize: 0x50 }
  - { offset: 0x6A7D5, size: 0x8, addend: 0x0, symName: __ZThn208_N9Steinberg3Vst21SingleComponentEffect15setupProcessingERNS0_12ProcessSetupE, symObjAddr: 0x1730, symBinAddr: 0xB310, symSize: 0x50 }
  - { offset: 0x6A816, size: 0x8, addend: 0x0, symName: __ZN9Steinberg3Vst21SingleComponentEffect20canProcessSampleSizeEi, symObjAddr: 0x1780, symBinAddr: 0xB360, symSize: 0x10 }
  - { offset: 0x6A85F, size: 0x8, addend: 0x0, symName: __ZThn208_N9Steinberg3Vst21SingleComponentEffect20canProcessSampleSizeEi, symObjAddr: 0x1790, symBinAddr: 0xB370, symSize: 0x10 }
  - { offset: 0x6A892, size: 0x8, addend: 0x0, symName: __ZN9Steinberg3Vst21SingleComponentEffect14queryInterfaceEPKcPPv, symObjAddr: 0x17A0, symBinAddr: 0xB380, symSize: 0xD0 }
  - { offset: 0x6A9B5, size: 0x8, addend: 0x0, symName: __ZN9Steinberg3Vst17EditControllerEx114queryInterfaceEPKcPPv, symObjAddr: 0x1870, symBinAddr: 0xB450, symSize: 0xF0 }
  - { offset: 0x6AC56, size: 0x8, addend: 0x0, symName: __ZThn16_N9Steinberg3Vst21SingleComponentEffect14queryInterfaceEPKcPPv, symObjAddr: 0x1960, symBinAddr: 0xB540, symSize: 0xD0 }
  - { offset: 0x6AD64, size: 0x8, addend: 0x0, symName: __ZThn24_N9Steinberg3Vst21SingleComponentEffect14queryInterfaceEPKcPPv, symObjAddr: 0x1A30, symBinAddr: 0xB610, symSize: 0xD0 }
  - { offset: 0x6AE72, size: 0x8, addend: 0x0, symName: __ZThn48_N9Steinberg3Vst21SingleComponentEffect14queryInterfaceEPKcPPv, symObjAddr: 0x1B00, symBinAddr: 0xB6E0, symSize: 0xD0 }
  - { offset: 0x6AF80, size: 0x8, addend: 0x0, symName: __ZThn56_N9Steinberg3Vst21SingleComponentEffect14queryInterfaceEPKcPPv, symObjAddr: 0x1BD0, symBinAddr: 0xB7B0, symSize: 0xD0 }
  - { offset: 0x6B08E, size: 0x8, addend: 0x0, symName: __ZThn112_N9Steinberg3Vst21SingleComponentEffect14queryInterfaceEPKcPPv, symObjAddr: 0x1CA0, symBinAddr: 0xB880, symSize: 0xC0 }
  - { offset: 0x6B19C, size: 0x8, addend: 0x0, symName: __ZThn200_N9Steinberg3Vst21SingleComponentEffect14queryInterfaceEPKcPPv, symObjAddr: 0x1D60, symBinAddr: 0xB940, symSize: 0xD0 }
  - { offset: 0x6B2AA, size: 0x8, addend: 0x0, symName: __ZThn208_N9Steinberg3Vst21SingleComponentEffect14queryInterfaceEPKcPPv, symObjAddr: 0x1E30, symBinAddr: 0xBA10, symSize: 0xD0 }
  - { offset: 0x6B3B8, size: 0x8, addend: 0x0, symName: __ZThn216_N9Steinberg3Vst21SingleComponentEffect14queryInterfaceEPKcPPv, symObjAddr: 0x1F00, symBinAddr: 0xBAE0, symSize: 0xD0 }
  - { offset: 0x6B4C6, size: 0x8, addend: 0x0, symName: __ZN9Steinberg3Vst14EditControllerC2Ev, symObjAddr: 0x1FD0, symBinAddr: 0xBBB0, symSize: 0x90 }
  - { offset: 0x6B551, size: 0x8, addend: 0x0, symName: __ZN9Steinberg3Vst14EditControllerC1Ev, symObjAddr: 0x20C0, symBinAddr: 0xBCA0, symSize: 0xC0 }
  - { offset: 0x6B647, size: 0x8, addend: 0x0, symName: __ZThn16_N9Steinberg3Vst14EditController10initializeEPNS_8FUnknownE, symObjAddr: 0x2180, symBinAddr: 0xBD60, symSize: 0x10 }
  - { offset: 0x6B681, size: 0x8, addend: 0x0, symName: __ZThn48_N9Steinberg3Vst14EditController10initializeEPNS_8FUnknownE, symObjAddr: 0x2190, symBinAddr: 0xBD70, symSize: 0x10 }
  - { offset: 0x6B6FD, size: 0x8, addend: 0x0, symName: __ZThn16_N9Steinberg3Vst14EditController9terminateEv, symObjAddr: 0x2250, symBinAddr: 0xBE30, symSize: 0x10 }
  - { offset: 0x6B722, size: 0x8, addend: 0x0, symName: __ZThn48_N9Steinberg3Vst14EditController9terminateEv, symObjAddr: 0x2260, symBinAddr: 0xBE40, symSize: 0x10 }
  - { offset: 0x6B747, size: 0x8, addend: 0x0, symName: __ZN9Steinberg3Vst14EditController17setComponentStateEPNS_8IBStreamE, symObjAddr: 0x2270, symBinAddr: 0xBE50, symSize: 0x10 }
  - { offset: 0x6B774, size: 0x8, addend: 0x0, symName: __ZThn48_N9Steinberg3Vst14EditController17setComponentStateEPNS_8IBStreamE, symObjAddr: 0x2280, symBinAddr: 0xBE60, symSize: 0x10 }
  - { offset: 0x6B78A, size: 0x8, addend: 0x0, symName: __ZN9Steinberg3Vst14EditController14setEditorStateEPNS_8IBStreamE, symObjAddr: 0x2290, symBinAddr: 0xBE70, symSize: 0x10 }
  - { offset: 0x6B7B7, size: 0x8, addend: 0x0, symName: __ZThn48_N9Steinberg3Vst14EditController14setEditorStateEPNS_8IBStreamE, symObjAddr: 0x22A0, symBinAddr: 0xBE80, symSize: 0x10 }
  - { offset: 0x6B7CD, size: 0x8, addend: 0x0, symName: __ZN9Steinberg3Vst14EditController14getEditorStateEPNS_8IBStreamE, symObjAddr: 0x22B0, symBinAddr: 0xBE90, symSize: 0x10 }
  - { offset: 0x6B7FA, size: 0x8, addend: 0x0, symName: __ZThn48_N9Steinberg3Vst14EditController14getEditorStateEPNS_8IBStreamE, symObjAddr: 0x22C0, symBinAddr: 0xBEA0, symSize: 0x10 }
  - { offset: 0x6B82B, size: 0x8, addend: 0x0, symName: __ZN9Steinberg3Vst14EditController17getParameterCountEv, symObjAddr: 0x22D0, symBinAddr: 0xBEB0, symSize: 0x20 }
  - { offset: 0x6B8A0, size: 0x8, addend: 0x0, symName: __ZThn48_N9Steinberg3Vst14EditController17getParameterCountEv, symObjAddr: 0x22F0, symBinAddr: 0xBED0, symSize: 0x20 }
  - { offset: 0x6B911, size: 0x8, addend: 0x0, symName: __ZN9Steinberg3Vst14EditController16getParameterInfoEiRNS0_13ParameterInfoE, symObjAddr: 0x2310, symBinAddr: 0xBEF0, symSize: 0x50 }
  - { offset: 0x6B9A3, size: 0x8, addend: 0x0, symName: __ZThn48_N9Steinberg3Vst14EditController16getParameterInfoEiRNS0_13ParameterInfoE, symObjAddr: 0x2360, symBinAddr: 0xBF40, symSize: 0x50 }
  - { offset: 0x6BA0B, size: 0x8, addend: 0x0, symName: __ZN9Steinberg3Vst14EditController21getParamStringByValueEjdPDs, symObjAddr: 0x23B0, symBinAddr: 0xBF90, symSize: 0x50 }
  - { offset: 0x6BADA, size: 0x8, addend: 0x0, symName: __ZThn48_N9Steinberg3Vst14EditController21getParamStringByValueEjdPDs, symObjAddr: 0x2400, symBinAddr: 0xBFE0, symSize: 0x50 }
  - { offset: 0x6BB55, size: 0x8, addend: 0x0, symName: __ZN9Steinberg3Vst14EditController21getParamValueByStringEjPDsRd, symObjAddr: 0x2450, symBinAddr: 0xC030, symSize: 0x40 }
  - { offset: 0x6BC1C, size: 0x8, addend: 0x0, symName: __ZThn48_N9Steinberg3Vst14EditController21getParamValueByStringEjPDsRd, symObjAddr: 0x2490, symBinAddr: 0xC070, symSize: 0x50 }
  - { offset: 0x6BC8F, size: 0x8, addend: 0x0, symName: __ZN9Steinberg3Vst14EditController22normalizedParamToPlainEjd, symObjAddr: 0x24E0, symBinAddr: 0xC0C0, symSize: 0x40 }
  - { offset: 0x6BD35, size: 0x8, addend: 0x0, symName: __ZThn48_N9Steinberg3Vst14EditController22normalizedParamToPlainEjd, symObjAddr: 0x2520, symBinAddr: 0xC100, symSize: 0x50 }
  - { offset: 0x6BD9B, size: 0x8, addend: 0x0, symName: __ZN9Steinberg3Vst14EditController22plainParamToNormalizedEjd, symObjAddr: 0x2570, symBinAddr: 0xC150, symSize: 0x40 }
  - { offset: 0x6BE41, size: 0x8, addend: 0x0, symName: __ZThn48_N9Steinberg3Vst14EditController22plainParamToNormalizedEjd, symObjAddr: 0x25B0, symBinAddr: 0xC190, symSize: 0x50 }
  - { offset: 0x6BEC2, size: 0x8, addend: 0x0, symName: __ZN9Steinberg3Vst14EditController18getParamNormalizedEj, symObjAddr: 0x2600, symBinAddr: 0xC1E0, symSize: 0x30 }
  - { offset: 0x6BF65, size: 0x8, addend: 0x0, symName: __ZThn48_N9Steinberg3Vst14EditController18getParamNormalizedEj, symObjAddr: 0x2630, symBinAddr: 0xC210, symSize: 0x30 }
  - { offset: 0x6BFDC, size: 0x8, addend: 0x0, symName: __ZN9Steinberg3Vst14EditController18setParamNormalizedEjd, symObjAddr: 0x2660, symBinAddr: 0xC240, symSize: 0x40 }
  - { offset: 0x6C091, size: 0x8, addend: 0x0, symName: __ZThn48_N9Steinberg3Vst14EditController18setParamNormalizedEjd, symObjAddr: 0x26A0, symBinAddr: 0xC280, symSize: 0x50 }
  - { offset: 0x6C143, size: 0x8, addend: 0x0, symName: __ZN9Steinberg3Vst14EditController19setComponentHandlerEPNS0_17IComponentHandlerE, symObjAddr: 0x26F0, symBinAddr: 0xC2D0, symSize: 0x70 }
  - { offset: 0x6C233, size: 0x8, addend: 0x0, symName: __ZThn48_N9Steinberg3Vst14EditController19setComponentHandlerEPNS0_17IComponentHandlerE, symObjAddr: 0x2760, symBinAddr: 0xC340, symSize: 0x70 }
  - { offset: 0x6C312, size: 0x8, addend: 0x0, symName: __ZN9Steinberg3Vst14EditController9beginEditEj, symObjAddr: 0x27D0, symBinAddr: 0xC3B0, symSize: 0x20 }
  - { offset: 0x6C375, size: 0x8, addend: 0x0, symName: __ZN9Steinberg3Vst14EditController11performEditEjd, symObjAddr: 0x27F0, symBinAddr: 0xC3D0, symSize: 0x20 }
  - { offset: 0x6C3E6, size: 0x8, addend: 0x0, symName: __ZN9Steinberg3Vst14EditController7endEditEj, symObjAddr: 0x2810, symBinAddr: 0xC3F0, symSize: 0x20 }
  - { offset: 0x6C464, size: 0x8, addend: 0x0, symName: __ZN9Steinberg3Vst14EditController14startGroupEditEv, symObjAddr: 0x2830, symBinAddr: 0xC410, symSize: 0x20 }
  - { offset: 0x6C4B9, size: 0x8, addend: 0x0, symName: __ZN9Steinberg3Vst14EditController15finishGroupEditEv, symObjAddr: 0x2850, symBinAddr: 0xC430, symSize: 0x20 }
  - { offset: 0x6C50E, size: 0x8, addend: 0x0, symName: __ZN9Steinberg3Vst14EditController21getParameterInfoByTagEjRNS0_13ParameterInfoE, symObjAddr: 0x2870, symBinAddr: 0xC450, symSize: 0x50 }
  - { offset: 0x6C59B, size: 0x8, addend: 0x0, symName: __ZN9Steinberg3Vst14EditController8setDirtyEh, symObjAddr: 0x28C0, symBinAddr: 0xC4A0, symSize: 0x30 }
  - { offset: 0x6C602, size: 0x8, addend: 0x0, symName: __ZN9Steinberg3Vst14EditController17requestOpenEditorEPKc, symObjAddr: 0x28F0, symBinAddr: 0xC4D0, symSize: 0x20 }
  - { offset: 0x6C6CE, size: 0x8, addend: 0x0, symName: __ZN9Steinberg3Vst10EditorViewC2EPNS0_14EditControllerEPNS_8ViewRectE, symObjAddr: 0x2910, symBinAddr: 0xC4F0, symSize: 0x60 }
  - { offset: 0x6C7A6, size: 0x8, addend: 0x0, symName: __ZN9Steinberg3Vst10EditorViewC1EPNS0_14EditControllerEPNS_8ViewRectE, symObjAddr: 0x2970, symBinAddr: 0xC550, symSize: 0x60 }
  - { offset: 0x6C8CC, size: 0x8, addend: 0x0, symName: __ZN9Steinberg3Vst10EditorViewD2Ev, symObjAddr: 0x29D0, symBinAddr: 0xC5B0, symSize: 0x60 }
  - { offset: 0x6C96D, size: 0x8, addend: 0x0, symName: __ZN9Steinberg3Vst10EditorViewD1Ev, symObjAddr: 0x2A40, symBinAddr: 0xC610, symSize: 0x60 }
  - { offset: 0x6CA2D, size: 0x8, addend: 0x0, symName: __ZN9Steinberg3Vst10EditorViewD0Ev, symObjAddr: 0x2AA0, symBinAddr: 0xC670, symSize: 0x70 }
  - { offset: 0x6CAED, size: 0x8, addend: 0x0, symName: __ZN9Steinberg3Vst10EditorView16attachedToParentEv, symObjAddr: 0x2B10, symBinAddr: 0xC6E0, symSize: 0x20 }
  - { offset: 0x6CB42, size: 0x8, addend: 0x0, symName: __ZN9Steinberg3Vst10EditorView17removedFromParentEv, symObjAddr: 0x2B30, symBinAddr: 0xC700, symSize: 0x20 }
  - { offset: 0x6CB9C, size: 0x8, addend: 0x0, symName: __ZN9Steinberg3Vst17EditControllerEx1C1Ev, symObjAddr: 0x2D70, symBinAddr: 0xC940, symSize: 0x10 }
  - { offset: 0x6CBDE, size: 0x8, addend: 0x0, symName: __ZN9Steinberg3Vst17EditControllerEx1D1Ev, symObjAddr: 0x2D80, symBinAddr: 0xC950, symSize: 0x10 }
  - { offset: 0x6CC36, size: 0x8, addend: 0x0, symName: __ZN9Steinberg3Vst17EditControllerEx1D0Ev, symObjAddr: 0x2D90, symBinAddr: 0xC960, symSize: 0x20 }
  - { offset: 0x6CC96, size: 0x8, addend: 0x0, symName: __ZThn16_N9Steinberg3Vst17EditControllerEx19terminateEv, symObjAddr: 0x2DB0, symBinAddr: 0xC980, symSize: 0x10 }
  - { offset: 0x6CCBC, size: 0x8, addend: 0x0, symName: __ZThn48_N9Steinberg3Vst17EditControllerEx19terminateEv, symObjAddr: 0x2DC0, symBinAddr: 0xC990, symSize: 0x10 }
  - { offset: 0x6CEB0, size: 0x8, addend: 0x0, symName: __ZN9Steinberg3Vst17EditControllerEx17addUnitEPNS0_4UnitE, symObjAddr: 0x2DD0, symBinAddr: 0xC9A0, symSize: 0x50 }
  - { offset: 0x6D04A, size: 0x8, addend: 0x0, symName: __ZNSt3__16vectorIN9Steinberg4IPtrINS1_3Vst4UnitEEENS_9allocatorIS5_EEE24__emplace_back_slow_pathIJRPS4_bEEEPS5_DpOT_, symObjAddr: 0x6370, symBinAddr: 0xFAE0, symSize: 0x2A0 }
  - { offset: 0x6D70C, size: 0x8, addend: 0x0, symName: __ZN9Steinberg3Vst17EditControllerEx111getUnitInfoEiRNS0_8UnitInfoE, symObjAddr: 0x2E20, symBinAddr: 0xC9F0, symSize: 0x70 }
  - { offset: 0x6D7C8, size: 0x8, addend: 0x0, symName: __ZNKSt3__16vectorIN9Steinberg4IPtrINS1_3Vst4UnitEEENS_9allocatorIS5_EEE20__throw_out_of_rangeB8ne180100Ev, symObjAddr: 0x66A0, symBinAddr: 0xFE10, symSize: 0x10 }
  - { offset: 0x6D7F2, size: 0x8, addend: 0x0, symName: __ZNSt3__127__tree_balance_after_insertB8ne180100IPNS_16__tree_node_baseIPvEEEEvT_S5_, symObjAddr: 0x66B0, symBinAddr: 0xFE20, symSize: 0x160 }
  - { offset: 0x6D83C, size: 0x8, addend: 0x0, symName: __ZThn112_N9Steinberg3Vst17EditControllerEx111getUnitInfoEiRNS0_8UnitInfoE, symObjAddr: 0x2E90, symBinAddr: 0xCA60, symSize: 0x60 }
  - { offset: 0x6D985, size: 0x8, addend: 0x0, symName: __ZN9Steinberg3Vst17EditControllerEx119notifyUnitSelectionEv, symObjAddr: 0x2EF0, symBinAddr: 0xCAC0, symSize: 0x90 }
  - { offset: 0x6E157, size: 0x8, addend: 0x0, symName: __ZN9Steinberg3Vst17EditControllerEx114addProgramListEPNS0_11ProgramListE, symObjAddr: 0x2F80, symBinAddr: 0xCB50, symSize: 0x140 }
  - { offset: 0x6E5AB, size: 0x8, addend: 0x0, symName: __ZNSt3__16vectorIN9Steinberg4IPtrINS1_3Vst11ProgramListEEENS_9allocatorIS5_EEE24__emplace_back_slow_pathIJRPS4_bEEEPS5_DpOT_, symObjAddr: 0x6810, symBinAddr: 0xFF80, symSize: 0x2A0 }
  - { offset: 0x6ED61, size: 0x8, addend: 0x0, symName: __ZNK9Steinberg3Vst17EditControllerEx114getProgramListEi, symObjAddr: 0x30C0, symBinAddr: 0xCC90, symSize: 0x80 }
  - { offset: 0x6EFB3, size: 0x8, addend: 0x0, symName: __ZN9Steinberg3Vst17EditControllerEx123notifyProgramListChangeEii, symObjAddr: 0x3140, symBinAddr: 0xCD10, symSize: 0xA0 }
  - { offset: 0x6F13D, size: 0x8, addend: 0x0, symName: __ZN9Steinberg3Vst17EditControllerEx119getProgramListCountEv, symObjAddr: 0x31E0, symBinAddr: 0xCDB0, symSize: 0x20 }
  - { offset: 0x6F196, size: 0x8, addend: 0x0, symName: __ZThn112_N9Steinberg3Vst17EditControllerEx119getProgramListCountEv, symObjAddr: 0x3200, symBinAddr: 0xCDD0, symSize: 0x20 }
  - { offset: 0x6F218, size: 0x8, addend: 0x0, symName: __ZN9Steinberg3Vst17EditControllerEx118getProgramListInfoEiRNS0_15ProgramListInfoE, symObjAddr: 0x3220, symBinAddr: 0xCDF0, symSize: 0x50 }
  - { offset: 0x6F2CF, size: 0x8, addend: 0x0, symName: __ZThn112_N9Steinberg3Vst17EditControllerEx118getProgramListInfoEiRNS0_15ProgramListInfoE, symObjAddr: 0x3270, symBinAddr: 0xCE40, symSize: 0x40 }
  - { offset: 0x6F433, size: 0x8, addend: 0x0, symName: __ZN9Steinberg3Vst17EditControllerEx114getProgramNameEiiPDs, symObjAddr: 0x32B0, symBinAddr: 0xCE80, symSize: 0x70 }
  - { offset: 0x6F67C, size: 0x8, addend: 0x0, symName: __ZThn112_N9Steinberg3Vst17EditControllerEx114getProgramNameEiiPDs, symObjAddr: 0x3320, symBinAddr: 0xCEF0, symSize: 0x70 }
  - { offset: 0x6F8A1, size: 0x8, addend: 0x0, symName: __ZN9Steinberg3Vst17EditControllerEx114setProgramNameEiiPKDs, symObjAddr: 0x3390, symBinAddr: 0xCF60, symSize: 0x70 }
  - { offset: 0x6FAC8, size: 0x8, addend: 0x0, symName: __ZN9Steinberg3Vst17EditControllerEx114getProgramInfoEiiPKcPDs, symObjAddr: 0x3400, symBinAddr: 0xCFD0, symSize: 0x70 }
  - { offset: 0x6FD26, size: 0x8, addend: 0x0, symName: __ZThn112_N9Steinberg3Vst17EditControllerEx114getProgramInfoEiiPKcPDs, symObjAddr: 0x3470, symBinAddr: 0xD040, symSize: 0x70 }
  - { offset: 0x6FF54, size: 0x8, addend: 0x0, symName: __ZN9Steinberg3Vst17EditControllerEx120hasProgramPitchNamesEii, symObjAddr: 0x34E0, symBinAddr: 0xD0B0, symSize: 0x70 }
  - { offset: 0x70188, size: 0x8, addend: 0x0, symName: __ZThn112_N9Steinberg3Vst17EditControllerEx120hasProgramPitchNamesEii, symObjAddr: 0x3550, symBinAddr: 0xD120, symSize: 0x70 }
  - { offset: 0x703A4, size: 0x8, addend: 0x0, symName: __ZN9Steinberg3Vst17EditControllerEx119getProgramPitchNameEiisPDs, symObjAddr: 0x35C0, symBinAddr: 0xD190, symSize: 0x70 }
  - { offset: 0x70602, size: 0x8, addend: 0x0, symName: __ZThn112_N9Steinberg3Vst17EditControllerEx119getProgramPitchNameEiisPDs, symObjAddr: 0x3630, symBinAddr: 0xD200, symSize: 0x70 }
  - { offset: 0x7084F, size: 0x8, addend: 0x0, symName: __ZN9Steinberg3Vst17EditControllerEx16updateEPNS_8FUnknownEi, symObjAddr: 0x36A0, symBinAddr: 0xD270, symSize: 0xF0 }
  - { offset: 0x70A99, size: 0x8, addend: 0x0, symName: __ZN9Steinberg3Vst4UnitC2Ev, symObjAddr: 0x3790, symBinAddr: 0xD360, symSize: 0x30 }
  - { offset: 0x70BB4, size: 0x8, addend: 0x0, symName: __ZN9Steinberg3Vst4UnitC2EPKDsiii, symObjAddr: 0x37F0, symBinAddr: 0xD390, symSize: 0xB0 }
  - { offset: 0x70CC5, size: 0x8, addend: 0x0, symName: __ZN9Steinberg3Vst4Unit7setNameEPKDs, symObjAddr: 0x38A0, symBinAddr: 0xD440, symSize: 0x70 }
  - { offset: 0x70DC5, size: 0x8, addend: 0x0, symName: __ZN9Steinberg3Vst4UnitC1EPKDsiii, symObjAddr: 0x3910, symBinAddr: 0xD4B0, symSize: 0xB0 }
  - { offset: 0x70F23, size: 0x8, addend: 0x0, symName: __ZN9Steinberg3Vst4UnitC2ERKNS0_8UnitInfoE, symObjAddr: 0x39C0, symBinAddr: 0xD560, symSize: 0x30 }
  - { offset: 0x70FCB, size: 0x8, addend: 0x0, symName: __ZN9Steinberg3Vst11ProgramListC2EPKDsii, symObjAddr: 0x3A20, symBinAddr: 0xD590, symSize: 0xF0 }
  - { offset: 0x71116, size: 0x8, addend: 0x0, symName: __ZNSt3__16vectorINS_3mapINS_12basic_stringIcNS_11char_traitsIcEENS_9allocatorIcEEEENS2_IDsNS3_IDsEENS5_IDsEEEENS_4lessIS7_EENS5_INS_4pairIKS7_SA_EEEEEENS5_ISH_EEED1B8ne180100Ev, symObjAddr: 0x3B10, symBinAddr: 0xD680, symSize: 0x70 }
  - { offset: 0x71312, size: 0x8, addend: 0x0, symName: __ZNSt3__16vectorINS_12basic_stringIDsNS_11char_traitsIDsEENS_9allocatorIDsEEEENS4_IS6_EEED1B8ne180100Ev, symObjAddr: 0x3B80, symBinAddr: 0xD6F0, symSize: 0x70 }
  - { offset: 0x7172F, size: 0x8, addend: 0x0, symName: __ZNSt3__16__treeINS_12__value_typeINS_12basic_stringIcNS_11char_traitsIcEENS_9allocatorIcEEEENS2_IDsNS3_IDsEENS5_IDsEEEEEENS_19__map_value_compareIS7_SB_NS_4lessIS7_EELb1EEENS5_ISB_EEE7destroyEPNS_11__tree_nodeISB_PvEE, symObjAddr: 0x6B40, symBinAddr: 0x102B0, symSize: 0x60 }
  - { offset: 0x71D79, size: 0x8, addend: 0x0, symName: __ZN9Steinberg3Vst11ProgramListC1EPKDsii, symObjAddr: 0x3BF0, symBinAddr: 0xD760, symSize: 0x100 }
  - { offset: 0x71FA1, size: 0x8, addend: 0x0, symName: __ZN9Steinberg3Vst11ProgramListC1EPKDsii.cold.2, symObjAddr: 0x82E0, symBinAddr: 0x176D70, symSize: 0x60 }
  - { offset: 0x72180, size: 0x8, addend: 0x0, symName: __ZN9Steinberg3Vst11ProgramListC1EPKDsii.cold.1, symObjAddr: 0x8280, symBinAddr: 0x176D10, symSize: 0x60 }
  - { offset: 0x72429, size: 0x8, addend: 0x0, symName: __ZN9Steinberg3Vst11ProgramListC2ERKS1_, symObjAddr: 0x3CF0, symBinAddr: 0xD860, symSize: 0xB0 }
  - { offset: 0x724EE, size: 0x8, addend: 0x0, symName: __ZNSt3__16vectorINS_12basic_stringIDsNS_11char_traitsIDsEENS_9allocatorIDsEEEENS4_IS6_EEE16__init_with_sizeB8ne180100IPS6_SA_EEvT_T0_m, symObjAddr: 0x6BA0, symBinAddr: 0x10310, symSize: 0x130 }
  - { offset: 0x729B3, size: 0x8, addend: 0x0, symName: __ZN9Steinberg3Vst11ProgramListC1ERKS1_, symObjAddr: 0x3DA0, symBinAddr: 0xD910, symSize: 0xB0 }
  - { offset: 0x73082, size: 0x8, addend: 0x0, symName: __ZN9Steinberg3Vst11ProgramList10addProgramEPKDs, symObjAddr: 0x3E50, symBinAddr: 0xD9C0, symSize: 0x1E0 }
  - { offset: 0x7377F, size: 0x8, addend: 0x0, symName: __ZNSt3__16vectorINS_12basic_stringIDsNS_11char_traitsIDsEENS_9allocatorIDsEEEENS4_IS6_EEE24__emplace_back_slow_pathIJRPKDsEEEPS6_DpOT_, symObjAddr: 0x6E10, symBinAddr: 0x10570, symSize: 0x2C0 }
  - { offset: 0x74211, size: 0x8, addend: 0x0, symName: __ZNSt3__16vectorINS_3mapINS_12basic_stringIcNS_11char_traitsIcEENS_9allocatorIcEEEENS2_IDsNS3_IDsEENS5_IDsEEEENS_4lessIS7_EENS5_INS_4pairIKS7_SA_EEEEEENS5_ISH_EEE24__emplace_back_slow_pathIJEEEPSH_DpOT_, symObjAddr: 0x7130, symBinAddr: 0x10890, symSize: 0x1D0 }
  - { offset: 0x7481A, size: 0x8, addend: 0x0, symName: __ZNSt3__16vectorINS_12basic_stringIDsNS_11char_traitsIDsEENS_9allocatorIDsEEEENS4_IS6_EEE24__emplace_back_slow_pathIJRPKDsEEEPS6_DpOT_, symObjAddr: 0x6E10, symBinAddr: 0x10570, symSize: 0x2C0 }
  - { offset: 0x74939, size: 0x8, addend: 0x0, symName: __ZN9Steinberg3Vst11ProgramList14setProgramInfoEiPKcPKDs, symObjAddr: 0x4030, symBinAddr: 0xDBA0, symSize: 0x90 }
  - { offset: 0x74AAF, size: 0x8, addend: 0x0, symName: __ZNSt3__16__treeINS_12__value_typeINS_12basic_stringIcNS_11char_traitsIcEENS_9allocatorIcEEEENS2_IDsNS3_IDsEENS5_IDsEEEEEENS_19__map_value_compareIS7_SB_NS_4lessIS7_EELb1EEENS5_ISB_EEE21__emplace_unique_implIJNS_4pairIPKcPKDsEEEEENSJ_INS_15__tree_iteratorISB_PNS_11__tree_nodeISB_PvEElEEbEEDpOT_, symObjAddr: 0x7320, symBinAddr: 0x10A80, symSize: 0x1C0 }
  - { offset: 0x754F2, size: 0x8, addend: 0x0, symName: __ZNKSt3__16vectorINS_3mapINS_12basic_stringIcNS_11char_traitsIcEENS_9allocatorIcEEEENS2_IDsNS3_IDsEENS5_IDsEEEENS_4lessIS7_EENS5_INS_4pairIKS7_SA_EEEEEENS5_ISH_EEE20__throw_out_of_rangeB8ne180100Ev, symObjAddr: 0x7310, symBinAddr: 0x10A70, symSize: 0x10 }
  - { offset: 0x7551C, size: 0x8, addend: 0x0, symName: __ZNSt3__16__treeINS_12__value_typeINS_12basic_stringIcNS_11char_traitsIcEENS_9allocatorIcEEEENS2_IDsNS3_IDsEENS5_IDsEEEEEENS_19__map_value_compareIS7_SB_NS_4lessIS7_EELb1EEENS5_ISB_EEE21__emplace_unique_implIJNS_4pairIPKcPKDsEEEEENSJ_INS_15__tree_iteratorISB_PNS_11__tree_nodeISB_PvEElEEbEEDpOT_, symObjAddr: 0x7320, symBinAddr: 0x10A80, symSize: 0x1C0 }
  - { offset: 0x75A22, size: 0x8, addend: 0x0, symName: __ZN9Steinberg3Vst11ProgramList14getProgramInfoEiPKcPDs, symObjAddr: 0x40C0, symBinAddr: 0xDC30, symSize: 0x230 }
  - { offset: 0x7656F, size: 0x8, addend: 0x0, symName: __ZNSt3__16__treeINS_12__value_typeINS_12basic_stringIcNS_11char_traitsIcEENS_9allocatorIcEEEENS2_IDsNS3_IDsEENS5_IDsEEEEEENS_19__map_value_compareIS7_SB_NS_4lessIS7_EELb1EEENS5_ISB_EEE4findIS7_EENS_15__tree_iteratorISB_PNS_11__tree_nodeISB_PvEElEERKT_, symObjAddr: 0x76F0, symBinAddr: 0x10E50, symSize: 0x120 }
  - { offset: 0x768DC, size: 0x8, addend: 0x0, symName: __ZNKSt3__112basic_stringIcNS_11char_traitsIcEENS_9allocatorIcEEE20__throw_length_errorB8ne180100Ev, symObjAddr: 0x7810, symBinAddr: 0x10F70, symSize: 0x10 }
  - { offset: 0x76906, size: 0x8, addend: 0x0, symName: __ZNKSt3__112basic_stringIDsNS_11char_traitsIDsEENS_9allocatorIDsEEE20__throw_out_of_rangeB8ne180100Ev, symObjAddr: 0x7820, symBinAddr: 0x10F80, symSize: 0x10 }
  - { offset: 0x76935, size: 0x8, addend: 0x0, symName: __ZN9Steinberg3Vst11ProgramList14getProgramNameEiPDs, symObjAddr: 0x42F0, symBinAddr: 0xDE60, symSize: 0x120 }
  - { offset: 0x76C9B, size: 0x8, addend: 0x0, symName: __ZNKSt3__16vectorINS_12basic_stringIDsNS_11char_traitsIDsEENS_9allocatorIDsEEEENS4_IS6_EEE20__throw_out_of_rangeB8ne180100Ev, symObjAddr: 0x7830, symBinAddr: 0x10F90, symSize: 0x10 }
  - { offset: 0x76CC5, size: 0x8, addend: 0x0, symName: __ZNSt3__112basic_stringIDsNS_11char_traitsIDsEENS_9allocatorIDsEEE17__assign_externalEPKDsm, symObjAddr: 0x7840, symBinAddr: 0x10FA0, symSize: 0xB0 }
  - { offset: 0x76D16, size: 0x8, addend: 0x0, symName: __ZN9Steinberg3Vst11ProgramList14setProgramNameEiPKDs, symObjAddr: 0x4410, symBinAddr: 0xDF80, symSize: 0xA0 }
  - { offset: 0x76E22, size: 0x8, addend: 0x0, symName: __ZNSt3__112basic_stringIDsNS_11char_traitsIDsEENS_9allocatorIDsEEE17__assign_externalEPKDs, symObjAddr: 0x78F0, symBinAddr: 0x11050, symSize: 0x30 }
  - { offset: 0x76F0C, size: 0x8, addend: 0x0, symName: __ZN9Steinberg3Vst11ProgramList12getParameterEv, symObjAddr: 0x44B0, symBinAddr: 0xE020, symSize: 0xC0 }
  - { offset: 0x770E4, size: 0x8, addend: 0x0, symName: __ZN9Steinberg3Vst25ProgramListWithPitchNamesC2EPKDsii, symObjAddr: 0x4570, symBinAddr: 0xE0E0, symSize: 0x110 }
  - { offset: 0x775AA, size: 0x8, addend: 0x0, symName: __ZN9Steinberg3Vst25ProgramListWithPitchNamesC1EPKDsii, symObjAddr: 0x4680, symBinAddr: 0xE1F0, symSize: 0x10 }
  - { offset: 0x7780E, size: 0x8, addend: 0x0, symName: __ZN9Steinberg3Vst25ProgramListWithPitchNames10addProgramEPKDs, symObjAddr: 0x4690, symBinAddr: 0xE200, symSize: 0x60 }
  - { offset: 0x779FA, size: 0x8, addend: 0x0, symName: __ZNSt3__16vectorINS_3mapIsNS_12basic_stringIDsNS_11char_traitsIDsEENS_9allocatorIDsEEEENS_4lessIsEENS5_INS_4pairIKsS7_EEEEEENS5_ISE_EEE24__emplace_back_slow_pathIJEEEPSE_DpOT_, symObjAddr: 0x7A90, symBinAddr: 0x11080, symSize: 0x1D0 }
  - { offset: 0x7832B, size: 0x8, addend: 0x0, symName: __ZN9Steinberg3Vst25ProgramListWithPitchNames12setPitchNameEisPKDs, symObjAddr: 0x46F0, symBinAddr: 0xE260, symSize: 0x190 }
  - { offset: 0x787D6, size: 0x8, addend: 0x0, symName: __ZNSt3__16__treeINS_12__value_typeIsNS_12basic_stringIDsNS_11char_traitsIDsEENS_9allocatorIDsEEEEEENS_19__map_value_compareIsS8_NS_4lessIsEELb1EEENS5_IS8_EEE16__construct_nodeIJNS_4pairIsPKDsEEEEENS_10unique_ptrINS_11__tree_nodeIS8_PvEENS_22__tree_node_destructorINS5_ISN_EEEEEEDpOT_, symObjAddr: 0x7C70, symBinAddr: 0x11260, symSize: 0x150 }
  - { offset: 0x78E2F, size: 0x8, addend: 0x0, symName: __ZNKSt3__112basic_stringIDsNS_11char_traitsIDsEENS_9allocatorIDsEEE20__throw_out_of_rangeB8ne180100Ev, symObjAddr: 0x7820, symBinAddr: 0x10F80, symSize: 0x10 }
  - { offset: 0x78E59, size: 0x8, addend: 0x0, symName: __ZNKSt3__16vectorINS_12basic_stringIDsNS_11char_traitsIDsEENS_9allocatorIDsEEEENS4_IS6_EEE20__throw_out_of_rangeB8ne180100Ev, symObjAddr: 0x7830, symBinAddr: 0x10F90, symSize: 0x10 }
  - { offset: 0x78EC5, size: 0x8, addend: 0x0, symName: __ZN9Steinberg3Vst25ProgramListWithPitchNames15removePitchNameEis, symObjAddr: 0x4880, symBinAddr: 0xE3F0, symSize: 0x90 }
  - { offset: 0x78FBF, size: 0x8, addend: 0x0, symName: __ZNSt3__16__treeINS_12__value_typeIsNS_12basic_stringIDsNS_11char_traitsIDsEENS_9allocatorIDsEEEEEENS_19__map_value_compareIsS8_NS_4lessIsEELb1EEENS5_IS8_EEE14__erase_uniqueIsEEmRKT_, symObjAddr: 0x7E10, symBinAddr: 0x11400, symSize: 0xC0 }
  - { offset: 0x79483, size: 0x8, addend: 0x0, symName: __ZNKSt3__16vectorINS_3mapIsNS_12basic_stringIDsNS_11char_traitsIDsEENS_9allocatorIDsEEEENS_4lessIsEENS5_INS_4pairIKsS7_EEEEEENS5_ISE_EEE20__throw_out_of_rangeB8ne180100Ev, symObjAddr: 0x7E00, symBinAddr: 0x113F0, symSize: 0x10 }
  - { offset: 0x794AD, size: 0x8, addend: 0x0, symName: __ZNSt3__16__treeINS_12__value_typeIsNS_12basic_stringIDsNS_11char_traitsIDsEENS_9allocatorIDsEEEEEENS_19__map_value_compareIsS8_NS_4lessIsEELb1EEENS5_IS8_EEE14__erase_uniqueIsEEmRKT_, symObjAddr: 0x7E10, symBinAddr: 0x11400, symSize: 0xC0 }
  - { offset: 0x794E4, size: 0x8, addend: 0x0, symName: __ZN9Steinberg3Vst25ProgramListWithPitchNames13hasPitchNamesEi, symObjAddr: 0x4910, symBinAddr: 0xE480, symSize: 0x60 }
  - { offset: 0x79691, size: 0x8, addend: 0x0, symName: __ZN9Steinberg3Vst25ProgramListWithPitchNames12getPitchNameEisPDs, symObjAddr: 0x4970, symBinAddr: 0xE4E0, symSize: 0x120 }
  - { offset: 0x79BAB, size: 0x8, addend: 0x0, symName: __ZN9Steinberg3Vst21SingleComponentEffect6addRefEv, symObjAddr: 0x4A90, symBinAddr: 0xE600, symSize: 0x10 }
  - { offset: 0x79C64, size: 0x8, addend: 0x0, symName: __ZN9Steinberg3Vst21SingleComponentEffect7releaseEv, symObjAddr: 0x4AA0, symBinAddr: 0xE610, symSize: 0x10 }
  - { offset: 0x79CDB, size: 0x8, addend: 0x0, symName: __ZNK9Steinberg3Vst21SingleComponentEffect3isAEv, symObjAddr: 0x4AB0, symBinAddr: 0xE620, symSize: 0x10 }
  - { offset: 0x79D00, size: 0x8, addend: 0x0, symName: __ZNK9Steinberg3Vst21SingleComponentEffect3isAEPKc, symObjAddr: 0x4AC0, symBinAddr: 0xE630, symSize: 0x10 }
  - { offset: 0x79E30, size: 0x8, addend: 0x0, symName: __ZNK9Steinberg3Vst21SingleComponentEffect8isTypeOfEPKcb, symObjAddr: 0x4AD0, symBinAddr: 0xE640, symSize: 0xA0 }
  - { offset: 0x7A03D, size: 0x8, addend: 0x0, symName: __ZN9Steinberg3Vst14EditController10createViewEPKc, symObjAddr: 0x4B90, symBinAddr: 0xE6E0, symSize: 0x10 }
  - { offset: 0x7A06C, size: 0x8, addend: 0x0, symName: __ZN9Steinberg3Vst21SingleComponentEffect9setActiveEh, symObjAddr: 0x4CA0, symBinAddr: 0xE6F0, symSize: 0x10 }
  - { offset: 0x7A09B, size: 0x8, addend: 0x0, symName: __ZN9Steinberg3Vst21SingleComponentEffect8setStateEPNS_8IBStreamE, symObjAddr: 0x4CB0, symBinAddr: 0xE700, symSize: 0x10 }
  - { offset: 0x7A0CA, size: 0x8, addend: 0x0, symName: __ZN9Steinberg3Vst21SingleComponentEffect8getStateEPNS_8IBStreamE, symObjAddr: 0x4CC0, symBinAddr: 0xE710, symSize: 0x10 }
  - { offset: 0x7A0F9, size: 0x8, addend: 0x0, symName: __ZN9Steinberg3Vst21SingleComponentEffect7processERNS0_11ProcessDataE, symObjAddr: 0x4CF0, symBinAddr: 0xE720, symSize: 0x10 }
  - { offset: 0x7A13E, size: 0x8, addend: 0x0, symName: __ZThn16_N9Steinberg3Vst21SingleComponentEffect6addRefEv, symObjAddr: 0x4D20, symBinAddr: 0xE730, symSize: 0x10 }
  - { offset: 0x7A1DE, size: 0x8, addend: 0x0, symName: __ZThn16_N9Steinberg3Vst21SingleComponentEffect7releaseEv, symObjAddr: 0x4D30, symBinAddr: 0xE740, symSize: 0x10 }
  - { offset: 0x7A268, size: 0x8, addend: 0x0, symName: __ZThn24_N9Steinberg3Vst21SingleComponentEffect6addRefEv, symObjAddr: 0x4D40, symBinAddr: 0xE750, symSize: 0x10 }
  - { offset: 0x7A2F2, size: 0x8, addend: 0x0, symName: __ZThn24_N9Steinberg3Vst21SingleComponentEffect7releaseEv, symObjAddr: 0x4D50, symBinAddr: 0xE760, symSize: 0x10 }
  - { offset: 0x7A37C, size: 0x8, addend: 0x0, symName: __ZThn48_N9Steinberg3Vst21SingleComponentEffect6addRefEv, symObjAddr: 0x4D60, symBinAddr: 0xE770, symSize: 0x10 }
  - { offset: 0x7A406, size: 0x8, addend: 0x0, symName: __ZThn48_N9Steinberg3Vst21SingleComponentEffect7releaseEv, symObjAddr: 0x4D70, symBinAddr: 0xE780, symSize: 0x10 }
  - { offset: 0x7A490, size: 0x8, addend: 0x0, symName: __ZThn48_N9Steinberg3Vst14EditController10createViewEPKc, symObjAddr: 0x4D80, symBinAddr: 0xE790, symSize: 0x10 }
  - { offset: 0x7A4A6, size: 0x8, addend: 0x0, symName: __ZThn56_N9Steinberg3Vst21SingleComponentEffect6addRefEv, symObjAddr: 0x4D90, symBinAddr: 0xE7A0, symSize: 0x10 }
  - { offset: 0x7A530, size: 0x8, addend: 0x0, symName: __ZThn56_N9Steinberg3Vst21SingleComponentEffect7releaseEv, symObjAddr: 0x4DA0, symBinAddr: 0xE7B0, symSize: 0x10 }
  - { offset: 0x7A5BA, size: 0x8, addend: 0x0, symName: __ZThn112_N9Steinberg3Vst21SingleComponentEffect6addRefEv, symObjAddr: 0x4DE0, symBinAddr: 0xE7C0, symSize: 0x10 }
  - { offset: 0x7A644, size: 0x8, addend: 0x0, symName: __ZThn112_N9Steinberg3Vst21SingleComponentEffect7releaseEv, symObjAddr: 0x4DF0, symBinAddr: 0xE7D0, symSize: 0x10 }
  - { offset: 0x7A6CE, size: 0x8, addend: 0x0, symName: __ZThn200_N9Steinberg3Vst21SingleComponentEffect6addRefEv, symObjAddr: 0x4E60, symBinAddr: 0xE7E0, symSize: 0x20 }
  - { offset: 0x7A758, size: 0x8, addend: 0x0, symName: __ZThn200_N9Steinberg3Vst21SingleComponentEffect7releaseEv, symObjAddr: 0x4E80, symBinAddr: 0xE800, symSize: 0x20 }
  - { offset: 0x7A7E2, size: 0x8, addend: 0x0, symName: __ZThn200_N9Steinberg3Vst21SingleComponentEffect9setActiveEh, symObjAddr: 0x4ED0, symBinAddr: 0xE820, symSize: 0x10 }
  - { offset: 0x7A7F8, size: 0x8, addend: 0x0, symName: __ZThn200_N9Steinberg3Vst21SingleComponentEffect8setStateEPNS_8IBStreamE, symObjAddr: 0x4EE0, symBinAddr: 0xE830, symSize: 0x10 }
  - { offset: 0x7A80E, size: 0x8, addend: 0x0, symName: __ZThn200_N9Steinberg3Vst21SingleComponentEffect8getStateEPNS_8IBStreamE, symObjAddr: 0x4EF0, symBinAddr: 0xE840, symSize: 0x10 }
  - { offset: 0x7A824, size: 0x8, addend: 0x0, symName: __ZThn208_N9Steinberg3Vst21SingleComponentEffect6addRefEv, symObjAddr: 0x4F00, symBinAddr: 0xE850, symSize: 0x20 }
  - { offset: 0x7A8AE, size: 0x8, addend: 0x0, symName: __ZThn208_N9Steinberg3Vst21SingleComponentEffect7releaseEv, symObjAddr: 0x4F20, symBinAddr: 0xE870, symSize: 0x20 }
  - { offset: 0x7A938, size: 0x8, addend: 0x0, symName: __ZThn208_N9Steinberg3Vst21SingleComponentEffect7processERNS0_11ProcessDataE, symObjAddr: 0x4F60, symBinAddr: 0xE890, symSize: 0x10 }
  - { offset: 0x7A94E, size: 0x8, addend: 0x0, symName: __ZThn216_N9Steinberg3Vst21SingleComponentEffect6addRefEv, symObjAddr: 0x4F80, symBinAddr: 0xE8A0, symSize: 0x20 }
  - { offset: 0x7A9D8, size: 0x8, addend: 0x0, symName: __ZThn216_N9Steinberg3Vst21SingleComponentEffect7releaseEv, symObjAddr: 0x4FA0, symBinAddr: 0xE8C0, symSize: 0x20 }
  - { offset: 0x7AA62, size: 0x8, addend: 0x0, symName: __ZN9Steinberg3Vst14EditController14queryInterfaceEPKcPPv, symObjAddr: 0x4FD0, symBinAddr: 0xE8E0, symSize: 0xC0 }
  - { offset: 0x7ABEB, size: 0x8, addend: 0x0, symName: __ZN9Steinberg3Vst14EditController6addRefEv, symObjAddr: 0x5090, symBinAddr: 0xE9A0, symSize: 0x10 }
  - { offset: 0x7AC28, size: 0x8, addend: 0x0, symName: __ZN9Steinberg3Vst14EditController7releaseEv, symObjAddr: 0x50A0, symBinAddr: 0xE9B0, symSize: 0x10 }
  - { offset: 0x7AC65, size: 0x8, addend: 0x0, symName: __ZN9Steinberg3Vst14EditControllerD1Ev, symObjAddr: 0x50C0, symBinAddr: 0xE9C0, symSize: 0xA0 }
  - { offset: 0x7AD34, size: 0x8, addend: 0x0, symName: __ZN9Steinberg3Vst14EditControllerD0Ev, symObjAddr: 0x5160, symBinAddr: 0xEA60, symSize: 0xA0 }
  - { offset: 0x7AE01, size: 0x8, addend: 0x0, symName: __ZNK9Steinberg3Vst14EditController3isAEv, symObjAddr: 0x5200, symBinAddr: 0xEB00, symSize: 0x10 }
  - { offset: 0x7AE26, size: 0x8, addend: 0x0, symName: __ZNK9Steinberg3Vst14EditController3isAEPKc, symObjAddr: 0x5210, symBinAddr: 0xEB10, symSize: 0x10 }
  - { offset: 0x7AE79, size: 0x8, addend: 0x0, symName: __ZNK9Steinberg3Vst14EditController8isTypeOfEPKcb, symObjAddr: 0x5220, symBinAddr: 0xEB20, symSize: 0x70 }
  - { offset: 0x7AEB0, size: 0x8, addend: 0x0, symName: __ZNK9Steinberg3Vst14EditController8isTypeOfEPKcb, symObjAddr: 0x5220, symBinAddr: 0xEB20, symSize: 0x70 }
  - { offset: 0x7AF9E, size: 0x8, addend: 0x0, symName: __ZThn16_N9Steinberg3Vst14EditController14queryInterfaceEPKcPPv, symObjAddr: 0x5290, symBinAddr: 0xEB90, symSize: 0xC0 }
  - { offset: 0x7B109, size: 0x8, addend: 0x0, symName: __ZThn16_N9Steinberg3Vst14EditController6addRefEv, symObjAddr: 0x5350, symBinAddr: 0xEC50, symSize: 0x10 }
  - { offset: 0x7B159, size: 0x8, addend: 0x0, symName: __ZThn16_N9Steinberg3Vst14EditController7releaseEv, symObjAddr: 0x5360, symBinAddr: 0xEC60, symSize: 0x10 }
  - { offset: 0x7B1A9, size: 0x8, addend: 0x0, symName: __ZThn24_N9Steinberg3Vst14EditController14queryInterfaceEPKcPPv, symObjAddr: 0x5370, symBinAddr: 0xEC70, symSize: 0xC0 }
  - { offset: 0x7B314, size: 0x8, addend: 0x0, symName: __ZThn24_N9Steinberg3Vst14EditController6addRefEv, symObjAddr: 0x5430, symBinAddr: 0xED30, symSize: 0x10 }
  - { offset: 0x7B364, size: 0x8, addend: 0x0, symName: __ZThn24_N9Steinberg3Vst14EditController7releaseEv, symObjAddr: 0x5440, symBinAddr: 0xED40, symSize: 0x10 }
  - { offset: 0x7B3B4, size: 0x8, addend: 0x0, symName: __ZThn48_N9Steinberg3Vst14EditController14queryInterfaceEPKcPPv, symObjAddr: 0x5450, symBinAddr: 0xED50, symSize: 0xC0 }
  - { offset: 0x7B51F, size: 0x8, addend: 0x0, symName: __ZThn48_N9Steinberg3Vst14EditController6addRefEv, symObjAddr: 0x5510, symBinAddr: 0xEE10, symSize: 0x10 }
  - { offset: 0x7B56F, size: 0x8, addend: 0x0, symName: __ZThn48_N9Steinberg3Vst14EditController7releaseEv, symObjAddr: 0x5520, symBinAddr: 0xEE20, symSize: 0x10 }
  - { offset: 0x7B5BF, size: 0x8, addend: 0x0, symName: __ZThn56_N9Steinberg3Vst14EditController14queryInterfaceEPKcPPv, symObjAddr: 0x5530, symBinAddr: 0xEE30, symSize: 0xC0 }
  - { offset: 0x7B72A, size: 0x8, addend: 0x0, symName: __ZThn56_N9Steinberg3Vst14EditController6addRefEv, symObjAddr: 0x55F0, symBinAddr: 0xEEF0, symSize: 0x10 }
  - { offset: 0x7B77A, size: 0x8, addend: 0x0, symName: __ZThn56_N9Steinberg3Vst14EditController7releaseEv, symObjAddr: 0x5600, symBinAddr: 0xEF00, symSize: 0x10 }
  - { offset: 0x7B7CA, size: 0x8, addend: 0x0, symName: __ZN9Steinberg11CPluginView14queryInterfaceEPKcPPv, symObjAddr: 0x5610, symBinAddr: 0xEF10, symSize: 0x50 }
  - { offset: 0x7B849, size: 0x8, addend: 0x0, symName: __ZN9Steinberg11CPluginView6addRefEv, symObjAddr: 0x5660, symBinAddr: 0xEF60, symSize: 0x10 }
  - { offset: 0x7B869, size: 0x8, addend: 0x0, symName: __ZN9Steinberg11CPluginView7releaseEv, symObjAddr: 0x5670, symBinAddr: 0xEF70, symSize: 0x10 }
  - { offset: 0x7B889, size: 0x8, addend: 0x0, symName: __ZNK9Steinberg11CPluginView3isAEv, symObjAddr: 0x5680, symBinAddr: 0xEF80, symSize: 0x10 }
  - { offset: 0x7B8AE, size: 0x8, addend: 0x0, symName: __ZNK9Steinberg11CPluginView3isAEPKc, symObjAddr: 0x5690, symBinAddr: 0xEF90, symSize: 0x10 }
  - { offset: 0x7B901, size: 0x8, addend: 0x0, symName: __ZNK9Steinberg11CPluginView8isTypeOfEPKcb, symObjAddr: 0x56A0, symBinAddr: 0xEFA0, symSize: 0x50 }
  - { offset: 0x7B94B, size: 0x8, addend: 0x0, symName: __ZNK9Steinberg11CPluginView8isTypeOfEPKcb, symObjAddr: 0x56A0, symBinAddr: 0xEFA0, symSize: 0x50 }
  - { offset: 0x7B9DA, size: 0x8, addend: 0x0, symName: __ZN9Steinberg11CPluginView7onWheelEf, symObjAddr: 0x56F0, symBinAddr: 0xEFF0, symSize: 0x10 }
  - { offset: 0x7BA09, size: 0x8, addend: 0x0, symName: __ZN9Steinberg11CPluginView9onKeyDownEDsss, symObjAddr: 0x5700, symBinAddr: 0xF000, symSize: 0x10 }
  - { offset: 0x7BA4C, size: 0x8, addend: 0x0, symName: __ZN9Steinberg11CPluginView7onKeyUpEDsss, symObjAddr: 0x5710, symBinAddr: 0xF010, symSize: 0x10 }
  - { offset: 0x7BA8F, size: 0x8, addend: 0x0, symName: __ZN9Steinberg11CPluginView7onFocusEh, symObjAddr: 0x5720, symBinAddr: 0xF020, symSize: 0x10 }
  - { offset: 0x7BAE5, size: 0x8, addend: 0x0, symName: __ZN9Steinberg11CPluginView8setFrameEPNS_10IPlugFrameE, symObjAddr: 0x5730, symBinAddr: 0xF030, symSize: 0x40 }
  - { offset: 0x7BB56, size: 0x8, addend: 0x0, symName: __ZN9Steinberg11CPluginView9canResizeEv, symObjAddr: 0x5770, symBinAddr: 0xF070, symSize: 0x10 }
  - { offset: 0x7BB7B, size: 0x8, addend: 0x0, symName: __ZN9Steinberg11CPluginView19checkSizeConstraintEPNS_8ViewRectE, symObjAddr: 0x5780, symBinAddr: 0xF080, symSize: 0x10 }
  - { offset: 0x7BBDB, size: 0x8, addend: 0x0, symName: __ZThn16_N9Steinberg11CPluginView14queryInterfaceEPKcPPv, symObjAddr: 0x5790, symBinAddr: 0xF090, symSize: 0x50 }
  - { offset: 0x7BC6A, size: 0x8, addend: 0x0, symName: __ZThn16_N9Steinberg11CPluginView6addRefEv, symObjAddr: 0x57E0, symBinAddr: 0xF0E0, symSize: 0x10 }
  - { offset: 0x7BCB3, size: 0x8, addend: 0x0, symName: __ZThn16_N9Steinberg11CPluginView7releaseEv, symObjAddr: 0x57F0, symBinAddr: 0xF0F0, symSize: 0x10 }
  - { offset: 0x7BCE6, size: 0x8, addend: 0x0, symName: __ZThn16_N9Steinberg11CPluginView7onWheelEf, symObjAddr: 0x5800, symBinAddr: 0xF100, symSize: 0x10 }
  - { offset: 0x7BCFC, size: 0x8, addend: 0x0, symName: __ZThn16_N9Steinberg11CPluginView9onKeyDownEDsss, symObjAddr: 0x5810, symBinAddr: 0xF110, symSize: 0x10 }
  - { offset: 0x7BD12, size: 0x8, addend: 0x0, symName: __ZThn16_N9Steinberg11CPluginView7onKeyUpEDsss, symObjAddr: 0x5820, symBinAddr: 0xF120, symSize: 0x10 }
  - { offset: 0x7BD28, size: 0x8, addend: 0x0, symName: __ZThn16_N9Steinberg11CPluginView7onFocusEh, symObjAddr: 0x5830, symBinAddr: 0xF130, symSize: 0x10 }
  - { offset: 0x7BD5F, size: 0x8, addend: 0x0, symName: __ZThn16_N9Steinberg11CPluginView8setFrameEPNS_10IPlugFrameE, symObjAddr: 0x5840, symBinAddr: 0xF140, symSize: 0x40 }
  - { offset: 0x7BDE3, size: 0x8, addend: 0x0, symName: __ZThn16_N9Steinberg11CPluginView9canResizeEv, symObjAddr: 0x5880, symBinAddr: 0xF180, symSize: 0x10 }
  - { offset: 0x7BDF9, size: 0x8, addend: 0x0, symName: __ZThn16_N9Steinberg11CPluginView19checkSizeConstraintEPNS_8ViewRectE, symObjAddr: 0x5890, symBinAddr: 0xF190, symSize: 0x10 }
  - { offset: 0x7BE0F, size: 0x8, addend: 0x0, symName: __ZN9Steinberg3Vst17EditControllerEx16addRefEv, symObjAddr: 0x58A0, symBinAddr: 0xF1A0, symSize: 0x10 }
  - { offset: 0x7BE69, size: 0x8, addend: 0x0, symName: __ZN9Steinberg3Vst17EditControllerEx17releaseEv, symObjAddr: 0x58B0, symBinAddr: 0xF1B0, symSize: 0x10 }
  - { offset: 0x7BEC3, size: 0x8, addend: 0x0, symName: __ZNK9Steinberg3Vst17EditControllerEx13isAEv, symObjAddr: 0x58C0, symBinAddr: 0xF1C0, symSize: 0x10 }
  - { offset: 0x7BEE8, size: 0x8, addend: 0x0, symName: __ZNK9Steinberg3Vst17EditControllerEx13isAEPKc, symObjAddr: 0x58D0, symBinAddr: 0xF1D0, symSize: 0x10 }
  - { offset: 0x7BF3C, size: 0x8, addend: 0x0, symName: __ZNK9Steinberg3Vst17EditControllerEx18isTypeOfEPKcb, symObjAddr: 0x58E0, symBinAddr: 0xF1E0, symSize: 0x90 }
  - { offset: 0x7C0C0, size: 0x8, addend: 0x0, symName: __ZThn16_N9Steinberg3Vst17EditControllerEx114queryInterfaceEPKcPPv, symObjAddr: 0x5970, symBinAddr: 0xF270, symSize: 0x10 }
  - { offset: 0x7C0F5, size: 0x8, addend: 0x0, symName: __ZThn16_N9Steinberg3Vst17EditControllerEx16addRefEv, symObjAddr: 0x5980, symBinAddr: 0xF280, symSize: 0x10 }
  - { offset: 0x7C163, size: 0x8, addend: 0x0, symName: __ZThn16_N9Steinberg3Vst17EditControllerEx17releaseEv, symObjAddr: 0x5990, symBinAddr: 0xF290, symSize: 0x10 }
  - { offset: 0x7C1D1, size: 0x8, addend: 0x0, symName: __ZThn24_N9Steinberg3Vst17EditControllerEx114queryInterfaceEPKcPPv, symObjAddr: 0x59A0, symBinAddr: 0xF2A0, symSize: 0x10 }
  - { offset: 0x7C206, size: 0x8, addend: 0x0, symName: __ZThn24_N9Steinberg3Vst17EditControllerEx16addRefEv, symObjAddr: 0x59B0, symBinAddr: 0xF2B0, symSize: 0x10 }
  - { offset: 0x7C274, size: 0x8, addend: 0x0, symName: __ZThn24_N9Steinberg3Vst17EditControllerEx17releaseEv, symObjAddr: 0x59C0, symBinAddr: 0xF2C0, symSize: 0x10 }
  - { offset: 0x7C2E2, size: 0x8, addend: 0x0, symName: __ZThn48_N9Steinberg3Vst17EditControllerEx114queryInterfaceEPKcPPv, symObjAddr: 0x59D0, symBinAddr: 0xF2D0, symSize: 0x10 }
  - { offset: 0x7C317, size: 0x8, addend: 0x0, symName: __ZThn48_N9Steinberg3Vst17EditControllerEx16addRefEv, symObjAddr: 0x59E0, symBinAddr: 0xF2E0, symSize: 0x10 }
  - { offset: 0x7C385, size: 0x8, addend: 0x0, symName: __ZThn48_N9Steinberg3Vst17EditControllerEx17releaseEv, symObjAddr: 0x59F0, symBinAddr: 0xF2F0, symSize: 0x10 }
  - { offset: 0x7C3F3, size: 0x8, addend: 0x0, symName: __ZThn56_N9Steinberg3Vst17EditControllerEx114queryInterfaceEPKcPPv, symObjAddr: 0x5A00, symBinAddr: 0xF300, symSize: 0x10 }
  - { offset: 0x7C428, size: 0x8, addend: 0x0, symName: __ZThn56_N9Steinberg3Vst17EditControllerEx16addRefEv, symObjAddr: 0x5A10, symBinAddr: 0xF310, symSize: 0x10 }
  - { offset: 0x7C496, size: 0x8, addend: 0x0, symName: __ZThn56_N9Steinberg3Vst17EditControllerEx17releaseEv, symObjAddr: 0x5A20, symBinAddr: 0xF320, symSize: 0x10 }
  - { offset: 0x7C504, size: 0x8, addend: 0x0, symName: __ZThn112_N9Steinberg3Vst17EditControllerEx114queryInterfaceEPKcPPv, symObjAddr: 0x5A30, symBinAddr: 0xF330, symSize: 0x10 }
  - { offset: 0x7C539, size: 0x8, addend: 0x0, symName: __ZThn112_N9Steinberg3Vst17EditControllerEx16addRefEv, symObjAddr: 0x5A40, symBinAddr: 0xF340, symSize: 0x10 }
  - { offset: 0x7C5A7, size: 0x8, addend: 0x0, symName: __ZThn112_N9Steinberg3Vst17EditControllerEx17releaseEv, symObjAddr: 0x5A50, symBinAddr: 0xF350, symSize: 0x10 }
  - { offset: 0x7C631, size: 0x8, addend: 0x0, symName: __ZN9Steinberg3Vst11ProgramListD1Ev, symObjAddr: 0x5A60, symBinAddr: 0xF360, symSize: 0xD0 }
  - { offset: 0x7CAF3, size: 0x8, addend: 0x0, symName: __ZN9Steinberg3Vst11ProgramListD0Ev, symObjAddr: 0x5B30, symBinAddr: 0xF430, symSize: 0xE0 }
  - { offset: 0x7CFBF, size: 0x8, addend: 0x0, symName: __ZNK9Steinberg3Vst11ProgramList3isAEv, symObjAddr: 0x5C10, symBinAddr: 0xF510, symSize: 0x10 }
  - { offset: 0x7CFE4, size: 0x8, addend: 0x0, symName: __ZNK9Steinberg3Vst11ProgramList3isAEPKc, symObjAddr: 0x5C20, symBinAddr: 0xF520, symSize: 0x10 }
  - { offset: 0x7D037, size: 0x8, addend: 0x0, symName: __ZNK9Steinberg3Vst11ProgramList8isTypeOfEPKcb, symObjAddr: 0x5C30, symBinAddr: 0xF530, symSize: 0x50 }
  - { offset: 0x7D06E, size: 0x8, addend: 0x0, symName: __ZNK9Steinberg3Vst11ProgramList8isTypeOfEPKcb, symObjAddr: 0x5C30, symBinAddr: 0xF530, symSize: 0x50 }
  - { offset: 0x7D0FD, size: 0x8, addend: 0x0, symName: __ZN9Steinberg3Vst11ProgramList13hasPitchNamesEi, symObjAddr: 0x5C80, symBinAddr: 0xF580, symSize: 0x10 }
  - { offset: 0x7D130, size: 0x8, addend: 0x0, symName: __ZN9Steinberg3Vst11ProgramList12getPitchNameEisPDs, symObjAddr: 0x5C90, symBinAddr: 0xF590, symSize: 0x10 }
  - { offset: 0x7D17F, size: 0x8, addend: 0x0, symName: __ZN9Steinberg3Vst25ProgramListWithPitchNamesD1Ev, symObjAddr: 0x5CA0, symBinAddr: 0xF5A0, symSize: 0x10 }
  - { offset: 0x7D1B5, size: 0x8, addend: 0x0, symName: __ZN9Steinberg3Vst25ProgramListWithPitchNamesD2Ev, symObjAddr: 0x5E40, symBinAddr: 0xF740, symSize: 0x120 }
  - { offset: 0x7D872, size: 0x8, addend: 0x0, symName: __ZN9Steinberg3Vst25ProgramListWithPitchNamesD0Ev, symObjAddr: 0x5CB0, symBinAddr: 0xF5B0, symSize: 0x20 }
  - { offset: 0x7D8D2, size: 0x8, addend: 0x0, symName: __ZNK9Steinberg3Vst25ProgramListWithPitchNames3isAEv, symObjAddr: 0x5CD0, symBinAddr: 0xF5D0, symSize: 0x10 }
  - { offset: 0x7D8F7, size: 0x8, addend: 0x0, symName: __ZNK9Steinberg3Vst25ProgramListWithPitchNames3isAEPKc, symObjAddr: 0x5CE0, symBinAddr: 0xF5E0, symSize: 0x10 }
  - { offset: 0x7D977, size: 0x8, addend: 0x0, symName: __ZNK9Steinberg3Vst25ProgramListWithPitchNames8isTypeOfEPKcb, symObjAddr: 0x5CF0, symBinAddr: 0xF5F0, symSize: 0x70 }
  - { offset: 0x7D9C2, size: 0x8, addend: 0x0, symName: __ZNK9Steinberg3Vst25ProgramListWithPitchNames8isTypeOfEPKcb, symObjAddr: 0x5CF0, symBinAddr: 0xF5F0, symSize: 0x70 }
  - { offset: 0x7DACD, size: 0x8, addend: 0x0, symName: __ZN9Steinberg3Vst4UnitD1Ev, symObjAddr: 0x5D60, symBinAddr: 0xF660, symSize: 0x10 }
  - { offset: 0x7DB26, size: 0x8, addend: 0x0, symName: __ZN9Steinberg3Vst4UnitD0Ev, symObjAddr: 0x5D70, symBinAddr: 0xF670, symSize: 0x20 }
  - { offset: 0x7DB8D, size: 0x8, addend: 0x0, symName: __ZNK9Steinberg3Vst4Unit3isAEv, symObjAddr: 0x5D90, symBinAddr: 0xF690, symSize: 0x10 }
  - { offset: 0x7DBB2, size: 0x8, addend: 0x0, symName: __ZNK9Steinberg3Vst4Unit3isAEPKc, symObjAddr: 0x5DA0, symBinAddr: 0xF6A0, symSize: 0x10 }
  - { offset: 0x7DC05, size: 0x8, addend: 0x0, symName: __ZNK9Steinberg3Vst4Unit8isTypeOfEPKcb, symObjAddr: 0x5DB0, symBinAddr: 0xF6B0, symSize: 0x50 }
  - { offset: 0x7DC4F, size: 0x8, addend: 0x0, symName: __ZNK9Steinberg3Vst4Unit8isTypeOfEPKcb, symObjAddr: 0x5DB0, symBinAddr: 0xF6B0, symSize: 0x50 }
  - { offset: 0x7DEE4, size: 0x8, addend: 0x0, symName: __ZNSt3__16__treeINS_12__value_typeIsNS_12basic_stringIDsNS_11char_traitsIDsEENS_9allocatorIDsEEEEEENS_19__map_value_compareIsS8_NS_4lessIsEELb1EEENS5_IS8_EEE7destroyEPNS_11__tree_nodeIS8_PvEE, symObjAddr: 0x5F60, symBinAddr: 0xF860, symSize: 0x50 }
  - { offset: 0x7E50A, size: 0x8, addend: 0x0, symName: __ZNKSt3__16vectorIN9Steinberg4IPtrINS1_3Vst3BusEEENS_9allocatorIS5_EEE20__throw_length_errorB8ne180100Ev, symObjAddr: 0x6260, symBinAddr: 0xFAD0, symSize: 0x10 }
  - { offset: 0x7E9BE, size: 0x8, addend: 0x0, symName: __ZNKSt3__16vectorIN9Steinberg4IPtrINS1_3Vst4UnitEEENS_9allocatorIS5_EEE20__throw_length_errorB8ne180100Ev, symObjAddr: 0x6690, symBinAddr: 0xFE00, symSize: 0x10 }
  - { offset: 0x7E9E8, size: 0x8, addend: 0x0, symName: __ZNKSt3__16vectorIN9Steinberg4IPtrINS1_3Vst4UnitEEENS_9allocatorIS5_EEE20__throw_out_of_rangeB8ne180100Ev, symObjAddr: 0x66A0, symBinAddr: 0xFE10, symSize: 0x10 }
  - { offset: 0x7E9F3, size: 0x8, addend: 0x0, symName: __ZNSt3__114__split_bufferIN9Steinberg4IPtrINS1_3Vst4UnitEEERNS_9allocatorIS5_EEED1Ev, symObjAddr: 0x6610, symBinAddr: 0xFD80, symSize: 0x80 }
  - { offset: 0x7EF5B, size: 0x8, addend: 0x0, symName: __ZNKSt3__16vectorIN9Steinberg4IPtrINS1_3Vst11ProgramListEEENS_9allocatorIS5_EEE20__throw_length_errorB8ne180100Ev, symObjAddr: 0x6B30, symBinAddr: 0x102A0, symSize: 0x10 }
  - { offset: 0x7EF85, size: 0x8, addend: 0x0, symName: __ZNSt3__16__treeINS_12__value_typeINS_12basic_stringIcNS_11char_traitsIcEENS_9allocatorIcEEEENS2_IDsNS3_IDsEENS5_IDsEEEEEENS_19__map_value_compareIS7_SB_NS_4lessIS7_EELb1EEENS5_ISB_EEE7destroyEPNS_11__tree_nodeISB_PvEE, symObjAddr: 0x6B40, symBinAddr: 0x102B0, symSize: 0x60 }
  - { offset: 0x7EF90, size: 0x8, addend: 0x0, symName: __ZNSt3__114__split_bufferIN9Steinberg4IPtrINS1_3Vst11ProgramListEEERNS_9allocatorIS5_EEED1Ev, symObjAddr: 0x6AB0, symBinAddr: 0x10220, symSize: 0x80 }
  - { offset: 0x7F41B, size: 0x8, addend: 0x0, symName: __ZNSt3__112basic_stringIDsNS_11char_traitsIDsEENS_9allocatorIDsEEE25__init_copy_ctor_externalEPKDsm, symObjAddr: 0x6D60, symBinAddr: 0x104D0, symSize: 0xA0 }
  - { offset: 0x7F81C, size: 0x8, addend: 0x0, symName: __ZNKSt3__16vectorINS_12basic_stringIDsNS_11char_traitsIDsEENS_9allocatorIDsEEEENS4_IS6_EEE20__throw_length_errorB8ne180100Ev, symObjAddr: 0x6D50, symBinAddr: 0x104C0, symSize: 0x10 }
  - { offset: 0x7F846, size: 0x8, addend: 0x0, symName: __ZNSt3__112basic_stringIDsNS_11char_traitsIDsEENS_9allocatorIDsEEE25__init_copy_ctor_externalEPKDsm, symObjAddr: 0x6D60, symBinAddr: 0x104D0, symSize: 0xA0 }
  - { offset: 0x7F851, size: 0x8, addend: 0x0, symName: __ZNSt3__128__exception_guard_exceptionsINS_6vectorINS_12basic_stringIDsNS_11char_traitsIDsEENS_9allocatorIDsEEEENS5_IS7_EEE16__destroy_vectorEED1B8ne180100Ev, symObjAddr: 0x6CD0, symBinAddr: 0x10440, symSize: 0x80 }
  - { offset: 0x7FAD8, size: 0x8, addend: 0x0, symName: __ZNSt3__16vectorINS_12basic_stringIDsNS_11char_traitsIDsEENS_9allocatorIDsEEEENS4_IS6_EEE16__init_with_sizeB8ne180100IPS6_SA_EEvT_T0_m.cold.1, symObjAddr: 0x8400, symBinAddr: 0x176DD0, symSize: 0x2B }
  - { offset: 0x80046, size: 0x8, addend: 0x0, symName: __ZNSt3__114__split_bufferINS_12basic_stringIDsNS_11char_traitsIDsEENS_9allocatorIDsEEEERNS4_IS6_EEED1Ev, symObjAddr: 0x70D0, symBinAddr: 0x10830, symSize: 0x60 }
  - { offset: 0x8059F, size: 0x8, addend: 0x0, symName: __ZNKSt3__16vectorINS_3mapINS_12basic_stringIcNS_11char_traitsIcEENS_9allocatorIcEEEENS2_IDsNS3_IDsEENS5_IDsEEEENS_4lessIS7_EENS5_INS_4pairIKS7_SA_EEEEEENS5_ISH_EEE20__throw_length_errorB8ne180100Ev, symObjAddr: 0x7300, symBinAddr: 0x10A60, symSize: 0x10 }
  - { offset: 0x805C9, size: 0x8, addend: 0x0, symName: __ZNKSt3__16vectorINS_3mapINS_12basic_stringIcNS_11char_traitsIcEENS_9allocatorIcEEEENS2_IDsNS3_IDsEENS5_IDsEEEENS_4lessIS7_EENS5_INS_4pairIKS7_SA_EEEEEENS5_ISH_EEE20__throw_out_of_rangeB8ne180100Ev, symObjAddr: 0x7310, symBinAddr: 0x10A70, symSize: 0x10 }
  - { offset: 0x80B30, size: 0x8, addend: 0x0, symName: __ZNSt3__14pairIKNS_12basic_stringIcNS_11char_traitsIcEENS_9allocatorIcEEEENS1_IDsNS2_IDsEENS4_IDsEEEEEC2B8ne180100IPKcPKDsLi0EEEONS0_IT_T0_EE, symObjAddr: 0x7530, symBinAddr: 0x10C90, symSize: 0x1C0 }
  - { offset: 0x814B2, size: 0x8, addend: 0x0, symName: __ZNSt3__110unique_ptrINS_11__tree_nodeINS_12__value_typeINS_12basic_stringIcNS_11char_traitsIcEENS_9allocatorIcEEEENS3_IDsNS4_IDsEENS6_IDsEEEEEEPvEENS_22__tree_node_destructorINS6_ISE_EEEEED1B8ne180100Ev, symObjAddr: 0x74E0, symBinAddr: 0x10C40, symSize: 0x50 }
  - { offset: 0x81A61, size: 0x8, addend: 0x0, symName: __ZNSt3__112basic_stringIDsNS_11char_traitsIDsEENS_9allocatorIDsEEE17__assign_externalEPKDsm, symObjAddr: 0x7840, symBinAddr: 0x10FA0, symSize: 0xB0 }
  - { offset: 0x825E2, size: 0x8, addend: 0x0, symName: __ZNKSt3__16vectorINS_3mapIsNS_12basic_stringIDsNS_11char_traitsIDsEENS_9allocatorIDsEEEENS_4lessIsEENS5_INS_4pairIKsS7_EEEEEENS5_ISE_EEE20__throw_length_errorB8ne180100Ev, symObjAddr: 0x7C60, symBinAddr: 0x11250, symSize: 0x10 }
  - { offset: 0x8260C, size: 0x8, addend: 0x0, symName: __ZNSt3__16__treeINS_12__value_typeIsNS_12basic_stringIDsNS_11char_traitsIDsEENS_9allocatorIDsEEEEEENS_19__map_value_compareIsS8_NS_4lessIsEELb1EEENS5_IS8_EEE16__construct_nodeIJNS_4pairIsPKDsEEEEENS_10unique_ptrINS_11__tree_nodeIS8_PvEENS_22__tree_node_destructorINS5_ISN_EEEEEEDpOT_, symObjAddr: 0x7C70, symBinAddr: 0x11260, symSize: 0x150 }
  - { offset: 0x828D7, size: 0x8, addend: 0x0, symName: __ZNSt3__110unique_ptrINS_11__tree_nodeINS_12__value_typeIsNS_12basic_stringIDsNS_11char_traitsIDsEENS_9allocatorIDsEEEEEEPvEENS_22__tree_node_destructorINS6_ISB_EEEEED1B8ne180100Ev, symObjAddr: 0x7DC0, symBinAddr: 0x113B0, symSize: 0x40 }
  - { offset: 0x84B69, size: 0x8, addend: 0x0, symName: __ZN6VSTGUI9Animation19AlphaValueAnimationC2Efb, symObjAddr: 0x0, symBinAddr: 0x3C5F0, symSize: 0x60 }
  - { offset: 0x89CC8, size: 0x8, addend: 0x0, symName: __ZN6VSTGUI9Animation19AlphaValueAnimationC2Efb, symObjAddr: 0x0, symBinAddr: 0x3C5F0, symSize: 0x60 }
  - { offset: 0x89D60, size: 0x8, addend: 0x0, symName: __ZN6VSTGUI9Animation19AlphaValueAnimationC1Efb, symObjAddr: 0x60, symBinAddr: 0x3C650, symSize: 0x30 }
  - { offset: 0x89DC6, size: 0x8, addend: 0x0, symName: __ZN6VSTGUI9Animation19AlphaValueAnimation14animationStartEPNS_5CViewEPKc, symObjAddr: 0x90, symBinAddr: 0x3C680, symSize: 0x20 }
  - { offset: 0x89E0A, size: 0x8, addend: 0x0, symName: __ZN6VSTGUI9Animation19AlphaValueAnimation13animationTickEPNS_5CViewEPKcf, symObjAddr: 0xB0, symBinAddr: 0x3C6A0, symSize: 0x30 }
  - { offset: 0x89E80, size: 0x8, addend: 0x0, symName: __ZN6VSTGUI9Animation19AlphaValueAnimation17animationFinishedEPNS_5CViewEPKcb, symObjAddr: 0xE0, symBinAddr: 0x3C6D0, symSize: 0x30 }
  - { offset: 0x89F21, size: 0x8, addend: 0x0, symName: __ZN6VSTGUI9Animation17ViewSizeAnimationC2ERKNS_5CRectEb, symObjAddr: 0x110, symBinAddr: 0x3C700, symSize: 0x70 }
  - { offset: 0x89FF9, size: 0x8, addend: 0x0, symName: __ZN6VSTGUI9Animation17ViewSizeAnimationC1ERKNS_5CRectEb, symObjAddr: 0x180, symBinAddr: 0x3C770, symSize: 0x40 }
  - { offset: 0x8A09D, size: 0x8, addend: 0x0, symName: __ZN6VSTGUI9Animation17ViewSizeAnimation14animationStartEPNS_5CViewEPKc, symObjAddr: 0x1C0, symBinAddr: 0x3C7B0, symSize: 0x30 }
  - { offset: 0x8A108, size: 0x8, addend: 0x0, symName: __ZN6VSTGUI9Animation17ViewSizeAnimation17animationFinishedEPNS_5CViewEPKcb, symObjAddr: 0x1F0, symBinAddr: 0x3C7E0, symSize: 0xA0 }
  - { offset: 0x8A1CF, size: 0x8, addend: 0x0, symName: __ZN6VSTGUI9Animation17ViewSizeAnimation13animationTickEPNS_5CViewEPKcf, symObjAddr: 0x290, symBinAddr: 0x3C880, symSize: 0xE0 }
  - { offset: 0x8A38A, size: 0x8, addend: 0x0, symName: __ZN6VSTGUI9Animation21ExchangeViewAnimationC2EPNS_5CViewES3_NS1_14AnimationStyleE, symObjAddr: 0x370, symBinAddr: 0x3C960, symSize: 0x170 }
  - { offset: 0x8A68C, size: 0x8, addend: 0x0, symName: __ZN6VSTGUI9Animation21ExchangeViewAnimation4initEv, symObjAddr: 0x4E0, symBinAddr: 0x3CAD0, symSize: 0x2B0 }
  - { offset: 0x8AD9F, size: 0x8, addend: 0x0, symName: __ZN6VSTGUI9Animation21ExchangeViewAnimationC1EPNS_5CViewES3_NS1_14AnimationStyleE, symObjAddr: 0x790, symBinAddr: 0x3CD80, symSize: 0x150 }
  - { offset: 0x8B06D, size: 0x8, addend: 0x0, symName: __ZN6VSTGUI9Animation21ExchangeViewAnimationD2Ev, symObjAddr: 0x8E0, symBinAddr: 0x3CED0, symSize: 0x60 }
  - { offset: 0x8B132, size: 0x8, addend: 0x0, symName: __ZN6VSTGUI9Animation21ExchangeViewAnimationD1Ev, symObjAddr: 0x940, symBinAddr: 0x3CF30, symSize: 0x60 }
  - { offset: 0x8B1FB, size: 0x8, addend: 0x0, symName: __ZThn8_N6VSTGUI9Animation21ExchangeViewAnimationD1Ev, symObjAddr: 0x9A0, symBinAddr: 0x3CF90, symSize: 0x60 }
  - { offset: 0x8B2B3, size: 0x8, addend: 0x0, symName: __ZN6VSTGUI9Animation21ExchangeViewAnimationD0Ev, symObjAddr: 0xA00, symBinAddr: 0x3CFF0, symSize: 0x60 }
  - { offset: 0x8B393, size: 0x8, addend: 0x0, symName: __ZThn8_N6VSTGUI9Animation21ExchangeViewAnimationD0Ev, symObjAddr: 0xA60, symBinAddr: 0x3D050, symSize: 0x60 }
  - { offset: 0x8B450, size: 0x8, addend: 0x0, symName: __ZN6VSTGUI9Animation21ExchangeViewAnimation14updateViewSizeEPNS_5CViewERKNS_5CRectE, symObjAddr: 0xAC0, symBinAddr: 0x3D0B0, symSize: 0x50 }
  - { offset: 0x8B51F, size: 0x8, addend: 0x0, symName: __ZN6VSTGUI9Animation21ExchangeViewAnimation16doPushInFromLeftEf, symObjAddr: 0xB10, symBinAddr: 0x3D100, symSize: 0xB0 }
  - { offset: 0x8B66D, size: 0x8, addend: 0x0, symName: __ZN6VSTGUI9Animation21ExchangeViewAnimation17doPushInFromRightEf, symObjAddr: 0xBC0, symBinAddr: 0x3D1B0, symSize: 0xA0 }
  - { offset: 0x8B7E2, size: 0x8, addend: 0x0, symName: __ZN6VSTGUI9Animation21ExchangeViewAnimation15doPushInFromTopEf, symObjAddr: 0xC60, symBinAddr: 0x3D250, symSize: 0xB0 }
  - { offset: 0x8B930, size: 0x8, addend: 0x0, symName: __ZN6VSTGUI9Animation21ExchangeViewAnimation18doPushInFromBottomEf, symObjAddr: 0xD10, symBinAddr: 0x3D300, symSize: 0xA0 }
  - { offset: 0x8BABB, size: 0x8, addend: 0x0, symName: __ZN6VSTGUI9Animation21ExchangeViewAnimation19doPushInOutFromLeftEf, symObjAddr: 0xDB0, symBinAddr: 0x3D3A0, symSize: 0x130 }
  - { offset: 0x8BD39, size: 0x8, addend: 0x0, symName: __ZN6VSTGUI9Animation21ExchangeViewAnimation20doPushInOutFromRightEf, symObjAddr: 0xEE0, symBinAddr: 0x3D4D0, symSize: 0x130 }
  - { offset: 0x8BFD6, size: 0x8, addend: 0x0, symName: __ZN6VSTGUI9Animation21ExchangeViewAnimation11doAlphaFadeEf, symObjAddr: 0x1010, symBinAddr: 0x3D600, symSize: 0x50 }
  - { offset: 0x8C060, size: 0x8, addend: 0x0, symName: __ZN6VSTGUI9Animation21ExchangeViewAnimation14animationStartEPNS_5CViewEPKc, symObjAddr: 0x1060, symBinAddr: 0x3D650, symSize: 0x10 }
  - { offset: 0x8C0CC, size: 0x8, addend: 0x0, symName: __ZN6VSTGUI9Animation21ExchangeViewAnimation13animationTickEPNS_5CViewEPKcf, symObjAddr: 0x1070, symBinAddr: 0x3D660, symSize: 0x3D0 }
  - { offset: 0x8C8B5, size: 0x8, addend: 0x0, symName: __ZN6VSTGUI9Animation21ExchangeViewAnimation17animationFinishedEPNS_5CViewEPKcb, symObjAddr: 0x1440, symBinAddr: 0x3DA30, symSize: 0x60 }
  - { offset: 0x8C98F, size: 0x8, addend: 0x0, symName: __ZN6VSTGUI9Animation21ControlValueAnimationC1Efb, symObjAddr: 0x1500, symBinAddr: 0x3DA90, symSize: 0x30 }
  - { offset: 0x8C9F8, size: 0x8, addend: 0x0, symName: __ZN6VSTGUI9Animation21ControlValueAnimation14animationStartEPNS_5CViewEPKc, symObjAddr: 0x1530, symBinAddr: 0x3DAC0, symSize: 0x50 }
  - { offset: 0x8CA5B, size: 0x8, addend: 0x0, symName: __ZN6VSTGUI9Animation21ControlValueAnimation13animationTickEPNS_5CViewEPKcf, symObjAddr: 0x1580, symBinAddr: 0x3DB10, symSize: 0x90 }
  - { offset: 0x8CB16, size: 0x8, addend: 0x0, symName: __ZN6VSTGUI9Animation21ControlValueAnimation17animationFinishedEPNS_5CViewEPKcb, symObjAddr: 0x1610, symBinAddr: 0x3DBA0, symSize: 0x60 }
  - { offset: 0x8CB8B, size: 0x8, addend: 0x0, symName: __ZN6VSTGUI9Animation19AlphaValueAnimationD1Ev, symObjAddr: 0x16F0, symBinAddr: 0x3DC00, symSize: 0x10 }
  - { offset: 0x8CBB6, size: 0x8, addend: 0x0, symName: __ZN6VSTGUI9Animation19AlphaValueAnimationD0Ev, symObjAddr: 0x1700, symBinAddr: 0x3DC10, symSize: 0x10 }
  - { offset: 0x8CBD6, size: 0x8, addend: 0x0, symName: __ZThn8_N6VSTGUI9Animation19AlphaValueAnimationD1Ev, symObjAddr: 0x1710, symBinAddr: 0x3DC20, symSize: 0x10 }
  - { offset: 0x8CC0D, size: 0x8, addend: 0x0, symName: __ZThn8_N6VSTGUI9Animation19AlphaValueAnimationD0Ev, symObjAddr: 0x1720, symBinAddr: 0x3DC30, symSize: 0x10 }
  - { offset: 0x8CC40, size: 0x8, addend: 0x0, symName: __ZN6VSTGUI9Animation17ViewSizeAnimationD1Ev, symObjAddr: 0x1730, symBinAddr: 0x3DC40, symSize: 0x10 }
  - { offset: 0x8CC6B, size: 0x8, addend: 0x0, symName: __ZN6VSTGUI9Animation17ViewSizeAnimationD0Ev, symObjAddr: 0x1740, symBinAddr: 0x3DC50, symSize: 0x10 }
  - { offset: 0x8CC8B, size: 0x8, addend: 0x0, symName: __ZThn8_N6VSTGUI9Animation17ViewSizeAnimationD1Ev, symObjAddr: 0x1750, symBinAddr: 0x3DC60, symSize: 0x10 }
  - { offset: 0x8CCC2, size: 0x8, addend: 0x0, symName: __ZThn8_N6VSTGUI9Animation17ViewSizeAnimationD0Ev, symObjAddr: 0x1760, symBinAddr: 0x3DC70, symSize: 0x10 }
  - { offset: 0x8CCF5, size: 0x8, addend: 0x0, symName: __ZN6VSTGUI9Animation21ControlValueAnimationD1Ev, symObjAddr: 0x1770, symBinAddr: 0x3DC80, symSize: 0x10 }
  - { offset: 0x8CD20, size: 0x8, addend: 0x0, symName: __ZN6VSTGUI9Animation21ControlValueAnimationD0Ev, symObjAddr: 0x1780, symBinAddr: 0x3DC90, symSize: 0x10 }
  - { offset: 0x8CD40, size: 0x8, addend: 0x0, symName: __ZThn8_N6VSTGUI9Animation21ControlValueAnimationD1Ev, symObjAddr: 0x1790, symBinAddr: 0x3DCA0, symSize: 0x10 }
  - { offset: 0x8CD77, size: 0x8, addend: 0x0, symName: __ZThn8_N6VSTGUI9Animation21ControlValueAnimationD0Ev, symObjAddr: 0x17A0, symBinAddr: 0x3DCB0, symSize: 0x10 }
  - { offset: 0x8CDAA, size: 0x8, addend: 0x0, symName: __ZN6VSTGUI9Animation16IAnimationTargetD1Ev, symObjAddr: 0x17B0, symBinAddr: 0x176F10, symSize: 0x10 }
  - { offset: 0x8CDD3, size: 0x8, addend: 0x0, symName: __ZN6VSTGUI9Animation16IAnimationTargetD0Ev, symObjAddr: 0x17C0, symBinAddr: 0x176F20, symSize: 0x10 }
  - { offset: 0x8ECFE, size: 0x8, addend: 0x0, symName: __ZN6VSTGUI9Animation6Detail5Timer9gInstanceE, symObjAddr: 0x85D18, symBinAddr: 0x1F4E50, symSize: 0x0 }
  - { offset: 0x8EFD2, size: 0x8, addend: 0x0, symName: __ZN6VSTGUI9Animation21kMsgAnimationFinishedE, symObjAddr: 0x3540, symBinAddr: 0x1CE2A0, symSize: 0x0 }
  - { offset: 0x901C3, size: 0x8, addend: 0x0, symName: __ZN6VSTGUI9makeOwnedINS_9Animation6Detail9AnimationEJRPNS_5CViewERPKcRPNS1_16IAnimationTargetERPNS1_15ITimingFunctionENSt3__18functionIFvS5_S8_SB_EEERbEEENS_13SharedPointerIT_EEDpOT0_, symObjAddr: 0xA40, symBinAddr: 0x3E6F0, symSize: 0x200 }
  - { offset: 0x9DBDA, size: 0x8, addend: 0x0, symName: __ZN6VSTGUI9Animation6Detail5TimerC1Ev, symObjAddr: 0x15E0, symBinAddr: 0x3F020, symSize: 0x140 }
  - { offset: 0x9E38C, size: 0x8, addend: 0x0, symName: __ZN6VSTGUI9Animation8Animator12addAnimationEPNS_5CViewEPKcPNS0_16IAnimationTargetEPNS0_15ITimingFunctionEPNS_11CBaseObjectE, symObjAddr: 0xC40, symBinAddr: 0x3E8F0, symSize: 0x240 }
  - { offset: 0x9EF14, size: 0x8, addend: 0x0, symName: __ZN6VSTGUI9Animation6Detail9AnimationC2EPNS_5CViewERKNSt3__112basic_stringIcNS5_11char_traitsIcEENS5_9allocatorIcEEEEPNS0_16IAnimationTargetEPNS0_15ITimingFunctionEONS5_8functionIFvS4_PKcSF_EEEb, symObjAddr: 0x0, symBinAddr: 0x3DCC0, symSize: 0x110 }
  - { offset: 0x9F3AF, size: 0x8, addend: 0x0, symName: __ZN6VSTGUI9Animation6Detail9AnimationC1EPNS_5CViewERKNSt3__112basic_stringIcNS5_11char_traitsIcEENS5_9allocatorIcEEEEPNS0_16IAnimationTargetEPNS0_15ITimingFunctionEONS5_8functionIFvS4_PKcSF_EEEb, symObjAddr: 0x110, symBinAddr: 0x3DDD0, symSize: 0x100 }
  - { offset: 0x9F82B, size: 0x8, addend: 0x0, symName: __ZN6VSTGUI9Animation6Detail9AnimationD2Ev, symObjAddr: 0x210, symBinAddr: 0x3DED0, symSize: 0x160 }
  - { offset: 0x9FBFB, size: 0x8, addend: 0x0, symName: __ZN6VSTGUI9Animation6Detail9AnimationD1Ev, symObjAddr: 0x380, symBinAddr: 0x3E030, symSize: 0x20 }
  - { offset: 0x9FC4C, size: 0x8, addend: 0x0, symName: __ZN6VSTGUI9Animation6Detail9AnimationD0Ev, symObjAddr: 0x3A0, symBinAddr: 0x3E050, symSize: 0x30 }
  - { offset: 0x9FED9, size: 0x8, addend: 0x0, symName: __ZN6VSTGUI9Animation8AnimatorC2Ev, symObjAddr: 0x3D0, symBinAddr: 0x3E080, symSize: 0x80 }
  - { offset: 0xA0110, size: 0x8, addend: 0x0, symName: __ZN6VSTGUI9Animation8AnimatorC1Ev, symObjAddr: 0x450, symBinAddr: 0x3E100, symSize: 0x60 }
  - { offset: 0xA05C5, size: 0x8, addend: 0x0, symName: __ZN6VSTGUI9Animation8AnimatorD2Ev, symObjAddr: 0x4B0, symBinAddr: 0x3E160, symSize: 0xC0 }
  - { offset: 0xA0BAE, size: 0x8, addend: 0x0, symName: __ZNKSt3__114default_deleteIN6VSTGUI9Animation8Animator4ImplEEclB8ne180100EPS4_, symObjAddr: 0x1C90, symBinAddr: 0x3F570, symSize: 0xD0 }
  - { offset: 0xA0F4E, size: 0x8, addend: 0x0, symName: __ZN6VSTGUI9Animation8AnimatorD1Ev, symObjAddr: 0x570, symBinAddr: 0x3E220, symSize: 0x20 }
  - { offset: 0xA0FA1, size: 0x8, addend: 0x0, symName: __ZN6VSTGUI9Animation8AnimatorD0Ev, symObjAddr: 0x590, symBinAddr: 0x3E240, symSize: 0x30 }
  - { offset: 0xA10A5, size: 0x8, addend: 0x0, symName: __ZN6VSTGUI9Animation8Animator12addAnimationEPNS_5CViewEPKcPNS0_16IAnimationTargetEPNS0_15ITimingFunctionENSt3__18functionIFvS3_S5_S7_EEEb, symObjAddr: 0x5C0, symBinAddr: 0x3E270, symSize: 0x140 }
  - { offset: 0xA1462, size: 0x8, addend: 0x0, symName: __ZN6VSTGUI9Animation8Animator15removeAnimationEPNS_5CViewEPKc, symObjAddr: 0x700, symBinAddr: 0x3E3B0, symSize: 0x270 }
  - { offset: 0xA1BEB, size: 0x8, addend: 0x0, symName: __ZN6VSTGUI12DispatchListINS_13SharedPointerINS_9Animation6Detail9AnimationEEEE3addEOS5_, symObjAddr: 0x970, symBinAddr: 0x3E620, symSize: 0xD0 }
  - { offset: 0xA257A, size: 0x8, addend: 0x0, symName: __ZN6VSTGUI12DispatchListINS_13SharedPointerINS_9Animation6Detail9AnimationEEEE11postForEachEv, symObjAddr: 0x2550, symBinAddr: 0x3FE20, symSize: 0x2F0 }
  - { offset: 0xA30C0, size: 0x8, addend: 0x0, symName: __ZNKSt3__112basic_stringIcNS_11char_traitsIcEENS_9allocatorIcEEE20__throw_out_of_rangeB8ne180100Ev, symObjAddr: 0x2840, symBinAddr: 0x40110, symSize: 0x10 }
  - { offset: 0xA3458, size: 0x8, addend: 0x0, symName: __ZNSt3__16vectorIN6VSTGUI13SharedPointerINS1_9Animation6Detail9AnimationEEENS_9allocatorIS6_EEE24__emplace_back_slow_pathIJS6_EEEPS6_DpOT_, symObjAddr: 0x1DE0, symBinAddr: 0x3F6C0, symSize: 0x200 }
  - { offset: 0xA3990, size: 0x8, addend: 0x0, symName: __ZNSt3__16vectorINS_4pairIbN6VSTGUI13SharedPointerINS2_9Animation6Detail9AnimationEEEEENS_9allocatorIS8_EEE24__emplace_back_slow_pathIJS8_EEEPS8_DpOT_, symObjAddr: 0x1FF0, symBinAddr: 0x3F8D0, symSize: 0x150 }
  - { offset: 0xA48B2, size: 0x8, addend: 0x0, symName: __ZNSt3__110__function12__value_funcIFvPN6VSTGUI5CViewEPKcPNS2_9Animation16IAnimationTargetEEE4swapB8ne180100ERSB_, symObjAddr: 0x2410, symBinAddr: 0x3FCE0, symSize: 0x140 }
  - { offset: 0xA49E6, size: 0x8, addend: 0x0, symName: __ZN6VSTGUI9Animation8Animator12addAnimationEPNS_5CViewEPKcPNS0_16IAnimationTargetEPNS0_15ITimingFunctionEPNS_11CBaseObjectE.cold.1, symObjAddr: 0x28D0, symBinAddr: 0x176F30, symSize: 0x27 }
  - { offset: 0xA4A57, size: 0x8, addend: 0x0, symName: __ZN6VSTGUI9Animation8Animator16removeAnimationsEPNS_5CViewE, symObjAddr: 0xE80, symBinAddr: 0x3EB30, symSize: 0x1C0 }
  - { offset: 0xA5159, size: 0x8, addend: 0x0, symName: __ZN6VSTGUI9Animation8Animator7onTimerEv, symObjAddr: 0x1040, symBinAddr: 0x3ECF0, symSize: 0x330 }
  - { offset: 0xA659F, size: 0x8, addend: 0x0, symName: __ZNSt3__14listIPN6VSTGUI9Animation8AnimatorENS_9allocatorIS4_EEED1Ev, symObjAddr: 0x1720, symBinAddr: 0x3F160, symSize: 0x60 }
  - { offset: 0xA679E, size: 0x8, addend: 0x0, symName: __ZN6VSTGUI9Animation6Detail5TimerD1Ev, symObjAddr: 0x1780, symBinAddr: 0x3F1C0, symSize: 0x20 }
  - { offset: 0xA67D4, size: 0x8, addend: 0x0, symName: __ZN6VSTGUI9Animation6Detail5TimerD2Ev, symObjAddr: 0x1A70, symBinAddr: 0x3F470, symSize: 0x100 }
  - { offset: 0xA6C1A, size: 0x8, addend: 0x0, symName: __ZN6VSTGUI9Animation6Detail5TimerD0Ev, symObjAddr: 0x17A0, symBinAddr: 0x3F1E0, symSize: 0x30 }
  - { offset: 0xA6C77, size: 0x8, addend: 0x0, symName: __ZNSt3__110__function6__funcIZN6VSTGUI9Animation6Detail5TimerC1EvEUlPNS2_12CVSTGUITimerEE_NS_9allocatorIS8_EEFvS7_EED1Ev, symObjAddr: 0x17D0, symBinAddr: 0x3F210, symSize: 0x10 }
  - { offset: 0xA6CA2, size: 0x8, addend: 0x0, symName: __ZNSt3__110__function6__funcIZN6VSTGUI9Animation6Detail5TimerC1EvEUlPNS2_12CVSTGUITimerEE_NS_9allocatorIS8_EEFvS7_EED0Ev, symObjAddr: 0x17E0, symBinAddr: 0x3F220, symSize: 0x10 }
  - { offset: 0xA6EB0, size: 0x8, addend: 0x0, symName: __ZNKSt3__110__function6__funcIZN6VSTGUI9Animation6Detail5TimerC1EvEUlPNS2_12CVSTGUITimerEE_NS_9allocatorIS8_EEFvS7_EE7__cloneEv, symObjAddr: 0x17F0, symBinAddr: 0x3F230, symSize: 0x30 }
  - { offset: 0xA71DE, size: 0x8, addend: 0x0, symName: __ZNKSt3__110__function6__funcIZN6VSTGUI9Animation6Detail5TimerC1EvEUlPNS2_12CVSTGUITimerEE_NS_9allocatorIS8_EEFvS7_EE7__cloneEPNS0_6__baseISB_EE, symObjAddr: 0x1820, symBinAddr: 0x3F260, symSize: 0x20 }
  - { offset: 0xA735E, size: 0x8, addend: 0x0, symName: __ZNSt3__110__function6__funcIZN6VSTGUI9Animation6Detail5TimerC1EvEUlPNS2_12CVSTGUITimerEE_NS_9allocatorIS8_EEFvS7_EE7destroyEv, symObjAddr: 0x1840, symBinAddr: 0x3F280, symSize: 0x10 }
  - { offset: 0xA73B1, size: 0x8, addend: 0x0, symName: __ZNSt3__110__function6__funcIZN6VSTGUI9Animation6Detail5TimerC1EvEUlPNS2_12CVSTGUITimerEE_NS_9allocatorIS8_EEFvS7_EE18destroy_deallocateEv, symObjAddr: 0x1850, symBinAddr: 0x3F290, symSize: 0x10 }
  - { offset: 0xA74FF, size: 0x8, addend: 0x0, symName: __ZNSt3__110__function6__funcIZN6VSTGUI9Animation6Detail5TimerC1EvEUlPNS2_12CVSTGUITimerEE_NS_9allocatorIS8_EEFvS7_EEclEOS7_, symObjAddr: 0x1860, symBinAddr: 0x3F2A0, symSize: 0x10 }
  - { offset: 0xA759D, size: 0x8, addend: 0x0, symName: __ZN6VSTGUI9Animation6Detail5Timer7onTimerEv, symObjAddr: 0x18E0, symBinAddr: 0x3F2E0, symSize: 0x190 }
  - { offset: 0xA7BCA, size: 0x8, addend: 0x0, symName: __ZNKSt3__110__function6__funcIZN6VSTGUI9Animation6Detail5TimerC1EvEUlPNS2_12CVSTGUITimerEE_NS_9allocatorIS8_EEFvS7_EE6targetERKSt9type_info, symObjAddr: 0x1870, symBinAddr: 0x3F2B0, symSize: 0x20 }
  - { offset: 0xA7C3C, size: 0x8, addend: 0x0, symName: __ZNKSt3__110__function6__funcIZN6VSTGUI9Animation6Detail5TimerC1EvEUlPNS2_12CVSTGUITimerEE_NS_9allocatorIS8_EEFvS7_EE11target_typeEv, symObjAddr: 0x1890, symBinAddr: 0x3F2D0, symSize: 0x10 }
  - { offset: 0xA801D, size: 0x8, addend: 0x0, symName: __ZNSt3__16vectorIN6VSTGUI13SharedPointerINS1_9Animation6Detail9AnimationEEENS_9allocatorIS6_EEED1B8ne180100Ev, symObjAddr: 0x1D60, symBinAddr: 0x3F640, symSize: 0x80 }
  - { offset: 0xA83CA, size: 0x8, addend: 0x0, symName: __ZNKSt3__16vectorIN6VSTGUI13SharedPointerINS1_9Animation6Detail9AnimationEEENS_9allocatorIS6_EEE20__throw_length_errorB8ne180100Ev, symObjAddr: 0x1FE0, symBinAddr: 0x3F8C0, symSize: 0x10 }
  - { offset: 0xA83F4, size: 0x8, addend: 0x0, symName: __ZNSt3__16vectorINS_4pairIbN6VSTGUI13SharedPointerINS2_9Animation6Detail9AnimationEEEEENS_9allocatorIS8_EEE24__emplace_back_slow_pathIJS8_EEEPS8_DpOT_, symObjAddr: 0x1FF0, symBinAddr: 0x3F8D0, symSize: 0x150 }
  - { offset: 0xA8617, size: 0x8, addend: 0x0, symName: __ZNKSt3__16vectorINS_4pairIbN6VSTGUI13SharedPointerINS2_9Animation6Detail9AnimationEEEEENS_9allocatorIS8_EEE20__throw_length_errorB8ne180100Ev, symObjAddr: 0x2140, symBinAddr: 0x3FA20, symSize: 0x10 }
  - { offset: 0xA8641, size: 0x8, addend: 0x0, symName: '__ZNSt3__110__function6__funcIZN6VSTGUI9Animation8Animator12addAnimationEPNS2_5CViewEPKcPNS3_16IAnimationTargetEPNS3_15ITimingFunctionEPNS2_11CBaseObjectEE3$_0NS_9allocatorISF_EEFvS6_S8_SA_EED1Ev', symObjAddr: 0x2150, symBinAddr: 0x3FA30, symSize: 0x30 }
  - { offset: 0xA872E, size: 0x8, addend: 0x0, symName: '__ZNSt3__110__function6__funcIZN6VSTGUI9Animation8Animator12addAnimationEPNS2_5CViewEPKcPNS3_16IAnimationTargetEPNS3_15ITimingFunctionEPNS2_11CBaseObjectEE3$_0NS_9allocatorISF_EEFvS6_S8_SA_EED1Ev', symObjAddr: 0x2150, symBinAddr: 0x3FA30, symSize: 0x30 }
  - { offset: 0xA880E, size: 0x8, addend: 0x0, symName: '__ZNSt3__110__function6__funcIZN6VSTGUI9Animation8Animator12addAnimationEPNS2_5CViewEPKcPNS3_16IAnimationTargetEPNS3_15ITimingFunctionEPNS2_11CBaseObjectEE3$_0NS_9allocatorISF_EEFvS6_S8_SA_EED0Ev', symObjAddr: 0x2180, symBinAddr: 0x3FA60, symSize: 0x40 }
  - { offset: 0xA8B1B, size: 0x8, addend: 0x0, symName: '__ZNKSt3__110__function6__funcIZN6VSTGUI9Animation8Animator12addAnimationEPNS2_5CViewEPKcPNS3_16IAnimationTargetEPNS3_15ITimingFunctionEPNS2_11CBaseObjectEE3$_0NS_9allocatorISF_EEFvS6_S8_SA_EE7__cloneEv', symObjAddr: 0x21C0, symBinAddr: 0x3FAA0, symSize: 0x50 }
  - { offset: 0xA8E43, size: 0x8, addend: 0x0, symName: '__ZNKSt3__110__function6__funcIZN6VSTGUI9Animation8Animator12addAnimationEPNS2_5CViewEPKcPNS3_16IAnimationTargetEPNS3_15ITimingFunctionEPNS2_11CBaseObjectEE3$_0NS_9allocatorISF_EEFvS6_S8_SA_EE7__cloneEPNS0_6__baseISI_EE', symObjAddr: 0x2210, symBinAddr: 0x3FAF0, symSize: 0x30 }
  - { offset: 0xA8FA1, size: 0x8, addend: 0x0, symName: '__ZNSt3__110__function6__funcIZN6VSTGUI9Animation8Animator12addAnimationEPNS2_5CViewEPKcPNS3_16IAnimationTargetEPNS3_15ITimingFunctionEPNS2_11CBaseObjectEE3$_0NS_9allocatorISF_EEFvS6_S8_SA_EE7destroyEv', symObjAddr: 0x2240, symBinAddr: 0x3FB20, symSize: 0x20 }
  - { offset: 0xA9074, size: 0x8, addend: 0x0, symName: '__ZNSt3__110__function6__funcIZN6VSTGUI9Animation8Animator12addAnimationEPNS2_5CViewEPKcPNS3_16IAnimationTargetEPNS3_15ITimingFunctionEPNS2_11CBaseObjectEE3$_0NS_9allocatorISF_EEFvS6_S8_SA_EE18destroy_deallocateEv', symObjAddr: 0x2260, symBinAddr: 0x3FB40, symSize: 0x30 }
  - { offset: 0xA933F, size: 0x8, addend: 0x0, symName: '__ZNSt3__110__function6__funcIZN6VSTGUI9Animation8Animator12addAnimationEPNS2_5CViewEPKcPNS3_16IAnimationTargetEPNS3_15ITimingFunctionEPNS2_11CBaseObjectEE3$_0NS_9allocatorISF_EEFvS6_S8_SA_EEclEOS6_OS8_OSA_', symObjAddr: 0x2290, symBinAddr: 0x3FB70, symSize: 0x110 }
  - { offset: 0xA9A39, size: 0x8, addend: 0x0, symName: '__ZNKSt3__110__function6__funcIZN6VSTGUI9Animation8Animator12addAnimationEPNS2_5CViewEPKcPNS3_16IAnimationTargetEPNS3_15ITimingFunctionEPNS2_11CBaseObjectEE3$_0NS_9allocatorISF_EEFvS6_S8_SA_EE6targetERKSt9type_info', symObjAddr: 0x23A0, symBinAddr: 0x3FC80, symSize: 0x20 }
  - { offset: 0xA9AAB, size: 0x8, addend: 0x0, symName: '__ZNKSt3__110__function6__funcIZN6VSTGUI9Animation8Animator12addAnimationEPNS2_5CViewEPKcPNS3_16IAnimationTargetEPNS3_15ITimingFunctionEPNS2_11CBaseObjectEE3$_0NS_9allocatorISF_EEFvS6_S8_SA_EE11target_typeEv', symObjAddr: 0x23C0, symBinAddr: 0x3FCA0, symSize: 0x10 }
  - { offset: 0xA9AD0, size: 0x8, addend: 0x0, symName: __ZN6VSTGUI9Animation15FinishedMessageD1Ev, symObjAddr: 0x23D0, symBinAddr: 0x3FCB0, symSize: 0x10 }
  - { offset: 0xA9AFB, size: 0x8, addend: 0x0, symName: __ZN6VSTGUI9Animation15FinishedMessageD0Ev, symObjAddr: 0x23F0, symBinAddr: 0x3FCC0, symSize: 0x10 }
  - { offset: 0xA9B26, size: 0x8, addend: 0x0, symName: __ZNK6VSTGUI9Animation15FinishedMessage7newCopyEv, symObjAddr: 0x2400, symBinAddr: 0x3FCD0, symSize: 0x10 }
  - { offset: 0xB0222, size: 0x8, addend: 0x0, symName: __ZN6VSTGUI9Animation20LinearTimingFunctionC2Ej, symObjAddr: 0x0, symBinAddr: 0x40120, symSize: 0x20 }
  - { offset: 0xB0299, size: 0x8, addend: 0x0, symName: __ZN6VSTGUI9Animation20LinearTimingFunction11getPositionEj, symObjAddr: 0x40, symBinAddr: 0x40140, symSize: 0x30 }
  - { offset: 0xB02F4, size: 0x8, addend: 0x0, symName: __ZN6VSTGUI9Animation19PowerTimingFunctionC2Ejf, symObjAddr: 0x70, symBinAddr: 0x40170, symSize: 0x20 }
  - { offset: 0xB037D, size: 0x8, addend: 0x0, symName: __ZN6VSTGUI9Animation19PowerTimingFunction11getPositionEj, symObjAddr: 0xB0, symBinAddr: 0x40190, symSize: 0x50 }
  - { offset: 0xB0A1F, size: 0x8, addend: 0x0, symName: __ZN6VSTGUI9Animation27InterpolationTimingFunctionC2Ejff, symObjAddr: 0x100, symBinAddr: 0x401E0, symSize: 0x150 }
  - { offset: 0xB1225, size: 0x8, addend: 0x0, symName: __ZN6VSTGUI9Animation27InterpolationTimingFunction8addPointEff, symObjAddr: 0x250, symBinAddr: 0x40330, symSize: 0xC0 }
  - { offset: 0xB152F, size: 0x8, addend: 0x0, symName: __ZN6VSTGUI9Animation27InterpolationTimingFunctionC1Ejff, symObjAddr: 0x310, symBinAddr: 0x403F0, symSize: 0x10 }
  - { offset: 0xB19B8, size: 0x8, addend: 0x0, symName: __ZN6VSTGUI9Animation27InterpolationTimingFunction11getPositionEj, symObjAddr: 0x320, symBinAddr: 0x40400, symSize: 0x1F0 }
  - { offset: 0xB1FCC, size: 0x8, addend: 0x0, symName: __ZN6VSTGUI9Animation25CubicBezierTimingFunctionC2EjNS_6CPointES2_, symObjAddr: 0x510, symBinAddr: 0x405F0, symSize: 0x30 }
  - { offset: 0xB20B2, size: 0x8, addend: 0x0, symName: __ZN6VSTGUI9Animation25CubicBezierTimingFunction4lerpENS_6CPointES2_f, symObjAddr: 0x570, symBinAddr: 0x40620, symSize: 0x40 }
  - { offset: 0xB2144, size: 0x8, addend: 0x0, symName: __ZN6VSTGUI9Animation25CubicBezierTimingFunction11getPositionEj, symObjAddr: 0x5B0, symBinAddr: 0x40660, symSize: 0x80 }
  - { offset: 0xB2306, size: 0x8, addend: 0x0, symName: __ZN6VSTGUI9Animation25CubicBezierTimingFunction4easyEj, symObjAddr: 0x630, symBinAddr: 0x406E0, symSize: 0x30 }
  - { offset: 0xB23BB, size: 0x8, addend: 0x0, symName: __ZN6VSTGUI9Animation25CubicBezierTimingFunction6easyInEj, symObjAddr: 0x660, symBinAddr: 0x40710, symSize: 0x30 }
  - { offset: 0xB2470, size: 0x8, addend: 0x0, symName: __ZN6VSTGUI9Animation25CubicBezierTimingFunction7easyOutEj, symObjAddr: 0x690, symBinAddr: 0x40740, symSize: 0x30 }
  - { offset: 0xB2525, size: 0x8, addend: 0x0, symName: __ZN6VSTGUI9Animation25CubicBezierTimingFunction9easyInOutEj, symObjAddr: 0x6C0, symBinAddr: 0x40770, symSize: 0x30 }
  - { offset: 0xB25DF, size: 0x8, addend: 0x0, symName: __ZN6VSTGUI9Animation20RepeatTimingFunctionC2EPNS0_18TimingFunctionBaseEib, symObjAddr: 0x6F0, symBinAddr: 0x407A0, symSize: 0x30 }
  - { offset: 0xB2656, size: 0x8, addend: 0x0, symName: __ZN6VSTGUI9Animation20RepeatTimingFunctionD2Ev, symObjAddr: 0x750, symBinAddr: 0x407D0, symSize: 0x70 }
  - { offset: 0xB26C8, size: 0x8, addend: 0x0, symName: __ZN6VSTGUI9Animation20RepeatTimingFunctionD1Ev, symObjAddr: 0x7D0, symBinAddr: 0x40840, symSize: 0x70 }
  - { offset: 0xB2744, size: 0x8, addend: 0x0, symName: __ZN6VSTGUI9Animation20RepeatTimingFunctionD0Ev, symObjAddr: 0x840, symBinAddr: 0x408B0, symSize: 0x70 }
  - { offset: 0xB27CD, size: 0x8, addend: 0x0, symName: __ZN6VSTGUI9Animation20RepeatTimingFunction11getPositionEj, symObjAddr: 0x8B0, symBinAddr: 0x40920, symSize: 0x40 }
  - { offset: 0xB2821, size: 0x8, addend: 0x0, symName: __ZN6VSTGUI9Animation20RepeatTimingFunction6isDoneEj, symObjAddr: 0x8F0, symBinAddr: 0x40960, symSize: 0x50 }
  - { offset: 0xB2865, size: 0x8, addend: 0x0, symName: __ZN6VSTGUI9Animation20LinearTimingFunctionD1Ev, symObjAddr: 0x940, symBinAddr: 0x409B0, symSize: 0x10 }
  - { offset: 0xB2890, size: 0x8, addend: 0x0, symName: __ZN6VSTGUI9Animation20LinearTimingFunctionD0Ev, symObjAddr: 0x950, symBinAddr: 0x409C0, symSize: 0x10 }
  - { offset: 0xB28BB, size: 0x8, addend: 0x0, symName: __ZN6VSTGUI9Animation18TimingFunctionBase6isDoneEj, symObjAddr: 0x960, symBinAddr: 0x409D0, symSize: 0x10 }
  - { offset: 0xB28EE, size: 0x8, addend: 0x0, symName: __ZN6VSTGUI9Animation19PowerTimingFunctionD1Ev, symObjAddr: 0x970, symBinAddr: 0x409E0, symSize: 0x10 }
  - { offset: 0xB2919, size: 0x8, addend: 0x0, symName: __ZN6VSTGUI9Animation19PowerTimingFunctionD0Ev, symObjAddr: 0x980, symBinAddr: 0x409F0, symSize: 0x10 }
  - { offset: 0xB2960, size: 0x8, addend: 0x0, symName: __ZN6VSTGUI9Animation27InterpolationTimingFunctionD1Ev, symObjAddr: 0x990, symBinAddr: 0x40A00, symSize: 0x20 }
  - { offset: 0xB2A40, size: 0x8, addend: 0x0, symName: __ZN6VSTGUI9Animation27InterpolationTimingFunctionD0Ev, symObjAddr: 0x9B0, symBinAddr: 0x40A20, symSize: 0x30 }
  - { offset: 0xB2B46, size: 0x8, addend: 0x0, symName: __ZN6VSTGUI9Animation25CubicBezierTimingFunctionD1Ev, symObjAddr: 0x9E0, symBinAddr: 0x40A50, symSize: 0x10 }
  - { offset: 0xB2B71, size: 0x8, addend: 0x0, symName: __ZN6VSTGUI9Animation25CubicBezierTimingFunctionD0Ev, symObjAddr: 0x9F0, symBinAddr: 0x40A60, symSize: 0x10 }
  - { offset: 0xBC342, size: 0x8, addend: 0x0, symName: __ZN6VSTGUI7CBitmapC2Ev, symObjAddr: 0x0, symBinAddr: 0x40A70, symSize: 0x50 }
  - { offset: 0xBC51E, size: 0x8, addend: 0x0, symName: __ZN6VSTGUI7CBitmapC1Ev, symObjAddr: 0x50, symBinAddr: 0x40AC0, symSize: 0x30 }
  - { offset: 0xBC8A1, size: 0x8, addend: 0x0, symName: __ZN6VSTGUI7CBitmapC2ERKNS_20CResourceDescriptionE, symObjAddr: 0x80, symBinAddr: 0x40AF0, symSize: 0x110 }
  - { offset: 0xBCCA4, size: 0x8, addend: 0x0, symName: __ZNSt3__16vectorIN6VSTGUI13SharedPointerINS1_15IPlatformBitmapEEENS_9allocatorIS4_EEE24__emplace_back_slow_pathIJRS4_EEEPS4_DpOT_, symObjAddr: 0x2080, symBinAddr: 0x42AC0, symSize: 0x240 }
  - { offset: 0xBD19C, size: 0x8, addend: 0x0, symName: __ZNSt3__16vectorIN6VSTGUI13SharedPointerINS1_15IPlatformBitmapEEENS_9allocatorIS4_EEED1B8ne180100Ev, symObjAddr: 0x190, symBinAddr: 0x40C00, symSize: 0x80 }
  - { offset: 0xBD438, size: 0x8, addend: 0x0, symName: __ZN6VSTGUI7CBitmapC1ERKNS_20CResourceDescriptionE, symObjAddr: 0x210, symBinAddr: 0x40C80, symSize: 0xF0 }
  - { offset: 0xBD81A, size: 0x8, addend: 0x0, symName: __ZN6VSTGUI7CBitmapC2Edd, symObjAddr: 0x300, symBinAddr: 0x40D70, symSize: 0x120 }
  - { offset: 0xBDC5E, size: 0x8, addend: 0x0, symName: __ZN6VSTGUI7CBitmapC1Edd, symObjAddr: 0x420, symBinAddr: 0x40E90, symSize: 0x110 }
  - { offset: 0xBE0A2, size: 0x8, addend: 0x0, symName: __ZN6VSTGUI7CBitmapC2ENS_6CPointEd, symObjAddr: 0x530, symBinAddr: 0x40FA0, symSize: 0x140 }
  - { offset: 0xBE4B7, size: 0x8, addend: 0x0, symName: __ZN6VSTGUI7CBitmapC1ENS_6CPointEd, symObjAddr: 0x670, symBinAddr: 0x410E0, symSize: 0x130 }
  - { offset: 0xBE8F2, size: 0x8, addend: 0x0, symName: __ZN6VSTGUI7CBitmapC2ERKNS_13SharedPointerINS_15IPlatformBitmapEEE, symObjAddr: 0x7A0, symBinAddr: 0x41210, symSize: 0x80 }
  - { offset: 0xBEB26, size: 0x8, addend: 0x0, symName: __ZNSt3__16vectorIN6VSTGUI13SharedPointerINS1_15IPlatformBitmapEEENS_9allocatorIS4_EEE24__emplace_back_slow_pathIJRKS4_EEEPS4_DpOT_, symObjAddr: 0x2390, symBinAddr: 0x42D10, symSize: 0x238 }
  - { offset: 0xBF01E, size: 0x8, addend: 0x0, symName: __ZN6VSTGUI7CBitmapC1ERKNS_13SharedPointerINS_15IPlatformBitmapEEE, symObjAddr: 0x820, symBinAddr: 0x41290, symSize: 0x60 }
  - { offset: 0xBF2D0, size: 0x8, addend: 0x0, symName: __ZN6VSTGUI7CBitmap4drawEPNS_12CDrawContextERKNS_5CRectERKNS_6CPointEf, symObjAddr: 0x880, symBinAddr: 0x412F0, symSize: 0x1C0 }
  - { offset: 0xBF6E0, size: 0x8, addend: 0x0, symName: __ZNK6VSTGUI7CBitmap8getWidthEv, symObjAddr: 0xA40, symBinAddr: 0x414B0, symSize: 0x90 }
  - { offset: 0xBF893, size: 0x8, addend: 0x0, symName: __ZNK6VSTGUI7CBitmap17getPlatformBitmapEv, symObjAddr: 0xAD0, symBinAddr: 0x41540, symSize: 0x40 }
  - { offset: 0xBF976, size: 0x8, addend: 0x0, symName: __ZNK6VSTGUI7CBitmap9getHeightEv, symObjAddr: 0xB10, symBinAddr: 0x41580, symSize: 0xA0 }
  - { offset: 0xBFAC1, size: 0x8, addend: 0x0, symName: __ZNK6VSTGUI7CBitmap7getSizeEv, symObjAddr: 0xBB0, symBinAddr: 0x41620, symSize: 0xB0 }
  - { offset: 0xBFD44, size: 0x8, addend: 0x0, symName: __ZN6VSTGUI7CBitmap17setPlatformBitmapERKNS_13SharedPointerINS_15IPlatformBitmapEEE, symObjAddr: 0xC60, symBinAddr: 0x416D0, symSize: 0x90 }
  - { offset: 0xBFF5F, size: 0x8, addend: 0x0, symName: __ZN6VSTGUI7CBitmap9addBitmapERKNS_13SharedPointerINS_15IPlatformBitmapEEE, symObjAddr: 0xCF0, symBinAddr: 0x41760, symSize: 0x170 }
  - { offset: 0xC02D4, size: 0x8, addend: 0x0, symName: __ZNK6VSTGUI7CBitmap35getBestPlatformBitmapForScaleFactorEd, symObjAddr: 0xE60, symBinAddr: 0x418D0, symSize: 0x1B0 }
  - { offset: 0xC0644, size: 0x8, addend: 0x0, symName: __ZN6VSTGUI17CMultiFrameBitmapC2ERKNS_20CResourceDescriptionENS_28CMultiFrameBitmapDescriptionE, symObjAddr: 0x1010, symBinAddr: 0x41A80, symSize: 0x40 }
  - { offset: 0xC06DB, size: 0x8, addend: 0x0, symName: __ZN6VSTGUI17CMultiFrameBitmapC1ERKNS_20CResourceDescriptionENS_28CMultiFrameBitmapDescriptionE, symObjAddr: 0x1050, symBinAddr: 0x41AC0, symSize: 0x50 }
  - { offset: 0xC0760, size: 0x8, addend: 0x0, symName: __ZN6VSTGUI17CMultiFrameBitmap17setMultiFrameDescENS_28CMultiFrameBitmapDescriptionE, symObjAddr: 0x10A0, symBinAddr: 0x41B10, symSize: 0xA0 }
  - { offset: 0xC07C1, size: 0x8, addend: 0x0, symName: __ZNK6VSTGUI17CMultiFrameBitmap17getMultiFrameDescEv, symObjAddr: 0x1140, symBinAddr: 0x41BB0, symSize: 0x20 }
  - { offset: 0xC07E8, size: 0x8, addend: 0x0, symName: __ZNK6VSTGUI17CMultiFrameBitmap12getFrameSizeEv, symObjAddr: 0x1160, symBinAddr: 0x41BD0, symSize: 0x10 }
  - { offset: 0xC0808, size: 0x8, addend: 0x0, symName: __ZNK6VSTGUI17CMultiFrameBitmap12getNumFramesEv, symObjAddr: 0x1170, symBinAddr: 0x41BE0, symSize: 0x10 }
  - { offset: 0xC0828, size: 0x8, addend: 0x0, symName: __ZNK6VSTGUI17CMultiFrameBitmap18getNumFramesPerRowEv, symObjAddr: 0x1180, symBinAddr: 0x41BF0, symSize: 0x10 }
  - { offset: 0xC0895, size: 0x8, addend: 0x0, symName: __ZNK6VSTGUI17CMultiFrameBitmap13calcFrameRectEj, symObjAddr: 0x1190, symBinAddr: 0x41C00, symSize: 0x90 }
  - { offset: 0xC0A53, size: 0x8, addend: 0x0, symName: __ZN6VSTGUI17CMultiFrameBitmap9drawFrameEPNS_12CDrawContextEtNS_6CPointE, symObjAddr: 0x1220, symBinAddr: 0x41C90, symSize: 0xC0 }
  - { offset: 0xC0C3F, size: 0x8, addend: 0x0, symName: __ZNK6VSTGUI17CMultiFrameBitmap27normalizedValueToFrameIndexEf, symObjAddr: 0x12E0, symBinAddr: 0x41D50, symSize: 0x70 }
  - { offset: 0xC0CC9, size: 0x8, addend: 0x0, symName: __ZNK6VSTGUI17CMultiFrameBitmap27frameIndexToNormalizedValueEt, symObjAddr: 0x1350, symBinAddr: 0x41DC0, symSize: 0x50 }
  - { offset: 0xC0D60, size: 0x8, addend: 0x0, symName: __ZN6VSTGUI20CNinePartTiledBitmapC2ERKNS_20CResourceDescriptionERKNS_25CNinePartTiledDescriptionE, symObjAddr: 0x13A0, symBinAddr: 0x41E10, symSize: 0x50 }
  - { offset: 0xC0DDA, size: 0x8, addend: 0x0, symName: __ZN6VSTGUI20CNinePartTiledBitmapC1ERKNS_20CResourceDescriptionERKNS_25CNinePartTiledDescriptionE, symObjAddr: 0x13F0, symBinAddr: 0x41E60, symSize: 0x50 }
  - { offset: 0xC0EAE, size: 0x8, addend: 0x0, symName: __ZN6VSTGUI20CNinePartTiledBitmapC2ERKNS_13SharedPointerINS_15IPlatformBitmapEEERKNS_25CNinePartTiledDescriptionE, symObjAddr: 0x1440, symBinAddr: 0x41EB0, symSize: 0xF0 }
  - { offset: 0xC12A3, size: 0x8, addend: 0x0, symName: __ZN6VSTGUI20CNinePartTiledBitmapC1ERKNS_13SharedPointerINS_15IPlatformBitmapEEERKNS_25CNinePartTiledDescriptionE, symObjAddr: 0x1530, symBinAddr: 0x41FA0, symSize: 0xC0 }
  - { offset: 0xC1678, size: 0x8, addend: 0x0, symName: __ZN6VSTGUI20CNinePartTiledBitmap4drawEPNS_12CDrawContextERKNS_5CRectERKNS_6CPointEf, symObjAddr: 0x15F0, symBinAddr: 0x42060, symSize: 0x20 }
  - { offset: 0xC1764, size: 0x8, addend: 0x0, symName: __ZN6VSTGUI18CBitmapPixelAccessC2Ev, symObjAddr: 0x1610, symBinAddr: 0x42080, symSize: 0x50 }
  - { offset: 0xC194D, size: 0x8, addend: 0x0, symName: __ZN6VSTGUI18CBitmapPixelAccess4initEPNS_7CBitmapEPNS_26IPlatformBitmapPixelAccessE, symObjAddr: 0x1660, symBinAddr: 0x420D0, symSize: 0x110 }
  - { offset: 0xC1C62, size: 0x8, addend: 0x0, symName: __ZN6VSTGUI18CBitmapPixelAccess6createEPNS_7CBitmapEb, symObjAddr: 0x1770, symBinAddr: 0x421E0, symSize: 0x250 }
  - { offset: 0xC2663, size: 0x8, addend: 0x0, symName: __ZN6VSTGUI16ReferenceCountedINSt3__16atomicIiEEE6forgetEv, symObjAddr: 0x19C0, symBinAddr: 0x42430, symSize: 0x30 }
  - { offset: 0xC2760, size: 0x8, addend: 0x0, symName: __ZN6VSTGUI16ReferenceCountedINSt3__16atomicIiEEE8rememberEv, symObjAddr: 0x19F0, symBinAddr: 0x42460, symSize: 0x10 }
  - { offset: 0xC2800, size: 0x8, addend: 0x0, symName: __ZN6VSTGUI16ReferenceCountedINSt3__16atomicIiEEED1Ev, symObjAddr: 0x1A00, symBinAddr: 0x42470, symSize: 0x10 }
  - { offset: 0xC2829, size: 0x8, addend: 0x0, symName: __ZN6VSTGUI16ReferenceCountedINSt3__16atomicIiEEED0Ev, symObjAddr: 0x1A10, symBinAddr: 0x42480, symSize: 0x10 }
  - { offset: 0xC2898, size: 0x8, addend: 0x0, symName: __ZNK6VSTGUI16ReferenceCountedINSt3__16atomicIiEEE14getNbReferenceEv, symObjAddr: 0x1A20, symBinAddr: 0x42490, symSize: 0x10 }
  - { offset: 0xC2926, size: 0x8, addend: 0x0, symName: __ZN6VSTGUI16ReferenceCountedINSt3__16atomicIiEEE12beforeDeleteEv, symObjAddr: 0x1A30, symBinAddr: 0x424A0, symSize: 0x10 }
  - { offset: 0xC296F, size: 0x8, addend: 0x0, symName: __ZN6VSTGUI7CBitmapD1Ev, symObjAddr: 0x1A40, symBinAddr: 0x424B0, symSize: 0x80 }
  - { offset: 0xC2B31, size: 0x8, addend: 0x0, symName: __ZN6VSTGUI7CBitmapD0Ev, symObjAddr: 0x1AC0, symBinAddr: 0x42530, symSize: 0x70 }
  - { offset: 0xC2D24, size: 0x8, addend: 0x0, symName: __ZN6VSTGUI17CMultiFrameBitmapD1Ev, symObjAddr: 0x1B30, symBinAddr: 0x425A0, symSize: 0x80 }
  - { offset: 0xC2EFF, size: 0x8, addend: 0x0, symName: __ZN6VSTGUI17CMultiFrameBitmapD0Ev, symObjAddr: 0x1BB0, symBinAddr: 0x42620, symSize: 0x70 }
  - { offset: 0xC3109, size: 0x8, addend: 0x0, symName: __ZN6VSTGUI20CNinePartTiledBitmapD1Ev, symObjAddr: 0x1C20, symBinAddr: 0x42690, symSize: 0x80 }
  - { offset: 0xC32E4, size: 0x8, addend: 0x0, symName: __ZN6VSTGUI20CNinePartTiledBitmapD0Ev, symObjAddr: 0x1CA0, symBinAddr: 0x42710, symSize: 0x70 }
  - { offset: 0xC34C6, size: 0x8, addend: 0x0, symName: __ZN6VSTGUI18CBitmapPixelAccessD1Ev, symObjAddr: 0x1D10, symBinAddr: 0x176F60, symSize: 0x10 }
  - { offset: 0xC34EF, size: 0x8, addend: 0x0, symName: __ZN6VSTGUI18CBitmapPixelAccessD0Ev, symObjAddr: 0x1D20, symBinAddr: 0x176F70, symSize: 0x10 }
  - { offset: 0xC3563, size: 0x8, addend: 0x0, symName: __ZN6VSTGUI23CBitmapPixelAccessOrderILi1ELi2ELi3ELi0EED1Ev, symObjAddr: 0x1D30, symBinAddr: 0x42780, symSize: 0x30 }
  - { offset: 0xC360D, size: 0x8, addend: 0x0, symName: __ZN6VSTGUI23CBitmapPixelAccessOrderILi1ELi2ELi3ELi0EED0Ev, symObjAddr: 0x1D60, symBinAddr: 0x427B0, symSize: 0x40 }
  - { offset: 0xC36BE, size: 0x8, addend: 0x0, symName: __ZNK6VSTGUI23CBitmapPixelAccessOrderILi1ELi2ELi3ELi0EE8getColorERNS_6CColorE, symObjAddr: 0x1DA0, symBinAddr: 0x427F0, symSize: 0x30 }
  - { offset: 0xC36F2, size: 0x8, addend: 0x0, symName: __ZN6VSTGUI23CBitmapPixelAccessOrderILi1ELi2ELi3ELi0EE8setColorERKNS_6CColorE, symObjAddr: 0x1DD0, symBinAddr: 0x42820, symSize: 0x30 }
  - { offset: 0xC374D, size: 0x8, addend: 0x0, symName: __ZN6VSTGUI23CBitmapPixelAccessOrderILi0ELi1ELi2ELi3EED1Ev, symObjAddr: 0x1E00, symBinAddr: 0x42850, symSize: 0x30 }
  - { offset: 0xC37F7, size: 0x8, addend: 0x0, symName: __ZN6VSTGUI23CBitmapPixelAccessOrderILi0ELi1ELi2ELi3EED0Ev, symObjAddr: 0x1E30, symBinAddr: 0x42880, symSize: 0x40 }
  - { offset: 0xC38A8, size: 0x8, addend: 0x0, symName: __ZNK6VSTGUI23CBitmapPixelAccessOrderILi0ELi1ELi2ELi3EE8getColorERNS_6CColorE, symObjAddr: 0x1E70, symBinAddr: 0x428C0, symSize: 0x30 }
  - { offset: 0xC38DC, size: 0x8, addend: 0x0, symName: __ZN6VSTGUI23CBitmapPixelAccessOrderILi0ELi1ELi2ELi3EE8setColorERKNS_6CColorE, symObjAddr: 0x1EA0, symBinAddr: 0x428F0, symSize: 0x30 }
  - { offset: 0xC3937, size: 0x8, addend: 0x0, symName: __ZN6VSTGUI23CBitmapPixelAccessOrderILi3ELi2ELi1ELi0EED1Ev, symObjAddr: 0x1ED0, symBinAddr: 0x42920, symSize: 0x30 }
  - { offset: 0xC39E1, size: 0x8, addend: 0x0, symName: __ZN6VSTGUI23CBitmapPixelAccessOrderILi3ELi2ELi1ELi0EED0Ev, symObjAddr: 0x1F00, symBinAddr: 0x42950, symSize: 0x40 }
  - { offset: 0xC3A92, size: 0x8, addend: 0x0, symName: __ZNK6VSTGUI23CBitmapPixelAccessOrderILi3ELi2ELi1ELi0EE8getColorERNS_6CColorE, symObjAddr: 0x1F40, symBinAddr: 0x42990, symSize: 0x30 }
  - { offset: 0xC3AC6, size: 0x8, addend: 0x0, symName: __ZN6VSTGUI23CBitmapPixelAccessOrderILi3ELi2ELi1ELi0EE8setColorERKNS_6CColorE, symObjAddr: 0x1F70, symBinAddr: 0x429C0, symSize: 0x30 }
  - { offset: 0xC3B21, size: 0x8, addend: 0x0, symName: __ZN6VSTGUI23CBitmapPixelAccessOrderILi2ELi1ELi0ELi3EED1Ev, symObjAddr: 0x1FA0, symBinAddr: 0x429F0, symSize: 0x30 }
  - { offset: 0xC3BCB, size: 0x8, addend: 0x0, symName: __ZN6VSTGUI23CBitmapPixelAccessOrderILi2ELi1ELi0ELi3EED0Ev, symObjAddr: 0x1FD0, symBinAddr: 0x42A20, symSize: 0x40 }
  - { offset: 0xC3C7C, size: 0x8, addend: 0x0, symName: __ZNK6VSTGUI23CBitmapPixelAccessOrderILi2ELi1ELi0ELi3EE8getColorERNS_6CColorE, symObjAddr: 0x2010, symBinAddr: 0x42A60, symSize: 0x30 }
  - { offset: 0xC3CB0, size: 0x8, addend: 0x0, symName: __ZN6VSTGUI23CBitmapPixelAccessOrderILi2ELi1ELi0ELi3EE8setColorERKNS_6CColorE, symObjAddr: 0x2040, symBinAddr: 0x42A90, symSize: 0x30 }
  - { offset: 0xC400C, size: 0x8, addend: 0x0, symName: __ZNKSt3__16vectorIN6VSTGUI13SharedPointerINS1_15IPlatformBitmapEEENS_9allocatorIS4_EEE20__throw_length_errorB8ne180100Ev, symObjAddr: 0x22C0, symBinAddr: 0x42D00, symSize: 0x10 }
  - { offset: 0xD1461, size: 0x8, addend: 0x0, symName: __ZN6VSTGUI12BitmapFilter7Factory11getInstanceEv, symObjAddr: 0x7C0, symBinAddr: 0x434F0, symSize: 0x120 }
  - { offset: 0xD1483, size: 0x8, addend: 0x0, symName: __ZZN6VSTGUI12BitmapFilter7Factory11getInstanceEvE9gInstance, symObjAddr: 0x9B988, symBinAddr: 0x1CF880, symSize: 0x0 }
  - { offset: 0xD1499, size: 0x8, addend: 0x0, symName: __ZZN6VSTGUI12BitmapFilter7Factory11getInstanceEvE11initialized, symObjAddr: 0x9B9A8, symBinAddr: 0x1CF8A0, symSize: 0x0 }
  - { offset: 0xD1B0C, size: 0x8, addend: 0x0, symName: __ZNK6VSTGUI12BitmapFilter10FilterBase11getPropertyEPKc, symObjAddr: 0x11D0, symBinAddr: 0x43F00, symSize: 0x160 }
  - { offset: 0xD1B33, size: 0x8, addend: 0x0, symName: __ZZNK6VSTGUI12BitmapFilter10FilterBase11getPropertyEPKcE8notFound, symObjAddr: 0x9B9B0, symBinAddr: 0x1CF8A8, symSize: 0x0 }
  - { offset: 0xD23F2, size: 0x8, addend: 0x0, symName: __ZN6VSTGUI12BitmapFilter8PropertyC2ENS1_4TypeE, symObjAddr: 0x0, symBinAddr: 0x42F50, symSize: 0x10 }
  - { offset: 0xD246F, size: 0x8, addend: 0x0, symName: __ZN6VSTGUI12BitmapFilter8PropertyC2Ei, symObjAddr: 0x20, symBinAddr: 0x42F60, symSize: 0x30 }
  - { offset: 0xD252D, size: 0x8, addend: 0x0, symName: __ZN6VSTGUI12BitmapFilter8PropertyC2Ed, symObjAddr: 0x80, symBinAddr: 0x42F90, symSize: 0x40 }
  - { offset: 0xD25AF, size: 0x8, addend: 0x0, symName: __ZN6VSTGUI12BitmapFilter8PropertyC2EPNS_10IReferenceE, symObjAddr: 0x100, symBinAddr: 0x42FD0, symSize: 0x20 }
  - { offset: 0xD263D, size: 0x8, addend: 0x0, symName: __ZN6VSTGUI12BitmapFilter8PropertyC2ERKNS_5CRectE, symObjAddr: 0x140, symBinAddr: 0x42FF0, symSize: 0x50 }
  - { offset: 0xD26F2, size: 0x8, addend: 0x0, symName: __ZN6VSTGUI12BitmapFilter8PropertyC2ERKNS_6CPointE, symObjAddr: 0x1E0, symBinAddr: 0x43040, symSize: 0x40 }
  - { offset: 0xD27E8, size: 0x8, addend: 0x0, symName: __ZN6VSTGUI12BitmapFilter8PropertyC2ERKNS_6CColorE, symObjAddr: 0x260, symBinAddr: 0x43080, symSize: 0x30 }
  - { offset: 0xD28CE, size: 0x8, addend: 0x0, symName: __ZN6VSTGUI12BitmapFilter8PropertyC2ERKNS_18CGraphicsTransformE, symObjAddr: 0x2C0, symBinAddr: 0x430B0, symSize: 0x60 }
  - { offset: 0xD2959, size: 0x8, addend: 0x0, symName: __ZN6VSTGUI12BitmapFilter8PropertyC2ERKS1_, symObjAddr: 0x380, symBinAddr: 0x43110, symSize: 0x20 }
  - { offset: 0xD299D, size: 0x8, addend: 0x0, symName: __ZN6VSTGUI12BitmapFilter8PropertyaSERKS1_, symObjAddr: 0x3A0, symBinAddr: 0x43130, symSize: 0x110 }
  - { offset: 0xD2AAE, size: 0x8, addend: 0x0, symName: __ZN6VSTGUI12BitmapFilter8PropertyD2Ev, symObjAddr: 0x4D0, symBinAddr: 0x43240, symSize: 0x30 }
  - { offset: 0xD2AE9, size: 0x8, addend: 0x0, symName: __ZNK6VSTGUI12BitmapFilter8Property9getObjectEv, symObjAddr: 0x500, symBinAddr: 0x43270, symSize: 0x40 }
  - { offset: 0xD2B3A, size: 0x8, addend: 0x0, symName: __ZN6VSTGUI12BitmapFilter8PropertyD1Ev, symObjAddr: 0x550, symBinAddr: 0x432B0, symSize: 0x30 }
  - { offset: 0xD2BAF, size: 0x8, addend: 0x0, symName: __ZN6VSTGUI12BitmapFilter8PropertyC2EOS1_, symObjAddr: 0x580, symBinAddr: 0x432E0, symSize: 0x30 }
  - { offset: 0xD2BFA, size: 0x8, addend: 0x0, symName: __ZN6VSTGUI12BitmapFilter8PropertyaSEOS1_, symObjAddr: 0x5B0, symBinAddr: 0x43310, symSize: 0x60 }
  - { offset: 0xD2C65, size: 0x8, addend: 0x0, symName: __ZNK6VSTGUI12BitmapFilter8Property10getIntegerEv, symObjAddr: 0x640, symBinAddr: 0x43370, symSize: 0x40 }
  - { offset: 0xD2C9A, size: 0x8, addend: 0x0, symName: __ZNK6VSTGUI12BitmapFilter8Property8getFloatEv, symObjAddr: 0x680, symBinAddr: 0x433B0, symSize: 0x40 }
  - { offset: 0xD2CD6, size: 0x8, addend: 0x0, symName: __ZNK6VSTGUI12BitmapFilter8Property7getRectEv, symObjAddr: 0x6C0, symBinAddr: 0x433F0, symSize: 0x40 }
  - { offset: 0xD2D0B, size: 0x8, addend: 0x0, symName: __ZNK6VSTGUI12BitmapFilter8Property8getPointEv, symObjAddr: 0x700, symBinAddr: 0x43430, symSize: 0x40 }
  - { offset: 0xD2D47, size: 0x8, addend: 0x0, symName: __ZNK6VSTGUI12BitmapFilter8Property8getColorEv, symObjAddr: 0x740, symBinAddr: 0x43470, symSize: 0x40 }
  - { offset: 0xD2D7C, size: 0x8, addend: 0x0, symName: __ZNK6VSTGUI12BitmapFilter8Property12getTransformEv, symObjAddr: 0x780, symBinAddr: 0x434B0, symSize: 0x40 }
  - { offset: 0xD2F3D, size: 0x8, addend: 0x0, symName: __ZN6VSTGUI12BitmapFilter7Factory14registerFilterEPKcPFPNS0_7IFilterES3_E, symObjAddr: 0xA70, symBinAddr: 0x437A0, symSize: 0x110 }
  - { offset: 0xD382E, size: 0x8, addend: 0x0, symName: __ZN6VSTGUI12BitmapFilter7FactoryD1Ev, symObjAddr: 0x8E0, symBinAddr: 0x43610, symSize: 0x10 }
  - { offset: 0xD391D, size: 0x8, addend: 0x0, symName: __ZNSt3__16__treeINS_12__value_typeINS_12basic_stringIcNS_11char_traitsIcEENS_9allocatorIcEEEEPFPN6VSTGUI12BitmapFilter7IFilterEPKcEEENS_19__map_value_compareIS7_SG_NS_4lessIS7_EELb1EEENS5_ISG_EEE7destroyEPNS_11__tree_nodeISG_PvEE, symObjAddr: 0x16D0, symBinAddr: 0x44340, symSize: 0x50 }
  - { offset: 0xD3C02, size: 0x8, addend: 0x0, symName: __ZNK6VSTGUI12BitmapFilter7Factory13getNumFiltersEv, symObjAddr: 0x8F0, symBinAddr: 0x43620, symSize: 0x10 }
  - { offset: 0xD3D7F, size: 0x8, addend: 0x0, symName: __ZNK6VSTGUI12BitmapFilter7Factory13getFilterNameEj, symObjAddr: 0x900, symBinAddr: 0x43630, symSize: 0x70 }
  - { offset: 0xD4324, size: 0x8, addend: 0x0, symName: __ZNK6VSTGUI12BitmapFilter7Factory12createFilterEPKc, symObjAddr: 0x970, symBinAddr: 0x436A0, symSize: 0x100 }
  - { offset: 0xD5083, size: 0x8, addend: 0x0, symName: __ZNSt3__16__treeINS_12__value_typeINS_12basic_stringIcNS_11char_traitsIcEENS_9allocatorIcEEEEPFPN6VSTGUI12BitmapFilter7IFilterEPKcEEENS_19__map_value_compareIS7_SG_NS_4lessIS7_EELb1EEENS5_ISG_EEE21__emplace_unique_implIJRSD_RSF_EEENS_4pairINS_15__tree_iteratorISG_PNS_11__tree_nodeISG_PvEElEEbEEDpOT_, symObjAddr: 0x68C0, symBinAddr: 0x49240, symSize: 0x1A0 }
  - { offset: 0xD58F2, size: 0x8, addend: 0x0, symName: __ZN6VSTGUI12BitmapFilter7Factory16unregisterFilterEPKcPFPNS0_7IFilterES3_E, symObjAddr: 0xB80, symBinAddr: 0x438B0, symSize: 0x150 }
  - { offset: 0xD6549, size: 0x8, addend: 0x0, symName: __ZN6VSTGUI12BitmapFilter10FilterBaseC2EPKc, symObjAddr: 0xCD0, symBinAddr: 0x43A00, symSize: 0x100 }
  - { offset: 0xD6ACB, size: 0x8, addend: 0x0, symName: __ZNK6VSTGUI12BitmapFilter10FilterBase14getDescriptionEv, symObjAddr: 0xDD0, symBinAddr: 0x43B00, symSize: 0x20 }
  - { offset: 0xD6ADD, size: 0x8, addend: 0x0, symName: __ZNK6VSTGUI12BitmapFilter10FilterBase14getDescriptionEv, symObjAddr: 0xDD0, symBinAddr: 0x43B00, symSize: 0x20 }
  - { offset: 0xD6C44, size: 0x8, addend: 0x0, symName: __ZN6VSTGUI12BitmapFilter10FilterBase11setPropertyEPKcRKNS0_8PropertyE, symObjAddr: 0xDF0, symBinAddr: 0x43B20, symSize: 0x1D0 }
  - { offset: 0xD7C48, size: 0x8, addend: 0x0, symName: __ZNSt3__16__treeINS_12__value_typeINS_12basic_stringIcNS_11char_traitsIcEENS_9allocatorIcEEEEN6VSTGUI12BitmapFilter8PropertyEEENS_19__map_value_compareIS7_SB_NS_4lessIS7_EELb1EEENS5_ISB_EEE25__emplace_unique_key_argsIS7_JRKNS_21piecewise_construct_tENS_5tupleIJOS7_EEENSM_IJEEEEEENS_4pairINS_15__tree_iteratorISB_PNS_11__tree_nodeISB_PvEElEEbEERKT_DpOT0_, symObjAddr: 0x71E0, symBinAddr: 0x49530, symSize: 0x1A0 }
  - { offset: 0xD823C, size: 0x8, addend: 0x0, symName: __ZN6VSTGUI12BitmapFilter10FilterBase11setPropertyEPKcONS0_8PropertyE, symObjAddr: 0xFC0, symBinAddr: 0x43CF0, symSize: 0x210 }
  - { offset: 0xD9300, size: 0x8, addend: 0x0, symName: __ZNK6VSTGUI12BitmapFilter10FilterBase16getNumPropertiesEv, symObjAddr: 0x1330, symBinAddr: 0x44060, symSize: 0x10 }
  - { offset: 0xD93A9, size: 0x8, addend: 0x0, symName: __ZNK6VSTGUI12BitmapFilter10FilterBase15getPropertyNameEj, symObjAddr: 0x1340, symBinAddr: 0x44070, symSize: 0x70 }
  - { offset: 0xD961C, size: 0x8, addend: 0x0, symName: __ZNK6VSTGUI12BitmapFilter10FilterBase15getPropertyTypeEj, symObjAddr: 0x13B0, symBinAddr: 0x440E0, symSize: 0x70 }
  - { offset: 0xD9809, size: 0x8, addend: 0x0, symName: __ZNK6VSTGUI12BitmapFilter10FilterBase15getPropertyTypeEPKc, symObjAddr: 0x1420, symBinAddr: 0x44150, symSize: 0x100 }
  - { offset: 0xDA04E, size: 0x8, addend: 0x0, symName: __ZN6VSTGUI12BitmapFilter10FilterBase16registerPropertyEPKcRKNS0_8PropertyE, symObjAddr: 0x1520, symBinAddr: 0x44250, symSize: 0x30 }
  - { offset: 0xDA0FF, size: 0x8, addend: 0x0, symName: __ZNSt3__16__treeINS_12__value_typeINS_12basic_stringIcNS_11char_traitsIcEENS_9allocatorIcEEEEN6VSTGUI12BitmapFilter8PropertyEEENS_19__map_value_compareIS7_SB_NS_4lessIS7_EELb1EEENS5_ISB_EEE21__emplace_unique_implIJRPKcRKSA_EEENS_4pairINS_15__tree_iteratorISB_PNS_11__tree_nodeISB_PvEElEEbEEDpOT_, symObjAddr: 0x7510, symBinAddr: 0x49740, symSize: 0x1E0 }
  - { offset: 0xDAA65, size: 0x8, addend: 0x0, symName: __ZNK6VSTGUI12BitmapFilter10FilterBase14getInputBitmapEv, symObjAddr: 0x1550, symBinAddr: 0x44280, symSize: 0xC0 }
  - { offset: 0xDAF85, size: 0x8, addend: 0x0, symName: __ZN6VSTGUI12BitmapFilter7IFilterD1Ev, symObjAddr: 0x1650, symBinAddr: 0x176F80, symSize: 0x10 }
  - { offset: 0xDAFB0, size: 0x8, addend: 0x0, symName: __ZN6VSTGUI12BitmapFilter7IFilterD0Ev, symObjAddr: 0x1660, symBinAddr: 0x176F90, symSize: 0x10 }
  - { offset: 0xDAFDB, size: 0x8, addend: 0x0, symName: __ZN6VSTGUI12BitmapFilter10FilterBaseD1Ev, symObjAddr: 0x16B0, symBinAddr: 0x176FA0, symSize: 0x10 }
  - { offset: 0xDB006, size: 0x8, addend: 0x0, symName: __ZN6VSTGUI12BitmapFilter10FilterBaseD0Ev, symObjAddr: 0x16C0, symBinAddr: 0x176FB0, symSize: 0x10 }
  - { offset: 0xDB099, size: 0x8, addend: 0x0, symName: __ZN6VSTGUI12BitmapFilter8Standard7BoxBlur14CreateFunctionEPKc, symObjAddr: 0x1720, symBinAddr: 0x44390, symSize: 0x40 }
  - { offset: 0xDB0CD, size: 0x8, addend: 0x0, symName: __ZN6VSTGUI12BitmapFilter8Standard7BoxBlurC1Ev, symObjAddr: 0x1900, symBinAddr: 0x44570, symSize: 0x2E0 }
  - { offset: 0xDB8BF, size: 0x8, addend: 0x0, symName: __ZN6VSTGUI12BitmapFilter8Standard8SetColor14CreateFunctionEPKc, symObjAddr: 0x1760, symBinAddr: 0x443D0, symSize: 0x40 }
  - { offset: 0xDB8F3, size: 0x8, addend: 0x0, symName: __ZN6VSTGUI12BitmapFilter8Standard8SetColorC1Ev, symObjAddr: 0x5020, symBinAddr: 0x47C90, symSize: 0x140 }
  - { offset: 0xDBCD3, size: 0x8, addend: 0x0, symName: __ZN6VSTGUI12BitmapFilter8Standard9Grayscale14CreateFunctionEPKc, symObjAddr: 0x17A0, symBinAddr: 0x44410, symSize: 0x60 }
  - { offset: 0xDBD47, size: 0x8, addend: 0x0, symName: __ZN6VSTGUI12BitmapFilter8Standard12SimpleFilterIPFvRNS_6CColorEPNS0_10FilterBaseEEEC2EPKcS8_, symObjAddr: 0x5190, symBinAddr: 0x47E00, symSize: 0xC0 }
  - { offset: 0xDBF31, size: 0x8, addend: 0x0, symName: __ZN6VSTGUI12BitmapFilter8Standard12ReplaceColor14CreateFunctionEPKc, symObjAddr: 0x1800, symBinAddr: 0x44470, symSize: 0x40 }
  - { offset: 0xDBF65, size: 0x8, addend: 0x0, symName: __ZN6VSTGUI12BitmapFilter8Standard12ReplaceColorC1Ev, symObjAddr: 0x5890, symBinAddr: 0x48500, symSize: 0x140 }
  - { offset: 0xDC31C, size: 0x8, addend: 0x0, symName: __ZN6VSTGUI12BitmapFilter8Standard14ScaleBiliniear14CreateFunctionEPKc, symObjAddr: 0x1840, symBinAddr: 0x444B0, symSize: 0x60 }
  - { offset: 0xDC390, size: 0x8, addend: 0x0, symName: __ZN6VSTGUI12BitmapFilter8Standard9ScaleBaseC2EPKc, symObjAddr: 0x5AF0, symBinAddr: 0x48760, symSize: 0x120 }
  - { offset: 0xDC6FB, size: 0x8, addend: 0x0, symName: __ZN6VSTGUI12BitmapFilter8Standard11ScaleLinear14CreateFunctionEPKc, symObjAddr: 0x18A0, symBinAddr: 0x44510, symSize: 0x60 }
  - { offset: 0xDC8D3, size: 0x8, addend: 0x0, symName: __ZN6VSTGUI12BitmapFilter10FilterBaseD2Ev, symObjAddr: 0x1BE0, symBinAddr: 0x44850, symSize: 0x50 }
  - { offset: 0xDCB1A, size: 0x8, addend: 0x0, symName: __ZNSt3__16__treeINS_12__value_typeINS_12basic_stringIcNS_11char_traitsIcEENS_9allocatorIcEEEEN6VSTGUI12BitmapFilter8PropertyEEENS_19__map_value_compareIS7_SB_NS_4lessIS7_EELb1EEENS5_ISB_EEE7destroyEPNS_11__tree_nodeISB_PvEE, symObjAddr: 0x1FD0, symBinAddr: 0x44C40, symSize: 0x70 }
  - { offset: 0xDCDFF, size: 0x8, addend: 0x0, symName: __ZN6VSTGUI12BitmapFilter8Standard7BoxBlurD1Ev, symObjAddr: 0x1C30, symBinAddr: 0x448A0, symSize: 0x20 }
  - { offset: 0xDCE35, size: 0x8, addend: 0x0, symName: __ZN6VSTGUI12BitmapFilter8Standard7BoxBlurD2Ev, symObjAddr: 0x2040, symBinAddr: 0x44CB0, symSize: 0x130 }
  - { offset: 0xDD36B, size: 0x8, addend: 0x0, symName: __ZN6VSTGUI12BitmapFilter8Standard7BoxBlurD0Ev, symObjAddr: 0x1C50, symBinAddr: 0x448C0, symSize: 0x30 }
  - { offset: 0xDD514, size: 0x8, addend: 0x0, symName: __ZN6VSTGUI12BitmapFilter8Standard7BoxBlur3runEb, symObjAddr: 0x1C80, symBinAddr: 0x448F0, symSize: 0x350 }
  - { offset: 0xDDB5F, size: 0x8, addend: 0x0, symName: __ZN6VSTGUI12BitmapFilter8Standard7BoxBlur3runERNS_18CBitmapPixelAccessES4_jb, symObjAddr: 0x2170, symBinAddr: 0x44DE0, symSize: 0x130 }
  - { offset: 0xDDE6E, size: 0x8, addend: 0x0, symName: __ZN6VSTGUI12BitmapFilter8Standard7BoxBlur4algoILb1ELb0ELb0ELb0EEEvPhS4_iii, symObjAddr: 0x22A0, symBinAddr: 0x44F10, symSize: 0xB80 }
  - { offset: 0xDEAB7, size: 0x8, addend: 0x0, symName: __ZN6VSTGUI12BitmapFilter8Standard7BoxBlur4algoILb1ELb1ELb1ELb1EEEvPhS4_iii, symObjAddr: 0x39B0, symBinAddr: 0x46620, symSize: 0x1670 }
  - { offset: 0xE010B, size: 0x8, addend: 0x0, symName: __ZN6VSTGUI12BitmapFilter8Standard7BoxBlur4algoILb0ELb0ELb0ELb1EEEvPhS4_iii, symObjAddr: 0x2E20, symBinAddr: 0x45A90, symSize: 0xB90 }
  - { offset: 0xE0E98, size: 0x8, addend: 0x0, symName: __ZN6VSTGUI12BitmapFilter8Standard12SimpleFilterIPFvRNS_6CColorEPNS0_10FilterBaseEEED2Ev, symObjAddr: 0x5250, symBinAddr: 0x47EC0, symSize: 0x50 }
  - { offset: 0xE109F, size: 0x8, addend: 0x0, symName: __ZN6VSTGUI12BitmapFilter8Standard8SetColor15processSetColorERNS_6CColorEPNS0_10FilterBaseE, symObjAddr: 0x5160, symBinAddr: 0x47DD0, symSize: 0x30 }
  - { offset: 0xE1134, size: 0x8, addend: 0x0, symName: __ZN6VSTGUI12BitmapFilter8Standard12SimpleFilterIPFvRNS_6CColorEPNS0_10FilterBaseEEED1Ev, symObjAddr: 0x52A0, symBinAddr: 0x47F10, symSize: 0x40 }
  - { offset: 0xE133D, size: 0x8, addend: 0x0, symName: __ZN6VSTGUI12BitmapFilter8Standard12SimpleFilterIPFvRNS_6CColorEPNS0_10FilterBaseEEED0Ev, symObjAddr: 0x52E0, symBinAddr: 0x47F50, symSize: 0x40 }
  - { offset: 0xE166F, size: 0x8, addend: 0x0, symName: __ZN6VSTGUI12BitmapFilter8Standard12SimpleFilterIPFvRNS_6CColorEPNS0_10FilterBaseEEE3runEb, symObjAddr: 0x5320, symBinAddr: 0x47F90, symSize: 0x220 }
  - { offset: 0xE1AF2, size: 0x8, addend: 0x0, symName: __ZN6VSTGUI12BitmapFilter8Standard12SimpleFilterIPFvRNS_6CColorEPNS0_10FilterBaseEEE3runERNS_18CBitmapPixelAccessESB_, symObjAddr: 0x5640, symBinAddr: 0x482B0, symSize: 0x180 }
  - { offset: 0xE1CDF, size: 0x8, addend: 0x0, symName: __ZN6VSTGUI12BitmapFilter8Standard8SetColorD1Ev, symObjAddr: 0x5540, symBinAddr: 0x481B0, symSize: 0x40 }
  - { offset: 0xE1F00, size: 0x8, addend: 0x0, symName: __ZN6VSTGUI12BitmapFilter8Standard8SetColorD0Ev, symObjAddr: 0x5580, symBinAddr: 0x481F0, symSize: 0x40 }
  - { offset: 0xE216F, size: 0x8, addend: 0x0, symName: __ZN6VSTGUI12BitmapFilter8Standard8SetColor3runEb, symObjAddr: 0x55C0, symBinAddr: 0x48230, symSize: 0x80 }
  - { offset: 0xE22BE, size: 0x8, addend: 0x0, symName: __ZN6VSTGUI12BitmapFilter8Standard9Grayscale16processGrayscaleERNS_6CColorEPNS0_10FilterBaseE, symObjAddr: 0x57C0, symBinAddr: 0x48430, symSize: 0x50 }
  - { offset: 0xE2335, size: 0x8, addend: 0x0, symName: __ZN6VSTGUI12BitmapFilter8Standard9GrayscaleD1Ev, symObjAddr: 0x5810, symBinAddr: 0x48480, symSize: 0x40 }
  - { offset: 0xE2556, size: 0x8, addend: 0x0, symName: __ZN6VSTGUI12BitmapFilter8Standard9GrayscaleD0Ev, symObjAddr: 0x5850, symBinAddr: 0x484C0, symSize: 0x40 }
  - { offset: 0xE27CE, size: 0x8, addend: 0x0, symName: __ZN6VSTGUI12BitmapFilter8Standard12ReplaceColor14processReplaceERNS_6CColorEPNS0_10FilterBaseE, symObjAddr: 0x59D0, symBinAddr: 0x48640, symSize: 0x30 }
  - { offset: 0xE2884, size: 0x8, addend: 0x0, symName: __ZN6VSTGUI12BitmapFilter8Standard12ReplaceColorD1Ev, symObjAddr: 0x5A00, symBinAddr: 0x48670, symSize: 0x40 }
  - { offset: 0xE2AA5, size: 0x8, addend: 0x0, symName: __ZN6VSTGUI12BitmapFilter8Standard12ReplaceColorD0Ev, symObjAddr: 0x5A40, symBinAddr: 0x486B0, symSize: 0x40 }
  - { offset: 0xE2CFC, size: 0x8, addend: 0x0, symName: __ZN6VSTGUI12BitmapFilter8Standard12ReplaceColor3runEb, symObjAddr: 0x5A80, symBinAddr: 0x486F0, symSize: 0x70 }
  - { offset: 0xE2E37, size: 0x8, addend: 0x0, symName: __ZN6VSTGUI12BitmapFilter8Standard9ScaleBaseD1Ev, symObjAddr: 0x5C10, symBinAddr: 0x176FC0, symSize: 0x10 }
  - { offset: 0xE2E63, size: 0x8, addend: 0x0, symName: __ZN6VSTGUI12BitmapFilter8Standard9ScaleBaseD0Ev, symObjAddr: 0x5C20, symBinAddr: 0x176FD0, symSize: 0x10 }
  - { offset: 0xE2EF2, size: 0x8, addend: 0x0, symName: __ZN6VSTGUI12BitmapFilter8Standard9ScaleBase3runEb, symObjAddr: 0x5C30, symBinAddr: 0x48880, symSize: 0x210 }
  - { offset: 0xE32EF, size: 0x8, addend: 0x0, symName: __ZN6VSTGUI12BitmapFilter8Standard14ScaleBiliniearD1Ev, symObjAddr: 0x5E40, symBinAddr: 0x48A90, symSize: 0x40 }
  - { offset: 0xE3510, size: 0x8, addend: 0x0, symName: __ZN6VSTGUI12BitmapFilter8Standard14ScaleBiliniearD0Ev, symObjAddr: 0x5E80, symBinAddr: 0x48AD0, symSize: 0x40 }
  - { offset: 0xE377D, size: 0x8, addend: 0x0, symName: __ZN6VSTGUI12BitmapFilter8Standard14ScaleBiliniear7processERNS_18CBitmapPixelAccessES4_, symObjAddr: 0x5EC0, symBinAddr: 0x48B10, symSize: 0x3F0 }
  - { offset: 0xE3B8C, size: 0x8, addend: 0x0, symName: __ZN6VSTGUI12BitmapFilter8Standard11ScaleLinearD1Ev, symObjAddr: 0x62B0, symBinAddr: 0x48F00, symSize: 0x40 }
  - { offset: 0xE3DAD, size: 0x8, addend: 0x0, symName: __ZN6VSTGUI12BitmapFilter8Standard11ScaleLinearD0Ev, symObjAddr: 0x62F0, symBinAddr: 0x48F40, symSize: 0x40 }
  - { offset: 0xE4004, size: 0x8, addend: 0x0, symName: __ZN6VSTGUI12BitmapFilter8Standard11ScaleLinear7processERNS_18CBitmapPixelAccessES4_, symObjAddr: 0x6330, symBinAddr: 0x48F80, symSize: 0x2C0 }
  - { offset: 0xE4792, size: 0x8, addend: 0x0, symName: __ZNSt3__16__treeINS_12__value_typeINS_12basic_stringIcNS_11char_traitsIcEENS_9allocatorIcEEEEPFPN6VSTGUI12BitmapFilter7IFilterEPKcEEENS_19__map_value_compareIS7_SG_NS_4lessIS7_EELb1EEENS5_ISG_EEE16__construct_nodeIJRSD_RSF_EEENS_10unique_ptrINS_11__tree_nodeISG_PvEENS_22__tree_node_destructorINS5_IST_EEEEEEDpOT_, symObjAddr: 0x6A60, symBinAddr: 0x493E0, symSize: 0x110 }
  - { offset: 0xE5116, size: 0x8, addend: 0x0, symName: __ZNSt3__110unique_ptrINS_11__tree_nodeINS_12__value_typeINS_12basic_stringIcNS_11char_traitsIcEENS_9allocatorIcEEEEPFPN6VSTGUI12BitmapFilter7IFilterEPKcEEEPvEENS_22__tree_node_destructorINS6_ISJ_EEEEED1B8ne180100Ev, symObjAddr: 0x6B70, symBinAddr: 0x494F0, symSize: 0x40 }
  - { offset: 0xE58E8, size: 0x8, addend: 0x0, symName: __ZNSt3__110unique_ptrINS_11__tree_nodeINS_12__value_typeINS_12basic_stringIcNS_11char_traitsIcEENS_9allocatorIcEEEEN6VSTGUI12BitmapFilter8PropertyEEEPvEENS_22__tree_node_destructorINS6_ISE_EEEEED1B8ne180100Ev, symObjAddr: 0x7380, symBinAddr: 0x496D0, symSize: 0x70 }
  - { offset: 0xE5FA8, size: 0x8, addend: 0x0, symName: __ZNSt3__14pairIKNS_12basic_stringIcNS_11char_traitsIcEENS_9allocatorIcEEEEN6VSTGUI12BitmapFilter8PropertyEEC2B8ne180100IRPKcRKSA_Li0EEEOT_OT0_, symObjAddr: 0x76F0, symBinAddr: 0x49920, symSize: 0xE0 }
  - { offset: 0xEBA80, size: 0x8, addend: 0x0, symName: __ZNSt3__124__put_character_sequenceB8ne180100IcNS_11char_traitsIcEEEERNS_13basic_ostreamIT_T0_EES7_PKS4_m, symObjAddr: 0x16F0, symBinAddr: 0x4B050, symSize: 0x150 }
  - { offset: 0xED6CA, size: 0x8, addend: 0x0, symName: __ZNSt3__116__pad_and_outputB8ne180100IcNS_11char_traitsIcEEEENS_19ostreambuf_iteratorIT_T0_EES6_PKS4_S8_S8_RNS_8ios_baseES4_, symObjAddr: 0x1840, symBinAddr: 0x4B1A0, symSize: 0x160 }
  - { offset: 0xEF847, size: 0x8, addend: 0x0, symName: __ZNK6VSTGUI6CColor12getLightnessEv, symObjAddr: 0x0, symBinAddr: 0x49A00, symSize: 0x50 }
  - { offset: 0xEF929, size: 0x8, addend: 0x0, symName: __ZNK6VSTGUI6CColor5toHSLERdS1_S1_, symObjAddr: 0x50, symBinAddr: 0x49A50, symSize: 0x170 }
  - { offset: 0xEFB33, size: 0x8, addend: 0x0, symName: __ZN6VSTGUI6CColor7fromHSLEddd, symObjAddr: 0x1C0, symBinAddr: 0x49BC0, symSize: 0x340 }
  - { offset: 0xEFEAE, size: 0x8, addend: 0x0, symName: __ZNK6VSTGUI6CColor5toHSVERdS1_S1_, symObjAddr: 0x500, symBinAddr: 0x49F00, symSize: 0x180 }
  - { offset: 0xF0000, size: 0x8, addend: 0x0, symName: __ZN6VSTGUI6CColor7fromHSVEddd, symObjAddr: 0x680, symBinAddr: 0x4A080, symSize: 0x2F0 }
  - { offset: 0xF034D, size: 0x8, addend: 0x0, symName: __ZN6VSTGUI6CColor21isColorRepresentationEPKc, symObjAddr: 0x970, symBinAddr: 0x4A370, symSize: 0x30 }
  - { offset: 0xF052E, size: 0x8, addend: 0x0, symName: __ZN6VSTGUI6CColor10fromStringEPKc, symObjAddr: 0x9A0, symBinAddr: 0x4A3A0, symSize: 0x100 }
  - { offset: 0xF1667, size: 0x8, addend: 0x0, symName: __ZNK6VSTGUI6CColor8toStringEv, symObjAddr: 0xAA0, symBinAddr: 0x4A4A0, symSize: 0x460 }
  - { offset: 0xF2199, size: 0x8, addend: 0x0, symName: __ZNKSt3__115basic_stringbufIcNS_11char_traitsIcEENS_9allocatorIcEEE3strEv, symObjAddr: 0x19A0, symBinAddr: 0x4B300, symSize: 0x2C0 }
  - { offset: 0xF28E9, size: 0x8, addend: 0x0, symName: __ZNSt3__118basic_stringstreamIcNS_11char_traitsIcEENS_9allocatorIcEEED1Ev, symObjAddr: 0xF00, symBinAddr: 0x4A900, symSize: 0x90 }
  - { offset: 0xF2A7B, size: 0x8, addend: 0x0, symName: __ZThn16_NSt3__118basic_stringstreamIcNS_11char_traitsIcEENS_9allocatorIcEEED1Ev, symObjAddr: 0xF90, symBinAddr: 0x4A990, symSize: 0x80 }
  - { offset: 0xF2C12, size: 0x8, addend: 0x0, symName: __ZTv0_n24_NSt3__118basic_stringstreamIcNS_11char_traitsIcEENS_9allocatorIcEEED1Ev, symObjAddr: 0x1010, symBinAddr: 0x4AA10, symSize: 0xA0 }
  - { offset: 0xF2DB7, size: 0x8, addend: 0x0, symName: __ZNSt3__118basic_stringstreamIcNS_11char_traitsIcEENS_9allocatorIcEEED0Ev, symObjAddr: 0x10B0, symBinAddr: 0x4AAB0, symSize: 0x90 }
  - { offset: 0xF2F82, size: 0x8, addend: 0x0, symName: __ZThn16_NSt3__118basic_stringstreamIcNS_11char_traitsIcEENS_9allocatorIcEEED0Ev, symObjAddr: 0x1140, symBinAddr: 0x4AB40, symSize: 0x90 }
  - { offset: 0xF3136, size: 0x8, addend: 0x0, symName: __ZTv0_n24_NSt3__118basic_stringstreamIcNS_11char_traitsIcEENS_9allocatorIcEEED0Ev, symObjAddr: 0x11D0, symBinAddr: 0x4ABD0, symSize: 0xB0 }
  - { offset: 0xF32F8, size: 0x8, addend: 0x0, symName: __ZNSt3__115basic_stringbufIcNS_11char_traitsIcEENS_9allocatorIcEEED1Ev, symObjAddr: 0x1280, symBinAddr: 0x4AC80, symSize: 0x40 }
  - { offset: 0xF3452, size: 0x8, addend: 0x0, symName: __ZNSt3__115basic_stringbufIcNS_11char_traitsIcEENS_9allocatorIcEEED0Ev, symObjAddr: 0x12C0, symBinAddr: 0x4ACC0, symSize: 0x40 }
  - { offset: 0xF36D6, size: 0x8, addend: 0x0, symName: __ZNSt3__115basic_stringbufIcNS_11char_traitsIcEENS_9allocatorIcEEE7seekoffExNS_8ios_base7seekdirEj, symObjAddr: 0x1300, symBinAddr: 0x4AD00, symSize: 0x120 }
  - { offset: 0xF38A9, size: 0x8, addend: 0x0, symName: __ZNSt3__115basic_stringbufIcNS_11char_traitsIcEENS_9allocatorIcEEE7seekposENS_4fposI11__mbstate_tEEj, symObjAddr: 0x1420, symBinAddr: 0x4AE20, symSize: 0x30 }
  - { offset: 0xF394C, size: 0x8, addend: 0x0, symName: __ZNSt3__115basic_stringbufIcNS_11char_traitsIcEENS_9allocatorIcEEE9underflowEv, symObjAddr: 0x1450, symBinAddr: 0x4AE50, symSize: 0x50 }
  - { offset: 0xF3A0C, size: 0x8, addend: 0x0, symName: __ZNSt3__115basic_stringbufIcNS_11char_traitsIcEENS_9allocatorIcEEE9pbackfailEi, symObjAddr: 0x14A0, symBinAddr: 0x4AEA0, symSize: 0x60 }
  - { offset: 0xF3C78, size: 0x8, addend: 0x0, symName: __ZNSt3__115basic_stringbufIcNS_11char_traitsIcEENS_9allocatorIcEEE8overflowEi, symObjAddr: 0x1500, symBinAddr: 0x4AF00, symSize: 0x150 }
  - { offset: 0x109FF9, size: 0x8, addend: 0x0, symName: __ZN6VSTGUI12CDataBrowserC2ERKNS_5CRectEPNS_20IDataBrowserDelegateEidPNS_7CBitmapE, symObjAddr: 0x0, symBinAddr: 0x4B5C0, symSize: 0x1D0 }
  - { offset: 0x10A389, size: 0x8, addend: 0x0, symName: __ZN6VSTGUI16CDataBrowserViewC1ERKNS_5CRectEPNS_20IDataBrowserDelegateEPNS_12CDataBrowserE, symObjAddr: 0x1D0, symBinAddr: 0x4B790, symSize: 0xA0 }
  - { offset: 0x10A3FB, size: 0x8, addend: 0x0, symName: __ZN6VSTGUI12CDataBrowserC1ERKNS_5CRectEPNS_20IDataBrowserDelegateEidPNS_7CBitmapE, symObjAddr: 0x270, symBinAddr: 0x4B830, symSize: 0x1D0 }
  - { offset: 0x10A782, size: 0x8, addend: 0x0, symName: __ZN6VSTGUI12CDataBrowserD2Ev, symObjAddr: 0x440, symBinAddr: 0x4BA00, symSize: 0xA0 }
  - { offset: 0x10A958, size: 0x8, addend: 0x0, symName: __ZN6VSTGUI12CDataBrowserD1Ev, symObjAddr: 0x4F0, symBinAddr: 0x4BAA0, symSize: 0xA0 }
  - { offset: 0x10AB24, size: 0x8, addend: 0x0, symName: __ZThn32_N6VSTGUI12CDataBrowserD1Ev, symObjAddr: 0x590, symBinAddr: 0x4BB40, symSize: 0xA0 }
  - { offset: 0x10ACC2, size: 0x8, addend: 0x0, symName: __ZThn40_N6VSTGUI12CDataBrowserD1Ev, symObjAddr: 0x630, symBinAddr: 0x4BBE0, symSize: 0x90 }
  - { offset: 0x10AE60, size: 0x8, addend: 0x0, symName: __ZN6VSTGUI12CDataBrowserD0Ev, symObjAddr: 0x6C0, symBinAddr: 0x4BC70, symSize: 0xA0 }
  - { offset: 0x10B030, size: 0x8, addend: 0x0, symName: __ZThn32_N6VSTGUI12CDataBrowserD0Ev, symObjAddr: 0x760, symBinAddr: 0x4BD10, symSize: 0xA0 }
  - { offset: 0x10B1E3, size: 0x8, addend: 0x0, symName: __ZThn40_N6VSTGUI12CDataBrowserD0Ev, symObjAddr: 0x800, symBinAddr: 0x4BDB0, symSize: 0xA0 }
  - { offset: 0x10B396, size: 0x8, addend: 0x0, symName: __ZN6VSTGUI12CDataBrowser16setAutosizeFlagsEi, symObjAddr: 0x8A0, symBinAddr: 0x4BE50, symSize: 0x10 }
  - { offset: 0x10B3F2, size: 0x8, addend: 0x0, symName: __ZN6VSTGUI12CDataBrowser11setViewSizeERKNS_5CRectEb, symObjAddr: 0x8B0, symBinAddr: 0x4BE60, symSize: 0x90 }
  - { offset: 0x10B471, size: 0x8, addend: 0x0, symName: __ZN6VSTGUI12CDataBrowser13setWantsFocusEb, symObjAddr: 0x940, symBinAddr: 0x4BEF0, symSize: 0x30 }
  - { offset: 0x10B4B6, size: 0x8, addend: 0x0, symName: __ZNK6VSTGUI12CDataBrowser10wantsFocusEv, symObjAddr: 0x970, symBinAddr: 0x4BF20, symSize: 0x20 }
  - { offset: 0x10B4EB, size: 0x8, addend: 0x0, symName: __ZN6VSTGUI12CDataBrowser8attachedEPNS_5CViewE, symObjAddr: 0x990, symBinAddr: 0x4BF40, symSize: 0x40 }
  - { offset: 0x10B575, size: 0x8, addend: 0x0, symName: __ZN6VSTGUI12CDataBrowser7removedEPNS_5CViewE, symObjAddr: 0x9D0, symBinAddr: 0x4BF80, symSize: 0x40 }
  - { offset: 0x10B5DE, size: 0x8, addend: 0x0, symName: __ZN6VSTGUI12CDataBrowser15onKeyboardEventERNS_13KeyboardEventE, symObjAddr: 0xA10, symBinAddr: 0x4BFC0, symSize: 0x20 }
  - { offset: 0x10B621, size: 0x8, addend: 0x0, symName: __ZN6VSTGUI12CDataBrowser11onMouseDownERNS_6CPointERKNS_12CButtonStateE, symObjAddr: 0xA30, symBinAddr: 0x4BFE0, symSize: 0x70 }
  - { offset: 0x10B7C4, size: 0x8, addend: 0x0, symName: __ZN6VSTGUI12CDataBrowser12valueChangedEPNS_8CControlE, symObjAddr: 0xAA0, symBinAddr: 0x4C050, symSize: 0x1D0 }
  - { offset: 0x10BA51, size: 0x8, addend: 0x0, symName: __ZN6VSTGUI16CDataBrowserView7getCellERKNS_6CPointERNS_12CDataBrowser4CellE, symObjAddr: 0xC70, symBinAddr: 0x4C220, symSize: 0x1C0 }
  - { offset: 0x10BC9C, size: 0x8, addend: 0x0, symName: __ZThn32_N6VSTGUI12CDataBrowser12valueChangedEPNS_8CControlE, symObjAddr: 0xE30, symBinAddr: 0x4C3E0, symSize: 0x10 }
  - { offset: 0x10BCC9, size: 0x8, addend: 0x0, symName: __ZN6VSTGUI12CDataBrowser19recalculateSubViewsEv, symObjAddr: 0xE40, symBinAddr: 0x4C3F0, symSize: 0x10 }
  - { offset: 0x10BFA3, size: 0x8, addend: 0x0, symName: __ZN6VSTGUI12CDataBrowser17recalculateLayoutEb, symObjAddr: 0xE50, symBinAddr: 0x4C400, symSize: 0x790 }
  - { offset: 0x10CB37, size: 0x8, addend: 0x0, symName: __ZN6VSTGUI18CDataBrowserHeaderC1ERKNS_5CRectEPNS_20IDataBrowserDelegateEPNS_12CDataBrowserE, symObjAddr: 0x15E0, symBinAddr: 0x4CB90, symSize: 0x90 }
  - { offset: 0x10CB91, size: 0x8, addend: 0x0, symName: __ZN6VSTGUI12CDataBrowser17validateSelectionEv, symObjAddr: 0x1670, symBinAddr: 0x4CC20, symSize: 0xA0 }
  - { offset: 0x10CE3E, size: 0x8, addend: 0x0, symName: __ZN6VSTGUI12CDataBrowser10invalidateERKNS0_4CellE, symObjAddr: 0x1710, symBinAddr: 0x4CCC0, symSize: 0x40 }
  - { offset: 0x10CEE2, size: 0x8, addend: 0x0, symName: __ZN6VSTGUI12CDataBrowser13invalidateRowEi, symObjAddr: 0x1750, symBinAddr: 0x4CD00, symSize: 0x40 }
  - { offset: 0x10CF7A, size: 0x8, addend: 0x0, symName: __ZN6VSTGUI16CDataBrowserView12getRowBoundsEi, symObjAddr: 0x1810, symBinAddr: 0x4CDC0, symSize: 0x120 }
  - { offset: 0x10D0F6, size: 0x8, addend: 0x0, symName: __ZN6VSTGUI16CDataBrowserView13invalidateRowEi, symObjAddr: 0x1790, symBinAddr: 0x4CD40, symSize: 0x40 }
  - { offset: 0x10D15D, size: 0x8, addend: 0x0, symName: __ZN6VSTGUI12CDataBrowser14makeRowVisibleEi, symObjAddr: 0x17D0, symBinAddr: 0x4CD80, symSize: 0x40 }
  - { offset: 0x10D4F7, size: 0x8, addend: 0x0, symName: __ZN6VSTGUI12CDataBrowser14setSelectedRowEib, symObjAddr: 0x1930, symBinAddr: 0x4CEE0, symSize: 0x220 }
  - { offset: 0x10DDB1, size: 0x8, addend: 0x0, symName: __ZNK6VSTGUI12CDataBrowser14getSelectedRowEv, symObjAddr: 0x1B50, symBinAddr: 0x4D100, symSize: 0x20 }
  - { offset: 0x10DECB, size: 0x8, addend: 0x0, symName: __ZN6VSTGUI12CDataBrowser9selectRowEi, symObjAddr: 0x1B70, symBinAddr: 0x4D120, symSize: 0x2A0 }
  - { offset: 0x10E542, size: 0x8, addend: 0x0, symName: __ZNKSt3__16vectorIiNS_9allocatorIiEEE20__throw_length_errorB8ne180100Ev, symObjAddr: 0x44F0, symBinAddr: 0x4F930, symSize: 0x10 }
  - { offset: 0x10E577, size: 0x8, addend: 0x0, symName: __ZN6VSTGUI12CDataBrowser11unselectRowEi, symObjAddr: 0x1E10, symBinAddr: 0x4D3C0, symSize: 0xF0 }
  - { offset: 0x10E971, size: 0x8, addend: 0x0, symName: __ZN6VSTGUI12CDataBrowser11unselectAllEv, symObjAddr: 0x1F00, symBinAddr: 0x4D4B0, symSize: 0xA0 }
  - { offset: 0x10EB2F, size: 0x8, addend: 0x0, symName: __ZN6VSTGUI12CDataBrowser13getCellBoundsERKNS0_4CellE, symObjAddr: 0x1FA0, symBinAddr: 0x4D550, symSize: 0x190 }
  - { offset: 0x10ED8D, size: 0x8, addend: 0x0, symName: __ZNK6VSTGUI12CDataBrowser9getCellAtERKNS_6CPointE, symObjAddr: 0x2130, symBinAddr: 0x4D6E0, symSize: 0xD0 }
  - { offset: 0x10EEC8, size: 0x8, addend: 0x0, symName: __ZN6VSTGUI12CDataBrowser13beginTextEditERKNS0_4CellEPKc, symObjAddr: 0x2200, symBinAddr: 0x4D7B0, symSize: 0x110 }
  - { offset: 0x10F0EA, size: 0x8, addend: 0x0, symName: __ZN6VSTGUI12CDataBrowser6notifyEPNS_11CBaseObjectEPKc, symObjAddr: 0x2310, symBinAddr: 0x4D8C0, symSize: 0x120 }
  - { offset: 0x10F2CD, size: 0x8, addend: 0x0, symName: __ZN6VSTGUI18CDataBrowserHeaderC2ERKNS_5CRectEPNS_20IDataBrowserDelegateEPNS_12CDataBrowserE, symObjAddr: 0x2430, symBinAddr: 0x4D9E0, symSize: 0x90 }
  - { offset: 0x10F353, size: 0x8, addend: 0x0, symName: __ZN6VSTGUI18CDataBrowserHeader4drawEPNS_12CDrawContextE, symObjAddr: 0x24C0, symBinAddr: 0x4DA70, symSize: 0x30 }
  - { offset: 0x10F3D2, size: 0x8, addend: 0x0, symName: __ZN6VSTGUI18CDataBrowserHeader8drawRectEPNS_12CDrawContextERKNS_5CRectE, symObjAddr: 0x24F0, symBinAddr: 0x4DAA0, symSize: 0x1C0 }
  - { offset: 0x10F6BF, size: 0x8, addend: 0x0, symName: __ZN6VSTGUI18CDataBrowserHeader16getColumnAtPointERNS_6CPointE, symObjAddr: 0x26B0, symBinAddr: 0x4DC60, symSize: 0x140 }
  - { offset: 0x10F831, size: 0x8, addend: 0x0, symName: __ZN6VSTGUI18CDataBrowserHeader11onMouseDownERNS_6CPointERKNS_12CButtonStateE, symObjAddr: 0x27F0, symBinAddr: 0x4DDA0, symSize: 0xC0 }
  - { offset: 0x10F8FD, size: 0x8, addend: 0x0, symName: __ZN6VSTGUI18CDataBrowserHeader12onMouseMovedERNS_6CPointERKNS_12CButtonStateE, symObjAddr: 0x28B0, symBinAddr: 0x4DE60, symSize: 0x160 }
  - { offset: 0x10FA5E, size: 0x8, addend: 0x0, symName: __ZN6VSTGUI18CDataBrowserHeader13onMouseExitedERNS_6CPointERKNS_12CButtonStateE, symObjAddr: 0x2A10, symBinAddr: 0x4DFC0, symSize: 0x20 }
  - { offset: 0x10FA9F, size: 0x8, addend: 0x0, symName: __ZN6VSTGUI18CDataBrowserHeader9onMouseUpERNS_6CPointERKNS_12CButtonStateE, symObjAddr: 0x2A30, symBinAddr: 0x4DFE0, symSize: 0x20 }
  - { offset: 0x10FB27, size: 0x8, addend: 0x0, symName: __ZN6VSTGUI16CDataBrowserViewC2ERKNS_5CRectEPNS_20IDataBrowserDelegateEPNS_12CDataBrowserE, symObjAddr: 0x2A50, symBinAddr: 0x4E000, symSize: 0xC0 }
  - { offset: 0x10FC0C, size: 0x8, addend: 0x0, symName: __ZN6VSTGUI16CDataBrowserView4drawEPNS_12CDrawContextE, symObjAddr: 0x2B10, symBinAddr: 0x4E0C0, symSize: 0x30 }
  - { offset: 0x110528, size: 0x8, addend: 0x0, symName: __ZN6VSTGUI16CDataBrowserView8drawRectEPNS_12CDrawContextERKNS_5CRectE, symObjAddr: 0x2B40, symBinAddr: 0x4E0F0, symSize: 0x950 }
  - { offset: 0x1117AF, size: 0x8, addend: 0x0, symName: __ZNKSt3__16vectorINS_4pairIN6VSTGUI6CPointES3_EENS_9allocatorIS4_EEE20__throw_length_errorB8ne180100Ev, symObjAddr: 0x45C0, symBinAddr: 0x4F940, symSize: 0x10 }
  - { offset: 0x111805, size: 0x8, addend: 0x0, symName: __ZN6VSTGUI16CDataBrowserView11onMouseDownERNS_6CPointERKNS_12CButtonStateE, symObjAddr: 0x3490, symBinAddr: 0x4EA40, symSize: 0x1E0 }
  - { offset: 0x111BFA, size: 0x8, addend: 0x0, symName: __ZN6VSTGUI16CDataBrowserView12onMouseMovedERNS_6CPointERKNS_12CButtonStateE, symObjAddr: 0x3670, symBinAddr: 0x4EC20, symSize: 0x60 }
  - { offset: 0x111CC0, size: 0x8, addend: 0x0, symName: __ZN6VSTGUI16CDataBrowserView9onMouseUpERNS_6CPointERKNS_12CButtonStateE, symObjAddr: 0x36D0, symBinAddr: 0x4EC80, symSize: 0x60 }
  - { offset: 0x111D86, size: 0x8, addend: 0x0, symName: __ZN6VSTGUI16CDataBrowserView13onMouseExitedERNS_6CPointERKNS_12CButtonStateE, symObjAddr: 0x3730, symBinAddr: 0x4ECE0, symSize: 0x30 }
  - { offset: 0x111DF4, size: 0x8, addend: 0x0, symName: __ZN6VSTGUI16CDataBrowserView6onDropENS_13DragEventDataE, symObjAddr: 0x3760, symBinAddr: 0x4ED10, symSize: 0x80 }
  - { offset: 0x111F1F, size: 0x8, addend: 0x0, symName: __ZThn32_N6VSTGUI16CDataBrowserView6onDropENS_13DragEventDataE, symObjAddr: 0x37E0, symBinAddr: 0x4ED90, symSize: 0x90 }
  - { offset: 0x11200D, size: 0x8, addend: 0x0, symName: __ZN6VSTGUI16CDataBrowserView11onDragEnterENS_13DragEventDataE, symObjAddr: 0x3870, symBinAddr: 0x4EE20, symSize: 0xD0 }
  - { offset: 0x1121B3, size: 0x8, addend: 0x0, symName: __ZThn32_N6VSTGUI16CDataBrowserView11onDragEnterENS_13DragEventDataE, symObjAddr: 0x3940, symBinAddr: 0x4EEF0, symSize: 0xF0 }
  - { offset: 0x11231B, size: 0x8, addend: 0x0, symName: __ZN6VSTGUI16CDataBrowserView11onDragLeaveENS_13DragEventDataE, symObjAddr: 0x3A30, symBinAddr: 0x4EFE0, symSize: 0xB0 }
  - { offset: 0x11242D, size: 0x8, addend: 0x0, symName: __ZThn32_N6VSTGUI16CDataBrowserView11onDragLeaveENS_13DragEventDataE, symObjAddr: 0x3AE0, symBinAddr: 0x4F090, symSize: 0xB0 }
  - { offset: 0x112518, size: 0x8, addend: 0x0, symName: __ZN6VSTGUI16CDataBrowserView10onDragMoveENS_13DragEventDataE, symObjAddr: 0x3B90, symBinAddr: 0x4F140, symSize: 0x150 }
  - { offset: 0x112734, size: 0x8, addend: 0x0, symName: __ZThn32_N6VSTGUI16CDataBrowserView10onDragMoveENS_13DragEventDataE, symObjAddr: 0x3CE0, symBinAddr: 0x4F290, symSize: 0x10 }
  - { offset: 0x112796, size: 0x8, addend: 0x0, symName: __ZN6VSTGUI16CDataBrowserView15onKeyboardEventERNS_13KeyboardEventE, symObjAddr: 0x3CF0, symBinAddr: 0x4F2A0, symSize: 0x1B0 }
  - { offset: 0x112A26, size: 0x8, addend: 0x0, symName: __ZN6VSTGUI16CDataBrowserView14drawFocusOnTopEv, symObjAddr: 0x3EA0, symBinAddr: 0x4F450, symSize: 0x10 }
  - { offset: 0x112A4B, size: 0x8, addend: 0x0, symName: __ZThn24_N6VSTGUI16CDataBrowserView14drawFocusOnTopEv, symObjAddr: 0x3EB0, symBinAddr: 0x4F460, symSize: 0x10 }
  - { offset: 0x112A8F, size: 0x8, addend: 0x0, symName: __ZN6VSTGUI16CDataBrowserView12getFocusPathERNS_13CGraphicsPathE, symObjAddr: 0x3EC0, symBinAddr: 0x4F470, symSize: 0x80 }
  - { offset: 0x112B53, size: 0x8, addend: 0x0, symName: __ZThn24_N6VSTGUI16CDataBrowserView12getFocusPathERNS_13CGraphicsPathE, symObjAddr: 0x3F40, symBinAddr: 0x4F4F0, symSize: 0x80 }
  - { offset: 0x112BE7, size: 0x8, addend: 0x0, symName: __ZN6VSTGUI11CScrollViewD1Ev, symObjAddr: 0x4000, symBinAddr: 0x4F570, symSize: 0x20 }
  - { offset: 0x112C47, size: 0x8, addend: 0x0, symName: __ZN6VSTGUI11CScrollViewD0Ev, symObjAddr: 0x4020, symBinAddr: 0x4F590, symSize: 0x30 }
  - { offset: 0x112CB5, size: 0x8, addend: 0x0, symName: __ZNK6VSTGUI11CScrollView7newCopyEv, symObjAddr: 0x4060, symBinAddr: 0x4F5C0, symSize: 0x40 }
  - { offset: 0x112CFE, size: 0x8, addend: 0x0, symName: __ZNK6VSTGUI5CView11checkUpdateERKNS_5CRectE, symObjAddr: 0x40A0, symBinAddr: 0x4F600, symSize: 0x50 }
  - { offset: 0x112D55, size: 0x8, addend: 0x0, symName: __ZN6VSTGUI5CView14onMouseEnteredERNS_6CPointERKNS_12CButtonStateE, symObjAddr: 0x40F0, symBinAddr: 0x4F650, symSize: 0x10 }
  - { offset: 0x112D96, size: 0x8, addend: 0x0, symName: __ZN6VSTGUI5CView13onMouseExitedERNS_6CPointERKNS_12CButtonStateE, symObjAddr: 0x4100, symBinAddr: 0x4F660, symSize: 0x10 }
  - { offset: 0x112DD7, size: 0x8, addend: 0x0, symName: __ZN6VSTGUI5CView7onWheelERKNS_6CPointERKfRKNS_12CButtonStateE, symObjAddr: 0x4110, symBinAddr: 0x4F670, symSize: 0x10 }
  - { offset: 0x112E26, size: 0x8, addend: 0x0, symName: __ZNK6VSTGUI5CView10wantsFocusEv, symObjAddr: 0x4120, symBinAddr: 0x4F680, symSize: 0x10 }
  - { offset: 0x112E4B, size: 0x8, addend: 0x0, symName: __ZN6VSTGUI5CView6onIdleEv, symObjAddr: 0x4130, symBinAddr: 0x4F690, symSize: 0x10 }
  - { offset: 0x112E70, size: 0x8, addend: 0x0, symName: __ZNK6VSTGUI5CView40wantsWindowActiveStateChangeNotificationEv, symObjAddr: 0x4140, symBinAddr: 0x4F6A0, symSize: 0x10 }
  - { offset: 0x112E95, size: 0x8, addend: 0x0, symName: __ZN6VSTGUI5CView16onWindowActivateEb, symObjAddr: 0x4150, symBinAddr: 0x4F6B0, symSize: 0x10 }
  - { offset: 0x112ED5, size: 0x8, addend: 0x0, symName: __ZN6VSTGUI14CViewContainer15asViewContainerEv, symObjAddr: 0x4160, symBinAddr: 0x4F6C0, symSize: 0x10 }
  - { offset: 0x112EFC, size: 0x8, addend: 0x0, symName: __ZNK6VSTGUI14CViewContainer15asViewContainerEv, symObjAddr: 0x4170, symBinAddr: 0x4F6D0, symSize: 0x10 }
  - { offset: 0x112F23, size: 0x8, addend: 0x0, symName: __ZNK6VSTGUI14CViewContainer7newCopyEv, symObjAddr: 0x4180, symBinAddr: 0x4F6E0, symSize: 0x40 }
  - { offset: 0x112F4A, size: 0x8, addend: 0x0, symName: __ZNK6VSTGUI5CView7newCopyEv, symObjAddr: 0x41C0, symBinAddr: 0x4F720, symSize: 0x40 }
  - { offset: 0x112F71, size: 0x8, addend: 0x0, symName: __ZN6VSTGUI5CView8drawRectEPNS_12CDrawContextERKNS_5CRectE, symObjAddr: 0x4200, symBinAddr: 0x4F760, symSize: 0x10 }
  - { offset: 0x112FCD, size: 0x8, addend: 0x0, symName: __ZNK6VSTGUI5CView7isDirtyEv, symObjAddr: 0x4210, symBinAddr: 0x4F770, symSize: 0x10 }
  - { offset: 0x112FF2, size: 0x8, addend: 0x0, symName: __ZN6VSTGUI5CView7invalidEv, symObjAddr: 0x4220, symBinAddr: 0x4F780, symSize: 0x30 }
  - { offset: 0x11303E, size: 0x8, addend: 0x0, symName: __ZN6VSTGUI5CView17parentSizeChangedEv, symObjAddr: 0x4250, symBinAddr: 0x4F7B0, symSize: 0x10 }
  - { offset: 0x113063, size: 0x8, addend: 0x0, symName: __ZN6VSTGUI5CView9sizeToFitEv, symObjAddr: 0x4260, symBinAddr: 0x4F7C0, symSize: 0x10 }
  - { offset: 0x113088, size: 0x8, addend: 0x0, symName: __ZN6VSTGUI5CView15asViewContainerEv, symObjAddr: 0x4270, symBinAddr: 0x4F7D0, symSize: 0x10 }
  - { offset: 0x1130AD, size: 0x8, addend: 0x0, symName: __ZNK6VSTGUI5CView15asViewContainerEv, symObjAddr: 0x4280, symBinAddr: 0x4F7E0, symSize: 0x10 }
  - { offset: 0x1130D2, size: 0x8, addend: 0x0, symName: __ZN6VSTGUI19ViewListenerAdapter13viewLostFocusEPNS_5CViewE, symObjAddr: 0x4370, symBinAddr: 0x4F7F0, symSize: 0x10 }
  - { offset: 0x11312B, size: 0x8, addend: 0x0, symName: __ZN6VSTGUI18CDataBrowserHeaderD1Ev, symObjAddr: 0x43A0, symBinAddr: 0x4F800, symSize: 0x20 }
  - { offset: 0x113184, size: 0x8, addend: 0x0, symName: __ZN6VSTGUI18CDataBrowserHeaderD0Ev, symObjAddr: 0x43C0, symBinAddr: 0x4F820, symSize: 0x30 }
  - { offset: 0x113211, size: 0x8, addend: 0x0, symName: __ZN6VSTGUI16CDataBrowserViewD1Ev, symObjAddr: 0x43F0, symBinAddr: 0x4F850, symSize: 0x20 }
  - { offset: 0x11326A, size: 0x8, addend: 0x0, symName: __ZN6VSTGUI16CDataBrowserViewD0Ev, symObjAddr: 0x4410, symBinAddr: 0x4F870, symSize: 0x30 }
  - { offset: 0x113333, size: 0x8, addend: 0x0, symName: __ZN6VSTGUI16CDataBrowserView13getDropTargetEv, symObjAddr: 0x4440, symBinAddr: 0x4F8A0, symSize: 0x40 }
  - { offset: 0x1133B8, size: 0x8, addend: 0x0, symName: __ZThn24_N6VSTGUI16CDataBrowserViewD1Ev, symObjAddr: 0x4480, symBinAddr: 0x4F8E0, symSize: 0x20 }
  - { offset: 0x113424, size: 0x8, addend: 0x0, symName: __ZThn24_N6VSTGUI16CDataBrowserViewD0Ev, symObjAddr: 0x44A0, symBinAddr: 0x4F900, symSize: 0x30 }
  - { offset: 0x113493, size: 0x8, addend: 0x0, symName: __ZN6VSTGUI13IFocusDrawingD1Ev, symObjAddr: 0x44D0, symBinAddr: 0x176FE0, symSize: 0x10 }
  - { offset: 0x1134BC, size: 0x8, addend: 0x0, symName: __ZN6VSTGUI13IFocusDrawingD0Ev, symObjAddr: 0x44E0, symBinAddr: 0x176FF0, symSize: 0x10 }
  - { offset: 0x12377F, size: 0x8, addend: 0x0, symName: __ZN6VSTGUI12CDrawContext9TransformC2ERS0_RKNS_18CGraphicsTransformE, symObjAddr: 0x0, symBinAddr: 0x4F950, symSize: 0x80 }
  - { offset: 0x1237F9, size: 0x8, addend: 0x0, symName: __ZN6VSTGUI12CDrawContext13pushTransformERKNS_18CGraphicsTransformE, symObjAddr: 0x80, symBinAddr: 0x4F9D0, symSize: 0x1C0 }
  - { offset: 0x123DC0, size: 0x8, addend: 0x0, symName: __ZNSt3__15dequeIN6VSTGUI18CGraphicsTransformENS_9allocatorIS2_EEE19__add_back_capacityEv, symObjAddr: 0x3970, symBinAddr: 0x53230, symSize: 0x720 }
  - { offset: 0x125161, size: 0x8, addend: 0x0, symName: __ZN6VSTGUI12CDrawContext9TransformC1ERS0_RKNS_18CGraphicsTransformE, symObjAddr: 0x240, symBinAddr: 0x4FB90, symSize: 0x80 }
  - { offset: 0x12521D, size: 0x8, addend: 0x0, symName: __ZN6VSTGUI12CDrawContext9TransformD2Ev, symObjAddr: 0x2C0, symBinAddr: 0x4FC10, symSize: 0x50 }
  - { offset: 0x12528B, size: 0x8, addend: 0x0, symName: __ZN6VSTGUI12CDrawContext12popTransformEv, symObjAddr: 0x320, symBinAddr: 0x4FC60, symSize: 0x110 }
  - { offset: 0x1257CD, size: 0x8, addend: 0x0, symName: __ZN6VSTGUI12CDrawContext9TransformD1Ev, symObjAddr: 0x430, symBinAddr: 0x4FD70, symSize: 0x50 }
  - { offset: 0x125A9E, size: 0x8, addend: 0x0, symName: __ZN6VSTGUI12CDrawContext4Impl5StateC2ERKS2_, symObjAddr: 0x480, symBinAddr: 0x4FDC0, symSize: 0xB0 }
  - { offset: 0x125DB5, size: 0x8, addend: 0x0, symName: __ZN6VSTGUI12CDrawContext4Impl5StateaSERKS2_, symObjAddr: 0x530, symBinAddr: 0x4FE70, symSize: 0xB0 }
  - { offset: 0x125F2C, size: 0x8, addend: 0x0, symName: __ZN6VSTGUI12CDrawContext4Impl5StateC1ERKS2_, symObjAddr: 0x5E0, symBinAddr: 0x4FF20, symSize: 0x10 }
  - { offset: 0x125F70, size: 0x8, addend: 0x0, symName: __ZN6VSTGUI12CDrawContext4Impl5StateC2EOS2_, symObjAddr: 0x5F0, symBinAddr: 0x4FF30, symSize: 0x90 }
  - { offset: 0x1260AB, size: 0x8, addend: 0x0, symName: __ZN6VSTGUI12CDrawContext4Impl5StateaSEOS2_, symObjAddr: 0x680, symBinAddr: 0x4FFC0, symSize: 0xA0 }
  - { offset: 0x1261D0, size: 0x8, addend: 0x0, symName: __ZN6VSTGUI12CDrawContext4Impl5StateC1EOS2_, symObjAddr: 0x720, symBinAddr: 0x50060, symSize: 0x90 }
  - { offset: 0x126813, size: 0x8, addend: 0x0, symName: __ZN6VSTGUI12CDrawContextC2ERKNS_5CRectE, symObjAddr: 0x7B0, symBinAddr: 0x500F0, symSize: 0x250 }
  - { offset: 0x126EA2, size: 0x8, addend: 0x0, symName: __ZN6VSTGUI12CDrawContext4ImplD2Ev, symObjAddr: 0x3640, symBinAddr: 0x52F00, symSize: 0xF0 }
  - { offset: 0x1274AF, size: 0x8, addend: 0x0, symName: __ZNSt3__110unique_ptrIN6VSTGUI12CDrawContext4ImplENS_14default_deleteIS3_EEED1B8ne180100Ev, symObjAddr: 0xA00, symBinAddr: 0x50340, symSize: 0x40 }
  - { offset: 0x127589, size: 0x8, addend: 0x0, symName: __ZN6VSTGUI12CDrawContextC1ERKNS_5CRectE, symObjAddr: 0xA40, symBinAddr: 0x50380, symSize: 0x230 }
  - { offset: 0x127D3E, size: 0x8, addend: 0x0, symName: __ZN6VSTGUI12CDrawContextC2ENSt3__110shared_ptrINS_30IPlatformGraphicsDeviceContextEEERKNS_5CRectEd, symObjAddr: 0xC70, symBinAddr: 0x505B0, symSize: 0xC0 }
  - { offset: 0x127FD9, size: 0x8, addend: 0x0, symName: __ZN6VSTGUI12CDrawContext11setClipRectERKNS_5CRectE, symObjAddr: 0xD30, symBinAddr: 0x50670, symSize: 0x150 }
  - { offset: 0x128206, size: 0x8, addend: 0x0, symName: __ZN6VSTGUI12CDrawContextD2Ev, symObjAddr: 0xE80, symBinAddr: 0x507C0, symSize: 0xA0 }
  - { offset: 0x1286D5, size: 0x8, addend: 0x0, symName: __ZN6VSTGUI12CDrawContextC1ENSt3__110shared_ptrINS_30IPlatformGraphicsDeviceContextEEERKNS_5CRectEd, symObjAddr: 0xF20, symBinAddr: 0x50860, symSize: 0xB0 }
  - { offset: 0x128972, size: 0x8, addend: 0x0, symName: __ZN6VSTGUI12CDrawContextD1Ev, symObjAddr: 0xFD0, symBinAddr: 0x50910, symSize: 0x20 }
  - { offset: 0x1289A8, size: 0x8, addend: 0x0, symName: __ZN6VSTGUI12CDrawContextD0Ev, symObjAddr: 0xFF0, symBinAddr: 0x50930, symSize: 0x30 }
  - { offset: 0x128A07, size: 0x8, addend: 0x0, symName: __ZNK6VSTGUI12CDrawContext24getPlatformDeviceContextEv, symObjAddr: 0x1020, symBinAddr: 0x50960, symSize: 0x10 }
  - { offset: 0x128A2E, size: 0x8, addend: 0x0, symName: __ZNK6VSTGUI12CDrawContext14getSurfaceRectEv, symObjAddr: 0x1030, symBinAddr: 0x50970, symSize: 0x10 }
  - { offset: 0x128A6D, size: 0x8, addend: 0x0, symName: __ZNK6VSTGUI12CDrawContext14getScaleFactorEv, symObjAddr: 0x1040, symBinAddr: 0x50980, symSize: 0x10 }
  - { offset: 0x128B82, size: 0x8, addend: 0x0, symName: __ZN6VSTGUI12CDrawContext4initEv, symObjAddr: 0x1050, symBinAddr: 0x50990, symSize: 0x160 }
  - { offset: 0x128F87, size: 0x8, addend: 0x0, symName: __ZN6VSTGUI12CDrawContext7setFontEPNS_9CFontDescERKdRKi, symObjAddr: 0x12F0, symBinAddr: 0x50C30, symSize: 0x120 }
  - { offset: 0x12911D, size: 0x8, addend: 0x0, symName: __ZN6VSTGUI12CDrawContext13setFrameColorERKNS_6CColorE, symObjAddr: 0x11B0, symBinAddr: 0x50AF0, symSize: 0x50 }
  - { offset: 0x129242, size: 0x8, addend: 0x0, symName: __ZN6VSTGUI12CDrawContext12setLineStyleERKNS_10CLineStyleE, symObjAddr: 0x1200, symBinAddr: 0x50B40, symSize: 0x40 }
  - { offset: 0x1292F4, size: 0x8, addend: 0x0, symName: __ZN6VSTGUI12CDrawContext12setLineWidthEd, symObjAddr: 0x1240, symBinAddr: 0x50B80, symSize: 0x50 }
  - { offset: 0x1293A8, size: 0x8, addend: 0x0, symName: __ZN6VSTGUI12CDrawContext12setFillColorERKNS_6CColorE, symObjAddr: 0x1290, symBinAddr: 0x50BD0, symSize: 0x50 }
  - { offset: 0x1294CD, size: 0x8, addend: 0x0, symName: __ZN6VSTGUI12CDrawContext12setFontColorERKNS_6CColorE, symObjAddr: 0x12E0, symBinAddr: 0x50C20, symSize: 0x10 }
  - { offset: 0x129555, size: 0x8, addend: 0x0, symName: __ZN6VSTGUI12CDrawContext11setDrawModeENS_9CDrawModeE, symObjAddr: 0x1410, symBinAddr: 0x50D50, symSize: 0x40 }
  - { offset: 0x1297CA, size: 0x8, addend: 0x0, symName: __ZN6VSTGUI12CDrawContext15saveGlobalStateEv, symObjAddr: 0x1450, symBinAddr: 0x50D90, symSize: 0xF0 }
  - { offset: 0x129A4D, size: 0x8, addend: 0x0, symName: __ZNSt3__15dequeIN6VSTGUI12CDrawContext4Impl5StateENS_9allocatorIS4_EEE19__add_back_capacityEv, symObjAddr: 0x4480, symBinAddr: 0x53950, symSize: 0x720 }
  - { offset: 0x12AE38, size: 0x8, addend: 0x0, symName: __ZN6VSTGUI12CDrawContext18restoreGlobalStateEv, symObjAddr: 0x1540, symBinAddr: 0x50E80, symSize: 0xB0 }
  - { offset: 0x12AFDC, size: 0x8, addend: 0x0, symName: __ZNSt3__15dequeIN6VSTGUI12CDrawContext4Impl5StateENS_9allocatorIS4_EEE8pop_backEv, symObjAddr: 0x4F50, symBinAddr: 0x54070, symSize: 0xD8 }
  - { offset: 0x12B41D, size: 0x8, addend: 0x0, symName: __ZN6VSTGUI12CDrawContext29setBitmapInterpolationQualityENS_26BitmapInterpolationQualityE, symObjAddr: 0x15F0, symBinAddr: 0x50F30, symSize: 0x10 }
  - { offset: 0x12B471, size: 0x8, addend: 0x0, symName: __ZNK6VSTGUI12CDrawContext29getBitmapInterpolationQualityEv, symObjAddr: 0x1600, symBinAddr: 0x50F40, symSize: 0x10 }
  - { offset: 0x12B4B0, size: 0x8, addend: 0x0, symName: __ZNK6VSTGUI12CDrawContext12getLineStyleEv, symObjAddr: 0x1610, symBinAddr: 0x50F50, symSize: 0x10 }
  - { offset: 0x12B4F6, size: 0x8, addend: 0x0, symName: __ZNK6VSTGUI12CDrawContext12getLineWidthEv, symObjAddr: 0x1620, symBinAddr: 0x50F60, symSize: 0x10 }
  - { offset: 0x12B53C, size: 0x8, addend: 0x0, symName: __ZNK6VSTGUI12CDrawContext11getDrawModeEv, symObjAddr: 0x1630, symBinAddr: 0x50F70, symSize: 0x10 }
  - { offset: 0x12B5AE, size: 0x8, addend: 0x0, symName: __ZNK6VSTGUI12CDrawContext11getClipRectERNS_5CRectE, symObjAddr: 0x1640, symBinAddr: 0x50F80, symSize: 0x180 }
  - { offset: 0x12B7A9, size: 0x8, addend: 0x0, symName: __ZNK6VSTGUI12CDrawContext19getCurrentTransformEv, symObjAddr: 0x17C0, symBinAddr: 0x51100, symSize: 0x50 }
  - { offset: 0x12B870, size: 0x8, addend: 0x0, symName: __ZNK6VSTGUI12CDrawContext19getAbsoluteClipRectEv, symObjAddr: 0x1810, symBinAddr: 0x51150, symSize: 0x10 }
  - { offset: 0x12B8CE, size: 0x8, addend: 0x0, symName: __ZN6VSTGUI12CDrawContext13resetClipRectEv, symObjAddr: 0x1820, symBinAddr: 0x51160, symSize: 0x60 }
  - { offset: 0x12B98C, size: 0x8, addend: 0x0, symName: __ZNK6VSTGUI12CDrawContext12getFillColorEv, symObjAddr: 0x1880, symBinAddr: 0x511C0, symSize: 0x20 }
  - { offset: 0x12BA1F, size: 0x8, addend: 0x0, symName: __ZNK6VSTGUI12CDrawContext13getFrameColorEv, symObjAddr: 0x18A0, symBinAddr: 0x511E0, symSize: 0x20 }
  - { offset: 0x12BAB2, size: 0x8, addend: 0x0, symName: __ZNK6VSTGUI12CDrawContext12getFontColorEv, symObjAddr: 0x18C0, symBinAddr: 0x51200, symSize: 0x20 }
  - { offset: 0x12BB5B, size: 0x8, addend: 0x0, symName: __ZNK6VSTGUI12CDrawContext7getFontEv, symObjAddr: 0x18E0, symBinAddr: 0x51220, symSize: 0x10 }
  - { offset: 0x12BBC1, size: 0x8, addend: 0x0, symName: __ZN6VSTGUI12CDrawContext14setGlobalAlphaEf, symObjAddr: 0x18F0, symBinAddr: 0x51230, symSize: 0x50 }
  - { offset: 0x12BC7C, size: 0x8, addend: 0x0, symName: __ZNK6VSTGUI12CDrawContext14getGlobalAlphaEv, symObjAddr: 0x1940, symBinAddr: 0x51280, symSize: 0x20 }
  - { offset: 0x12BCC3, size: 0x8, addend: 0x0, symName: __ZN6VSTGUI12CDrawContext13getDrawStringEPKc, symObjAddr: 0x1960, symBinAddr: 0x512A0, symSize: 0x70 }
  - { offset: 0x12BD39, size: 0x8, addend: 0x0, symName: __ZN6VSTGUI12CDrawContext15clearDrawStringEv, symObjAddr: 0x19D0, symBinAddr: 0x51310, symSize: 0x20 }
  - { offset: 0x12BD7A, size: 0x8, addend: 0x0, symName: __ZN6VSTGUI12CDrawContext14getStringWidthEPNS_15IPlatformStringE, symObjAddr: 0x19F0, symBinAddr: 0x51330, symSize: 0x60 }
  - { offset: 0x12BE9F, size: 0x8, addend: 0x0, symName: __ZN6VSTGUI12CDrawContext10drawStringEPNS_15IPlatformStringERKNS_5CRectENS_13CHoriTxtAlignEb, symObjAddr: 0x1A50, symBinAddr: 0x51390, symSize: 0x1F0 }
  - { offset: 0x12C19A, size: 0x8, addend: 0x0, symName: __ZN6VSTGUI12CDrawContext10drawStringEPNS_15IPlatformStringERKNS_6CPointEb, symObjAddr: 0x1C40, symBinAddr: 0x51580, symSize: 0x70 }
  - { offset: 0x12C2B6, size: 0x8, addend: 0x0, symName: __ZN6VSTGUI12CDrawContext14getStringWidthEPKc, symObjAddr: 0x1CB0, symBinAddr: 0x515F0, symSize: 0xC0 }
  - { offset: 0x12C41F, size: 0x8, addend: 0x0, symName: __ZN6VSTGUI12CDrawContext10drawStringEPKcRKNS_6CPointEb, symObjAddr: 0x1D70, symBinAddr: 0x516B0, symSize: 0xE0 }
  - { offset: 0x12C587, size: 0x8, addend: 0x0, symName: __ZN6VSTGUI12CDrawContext10drawStringEPKcRKNS_5CRectENS_13CHoriTxtAlignEb, symObjAddr: 0x1E50, symBinAddr: 0x51790, symSize: 0xC0 }
  - { offset: 0x12C80E, size: 0x8, addend: 0x0, symName: __ZN6VSTGUI12CDrawContext18fillRectWithBitmapEPNS_7CBitmapERKNS_5CRectES5_f, symObjAddr: 0x1F10, symBinAddr: 0x51850, symSize: 0x580 }
  - { offset: 0x12CF56, size: 0x8, addend: 0x0, symName: __ZN6VSTGUI12CDrawContext10drawBitmapEPNS_7CBitmapERKNS_5CRectERKNS_6CPointEf, symObjAddr: 0x2490, symBinAddr: 0x51DD0, symSize: 0x160 }
  - { offset: 0x12D223, size: 0x8, addend: 0x0, symName: __ZN6VSTGUI12CDrawContext23drawBitmapNinePartTiledEPNS_7CBitmapERKNS_5CRectERKNS_25CNinePartTiledDescriptionEf, symObjAddr: 0x25F0, symBinAddr: 0x51F30, symSize: 0x5F0 }
  - { offset: 0x12D953, size: 0x8, addend: 0x0, symName: __ZN6VSTGUI12CDrawContext27createRoundRectGraphicsPathERKNS_5CRectEd, symObjAddr: 0x2BE0, symBinAddr: 0x52520, symSize: 0x40 }
  - { offset: 0x12D9CB, size: 0x8, addend: 0x0, symName: __ZN6VSTGUI12CDrawContext18createGraphicsPathEv, symObjAddr: 0x2C20, symBinAddr: 0x52560, symSize: 0xF0 }
  - { offset: 0x12DED6, size: 0x8, addend: 0x0, symName: __ZNSt3__110shared_ptrIN6VSTGUI28IPlatformGraphicsPathFactoryEED1B8ne180100Ev, symObjAddr: 0x33C0, symBinAddr: 0x52D00, symSize: 0x40 }
  - { offset: 0x12DF71, size: 0x8, addend: 0x0, symName: __ZNK6VSTGUI12CDrawContext15getHairlineSizeEv, symObjAddr: 0x2D10, symBinAddr: 0x52650, symSize: 0x70 }
  - { offset: 0x12E077, size: 0x8, addend: 0x0, symName: __ZN6VSTGUI12CDrawContext8drawLineERKNSt3__14pairINS_6CPointES3_EE, symObjAddr: 0x2D80, symBinAddr: 0x526C0, symSize: 0x40 }
  - { offset: 0x12E11C, size: 0x8, addend: 0x0, symName: __ZN6VSTGUI12CDrawContext9drawLinesERKNSt3__16vectorINS1_4pairINS_6CPointES4_EENS1_9allocatorIS5_EEEE, symObjAddr: 0x2DC0, symBinAddr: 0x52700, symSize: 0x20 }
  - { offset: 0x12E1C0, size: 0x8, addend: 0x0, symName: __ZN6VSTGUI12CDrawContext11drawPolygonERKNSt3__16vectorINS_6CPointENS1_9allocatorIS3_EEEENS_10CDrawStyleE, symObjAddr: 0x2DE0, symBinAddr: 0x52720, symSize: 0x30 }
  - { offset: 0x12E292, size: 0x8, addend: 0x0, symName: __ZN6VSTGUI12CDrawContext8drawRectERKNS_5CRectENS_10CDrawStyleE, symObjAddr: 0x2E10, symBinAddr: 0x52750, symSize: 0x40 }
  - { offset: 0x12E34D, size: 0x8, addend: 0x0, symName: __ZN6VSTGUI12CDrawContext7drawArcERKNS_5CRectEffNS_10CDrawStyleE, symObjAddr: 0x2E50, symBinAddr: 0x52790, symSize: 0x50 }
  - { offset: 0x12E442, size: 0x8, addend: 0x0, symName: __ZN6VSTGUI12CDrawContext11drawEllipseERKNS_5CRectENS_10CDrawStyleE, symObjAddr: 0x2EA0, symBinAddr: 0x527E0, symSize: 0x40 }
  - { offset: 0x12E5A3, size: 0x8, addend: 0x0, symName: __ZN6VSTGUI12CDrawContext9drawPointERKNS_6CPointERKNS_6CColorE, symObjAddr: 0x2EE0, symBinAddr: 0x52820, symSize: 0x290 }
  - { offset: 0x12ECE5, size: 0x8, addend: 0x0, symName: __ZN6VSTGUI12CDrawContext9clearRectERKNS_5CRectE, symObjAddr: 0x3170, symBinAddr: 0x52AB0, symSize: 0x40 }
  - { offset: 0x12EDA5, size: 0x8, addend: 0x0, symName: __ZN6VSTGUI12CDrawContext16drawGraphicsPathEPNS_13CGraphicsPathENS0_12PathDrawModeEPNS_18CGraphicsTransformE, symObjAddr: 0x31B0, symBinAddr: 0x52AF0, symSize: 0x80 }
  - { offset: 0x12EEFE, size: 0x8, addend: 0x0, symName: __ZN6VSTGUI12CDrawContext18fillLinearGradientEPNS_13CGraphicsPathERKNS_9CGradientERKNS_6CPointES8_bPNS_18CGraphicsTransformE, symObjAddr: 0x3230, symBinAddr: 0x52B70, symSize: 0xC0 }
  - { offset: 0x12F093, size: 0x8, addend: 0x0, symName: __ZN6VSTGUI12CDrawContext18fillRadialGradientEPNS_13CGraphicsPathERKNS_9CGradientERKNS_6CPointEdS8_bPNS_18CGraphicsTransformE, symObjAddr: 0x32F0, symBinAddr: 0x52C30, symSize: 0xD0 }
  - { offset: 0x12F26A, size: 0x8, addend: 0x0, symName: __ZN6VSTGUI12CDrawContext14createTextPathEPNS_9CFontDescEPKc, symObjAddr: 0x3400, symBinAddr: 0x52D40, symSize: 0x180 }
  - { offset: 0x12F679, size: 0x8, addend: 0x0, symName: __ZN6VSTGUI12CDrawContext9beginDrawEv, symObjAddr: 0x3580, symBinAddr: 0x52EC0, symSize: 0x20 }
  - { offset: 0x12F70E, size: 0x8, addend: 0x0, symName: __ZN6VSTGUI12CDrawContext7endDrawEv, symObjAddr: 0x35A0, symBinAddr: 0x52EE0, symSize: 0x20 }
  - { offset: 0x12FA18, size: 0x8, addend: 0x0, symName: __ZNSt3__15dequeIN6VSTGUI18CGraphicsTransformENS_9allocatorIS2_EEED2B8ne180100Ev, symObjAddr: 0x3730, symBinAddr: 0x52FF0, symSize: 0xD0 }
  - { offset: 0x12FE1C, size: 0x8, addend: 0x0, symName: __ZNSt3__15dequeIN6VSTGUI12CDrawContext4Impl5StateENS_9allocatorIS4_EEE5clearEv, symObjAddr: 0x3800, symBinAddr: 0x530C0, symSize: 0x170 }
  - { offset: 0x13817B, size: 0x8, addend: 0x0, symName: __ZN6VSTGUI12CDrawMethods19createTruncatedTextENS0_16TextTruncateModeERKNS_10UTF8StringEPNS_9CFontDescEdRKNS_6CPointEj, symObjAddr: 0x0, symBinAddr: 0x54150, symSize: 0x5B0 }
  - { offset: 0x1391E2, size: 0x8, addend: 0x0, symName: __ZN6VSTGUI12CDrawMethods15drawIconAndTextEPNS_12CDrawContextEPNS_7CBitmapENS0_12IconPositionENS_13CHoriTxtAlignEdNS_5CRectERKNS_10UTF8StringEPNS_9CFontDescENS_6CColorENS0_16TextTruncateModeE, symObjAddr: 0x630, symBinAddr: 0x54740, symSize: 0x520 }
  - { offset: 0x13B5BB, size: 0x8, addend: 0x0, symName: __ZNSt3__110shared_ptrIN6VSTGUI30IPlatformGraphicsDeviceContextEED1B8ne180100Ev, symObjAddr: 0x5B0, symBinAddr: 0x54700, symSize: 0x40 }
  - { offset: 0x13D82A, size: 0x8, addend: 0x0, symName: __ZN6VSTGUIL25PlatformAllFilesExtensionE, symObjAddr: 0x8A558, symBinAddr: 0x1CF8C0, symSize: 0x0 }
  - { offset: 0x13DC69, size: 0x8, addend: 0x0, symName: __ZN6VSTGUIL23PlatformNoFileExtensionE, symObjAddr: 0x8A5E0, symBinAddr: 0x1CF948, symSize: 0x0 }
  - { offset: 0x140365, size: 0x8, addend: 0x0, symName: __ZN6VSTGUI16CNewFileSelector17kSelectEndMessageE, symObjAddr: 0x3320, symBinAddr: 0x1CE2D0, symSize: 0x0 }
  - { offset: 0x14CCD9, size: 0x8, addend: 0x0, symName: __ZN6VSTGUI16CNewFileSelector20getAllFilesExtensionEv, symObjAddr: 0x8E0, symBinAddr: 0x554D0, symSize: 0x90 }
  - { offset: 0x14CCFB, size: 0x8, addend: 0x0, symName: __ZZN6VSTGUI16CNewFileSelector20getAllFilesExtensionEvE17allFilesExtension, symObjAddr: 0x8A668, symBinAddr: 0x1CF9D0, symSize: 0x0 }
  - { offset: 0x14CD1E, size: 0x8, addend: 0x0, symName: __ZN6VSTGUI16CNewFileSelector3runEPNS_11CBaseObjectE, symObjAddr: 0xC40, symBinAddr: 0x55830, symSize: 0xF0 }
  - { offset: 0x14D39C, size: 0x8, addend: 0x0, symName: __ZN6VSTGUI16CNewFileSelector3runEONSt3__18functionIFvPS0_EEE, symObjAddr: 0xD30, symBinAddr: 0x55920, symSize: 0x2B0 }
  - { offset: 0x14DF8E, size: 0x8, addend: 0x0, symName: __ZN6VSTGUI16CNewFileSelector8runModalEv, symObjAddr: 0x1010, symBinAddr: 0x55BF0, symSize: 0xC0 }
  - { offset: 0x14E52E, size: 0x8, addend: 0x0, symName: __ZN6VSTGUI21PlatformFileExtensionD1Ev, symObjAddr: 0x0, symBinAddr: 0x54C60, symSize: 0x10 }
  - { offset: 0x14E564, size: 0x8, addend: 0x0, symName: __ZN6VSTGUI21PlatformFileExtensionD2Ev, symObjAddr: 0x1670, symBinAddr: 0x56150, symSize: 0xB0 }
  - { offset: 0x14ED77, size: 0x8, addend: 0x0, symName: __ZN6VSTGUI14CFileExtensionC2Ev, symObjAddr: 0x10, symBinAddr: 0x54C70, symSize: 0xC0 }
  - { offset: 0x14EF49, size: 0x8, addend: 0x0, symName: __ZN6VSTGUI14CFileExtension4ImplC2Ev, symObjAddr: 0x1720, symBinAddr: 0x56200, symSize: 0xD0 }
  - { offset: 0x14F32E, size: 0x8, addend: 0x0, symName: __ZNSt3__110unique_ptrIN6VSTGUI14CFileExtension4ImplENS_14default_deleteIS3_EEED1B8ne180100Ev, symObjAddr: 0xD0, symBinAddr: 0x54D30, symSize: 0x40 }
  - { offset: 0x14F460, size: 0x8, addend: 0x0, symName: __ZN6VSTGUI14CFileExtensionC1Ev, symObjAddr: 0x110, symBinAddr: 0x54D70, symSize: 0xD0 }
  - { offset: 0x14F766, size: 0x8, addend: 0x0, symName: __ZN6VSTGUI14CFileExtensionC2ERKNS_10UTF8StringES3_S3_iS3_, symObjAddr: 0x1E0, symBinAddr: 0x54E40, symSize: 0x120 }
  - { offset: 0x14FB1A, size: 0x8, addend: 0x0, symName: __ZN6VSTGUI14CFileExtension4initERKNS_10UTF8StringES3_S3_S3_, symObjAddr: 0x300, symBinAddr: 0x54F60, symSize: 0x60 }
  - { offset: 0x14FBF1, size: 0x8, addend: 0x0, symName: __ZN6VSTGUI14CFileExtensionC1ERKNS_10UTF8StringES3_S3_iS3_, symObjAddr: 0x3A0, symBinAddr: 0x54FC0, symSize: 0x90 }
  - { offset: 0x14FD50, size: 0x8, addend: 0x0, symName: __ZN6VSTGUI14CFileExtensionD1Ev, symObjAddr: 0x430, symBinAddr: 0x55050, symSize: 0x40 }
  - { offset: 0x14FEED, size: 0x8, addend: 0x0, symName: __ZN6VSTGUI14CFileExtensionC2ERKS0_, symObjAddr: 0x470, symBinAddr: 0x55090, symSize: 0x110 }
  - { offset: 0x15017E, size: 0x8, addend: 0x0, symName: __ZN6VSTGUI14CFileExtensionC1ERKS0_, symObjAddr: 0x580, symBinAddr: 0x551A0, symSize: 0x80 }
  - { offset: 0x1502CC, size: 0x8, addend: 0x0, symName: __ZN6VSTGUI14CFileExtensionC2EOS0_, symObjAddr: 0x600, symBinAddr: 0x55220, symSize: 0x20 }
  - { offset: 0x15043F, size: 0x8, addend: 0x0, symName: __ZN6VSTGUI14CFileExtensionaSEOS0_, symObjAddr: 0x620, symBinAddr: 0x55240, symSize: 0x20 }
  - { offset: 0x150529, size: 0x8, addend: 0x0, symName: __ZNK6VSTGUI14CFileExtensioneqERKS0_, symObjAddr: 0x660, symBinAddr: 0x55260, symSize: 0x90 }
  - { offset: 0x15065A, size: 0x8, addend: 0x0, symName: __ZNK6VSTGUI14CFileExtension14getDescriptionEv, symObjAddr: 0x6F0, symBinAddr: 0x552F0, symSize: 0x10 }
  - { offset: 0x15069E, size: 0x8, addend: 0x0, symName: __ZNK6VSTGUI14CFileExtension12getExtensionEv, symObjAddr: 0x700, symBinAddr: 0x55300, symSize: 0x10 }
  - { offset: 0x1506E2, size: 0x8, addend: 0x0, symName: __ZNK6VSTGUI14CFileExtension11getMimeTypeEv, symObjAddr: 0x710, symBinAddr: 0x55310, symSize: 0x10 }
  - { offset: 0x150726, size: 0x8, addend: 0x0, symName: __ZNK6VSTGUI14CFileExtension6getUTIEv, symObjAddr: 0x720, symBinAddr: 0x55320, symSize: 0x10 }
  - { offset: 0x15076A, size: 0x8, addend: 0x0, symName: __ZNK6VSTGUI14CFileExtension10getMacTypeEv, symObjAddr: 0x730, symBinAddr: 0x55330, symSize: 0x10 }
  - { offset: 0x1507AE, size: 0x8, addend: 0x0, symName: __ZN6VSTGUI14CFileExtensionC2ERKNS_21PlatformFileExtensionE, symObjAddr: 0x740, symBinAddr: 0x55340, symSize: 0x110 }
  - { offset: 0x150A4E, size: 0x8, addend: 0x0, symName: __ZN6VSTGUI14CFileExtensionC1ERKNS_21PlatformFileExtensionE, symObjAddr: 0x850, symBinAddr: 0x55450, symSize: 0x80 }
  - { offset: 0x150E5E, size: 0x8, addend: 0x0, symName: __ZN6VSTGUI16CNewFileSelectorC2EONSt3__110shared_ptrINS_21IPlatformFileSelectorEEEPNS_6CFrameE, symObjAddr: 0x970, symBinAddr: 0x55560, symSize: 0x130 }
  - { offset: 0x151221, size: 0x8, addend: 0x0, symName: __ZN6VSTGUI16CNewFileSelector4ImplC2Ev, symObjAddr: 0x19D0, symBinAddr: 0x564B0, symSize: 0x120 }
  - { offset: 0x151786, size: 0x8, addend: 0x0, symName: __ZNKSt3__114default_deleteIN6VSTGUI16CNewFileSelector4ImplEEclB8ne180100EPS3_, symObjAddr: 0x17F0, symBinAddr: 0x562D0, symSize: 0xD0 }
  - { offset: 0x151B57, size: 0x8, addend: 0x0, symName: __ZN6VSTGUI16CNewFileSelectorC1EONSt3__110shared_ptrINS_21IPlatformFileSelectorEEEPNS_6CFrameE, symObjAddr: 0xAA0, symBinAddr: 0x55690, symSize: 0x100 }
  - { offset: 0x151EFA, size: 0x8, addend: 0x0, symName: __ZN6VSTGUI16CNewFileSelectorD2Ev, symObjAddr: 0xBA0, symBinAddr: 0x55790, symSize: 0x30 }
  - { offset: 0x151FAE, size: 0x8, addend: 0x0, symName: __ZN6VSTGUI16CNewFileSelectorD1Ev, symObjAddr: 0xBD0, symBinAddr: 0x557C0, symSize: 0x30 }
  - { offset: 0x15206E, size: 0x8, addend: 0x0, symName: __ZN6VSTGUI16CNewFileSelectorD0Ev, symObjAddr: 0xC00, symBinAddr: 0x557F0, symSize: 0x40 }
  - { offset: 0x152676, size: 0x8, addend: 0x0, symName: __ZNSt3__110__function12__value_funcIFvONS_6vectorIN6VSTGUI10UTF8StringENS_9allocatorIS4_EEEEEE4swapB8ne180100ERSA_, symObjAddr: 0x1E90, symBinAddr: 0x56930, symSize: 0x140 }
  - { offset: 0x152D80, size: 0x8, addend: 0x0, symName: __ZN6VSTGUI16CNewFileSelector6cancelEv, symObjAddr: 0xFF0, symBinAddr: 0x55BD0, symSize: 0x20 }
  - { offset: 0x153149, size: 0x8, addend: 0x0, symName: __ZN6VSTGUI16CNewFileSelector8setTitleERKNS_10UTF8StringE, symObjAddr: 0x10D0, symBinAddr: 0x55CB0, symSize: 0x10 }
  - { offset: 0x15319F, size: 0x8, addend: 0x0, symName: __ZN6VSTGUI16CNewFileSelector19setInitialDirectoryERKNS_10UTF8StringE, symObjAddr: 0x10E0, symBinAddr: 0x55CC0, symSize: 0x20 }
  - { offset: 0x1531F5, size: 0x8, addend: 0x0, symName: __ZN6VSTGUI16CNewFileSelector18setDefaultSaveNameERKNS_10UTF8StringE, symObjAddr: 0x1100, symBinAddr: 0x55CE0, symSize: 0x20 }
  - { offset: 0x15324B, size: 0x8, addend: 0x0, symName: __ZN6VSTGUI16CNewFileSelector26setAllowMultiFileSelectionEb, symObjAddr: 0x1120, symBinAddr: 0x55D00, symSize: 0x20 }
  - { offset: 0x1534AB, size: 0x8, addend: 0x0, symName: __ZN6VSTGUI16CNewFileSelector19setDefaultExtensionERKNS_14CFileExtensionE, symObjAddr: 0x1140, symBinAddr: 0x55D20, symSize: 0x200 }
  - { offset: 0x153839, size: 0x8, addend: 0x0, symName: __ZN6VSTGUI21PlatformFileExtensionC1ERKS0_, symObjAddr: 0x2730, symBinAddr: 0x57160, symSize: 0xE0 }
  - { offset: 0x153C31, size: 0x8, addend: 0x0, symName: __ZNSt3__16vectorIN6VSTGUI21PlatformFileExtensionENS_9allocatorIS2_EEE24__emplace_back_slow_pathIJRKS2_EEEPS2_DpOT_, symObjAddr: 0x2520, symBinAddr: 0x56F50, symSize: 0x210 }
  - { offset: 0x1542CE, size: 0x8, addend: 0x0, symName: __ZN6VSTGUI16CNewFileSelector16addFileExtensionERKNS_14CFileExtensionE, symObjAddr: 0x1340, symBinAddr: 0x55F20, symSize: 0x50 }
  - { offset: 0x15458D, size: 0x8, addend: 0x0, symName: __ZN6VSTGUI16CNewFileSelector16addFileExtensionEONS_14CFileExtensionE, symObjAddr: 0x1390, symBinAddr: 0x55F70, symSize: 0x50 }
  - { offset: 0x154758, size: 0x8, addend: 0x0, symName: __ZNSt3__16vectorIN6VSTGUI21PlatformFileExtensionENS_9allocatorIS2_EEE24__emplace_back_slow_pathIJKS2_EEEPS2_DpOT_, symObjAddr: 0x28F0, symBinAddr: 0x572A0, symSize: 0x210 }
  - { offset: 0x154E10, size: 0x8, addend: 0x0, symName: __ZNK6VSTGUI16CNewFileSelector19getNumSelectedFilesEv, symObjAddr: 0x13E0, symBinAddr: 0x55FC0, symSize: 0x20 }
  - { offset: 0x154F3F, size: 0x8, addend: 0x0, symName: __ZNK6VSTGUI16CNewFileSelector15getSelectedFileEj, symObjAddr: 0x1400, symBinAddr: 0x55FE0, symSize: 0x50 }
  - { offset: 0x15509E, size: 0x8, addend: 0x0, symName: __ZN6VSTGUI16CNewFileSelector6createEPNS_6CFrameENS0_5StyleE, symObjAddr: 0x1450, symBinAddr: 0x56030, symSize: 0x110 }
  - { offset: 0x155333, size: 0x8, addend: 0x0, symName: __ZNK6VSTGUI16CNewFileSelector7newCopyEv, symObjAddr: 0x1650, symBinAddr: 0x56140, symSize: 0x10 }
  - { offset: 0x155495, size: 0x8, addend: 0x0, symName: __ZN6VSTGUI14CFileExtension4ImplC2Ev.cold.1, symObjAddr: 0x2B00, symBinAddr: 0x177000, symSize: 0x20 }
  - { offset: 0x155758, size: 0x8, addend: 0x0, symName: __ZN6VSTGUI26PlatformFileSelectorConfigD2Ev, symObjAddr: 0x18C0, symBinAddr: 0x563A0, symSize: 0x110 }
  - { offset: 0x1560A5, size: 0x8, addend: 0x0, symName: __ZN6VSTGUI21PlatformFileExtensionC1Ev, symObjAddr: 0x1AF0, symBinAddr: 0x565D0, symSize: 0xD0 }
  - { offset: 0x15648A, size: 0x8, addend: 0x0, symName: __ZN6VSTGUI16CNewFileSelector4ImplC2Ev.cold.2, symObjAddr: 0x2B40, symBinAddr: 0x177020, symSize: 0x50 }
  - { offset: 0x156881, size: 0x8, addend: 0x0, symName: '__ZNSt3__110__function6__funcIZN6VSTGUI16CNewFileSelector3runEPNS2_11CBaseObjectEE3$_0NS_9allocatorIS6_EEFvONS_6vectorINS2_10UTF8StringENS7_ISA_EEEEEED1Ev', symObjAddr: 0x1BC0, symBinAddr: 0x566A0, symSize: 0x30 }
  - { offset: 0x15695F, size: 0x8, addend: 0x0, symName: '__ZNSt3__110__function6__funcIZN6VSTGUI16CNewFileSelector3runEPNS2_11CBaseObjectEE3$_0NS_9allocatorIS6_EEFvONS_6vectorINS2_10UTF8StringENS7_ISA_EEEEEED0Ev', symObjAddr: 0x1BF0, symBinAddr: 0x566D0, symSize: 0x40 }
  - { offset: 0x156CB8, size: 0x8, addend: 0x0, symName: '__ZNKSt3__110__function6__funcIZN6VSTGUI16CNewFileSelector3runEPNS2_11CBaseObjectEE3$_0NS_9allocatorIS6_EEFvONS_6vectorINS2_10UTF8StringENS7_ISA_EEEEEE7__cloneEv', symObjAddr: 0x1C30, symBinAddr: 0x56710, symSize: 0x50 }
  - { offset: 0x156FDE, size: 0x8, addend: 0x0, symName: '__ZNKSt3__110__function6__funcIZN6VSTGUI16CNewFileSelector3runEPNS2_11CBaseObjectEE3$_0NS_9allocatorIS6_EEFvONS_6vectorINS2_10UTF8StringENS7_ISA_EEEEEE7__cloneEPNS0_6__baseISE_EE', symObjAddr: 0x1C80, symBinAddr: 0x56760, symSize: 0x40 }
  - { offset: 0x15713A, size: 0x8, addend: 0x0, symName: '__ZNSt3__110__function6__funcIZN6VSTGUI16CNewFileSelector3runEPNS2_11CBaseObjectEE3$_0NS_9allocatorIS6_EEFvONS_6vectorINS2_10UTF8StringENS7_ISA_EEEEEE7destroyEv', symObjAddr: 0x1CC0, symBinAddr: 0x567A0, symSize: 0x20 }
  - { offset: 0x15720B, size: 0x8, addend: 0x0, symName: '__ZNSt3__110__function6__funcIZN6VSTGUI16CNewFileSelector3runEPNS2_11CBaseObjectEE3$_0NS_9allocatorIS6_EEFvONS_6vectorINS2_10UTF8StringENS7_ISA_EEEEEE18destroy_deallocateEv', symObjAddr: 0x1CE0, symBinAddr: 0x567C0, symSize: 0x30 }
  - { offset: 0x157488, size: 0x8, addend: 0x0, symName: '__ZNSt3__110__function6__funcIZN6VSTGUI16CNewFileSelector3runEPNS2_11CBaseObjectEE3$_0NS_9allocatorIS6_EEFvONS_6vectorINS2_10UTF8StringENS7_ISA_EEEEEEclESD_', symObjAddr: 0x1D10, symBinAddr: 0x567F0, symSize: 0x110 }
  - { offset: 0x1578D3, size: 0x8, addend: 0x0, symName: '__ZNKSt3__110__function6__funcIZN6VSTGUI16CNewFileSelector3runEPNS2_11CBaseObjectEE3$_0NS_9allocatorIS6_EEFvONS_6vectorINS2_10UTF8StringENS7_ISA_EEEEEE6targetERKSt9type_info', symObjAddr: 0x1E20, symBinAddr: 0x56900, symSize: 0x20 }
  - { offset: 0x157945, size: 0x8, addend: 0x0, symName: '__ZNKSt3__110__function6__funcIZN6VSTGUI16CNewFileSelector3runEPNS2_11CBaseObjectEE3$_0NS_9allocatorIS6_EEFvONS_6vectorINS2_10UTF8StringENS7_ISA_EEEEEE11target_typeEv', symObjAddr: 0x1E40, symBinAddr: 0x56920, symSize: 0x10 }
  - { offset: 0x157A18, size: 0x8, addend: 0x0, symName: '__ZNSt3__110__function6__funcIZN6VSTGUI16CNewFileSelector3runEONS_8functionIFvPS3_EEEE3$_0NS_9allocatorIS9_EEFvONS_6vectorINS2_10UTF8StringENSA_ISD_EEEEEED1Ev', symObjAddr: 0x1FD0, symBinAddr: 0x56A70, symSize: 0x40 }
  - { offset: 0x157BC5, size: 0x8, addend: 0x0, symName: '__ZNSt3__110__function6__funcIZN6VSTGUI16CNewFileSelector3runEONS_8functionIFvPS3_EEEE3$_0NS_9allocatorIS9_EEFvONS_6vectorINS2_10UTF8StringENSA_ISD_EEEEEED0Ev', symObjAddr: 0x2010, symBinAddr: 0x56AB0, symSize: 0x50 }
  - { offset: 0x158138, size: 0x8, addend: 0x0, symName: '__ZNKSt3__110__function6__funcIZN6VSTGUI16CNewFileSelector3runEONS_8functionIFvPS3_EEEE3$_0NS_9allocatorIS9_EEFvONS_6vectorINS2_10UTF8StringENSA_ISD_EEEEEE7__cloneEv', symObjAddr: 0x2060, symBinAddr: 0x56B00, symSize: 0x80 }
  - { offset: 0x158653, size: 0x8, addend: 0x0, symName: '__ZNKSt3__110__function6__funcIZN6VSTGUI16CNewFileSelector3runEONS_8functionIFvPS3_EEEE3$_0NS_9allocatorIS9_EEFvONS_6vectorINS2_10UTF8StringENSA_ISD_EEEEEE7__cloneEPNS0_6__baseISH_EE', symObjAddr: 0x20E0, symBinAddr: 0x56B80, symSize: 0x70 }
  - { offset: 0x158860, size: 0x8, addend: 0x0, symName: '__ZNSt3__110__function6__funcIZN6VSTGUI16CNewFileSelector3runEONS_8functionIFvPS3_EEEE3$_0NS_9allocatorIS9_EEFvONS_6vectorINS2_10UTF8StringENSA_ISD_EEEEEE7destroyEv', symObjAddr: 0x2150, symBinAddr: 0x56BF0, symSize: 0x40 }
  - { offset: 0x1589BA, size: 0x8, addend: 0x0, symName: '__ZNSt3__110__function6__funcIZN6VSTGUI16CNewFileSelector3runEONS_8functionIFvPS3_EEEE3$_0NS_9allocatorIS9_EEFvONS_6vectorINS2_10UTF8StringENSA_ISD_EEEEEE18destroy_deallocateEv', symObjAddr: 0x2190, symBinAddr: 0x56C30, symSize: 0x40 }
  - { offset: 0x158CBE, size: 0x8, addend: 0x0, symName: '__ZNSt3__110__function6__funcIZN6VSTGUI16CNewFileSelector3runEONS_8functionIFvPS3_EEEE3$_0NS_9allocatorIS9_EEFvONS_6vectorINS2_10UTF8StringENSA_ISD_EEEEEEclESG_', symObjAddr: 0x21D0, symBinAddr: 0x56C70, symSize: 0x120 }
  - { offset: 0x15910F, size: 0x8, addend: 0x0, symName: '__ZNKSt3__110__function6__funcIZN6VSTGUI16CNewFileSelector3runEONS_8functionIFvPS3_EEEE3$_0NS_9allocatorIS9_EEFvONS_6vectorINS2_10UTF8StringENSA_ISD_EEEEEE6targetERKSt9type_info', symObjAddr: 0x22F0, symBinAddr: 0x56D90, symSize: 0x20 }
  - { offset: 0x159181, size: 0x8, addend: 0x0, symName: '__ZNKSt3__110__function6__funcIZN6VSTGUI16CNewFileSelector3runEONS_8functionIFvPS3_EEEE3$_0NS_9allocatorIS9_EEFvONS_6vectorINS2_10UTF8StringENSA_ISD_EEEEEE11target_typeEv', symObjAddr: 0x2310, symBinAddr: 0x56DB0, symSize: 0x10 }
  - { offset: 0x1591F5, size: 0x8, addend: 0x0, symName: '__ZNSt3__110__function6__funcIZN6VSTGUI16CNewFileSelector8runModalEvE3$_0NS_9allocatorIS4_EEFvONS_6vectorINS2_10UTF8StringENS5_IS8_EEEEEED1Ev', symObjAddr: 0x2390, symBinAddr: 0x56DC0, symSize: 0x10 }
  - { offset: 0x15921E, size: 0x8, addend: 0x0, symName: '__ZNSt3__110__function6__funcIZN6VSTGUI16CNewFileSelector8runModalEvE3$_0NS_9allocatorIS4_EEFvONS_6vectorINS2_10UTF8StringENS5_IS8_EEEEEED0Ev', symObjAddr: 0x23A0, symBinAddr: 0x56DD0, symSize: 0x10 }
  - { offset: 0x15942C, size: 0x8, addend: 0x0, symName: '__ZNKSt3__110__function6__funcIZN6VSTGUI16CNewFileSelector8runModalEvE3$_0NS_9allocatorIS4_EEFvONS_6vectorINS2_10UTF8StringENS5_IS8_EEEEEE7__cloneEv', symObjAddr: 0x23B0, symBinAddr: 0x56DE0, symSize: 0x30 }
  - { offset: 0x15971B, size: 0x8, addend: 0x0, symName: '__ZNKSt3__110__function6__funcIZN6VSTGUI16CNewFileSelector8runModalEvE3$_0NS_9allocatorIS4_EEFvONS_6vectorINS2_10UTF8StringENS5_IS8_EEEEEE7__cloneEPNS0_6__baseISC_EE', symObjAddr: 0x23E0, symBinAddr: 0x56E10, symSize: 0x20 }
  - { offset: 0x159826, size: 0x8, addend: 0x0, symName: '__ZNSt3__110__function6__funcIZN6VSTGUI16CNewFileSelector8runModalEvE3$_0NS_9allocatorIS4_EEFvONS_6vectorINS2_10UTF8StringENS5_IS8_EEEEEE7destroyEv', symObjAddr: 0x2400, symBinAddr: 0x56E30, symSize: 0x10 }
  - { offset: 0x159877, size: 0x8, addend: 0x0, symName: '__ZNSt3__110__function6__funcIZN6VSTGUI16CNewFileSelector8runModalEvE3$_0NS_9allocatorIS4_EEFvONS_6vectorINS2_10UTF8StringENS5_IS8_EEEEEE18destroy_deallocateEv', symObjAddr: 0x2410, symBinAddr: 0x56E40, symSize: 0x10 }
  - { offset: 0x1599C8, size: 0x8, addend: 0x0, symName: '__ZNSt3__110__function6__funcIZN6VSTGUI16CNewFileSelector8runModalEvE3$_0NS_9allocatorIS4_EEFvONS_6vectorINS2_10UTF8StringENS5_IS8_EEEEEEclESB_', symObjAddr: 0x2420, symBinAddr: 0x56E50, symSize: 0xD0 }
  - { offset: 0x159D43, size: 0x8, addend: 0x0, symName: '__ZNKSt3__110__function6__funcIZN6VSTGUI16CNewFileSelector8runModalEvE3$_0NS_9allocatorIS4_EEFvONS_6vectorINS2_10UTF8StringENS5_IS8_EEEEEE6targetERKSt9type_info', symObjAddr: 0x24F0, symBinAddr: 0x56F20, symSize: 0x20 }
  - { offset: 0x159DB5, size: 0x8, addend: 0x0, symName: '__ZNKSt3__110__function6__funcIZN6VSTGUI16CNewFileSelector8runModalEvE3$_0NS_9allocatorIS4_EEFvONS_6vectorINS2_10UTF8StringENS5_IS8_EEEEEE11target_typeEv', symObjAddr: 0x2510, symBinAddr: 0x56F40, symSize: 0x10 }
  - { offset: 0x15A16C, size: 0x8, addend: 0x0, symName: __ZNKSt3__16vectorIN6VSTGUI21PlatformFileExtensionENS_9allocatorIS2_EEE20__throw_length_errorB8ne180100Ev, symObjAddr: 0x2860, symBinAddr: 0x57290, symSize: 0x10 }
  - { offset: 0x15A1A1, size: 0x8, addend: 0x0, symName: __ZNSt3__114__split_bufferIN6VSTGUI21PlatformFileExtensionERNS_9allocatorIS2_EEED1Ev, symObjAddr: 0x2810, symBinAddr: 0x57240, symSize: 0x50 }
  - { offset: 0x15A364, size: 0x8, addend: 0x0, symName: __ZN6VSTGUI21PlatformFileExtensionC1ERKS0_.cold.1, symObjAddr: 0x2BB0, symBinAddr: 0x177070, symSize: 0x15 }
  - { offset: 0x15C545, size: 0x8, addend: 0x0, symName: __ZN6VSTGUIL11globalFontsE, symObjAddr: 0x1EF08, symBinAddr: 0x1CF9E0, symSize: 0x0 }
  - { offset: 0x15CCAB, size: 0x8, addend: 0x0, symName: __ZN6VSTGUI11kSystemFontE, symObjAddr: 0x1EF48, symBinAddr: 0x1F4E58, symSize: 0x0 }
  - { offset: 0x15CCD0, size: 0x8, addend: 0x0, symName: __ZN6VSTGUI18kNormalFontVeryBigE, symObjAddr: 0x1EF50, symBinAddr: 0x1F4E60, symSize: 0x0 }
  - { offset: 0x15CCEA, size: 0x8, addend: 0x0, symName: __ZN6VSTGUI14kNormalFontBigE, symObjAddr: 0x1EF58, symBinAddr: 0x1F4E68, symSize: 0x0 }
  - { offset: 0x15CD04, size: 0x8, addend: 0x0, symName: __ZN6VSTGUI11kNormalFontE, symObjAddr: 0x1EF60, symBinAddr: 0x1F4E70, symSize: 0x0 }
  - { offset: 0x15CD1E, size: 0x8, addend: 0x0, symName: __ZN6VSTGUI16kNormalFontSmallE, symObjAddr: 0x1EF68, symBinAddr: 0x1F4E78, symSize: 0x0 }
  - { offset: 0x15CD38, size: 0x8, addend: 0x0, symName: __ZN6VSTGUI18kNormalFontSmallerE, symObjAddr: 0x1EF70, symBinAddr: 0x1F4E80, symSize: 0x0 }
  - { offset: 0x15CD52, size: 0x8, addend: 0x0, symName: __ZN6VSTGUI20kNormalFontVerySmallE, symObjAddr: 0x1EF78, symBinAddr: 0x1F4E88, symSize: 0x0 }
  - { offset: 0x15CD6C, size: 0x8, addend: 0x0, symName: __ZN6VSTGUI11kSymbolFontE, symObjAddr: 0x1EF80, symBinAddr: 0x1F4E90, symSize: 0x0 }
  - { offset: 0x15CD7A, size: 0x8, addend: 0x0, symName: __ZN6VSTGUI9makeOwnedINS_9CFontDescEJRA14_KciEEENS_13SharedPointerIT_EEDpOT0_, symObjAddr: 0x280, symBinAddr: 0x57950, symSize: 0x110 }
  - { offset: 0x15D1D4, size: 0x8, addend: 0x0, symName: __ZN6VSTGUI9makeOwnedINS_9CFontDescEJRA6_KciEEENS_13SharedPointerIT_EEDpOT0_, symObjAddr: 0x390, symBinAddr: 0x57A60, symSize: 0x110 }
  - { offset: 0x15D62E, size: 0x8, addend: 0x0, symName: __ZN6VSTGUI9makeOwnedINS_9CFontDescEJRA7_KciEEENS_13SharedPointerIT_EEDpOT0_, symObjAddr: 0x4A0, symBinAddr: 0x57B70, symSize: 0x110 }
  - { offset: 0x160BA4, size: 0x8, addend: 0x0, symName: __ZN6VSTGUI11GlobalFontsD1Ev, symObjAddr: 0x0, symBinAddr: 0x576D0, symSize: 0x10 }
  - { offset: 0x160BE5, size: 0x8, addend: 0x0, symName: __ZN6VSTGUI11GlobalFontsD2Ev, symObjAddr: 0xD80, symBinAddr: 0x58380, symSize: 0xBF }
  - { offset: 0x160E26, size: 0x8, addend: 0x0, symName: __ZN6VSTGUI9CFontDesc4initEv, symObjAddr: 0x10, symBinAddr: 0x576E0, symSize: 0x270 }
  - { offset: 0x16159B, size: 0x8, addend: 0x0, symName: __ZN6VSTGUI9CFontDesc7cleanupEv, symObjAddr: 0x5B0, symBinAddr: 0x57C80, symSize: 0x180 }
  - { offset: 0x1616C2, size: 0x8, addend: 0x0, symName: __ZN6VSTGUI9CFontDescC2ERKNS_10UTF8StringERKdi, symObjAddr: 0x730, symBinAddr: 0x57E00, symSize: 0xB0 }
  - { offset: 0x161906, size: 0x8, addend: 0x0, symName: __ZN6VSTGUI9CFontDescC1ERKNS_10UTF8StringERKdi, symObjAddr: 0x820, symBinAddr: 0x57EB0, symSize: 0xA0 }
  - { offset: 0x161B13, size: 0x8, addend: 0x0, symName: __ZN6VSTGUI9CFontDescC2ERKS0_, symObjAddr: 0x8C0, symBinAddr: 0x57F50, symSize: 0xB0 }
  - { offset: 0x161D37, size: 0x8, addend: 0x0, symName: __ZN6VSTGUI9CFontDescC1ERKS0_, symObjAddr: 0x970, symBinAddr: 0x58000, symSize: 0x90 }
  - { offset: 0x161F44, size: 0x8, addend: 0x0, symName: __ZN6VSTGUI9CFontDescD2Ev, symObjAddr: 0xA00, symBinAddr: 0x58090, symSize: 0xA0 }
  - { offset: 0x162147, size: 0x8, addend: 0x0, symName: __ZN6VSTGUI9CFontDescD1Ev, symObjAddr: 0xAB0, symBinAddr: 0x58130, symSize: 0x20 }
  - { offset: 0x162199, size: 0x8, addend: 0x0, symName: __ZN6VSTGUI9CFontDescD0Ev, symObjAddr: 0xAD0, symBinAddr: 0x58150, symSize: 0x30 }
  - { offset: 0x1621F8, size: 0x8, addend: 0x0, symName: __ZN6VSTGUI9CFontDesc12beforeDeleteEv, symObjAddr: 0xB00, symBinAddr: 0x58180, symSize: 0x10 }
  - { offset: 0x1622C2, size: 0x8, addend: 0x0, symName: __ZNK6VSTGUI9CFontDesc15getPlatformFontEv, symObjAddr: 0xB10, symBinAddr: 0x58190, symSize: 0x80 }
  - { offset: 0x162433, size: 0x8, addend: 0x0, symName: __ZNK6VSTGUI9CFontDesc14getFontPainterEv, symObjAddr: 0xB90, symBinAddr: 0x58210, symSize: 0x50 }
  - { offset: 0x16251E, size: 0x8, addend: 0x0, symName: __ZN6VSTGUI9CFontDesc16freePlatformFontEv, symObjAddr: 0xBE0, symBinAddr: 0x58260, symSize: 0x30 }
  - { offset: 0x162572, size: 0x8, addend: 0x0, symName: __ZN6VSTGUI9CFontDesc7setNameERKNS_10UTF8StringE, symObjAddr: 0xC10, symBinAddr: 0x58290, symSize: 0x50 }
  - { offset: 0x1625B7, size: 0x8, addend: 0x0, symName: __ZN6VSTGUI9CFontDesc7setSizeEd, symObjAddr: 0xC60, symBinAddr: 0x582E0, symSize: 0x10 }
  - { offset: 0x162600, size: 0x8, addend: 0x0, symName: __ZN6VSTGUI9CFontDesc8setStyleEi, symObjAddr: 0xC70, symBinAddr: 0x582F0, symSize: 0x10 }
  - { offset: 0x162664, size: 0x8, addend: 0x0, symName: __ZN6VSTGUI9CFontDescaSERKS0_, symObjAddr: 0xC80, symBinAddr: 0x58300, symSize: 0x40 }
  - { offset: 0x1626F4, size: 0x8, addend: 0x0, symName: __ZNK6VSTGUI9CFontDesceqERKS0_, symObjAddr: 0xCC0, symBinAddr: 0x58340, symSize: 0x30 }
  - { offset: 0x16274A, size: 0x8, addend: 0x0, symName: __ZNK6VSTGUI9CFontDescneERKS0_, symObjAddr: 0xD70, symBinAddr: 0x58370, symSize: 0x10 }
  - { offset: 0x16472C, size: 0x8, addend: 0x0, symName: __ZN6VSTGUI16kMsgNewFocusViewE, symObjAddr: 0xC4C0, symBinAddr: 0x1CE2D8, symSize: 0x0 }
  - { offset: 0x164746, size: 0x8, addend: 0x0, symName: __ZN6VSTGUI16kMsgOldFocusViewE, symObjAddr: 0xC4C8, symBinAddr: 0x1CE2E0, symSize: 0x0 }
  - { offset: 0x16475A, size: 0x8, addend: 0x0, symName: __ZN6VSTGUI6CFrame16kDefaultKnobModeE, symObjAddr: 0x16F684, symBinAddr: 0x1F4E98, symSize: 0x0 }
  - { offset: 0x18F7D3, size: 0x8, addend: 0x0, symName: __ZN6VSTGUI6CFrame12setFocusViewEPNS_5CViewE, symObjAddr: 0x2CA0, symBinAddr: 0x5AF00, symSize: 0x2E0 }
  - { offset: 0x18F7FA, size: 0x8, addend: 0x0, symName: __ZZN6VSTGUI6CFrame12setFocusViewEPNS_5CViewEE9recursion, symObjAddr: 0x16F688, symBinAddr: 0x1CFA20, symSize: 0x0 }
  - { offset: 0x18FBC0, size: 0x8, addend: 0x0, symName: __ZN6VSTGUI6CFrame20dispatchMouseUpEventERNS_12MouseUpEventE, symObjAddr: 0x3460, symBinAddr: 0x5B6C0, symSize: 0x310 }
  - { offset: 0x1908A9, size: 0x8, addend: 0x0, symName: __ZN6VSTGUI6CFrameC2ERKNS_5CRectEPNS_21VSTGUIEditorInterfaceE, symObjAddr: 0x0, symBinAddr: 0x58480, symSize: 0x1A0 }
  - { offset: 0x190D9B, size: 0x8, addend: 0x0, symName: __ZN6VSTGUI6CFrameC1ERKNS_5CRectEPNS_21VSTGUIEditorInterfaceE, symObjAddr: 0x1A0, symBinAddr: 0x58620, symSize: 0x190 }
  - { offset: 0x19146E, size: 0x8, addend: 0x0, symName: __ZN6VSTGUI6CFrame12beforeDeleteEv, symObjAddr: 0x330, symBinAddr: 0x587B0, symSize: 0x160 }
  - { offset: 0x191765, size: 0x8, addend: 0x0, symName: __ZN6VSTGUI6CFrame15clearMouseViewsERKNS_6CPointENS_9ModifiersEb, symObjAddr: 0x490, symBinAddr: 0x58910, symSize: 0x2D0 }
  - { offset: 0x191DF4, size: 0x8, addend: 0x0, symName: __ZN6VSTGUI6CFrame25endLegacyModalViewSessionEv, symObjAddr: 0x3E00, symBinAddr: 0x5C060, symSize: 0xE0 }
  - { offset: 0x191FB8, size: 0x8, addend: 0x0, symName: __ZN6VSTGUI6CFrame19endModalViewSessionEj, symObjAddr: 0x4070, symBinAddr: 0x5C2D0, symSize: 0x1A0 }
  - { offset: 0x192528, size: 0x8, addend: 0x0, symName: __ZN6VSTGUI6CFrame9removeAllEb, symObjAddr: 0x7E0, symBinAddr: 0x58C60, symSize: 0xC0 }
  - { offset: 0x1926F6, size: 0x8, addend: 0x0, symName: __ZN6VSTGUI6CFrame4ImplD2Ev, symObjAddr: 0x7A70, symBinAddr: 0x5F980, symSize: 0x1B0 }
  - { offset: 0x193818, size: 0x8, addend: 0x0, symName: __ZN6VSTGUI6CFrame28callMouseObserverMouseExitedEPNS_5CViewE, symObjAddr: 0x13C0, symBinAddr: 0x59810, symSize: 0xC0 }
  - { offset: 0x193E0E, size: 0x8, addend: 0x0, symName: __ZN6VSTGUI12DispatchListIPNS_14IMouseObserverEE11postForEachEv, symObjAddr: 0x9B60, symBinAddr: 0x60FB0, symSize: 0x3D0 }
  - { offset: 0x194CF4, size: 0x8, addend: 0x0, symName: __ZN6VSTGUI6CFrame22clearModalViewSessionsEv, symObjAddr: 0x760, symBinAddr: 0x58BE0, symSize: 0x60 }
  - { offset: 0x194E07, size: 0x8, addend: 0x0, symName: __ZN6VSTGUI6CFrame9setCursorENS_11CCursorTypeE, symObjAddr: 0x7C0, symBinAddr: 0x58C40, symSize: 0x20 }
  - { offset: 0x194E74, size: 0x8, addend: 0x0, symName: __ZN6VSTGUI6CFrame5closeEv, symObjAddr: 0x8A0, symBinAddr: 0x58D20, symSize: 0x100 }
  - { offset: 0x19521A, size: 0x8, addend: 0x0, symName: __ZN6VSTGUI6CFrame4openEPvNS_12PlatformTypeEPNS_20IPlatformFrameConfigE, symObjAddr: 0x9D0, symBinAddr: 0x58E20, symSize: 0x170 }
  - { offset: 0x195512, size: 0x8, addend: 0x0, symName: __ZN6VSTGUI6CFrame19CollectInvalidRectsC2EPS0_, symObjAddr: 0x6F30, symBinAddr: 0x5F150, symSize: 0x110 }
  - { offset: 0x195A25, size: 0x8, addend: 0x0, symName: __ZN6VSTGUI6CFrame11invalidRectERKNS_5CRectE, symObjAddr: 0x4F90, symBinAddr: 0x5D1F0, symSize: 0x100 }
  - { offset: 0x195B7E, size: 0x8, addend: 0x0, symName: __ZN6VSTGUI6CFrame19CollectInvalidRectsD2Ev, symObjAddr: 0x7080, symBinAddr: 0x5F260, symSize: 0x110 }
  - { offset: 0x196000, size: 0x8, addend: 0x0, symName: __ZN6VSTGUI6CFrame19CollectInvalidRectsC1EPS0_, symObjAddr: 0xB40, symBinAddr: 0x58F90, symSize: 0x10 }
  - { offset: 0x196044, size: 0x8, addend: 0x0, symName: __ZN6VSTGUI6CFrame8attachedEPNS_5CViewE, symObjAddr: 0xB50, symBinAddr: 0x58FA0, symSize: 0xA0 }
  - { offset: 0x196133, size: 0x8, addend: 0x0, symName: __ZN6VSTGUI6CFrame7invalidEv, symObjAddr: 0xBF0, symBinAddr: 0x59040, symSize: 0x30 }
  - { offset: 0x196169, size: 0x8, addend: 0x0, symName: __ZN6VSTGUI6CFrame19CollectInvalidRectsD1Ev, symObjAddr: 0xC20, symBinAddr: 0x59070, symSize: 0x10 }
  - { offset: 0x196240, size: 0x8, addend: 0x0, symName: __ZN6VSTGUI6CFrame22dispatchNewScaleFactorEd, symObjAddr: 0xF50, symBinAddr: 0x593A0, symSize: 0xB0 }
  - { offset: 0x19648D, size: 0x8, addend: 0x0, symName: __ZN6VSTGUI6CFrame7setZoomEd, symObjAddr: 0xC30, symBinAddr: 0x59080, symSize: 0x240 }
  - { offset: 0x196790, size: 0x8, addend: 0x0, symName: __ZN6VSTGUI6CFrame7setSizeEdd, symObjAddr: 0xE70, symBinAddr: 0x592C0, symSize: 0xE0 }
  - { offset: 0x1968D1, size: 0x8, addend: 0x0, symName: __ZN6VSTGUI12DispatchListIPNS_27IScaleFactorChangedListenerEE11postForEachEv, symObjAddr: 0xA8E0, symBinAddr: 0x61750, symSize: 0x3D0 }
  - { offset: 0x197819, size: 0x8, addend: 0x0, symName: __ZNK6VSTGUI6CFrame14getScaleFactorEv, symObjAddr: 0x1000, symBinAddr: 0x59450, symSize: 0x20 }
  - { offset: 0x197841, size: 0x8, addend: 0x0, symName: __ZNK6VSTGUI6CFrame7getZoomEv, symObjAddr: 0x1020, symBinAddr: 0x59470, symSize: 0x20 }
  - { offset: 0x197869, size: 0x8, addend: 0x0, symName: __ZN6VSTGUI6CFrame29setBitmapInterpolationQualityENS_26BitmapInterpolationQualityE, symObjAddr: 0x1040, symBinAddr: 0x59490, symSize: 0x50 }
  - { offset: 0x1978D7, size: 0x8, addend: 0x0, symName: __ZNK6VSTGUI6CFrame29getBitmapInterpolationQualityEv, symObjAddr: 0x1090, symBinAddr: 0x594E0, symSize: 0x20 }
  - { offset: 0x197929, size: 0x8, addend: 0x0, symName: __ZN6VSTGUI6CFrame14enableTooltipsEbj, symObjAddr: 0x10B0, symBinAddr: 0x59500, symSize: 0xA0 }
  - { offset: 0x1979E6, size: 0x8, addend: 0x0, symName: __ZN6VSTGUI6CFrame4drawEPNS_12CDrawContextE, symObjAddr: 0x1150, symBinAddr: 0x595A0, symSize: 0x30 }
  - { offset: 0x197A2F, size: 0x8, addend: 0x0, symName: __ZN6VSTGUI6CFrame8drawRectEPNS_12CDrawContextERKNS_5CRectE, symObjAddr: 0x1180, symBinAddr: 0x595D0, symSize: 0x220 }
  - { offset: 0x197FF2, size: 0x8, addend: 0x0, symName: __ZN6VSTGUI10ConcatClipD1Ev, symObjAddr: 0x8250, symBinAddr: 0x60030, symSize: 0x20 }
  - { offset: 0x19802C, size: 0x8, addend: 0x0, symName: __ZN6VSTGUI6CFrame13dispatchEventEPNS_5CViewERNS_5EventE, symObjAddr: 0x13A0, symBinAddr: 0x597F0, symSize: 0x20 }
  - { offset: 0x198124, size: 0x8, addend: 0x0, symName: __ZN6VSTGUI6CFrame20removeFromMouseViewsEPNS_5CViewE, symObjAddr: 0x1480, symBinAddr: 0x598D0, symSize: 0x180 }
  - { offset: 0x1989D2, size: 0x8, addend: 0x0, symName: __ZN6VSTGUI6CFrame15checkMouseViewsERKNS_10MouseEventE, symObjAddr: 0x1600, symBinAddr: 0x59A50, symSize: 0x3D0 }
  - { offset: 0x1996A4, size: 0x8, addend: 0x0, symName: __ZNK6VSTGUI6CFrame9getViewAtERKNS_6CPointERKNS_14GetViewOptionsE, symObjAddr: 0x19D0, symBinAddr: 0x59E20, symSize: 0x1A0 }
  - { offset: 0x199932, size: 0x8, addend: 0x0, symName: '__ZZN6VSTGUI6CFrame15checkMouseViewsERKNS_10MouseEventEENK3$_0clEPNS_5CViewE', symObjAddr: 0x1B70, symBinAddr: 0x59FC0, symSize: 0x1E0 }
  - { offset: 0x199F92, size: 0x8, addend: 0x0, symName: '__ZZN6VSTGUI6CFrame15checkMouseViewsERKNS_10MouseEventEENK3$_1clEPNS_5CViewE', symObjAddr: 0x1F40, symBinAddr: 0x5A1A0, symSize: 0x1E0 }
  - { offset: 0x19A73E, size: 0x8, addend: 0x0, symName: __ZN6VSTGUI6CFrame15hitTestSubViewsERKNS_6CPointERKNS_5EventE, symObjAddr: 0x2120, symBinAddr: 0x5A380, symSize: 0x1B0 }
  - { offset: 0x19A9BC, size: 0x8, addend: 0x0, symName: __ZNK6VSTGUI6CFrame12getModalViewEv, symObjAddr: 0x22D0, symBinAddr: 0x5A530, symSize: 0x40 }
  - { offset: 0x19AABA, size: 0x8, addend: 0x0, symName: __ZN6VSTGUI6CFrame23dispatchEventToChildrenERNS_5EventE, symObjAddr: 0x2310, symBinAddr: 0x5A570, symSize: 0x10 }
  - { offset: 0x19ADC5, size: 0x8, addend: 0x0, symName: __ZN6VSTGUI6CFrame21dispatchKeyboardEventERNS_13KeyboardEventE, symObjAddr: 0x2320, symBinAddr: 0x5A580, symSize: 0x270 }
  - { offset: 0x19B47C, size: 0x8, addend: 0x0, symName: __ZN6VSTGUI6CFrame20advanceNextFocusViewEPNS_5CViewEb, symObjAddr: 0x2640, symBinAddr: 0x5A8A0, symSize: 0x230 }
  - { offset: 0x19B71F, size: 0x8, addend: 0x0, symName: __ZN6VSTGUI12DispatchListIPNS_13IKeyboardHookEE11postForEachEv, symObjAddr: 0x9460, symBinAddr: 0x60BA0, symSize: 0x3D0 }
  - { offset: 0x19C605, size: 0x8, addend: 0x0, symName: __ZN6VSTGUI6CFrame28dispatchKeyboardEventToHooksERNS_13KeyboardEventE, symObjAddr: 0x2590, symBinAddr: 0x5A7F0, symSize: 0xB0 }
  - { offset: 0x19C9CA, size: 0x8, addend: 0x0, symName: __ZN6VSTGUI6CFrame22dispatchMouseDownEventERNS_14MouseDownEventE, symObjAddr: 0x2870, symBinAddr: 0x5AAD0, symSize: 0x370 }
  - { offset: 0x19D000, size: 0x8, addend: 0x0, symName: __ZN6VSTGUI6CFrame32callMouseObserverOtherMouseEventERNS_10MouseEventE, symObjAddr: 0x2BE0, symBinAddr: 0x5AE40, symSize: 0xC0 }
  - { offset: 0x19D20A, size: 0x8, addend: 0x0, symName: __ZN6VSTGUI12DispatchListIPNS_18IFocusViewObserverEE11postForEachEv, symObjAddr: 0x8D60, symBinAddr: 0x60790, symSize: 0x3D0 }
  - { offset: 0x19E106, size: 0x8, addend: 0x0, symName: __ZN6VSTGUI6CFrame22dispatchMouseMoveEventERNS_14MouseMoveEventE, symObjAddr: 0x2F80, symBinAddr: 0x5B1E0, symSize: 0x4E0 }
  - { offset: 0x19E9D2, size: 0x8, addend: 0x0, symName: '__ZN6VSTGUI11FinalActionIZNS_6CFrame20dispatchMouseUpEventERNS_12MouseUpEventEE3$_0ED1Ev', symObjAddr: 0x3770, symBinAddr: 0x5B9D0, symSize: 0x20 }
  - { offset: 0x19EA14, size: 0x8, addend: 0x0, symName: __ZN6VSTGUI6CFrame18dispatchMouseEventERNS_10MouseEventE, symObjAddr: 0x3790, symBinAddr: 0x5B9F0, symSize: 0xD0 }
  - { offset: 0x19EB82, size: 0x8, addend: 0x0, symName: __ZN6VSTGUI6CFrame13dispatchEventERNS_5EventE, symObjAddr: 0x3860, symBinAddr: 0x5BAC0, symSize: 0x260 }
  - { offset: 0x19F0E1, size: 0x8, addend: 0x0, symName: __ZN6VSTGUI6CFrame4Impl16PostEventHandlerD2Ev, symObjAddr: 0x7F60, symBinAddr: 0x5FE70, symSize: 0x1B0 }
  - { offset: 0x19F61F, size: 0x8, addend: 0x0, symName: __ZN6VSTGUI6CFrame12getClipboardEv, symObjAddr: 0x3AC0, symBinAddr: 0x5BD20, symSize: 0x30 }
  - { offset: 0x19F66A, size: 0x8, addend: 0x0, symName: __ZN6VSTGUI6CFrame12setClipboardERKNS_13SharedPointerINS_12IDataPackageEEE, symObjAddr: 0x3AF0, symBinAddr: 0x5BD50, symSize: 0x30 }
  - { offset: 0x19F6BF, size: 0x8, addend: 0x0, symName: __ZN6VSTGUI6CFrame4idleEv, symObjAddr: 0x3B20, symBinAddr: 0x5BD80, symSize: 0x20 }
  - { offset: 0x19F726, size: 0x8, addend: 0x0, symName: __ZN6VSTGUI6CFrame11getAnimatorEv, symObjAddr: 0x3B40, symBinAddr: 0x5BDA0, symSize: 0x80 }
  - { offset: 0x19F7B6, size: 0x8, addend: 0x0, symName: __ZNK6VSTGUI6CFrame8getTicksEv, symObjAddr: 0x3BC0, symBinAddr: 0x5BE20, symSize: 0x20 }
  - { offset: 0x19F7F2, size: 0x8, addend: 0x0, symName: __ZNK6VSTGUI6CFrame11getKnobModeEv, symObjAddr: 0x3BE0, symBinAddr: 0x5BE40, symSize: 0x30 }
  - { offset: 0x19F8AC, size: 0x8, addend: 0x0, symName: __ZN6VSTGUI6CFrame11setPositionEdd, symObjAddr: 0x3C10, symBinAddr: 0x5BE70, symSize: 0xC0 }
  - { offset: 0x19F993, size: 0x8, addend: 0x0, symName: __ZN6VSTGUI6CFrame11setViewSizeERKNS_5CRectEb, symObjAddr: 0x3CD0, symBinAddr: 0x5BF30, symSize: 0x10 }
  - { offset: 0x19FA01, size: 0x8, addend: 0x0, symName: __ZNK6VSTGUI6CFrame11getPositionERdS1_, symObjAddr: 0x3CE0, symBinAddr: 0x5BF40, symSize: 0x60 }
  - { offset: 0x19FAD9, size: 0x8, addend: 0x0, symName: __ZNK6VSTGUI6CFrame9getEditorEv, symObjAddr: 0x3D40, symBinAddr: 0x5BFA0, symSize: 0x10 }
  - { offset: 0x19FAF9, size: 0x8, addend: 0x0, symName: __ZNK6VSTGUI6CFrame7getSizeEPNS_5CRectE, symObjAddr: 0x3D50, symBinAddr: 0x5BFB0, symSize: 0x30 }
  - { offset: 0x19FB53, size: 0x8, addend: 0x0, symName: __ZNK6VSTGUI6CFrame7getSizeERNS_5CRectE, symObjAddr: 0x3D80, symBinAddr: 0x5BFE0, symSize: 0x20 }
  - { offset: 0x19FC1B, size: 0x8, addend: 0x0, symName: __ZN6VSTGUI6CFrame12setModalViewEPNS_5CViewE, symObjAddr: 0x3DA0, symBinAddr: 0x5C000, symSize: 0x60 }
  - { offset: 0x19FCFB, size: 0x8, addend: 0x0, symName: __ZN6VSTGUI6CFrame21beginModalViewSessionEPNS_5CViewE, symObjAddr: 0x3EE0, symBinAddr: 0x5C140, symSize: 0x190 }
  - { offset: 0x1A039D, size: 0x8, addend: 0x0, symName: __ZNSt3__15dequeIN6VSTGUI16ModalViewSessionENS_9allocatorIS2_EEE19__add_back_capacityEv, symObjAddr: 0x8270, symBinAddr: 0x60050, symSize: 0x720 }
  - { offset: 0x1A170D, size: 0x8, addend: 0x0, symName: __ZN6VSTGUI6CFrame20initModalViewSessionERKNS_16ModalViewSessionE, symObjAddr: 0x4210, symBinAddr: 0x5C470, symSize: 0x180 }
  - { offset: 0x1A1D0C, size: 0x8, addend: 0x0, symName: __ZNK6VSTGUI6CFrame23getCurrentMouseLocationERNS_6CPointE, symObjAddr: 0x4390, symBinAddr: 0x5C5F0, symSize: 0x70 }
  - { offset: 0x1A1DB4, size: 0x8, addend: 0x0, symName: __ZN6VSTGUI6CFrame10removeViewEPNS_5CViewEb, symObjAddr: 0x4400, symBinAddr: 0x5C660, symSize: 0x10 }
  - { offset: 0x1A1DEE, size: 0x8, addend: 0x0, symName: __ZN6VSTGUI6CFrame9beginEditEi, symObjAddr: 0x4410, symBinAddr: 0x5C670, symSize: 0x20 }
  - { offset: 0x1A1E33, size: 0x8, addend: 0x0, symName: __ZN6VSTGUI6CFrame7endEditEi, symObjAddr: 0x4430, symBinAddr: 0x5C690, symSize: 0x20 }
  - { offset: 0x1A1EC2, size: 0x8, addend: 0x0, symName: __ZNK6VSTGUI6CFrame22getCurrentMouseButtonsEv, symObjAddr: 0x4450, symBinAddr: 0x5C6B0, symSize: 0x30 }
  - { offset: 0x1A21C8, size: 0x8, addend: 0x0, symName: __ZN6VSTGUI6CFrame13onViewRemovedEPNS_5CViewE, symObjAddr: 0x4480, symBinAddr: 0x5C6E0, symSize: 0x150 }
  - { offset: 0x1A2593, size: 0x8, addend: 0x0, symName: __ZNK6VSTGUI6CFrame27getViewAddedRemovedObserverEv, symObjAddr: 0x45D0, symBinAddr: 0x5C830, symSize: 0x10 }
  - { offset: 0x1A25B3, size: 0x8, addend: 0x0, symName: __ZN6VSTGUI6CFrame11onViewAddedEPNS_5CViewE, symObjAddr: 0x45E0, symBinAddr: 0x5C840, symSize: 0x80 }
  - { offset: 0x1A2656, size: 0x8, addend: 0x0, symName: __ZN6VSTGUI12DispatchListIPNS_5CViewEE3addERKS2_, symObjAddr: 0x4660, symBinAddr: 0x5C8C0, symSize: 0x2F0 }
  - { offset: 0x1A390A, size: 0x8, addend: 0x0, symName: __ZNKSt3__16vectorIPN6VSTGUI5CViewENS_9allocatorIS3_EEE20__throw_length_errorB8ne180100Ev, symObjAddr: 0x8D40, symBinAddr: 0x60770, symSize: 0x10 }
  - { offset: 0x1A3934, size: 0x8, addend: 0x0, symName: __ZNKSt3__16vectorINS_4pairIbPN6VSTGUI5CViewEEENS_9allocatorIS5_EEE20__throw_length_errorB8ne180100Ev, symObjAddr: 0x8D50, symBinAddr: 0x60780, symSize: 0x10 }
  - { offset: 0x1A393F, size: 0x8, addend: 0x0, symName: __ZNKSt3__16vectorINS_4pairIbPN6VSTGUI5CViewEEENS_9allocatorIS5_EEE20__throw_length_errorB8ne180100Ev, symObjAddr: 0x8D50, symBinAddr: 0x60780, symSize: 0x10 }
  - { offset: 0x1A3969, size: 0x8, addend: 0x0, symName: __ZN6VSTGUI12DispatchListIPNS_18IFocusViewObserverEE11postForEachEv, symObjAddr: 0x8D60, symBinAddr: 0x60790, symSize: 0x3D0 }
  - { offset: 0x1A3974, size: 0x8, addend: 0x0, symName: __ZNK6VSTGUI6CFrame12getFocusViewEv, symObjAddr: 0x4950, symBinAddr: 0x5CBB0, symSize: 0x10 }
  - { offset: 0x1A3994, size: 0x8, addend: 0x0, symName: __ZNK6VSTGUI6CFrame14getContainerAtERKNS_6CPointERKNS_14GetViewOptionsE, symObjAddr: 0x4960, symBinAddr: 0x5CBC0, symSize: 0x1A0 }
  - { offset: 0x1A3F42, size: 0x8, addend: 0x0, symName: __ZNK6VSTGUI6CFrame10getViewsAtERKNS_6CPointERNSt3__14listINS_13SharedPointerINS_5CViewEEENS4_9allocatorIS8_EEEERKNS_14GetViewOptionsE, symObjAddr: 0x4B00, symBinAddr: 0x5CD60, symSize: 0x270 }
  - { offset: 0x1A4581, size: 0x8, addend: 0x0, symName: __ZN6VSTGUI6CFrame10onActivateEb, symObjAddr: 0x4D70, symBinAddr: 0x5CFD0, symSize: 0x90 }
  - { offset: 0x1A4630, size: 0x8, addend: 0x0, symName: __ZNK6VSTGUI6CFrame19focusDrawingEnabledEv, symObjAddr: 0x4E00, symBinAddr: 0x5D060, symSize: 0x20 }
  - { offset: 0x1A46FB, size: 0x8, addend: 0x0, symName: __ZNK6VSTGUI6CFrame13getFocusColorEv, symObjAddr: 0x4E20, symBinAddr: 0x5D080, symSize: 0x40 }
  - { offset: 0x1A47EA, size: 0x8, addend: 0x0, symName: __ZNK6VSTGUI6CFrame13getFocusWidthEv, symObjAddr: 0x4E60, symBinAddr: 0x5D0C0, symSize: 0x40 }
  - { offset: 0x1A489B, size: 0x8, addend: 0x0, symName: __ZN6VSTGUI6CFrame22setFocusDrawingEnabledEb, symObjAddr: 0x4EA0, symBinAddr: 0x5D100, symSize: 0x40 }
  - { offset: 0x1A493D, size: 0x8, addend: 0x0, symName: __ZN6VSTGUI6CFrame13setFocusColorERKNS_6CColorE, symObjAddr: 0x4EE0, symBinAddr: 0x5D140, symSize: 0x20 }
  - { offset: 0x1A49DB, size: 0x8, addend: 0x0, symName: __ZN6VSTGUI6CFrame13setFocusWidthEd, symObjAddr: 0x4F00, symBinAddr: 0x5D160, symSize: 0x30 }
  - { offset: 0x1A4A46, size: 0x8, addend: 0x0, symName: __ZN6VSTGUI6CFrame10scrollRectERKNS_5CRectERKNS_6CPointE, symObjAddr: 0x4F30, symBinAddr: 0x5D190, symSize: 0x60 }
  - { offset: 0x1A4B5D, size: 0x8, addend: 0x0, symName: __ZN6VSTGUI6CFrame19CollectInvalidRects7addRectERKNS_5CRectE, symObjAddr: 0x5110, symBinAddr: 0x5D370, symSize: 0xC0 }
  - { offset: 0x1A4E4D, size: 0x8, addend: 0x0, symName: __ZN6VSTGUI6CFrame10invalidateERKNS_5CRectE, symObjAddr: 0x5090, symBinAddr: 0x5D2F0, symSize: 0x80 }
  - { offset: 0x1A5130, size: 0x8, addend: 0x0, symName: __ZN6VSTGUI16CInvalidRectList3addERKNS_5CRectE, symObjAddr: 0x71A0, symBinAddr: 0x5F370, symSize: 0x380 }
  - { offset: 0x1A5C48, size: 0x8, addend: 0x0, symName: __ZN6VSTGUI6CFrame27setViewAddedRemovedObserverEPNS_25IViewAddedRemovedObserverE, symObjAddr: 0x51D0, symBinAddr: 0x5D430, symSize: 0x10 }
  - { offset: 0x1A5C7F, size: 0x8, addend: 0x0, symName: __ZN6VSTGUI6CFrame20registerKeyboardHookEPNS_13IKeyboardHookE, symObjAddr: 0x51E0, symBinAddr: 0x5D440, symSize: 0x30 }
  - { offset: 0x1A5CCE, size: 0x8, addend: 0x0, symName: __ZN6VSTGUI12DispatchListIPNS_13IKeyboardHookEE3addERKS2_, symObjAddr: 0x5210, symBinAddr: 0x5D470, symSize: 0x2F0 }
  - { offset: 0x1A6F72, size: 0x8, addend: 0x0, symName: __ZNKSt3__16vectorIPN6VSTGUI13IKeyboardHookENS_9allocatorIS3_EEE20__throw_length_errorB8ne180100Ev, symObjAddr: 0x9440, symBinAddr: 0x60B80, symSize: 0x10 }
  - { offset: 0x1A6F9C, size: 0x8, addend: 0x0, symName: __ZNKSt3__16vectorINS_4pairIbPN6VSTGUI13IKeyboardHookEEENS_9allocatorIS5_EEE20__throw_length_errorB8ne180100Ev, symObjAddr: 0x9450, symBinAddr: 0x60B90, symSize: 0x10 }
  - { offset: 0x1A6FA7, size: 0x8, addend: 0x0, symName: __ZNKSt3__16vectorINS_4pairIbPN6VSTGUI13IKeyboardHookEEENS_9allocatorIS5_EEE20__throw_length_errorB8ne180100Ev, symObjAddr: 0x9450, symBinAddr: 0x60B90, symSize: 0x10 }
  - { offset: 0x1A6FD1, size: 0x8, addend: 0x0, symName: __ZN6VSTGUI12DispatchListIPNS_13IKeyboardHookEE11postForEachEv, symObjAddr: 0x9460, symBinAddr: 0x60BA0, symSize: 0x3D0 }
  - { offset: 0x1A71E1, size: 0x8, addend: 0x0, symName: __ZN6VSTGUI6CFrame22unregisterKeyboardHookEPNS_13IKeyboardHookE, symObjAddr: 0x5500, symBinAddr: 0x5D760, symSize: 0x80 }
  - { offset: 0x1A74BF, size: 0x8, addend: 0x0, symName: __ZN6VSTGUI6CFrame34registerScaleFactorChangedListenerEPNS_27IScaleFactorChangedListenerE, symObjAddr: 0x5580, symBinAddr: 0x5D7E0, symSize: 0x30 }
  - { offset: 0x1A750E, size: 0x8, addend: 0x0, symName: __ZN6VSTGUI12DispatchListIPNS_27IScaleFactorChangedListenerEE3addERKS2_, symObjAddr: 0x55B0, symBinAddr: 0x5D810, symSize: 0x2F0 }
  - { offset: 0x1A87B7, size: 0x8, addend: 0x0, symName: __ZNKSt3__16vectorIPN6VSTGUI27IScaleFactorChangedListenerENS_9allocatorIS3_EEE20__throw_length_errorB8ne180100Ev, symObjAddr: 0x9B20, symBinAddr: 0x60F70, symSize: 0x10 }
  - { offset: 0x1A87E1, size: 0x8, addend: 0x0, symName: __ZNKSt3__16vectorINS_4pairIbPN6VSTGUI27IScaleFactorChangedListenerEEENS_9allocatorIS5_EEE20__throw_length_errorB8ne180100Ev, symObjAddr: 0x9B30, symBinAddr: 0x60F80, symSize: 0x10 }
  - { offset: 0x1A87EC, size: 0x8, addend: 0x0, symName: __ZNKSt3__16vectorINS_4pairIbPN6VSTGUI27IScaleFactorChangedListenerEEENS_9allocatorIS5_EEE20__throw_length_errorB8ne180100Ev, symObjAddr: 0x9B30, symBinAddr: 0x60F80, symSize: 0x10 }
  - { offset: 0x1A8816, size: 0x8, addend: 0x0, symName: __ZNKSt3__16vectorIPN6VSTGUI14IMouseObserverENS_9allocatorIS3_EEE20__throw_length_errorB8ne180100Ev, symObjAddr: 0x9B40, symBinAddr: 0x60F90, symSize: 0x10 }
  - { offset: 0x1A8A23, size: 0x8, addend: 0x0, symName: __ZN6VSTGUI6CFrame36unregisterScaleFactorChangedListenerEPNS_27IScaleFactorChangedListenerE, symObjAddr: 0x58A0, symBinAddr: 0x5DB00, symSize: 0x80 }
  - { offset: 0x1A8D01, size: 0x8, addend: 0x0, symName: __ZN6VSTGUI6CFrame21registerMouseObserverEPNS_14IMouseObserverE, symObjAddr: 0x5920, symBinAddr: 0x5DB80, symSize: 0x30 }
  - { offset: 0x1A8D50, size: 0x8, addend: 0x0, symName: __ZN6VSTGUI12DispatchListIPNS_14IMouseObserverEE3addERKS2_, symObjAddr: 0x5950, symBinAddr: 0x5DBB0, symSize: 0x2F0 }
  - { offset: 0x1A9FF9, size: 0x8, addend: 0x0, symName: __ZNKSt3__16vectorIPN6VSTGUI14IMouseObserverENS_9allocatorIS3_EEE20__throw_length_errorB8ne180100Ev, symObjAddr: 0x9B40, symBinAddr: 0x60F90, symSize: 0x10 }
  - { offset: 0x1AA023, size: 0x8, addend: 0x0, symName: __ZNKSt3__16vectorINS_4pairIbPN6VSTGUI14IMouseObserverEEENS_9allocatorIS5_EEE20__throw_length_errorB8ne180100Ev, symObjAddr: 0x9B50, symBinAddr: 0x60FA0, symSize: 0x10 }
  - { offset: 0x1AA02E, size: 0x8, addend: 0x0, symName: __ZNKSt3__16vectorINS_4pairIbPN6VSTGUI14IMouseObserverEEENS_9allocatorIS5_EEE20__throw_length_errorB8ne180100Ev, symObjAddr: 0x9B50, symBinAddr: 0x60FA0, symSize: 0x10 }
  - { offset: 0x1AA058, size: 0x8, addend: 0x0, symName: __ZN6VSTGUI12DispatchListIPNS_14IMouseObserverEE11postForEachEv, symObjAddr: 0x9B60, symBinAddr: 0x60FB0, symSize: 0x3D0 }
  - { offset: 0x1AA063, size: 0x8, addend: 0x0, symName: __ZN6VSTGUI6CFrame25registerFocusViewObserverEPNS_18IFocusViewObserverE, symObjAddr: 0x5C40, symBinAddr: 0x5DEA0, symSize: 0x30 }
  - { offset: 0x1AA0B2, size: 0x8, addend: 0x0, symName: __ZN6VSTGUI12DispatchListIPNS_18IFocusViewObserverEE3addERKS2_, symObjAddr: 0x5C70, symBinAddr: 0x5DED0, symSize: 0x2F0 }
  - { offset: 0x1AB35B, size: 0x8, addend: 0x0, symName: __ZNKSt3__16vectorIPN6VSTGUI18IFocusViewObserverENS_9allocatorIS3_EEE20__throw_length_errorB8ne180100Ev, symObjAddr: 0x9420, symBinAddr: 0x60B60, symSize: 0x10 }
  - { offset: 0x1AB385, size: 0x8, addend: 0x0, symName: __ZNKSt3__16vectorINS_4pairIbPN6VSTGUI18IFocusViewObserverEEENS_9allocatorIS5_EEE20__throw_length_errorB8ne180100Ev, symObjAddr: 0x9430, symBinAddr: 0x60B70, symSize: 0x10 }
  - { offset: 0x1AB390, size: 0x8, addend: 0x0, symName: __ZNKSt3__16vectorINS_4pairIbPN6VSTGUI18IFocusViewObserverEEENS_9allocatorIS5_EEE20__throw_length_errorB8ne180100Ev, symObjAddr: 0x9430, symBinAddr: 0x60B70, symSize: 0x10 }
  - { offset: 0x1AB3BA, size: 0x8, addend: 0x0, symName: __ZNKSt3__16vectorIPN6VSTGUI13IKeyboardHookENS_9allocatorIS3_EEE20__throw_length_errorB8ne180100Ev, symObjAddr: 0x9440, symBinAddr: 0x60B80, symSize: 0x10 }
  - { offset: 0x1AB5C7, size: 0x8, addend: 0x0, symName: __ZN6VSTGUI6CFrame27unregisterFocusViewObserverEPNS_18IFocusViewObserverE, symObjAddr: 0x5F60, symBinAddr: 0x5E1C0, symSize: 0x80 }
  - { offset: 0x1ABAA7, size: 0x8, addend: 0x0, symName: __ZN6VSTGUI6CFrame23unregisterMouseObserverEPNS_14IMouseObserverE, symObjAddr: 0x5FE0, symBinAddr: 0x5E240, symSize: 0x80 }
  - { offset: 0x1ABD85, size: 0x8, addend: 0x0, symName: __ZN6VSTGUI6CFrame29callMouseObserverMouseEnteredEPNS_5CViewE, symObjAddr: 0x6060, symBinAddr: 0x5E2C0, symSize: 0xC0 }
  - { offset: 0x1ABECE, size: 0x8, addend: 0x0, symName: __ZN6VSTGUI6CFrame11performDragERKNS_15DragDescriptionERKNS_13SharedPointerINS_13IDragCallbackEEE, symObjAddr: 0x6120, symBinAddr: 0x5E380, symSize: 0x40 }
  - { offset: 0x1ABF76, size: 0x8, addend: 0x0, symName: __ZNK6VSTGUI6CFrame16getPlatformFrameEv, symObjAddr: 0x6160, symBinAddr: 0x5E3C0, symSize: 0x10 }
  - { offset: 0x1AC0EC, size: 0x8, addend: 0x0, symName: __ZN6VSTGUI6CFrame17platformDrawRectsERKNSt3__110shared_ptrINS_30IPlatformGraphicsDeviceContextEEEdRKNS1_6vectorINS_5CRectENS1_9allocatorIS8_EEEE, symObjAddr: 0x6170, symBinAddr: 0x5E3D0, symSize: 0x110 }
  - { offset: 0x1AC3CB, size: 0x8, addend: 0x0, symName: __ZThn32_N6VSTGUI6CFrame17platformDrawRectsERKNSt3__110shared_ptrINS_30IPlatformGraphicsDeviceContextEEEdRKNS1_6vectorINS_5CRectENS1_9allocatorIS8_EEEE, symObjAddr: 0x62C0, symBinAddr: 0x5E4E0, symSize: 0x10 }
  - { offset: 0x1AC407, size: 0x8, addend: 0x0, symName: __ZN6VSTGUI6CFrame15platformOnEventERNS_5EventE, symObjAddr: 0x62D0, symBinAddr: 0x5E4F0, symSize: 0x10 }
  - { offset: 0x1AC470, size: 0x8, addend: 0x0, symName: __ZThn32_N6VSTGUI6CFrame15platformOnEventERNS_5EventE, symObjAddr: 0x62E0, symBinAddr: 0x5E500, symSize: 0x10 }
  - { offset: 0x1AC519, size: 0x8, addend: 0x0, symName: __ZN6VSTGUI6CFrame19platformOnDragEnterENS_13DragEventDataE, symObjAddr: 0x62F0, symBinAddr: 0x5E510, symSize: 0x100 }
  - { offset: 0x1AC77A, size: 0x8, addend: 0x0, symName: __ZN6VSTGUI13SharedPointerINS_11IDropTargetEED1Ev, symObjAddr: 0x63F0, symBinAddr: 0x5E610, symSize: 0x30 }
  - { offset: 0x1AC7BF, size: 0x8, addend: 0x0, symName: __ZThn32_N6VSTGUI6CFrame19platformOnDragEnterENS_13DragEventDataE, symObjAddr: 0x6420, symBinAddr: 0x5E640, symSize: 0x10 }
  - { offset: 0x1AC7E5, size: 0x8, addend: 0x0, symName: __ZN6VSTGUI6CFrame18platformOnDragMoveENS_13DragEventDataE, symObjAddr: 0x6430, symBinAddr: 0x5E650, symSize: 0x100 }
  - { offset: 0x1ACA46, size: 0x8, addend: 0x0, symName: __ZThn32_N6VSTGUI6CFrame18platformOnDragMoveENS_13DragEventDataE, symObjAddr: 0x6530, symBinAddr: 0x5E750, symSize: 0x10 }
  - { offset: 0x1ACA6C, size: 0x8, addend: 0x0, symName: __ZN6VSTGUI6CFrame19platformOnDragLeaveENS_13DragEventDataE, symObjAddr: 0x6540, symBinAddr: 0x5E760, symSize: 0xF0 }
  - { offset: 0x1ACCCD, size: 0x8, addend: 0x0, symName: __ZThn32_N6VSTGUI6CFrame19platformOnDragLeaveENS_13DragEventDataE, symObjAddr: 0x6630, symBinAddr: 0x5E850, symSize: 0x10 }
  - { offset: 0x1ACCF3, size: 0x8, addend: 0x0, symName: __ZN6VSTGUI6CFrame14platformOnDropENS_13DragEventDataE, symObjAddr: 0x6640, symBinAddr: 0x5E860, symSize: 0x100 }
  - { offset: 0x1ACF54, size: 0x8, addend: 0x0, symName: __ZThn32_N6VSTGUI6CFrame14platformOnDropENS_13DragEventDataE, symObjAddr: 0x6740, symBinAddr: 0x5E960, symSize: 0x10 }
  - { offset: 0x1ACF9F, size: 0x8, addend: 0x0, symName: __ZN6VSTGUI6CFrame18platformOnActivateEb, symObjAddr: 0x6750, symBinAddr: 0x5E970, symSize: 0xD0 }
  - { offset: 0x1AD154, size: 0x8, addend: 0x0, symName: __ZThn32_N6VSTGUI6CFrame18platformOnActivateEb, symObjAddr: 0x6820, symBinAddr: 0x5EA40, symSize: 0x10 }
  - { offset: 0x1AD198, size: 0x8, addend: 0x0, symName: __ZN6VSTGUI6CFrame24platformOnWindowActivateEb, symObjAddr: 0x6830, symBinAddr: 0x5EA50, symSize: 0xF0 }
  - { offset: 0x1AD45B, size: 0x8, addend: 0x0, symName: __ZN6VSTGUI12DispatchListIPNS_5CViewEE11postForEachEv, symObjAddr: 0xA220, symBinAddr: 0x61380, symSize: 0x3D0 }
  - { offset: 0x1AE341, size: 0x8, addend: 0x0, symName: __ZThn32_N6VSTGUI6CFrame24platformOnWindowActivateEb, symObjAddr: 0x6920, symBinAddr: 0x5EB40, symSize: 0x10 }
  - { offset: 0x1AE36F, size: 0x8, addend: 0x0, symName: __ZN6VSTGUI6CFrame26platformScaleFactorChangedEd, symObjAddr: 0x6930, symBinAddr: 0x5EB50, symSize: 0xD0 }
  - { offset: 0x1AE4E7, size: 0x8, addend: 0x0, symName: __ZThn32_N6VSTGUI6CFrame26platformScaleFactorChangedEd, symObjAddr: 0x6A00, symBinAddr: 0x5EC20, symSize: 0xD0 }
  - { offset: 0x1AE885, size: 0x8, addend: 0x0, symName: __ZN6VSTGUI6CFrame22doAfterEventProcessingEONSt3__18functionIFvvEEE, symObjAddr: 0x6AD0, symBinAddr: 0x5ECF0, symSize: 0x130 }
  - { offset: 0x1AEB04, size: 0x8, addend: 0x0, symName: __ZNSt3__15dequeINS_8functionIFvvEEENS_9allocatorIS3_EEE19__add_back_capacityEv, symObjAddr: 0xAFA0, symBinAddr: 0x61B20, symSize: 0x720 }
  - { offset: 0x1AFFE2, size: 0x8, addend: 0x0, symName: __ZN6VSTGUI6CFrame22doAfterEventProcessingERKNSt3__18functionIFvvEEE, symObjAddr: 0x6C00, symBinAddr: 0x5EE20, symSize: 0x120 }
  - { offset: 0x1B029F, size: 0x8, addend: 0x0, symName: __ZNK6VSTGUI6CFrame17inEventProcessingEv, symObjAddr: 0x6D20, symBinAddr: 0x5EF40, symSize: 0x20 }
  - { offset: 0x1B02C7, size: 0x8, addend: 0x0, symName: __ZN6VSTGUI6CFrame21onStartLocalEventLoopEv, symObjAddr: 0x6D40, symBinAddr: 0x5EF60, symSize: 0xB0 }
  - { offset: 0x1B052D, size: 0x8, addend: 0x0, symName: __ZN6VSTGUI6CFrame19CollectInvalidRects5flushEv, symObjAddr: 0x6DF0, symBinAddr: 0x5F010, symSize: 0x90 }
  - { offset: 0x1B0774, size: 0x8, addend: 0x0, symName: __ZN6VSTGUI6CFrame22setCollectInvalidRectsEPNS0_19CollectInvalidRectsE, symObjAddr: 0x6E80, symBinAddr: 0x5F0A0, symSize: 0xB0 }
  - { offset: 0x1B112F, size: 0x8, addend: 0x0, symName: __ZNKSt3__16vectorIN6VSTGUI5CRectENS_9allocatorIS2_EEE20__throw_length_errorB8ne180100Ev, symObjAddr: 0x8180, symBinAddr: 0x60020, symSize: 0x10 }
  - { offset: 0x1B1190, size: 0x8, addend: 0x0, symName: __ZN6VSTGUI23OldMouseObserverAdapter12onMouseEventERNS_10MouseEventEPNS_6CFrameE, symObjAddr: 0x7520, symBinAddr: 0x5F6F0, symSize: 0x100 }
  - { offset: 0x1B1346, size: 0x8, addend: 0x0, symName: __ZN6VSTGUI23OldMouseObserverAdapter12onMouseMovedEPNS_6CFrameERKNS_6CPointERKNS_12CButtonStateE, symObjAddr: 0x7620, symBinAddr: 0x5F7F0, symSize: 0x10 }
  - { offset: 0x1B1390, size: 0x8, addend: 0x0, symName: __ZN6VSTGUI23OldMouseObserverAdapter11onMouseDownEPNS_6CFrameERKNS_6CPointERKNS_12CButtonStateE, symObjAddr: 0x7630, symBinAddr: 0x5F800, symSize: 0x10 }
  - { offset: 0x1B13EA, size: 0x8, addend: 0x0, symName: __ZN6VSTGUI22OldKeyboardHookAdapter15onKeyboardEventERNS_13KeyboardEventEPNS_6CFrameE, symObjAddr: 0x7640, symBinAddr: 0x5F810, symSize: 0x60 }
  - { offset: 0x1B14B8, size: 0x8, addend: 0x0, symName: __ZN6VSTGUI6CFrameD1Ev, symObjAddr: 0x7920, symBinAddr: 0x5F870, symSize: 0x20 }
  - { offset: 0x1B150F, size: 0x8, addend: 0x0, symName: __ZN6VSTGUI6CFrameD0Ev, symObjAddr: 0x7940, symBinAddr: 0x5F890, symSize: 0x30 }
  - { offset: 0x1B156B, size: 0x8, addend: 0x0, symName: __ZNK6VSTGUI6CFrame7newCopyEv, symObjAddr: 0x7970, symBinAddr: 0x5F8C0, symSize: 0x10 }
  - { offset: 0x1B1590, size: 0x8, addend: 0x0, symName: __ZNK6VSTGUI6CFrame12frameToLocalERNS_6CPointE, symObjAddr: 0x7980, symBinAddr: 0x5F8D0, symSize: 0x10 }
  - { offset: 0x1B15C5, size: 0x8, addend: 0x0, symName: __ZNK6VSTGUI6CFrame12localToFrameERNS_6CPointE, symObjAddr: 0x7990, symBinAddr: 0x5F8E0, symSize: 0x10 }
  - { offset: 0x1B15FA, size: 0x8, addend: 0x0, symName: __ZThn32_N6VSTGUI6CFrameD1Ev, symObjAddr: 0x79A0, symBinAddr: 0x5F8F0, symSize: 0x20 }
  - { offset: 0x1B1664, size: 0x8, addend: 0x0, symName: __ZThn32_N6VSTGUI6CFrameD0Ev, symObjAddr: 0x79C0, symBinAddr: 0x5F910, symSize: 0x30 }
  - { offset: 0x1B16D3, size: 0x8, addend: 0x0, symName: __ZN6VSTGUI23OldMouseObserverAdapterD1Ev, symObjAddr: 0x79F0, symBinAddr: 0x5F940, symSize: 0x10 }
  - { offset: 0x1B16FF, size: 0x8, addend: 0x0, symName: __ZN6VSTGUI23OldMouseObserverAdapterD0Ev, symObjAddr: 0x7A00, symBinAddr: 0x5F950, symSize: 0x10 }
  - { offset: 0x1B172B, size: 0x8, addend: 0x0, symName: __ZN6VSTGUI23OldMouseObserverAdapter14onMouseEnteredEPNS_5CViewEPNS_6CFrameE, symObjAddr: 0x7A10, symBinAddr: 0x5F960, symSize: 0x10 }
  - { offset: 0x1B176E, size: 0x8, addend: 0x0, symName: __ZN6VSTGUI23OldMouseObserverAdapter13onMouseExitedEPNS_5CViewEPNS_6CFrameE, symObjAddr: 0x7A20, symBinAddr: 0x5F970, symSize: 0x10 }
  - { offset: 0x1B17B1, size: 0x8, addend: 0x0, symName: __ZN6VSTGUI22OldKeyboardHookAdapterD1Ev, symObjAddr: 0x7A30, symBinAddr: 0x177090, symSize: 0x10 }
  - { offset: 0x1B17DD, size: 0x8, addend: 0x0, symName: __ZN6VSTGUI22OldKeyboardHookAdapterD0Ev, symObjAddr: 0x7A40, symBinAddr: 0x1770A0, symSize: 0x10 }
  - { offset: 0x1B1809, size: 0x8, addend: 0x0, symName: __ZN6VSTGUI22IPlatformFrameCallbackD1Ev, symObjAddr: 0x7A50, symBinAddr: 0x1770B0, symSize: 0x10 }
  - { offset: 0x1B1832, size: 0x8, addend: 0x0, symName: __ZN6VSTGUI22IPlatformFrameCallbackD0Ev, symObjAddr: 0x7A60, symBinAddr: 0x1770C0, symSize: 0x10 }
  - { offset: 0x1B1F61, size: 0x8, addend: 0x0, symName: __ZNSt3__15dequeINS_8functionIFvvEEENS_9allocatorIS3_EEED2B8ne180100Ev, symObjAddr: 0x7C20, symBinAddr: 0x5FB30, symSize: 0x1C0 }
  - { offset: 0x1B24D1, size: 0x8, addend: 0x0, symName: __ZNSt3__15dequeIN6VSTGUI16ModalViewSessionENS_9allocatorIS2_EEED2B8ne180100Ev, symObjAddr: 0x7DE0, symBinAddr: 0x5FCF0, symSize: 0x180 }
  - { offset: 0x1B7361, size: 0x8, addend: 0x0, symName: __ZNSt3__114__split_bufferIPNS_8functionIFvvEEENS_9allocatorIS4_EEE10push_frontEOS4_, symObjAddr: 0xB8A0, symBinAddr: 0x62240, symSize: 0x1C9 }
  - { offset: 0x1B971D, size: 0x8, addend: 0x0, symName: __ZN6VSTGUI9CGradient6createERKNSt3__18multimapIdNS_6CColorENS1_4lessIdEENS1_9allocatorINS1_4pairIKdS3_EEEEEE, symObjAddr: 0x0, symBinAddr: 0x62410, symSize: 0x90 }
  - { offset: 0x1BD4BA, size: 0x8, addend: 0x0, symName: __ZN6VSTGUI9CGradient6createERKNSt3__18multimapIdNS_6CColorENS1_4lessIdEENS1_9allocatorINS1_4pairIKdS3_EEEEEE, symObjAddr: 0x0, symBinAddr: 0x62410, symSize: 0x90 }
  - { offset: 0x1BD80E, size: 0x8, addend: 0x0, symName: __ZN6VSTGUI9CGradientC1EONSt3__110unique_ptrINS_17IPlatformGradientENS1_14default_deleteIS3_EEEE, symObjAddr: 0x90, symBinAddr: 0x624A0, symSize: 0x30 }
  - { offset: 0x1BDFCC, size: 0x8, addend: 0x0, symName: __ZN6VSTGUI9CGradient6createEddRKNS_6CColorES3_, symObjAddr: 0xC0, symBinAddr: 0x624D0, symSize: 0x190 }
  - { offset: 0x1BEBD2, size: 0x8, addend: 0x0, symName: __ZN6VSTGUI9CGradientC2EONSt3__110unique_ptrINS_17IPlatformGradientENS1_14default_deleteIS3_EEEE, symObjAddr: 0x250, symBinAddr: 0x62660, symSize: 0x40 }
  - { offset: 0x1BEE10, size: 0x8, addend: 0x0, symName: __ZN6VSTGUI9CGradientD2Ev, symObjAddr: 0x290, symBinAddr: 0x626A0, symSize: 0x40 }
  - { offset: 0x1BEEF5, size: 0x8, addend: 0x0, symName: __ZN6VSTGUI9CGradientD1Ev, symObjAddr: 0x2D0, symBinAddr: 0x626E0, symSize: 0x30 }
  - { offset: 0x1BEFE8, size: 0x8, addend: 0x0, symName: __ZN6VSTGUI9CGradientD0Ev, symObjAddr: 0x300, symBinAddr: 0x62710, symSize: 0x40 }
  - { offset: 0x1BF1BA, size: 0x8, addend: 0x0, symName: __ZN6VSTGUI9CGradient12addColorStopEdRKNS_6CColorE, symObjAddr: 0x340, symBinAddr: 0x62750, symSize: 0x30 }
  - { offset: 0x1BF300, size: 0x8, addend: 0x0, symName: __ZN6VSTGUI9CGradient12addColorStopERKNSt3__14pairIdNS_6CColorEEE, symObjAddr: 0x370, symBinAddr: 0x62780, symSize: 0x20 }
  - { offset: 0x1BF35C, size: 0x8, addend: 0x0, symName: __ZNK6VSTGUI9CGradient13getColorStopsEv, symObjAddr: 0x390, symBinAddr: 0x627A0, symSize: 0x10 }
  - { offset: 0x1BF3B0, size: 0x8, addend: 0x0, symName: __ZNK6VSTGUI9CGradient19getPlatformGradientEv, symObjAddr: 0x3A0, symBinAddr: 0x627B0, symSize: 0x10 }
  - { offset: 0x1C134D, size: 0x8, addend: 0x0, symName: __ZN6VSTGUI13CGradientViewC2ERKNS_5CRectE, symObjAddr: 0x0, symBinAddr: 0x627C0, symSize: 0x80 }
  - { offset: 0x1C7F16, size: 0x8, addend: 0x0, symName: __ZN6VSTGUI13CGradientViewC2ERKNS_5CRectE, symObjAddr: 0x0, symBinAddr: 0x627C0, symSize: 0x80 }
  - { offset: 0x1C8078, size: 0x8, addend: 0x0, symName: __ZN6VSTGUI13CGradientViewC1ERKNS_5CRectE, symObjAddr: 0x80, symBinAddr: 0x62840, symSize: 0x80 }
  - { offset: 0x1C81C8, size: 0x8, addend: 0x0, symName: __ZN6VSTGUI13CGradientView16attributeChangedEv, symObjAddr: 0x100, symBinAddr: 0x628C0, symSize: 0x10 }
  - { offset: 0x1C8203, size: 0x8, addend: 0x0, symName: __ZN6VSTGUI13CGradientView16setGradientStyleENS0_13GradientStyleE, symObjAddr: 0x110, symBinAddr: 0x628D0, symSize: 0x20 }
  - { offset: 0x1C8283, size: 0x8, addend: 0x0, symName: __ZN6VSTGUI13CGradientView11setGradientEPNS_9CGradientE, symObjAddr: 0x130, symBinAddr: 0x628F0, symSize: 0x50 }
  - { offset: 0x1C836C, size: 0x8, addend: 0x0, symName: __ZN6VSTGUI13CGradientView13setFrameColorERKNS_6CColorE, symObjAddr: 0x180, symBinAddr: 0x62940, symSize: 0x50 }
  - { offset: 0x1C83E8, size: 0x8, addend: 0x0, symName: __ZN6VSTGUI13CGradientView16setGradientAngleEd, symObjAddr: 0x1D0, symBinAddr: 0x62990, symSize: 0x20 }
  - { offset: 0x1C8452, size: 0x8, addend: 0x0, symName: __ZN6VSTGUI13CGradientView18setRoundRectRadiusEd, symObjAddr: 0x1F0, symBinAddr: 0x629B0, symSize: 0x50 }
  - { offset: 0x1C84C2, size: 0x8, addend: 0x0, symName: __ZN6VSTGUI13CGradientView13setFrameWidthEd, symObjAddr: 0x240, symBinAddr: 0x62A00, symSize: 0x50 }
  - { offset: 0x1C8532, size: 0x8, addend: 0x0, symName: __ZN6VSTGUI13CGradientView18setDrawAntialiasedEb, symObjAddr: 0x290, symBinAddr: 0x62A50, symSize: 0x20 }
  - { offset: 0x1C859B, size: 0x8, addend: 0x0, symName: __ZN6VSTGUI13CGradientView15setRadialCenterERKNS_6CPointE, symObjAddr: 0x2B0, symBinAddr: 0x62A70, symSize: 0x40 }
  - { offset: 0x1C85F9, size: 0x8, addend: 0x0, symName: __ZN6VSTGUI13CGradientView15setRadialRadiusEd, symObjAddr: 0x2F0, symBinAddr: 0x62AB0, symSize: 0x20 }
  - { offset: 0x1C8661, size: 0x8, addend: 0x0, symName: __ZN6VSTGUI13CGradientView11setViewSizeERKNS_5CRectEb, symObjAddr: 0x310, symBinAddr: 0x62AD0, symSize: 0x90 }
  - { offset: 0x1C8800, size: 0x8, addend: 0x0, symName: __ZN6VSTGUI13CGradientView4drawEPNS_12CDrawContextE, symObjAddr: 0x3A0, symBinAddr: 0x62B60, symSize: 0x470 }
  - { offset: 0x1C8C67, size: 0x8, addend: 0x0, symName: __ZN6VSTGUI13CGradientViewD1Ev, symObjAddr: 0xA60, symBinAddr: 0x62FD0, symSize: 0x60 }
  - { offset: 0x1C8D36, size: 0x8, addend: 0x0, symName: __ZN6VSTGUI13CGradientViewD0Ev, symObjAddr: 0xAC0, symBinAddr: 0x63030, symSize: 0x60 }
  - { offset: 0x1CACD3, size: 0x8, addend: 0x0, symName: __ZN6VSTGUI13CGraphicsPath12addRoundRectERKNS_5CRectEd, symObjAddr: 0x0, symBinAddr: 0x63090, symSize: 0x180 }
  - { offset: 0x1CE2F8, size: 0x8, addend: 0x0, symName: __ZN6VSTGUI13CGraphicsPath12addRoundRectERKNS_5CRectEd, symObjAddr: 0x0, symBinAddr: 0x63090, symSize: 0x180 }
  - { offset: 0x1CE55B, size: 0x8, addend: 0x0, symName: __ZN6VSTGUI13CGraphicsPath12beginSubpathERKNS_6CPointE, symObjAddr: 0x320, symBinAddr: 0x633B0, symSize: 0x190 }
  - { offset: 0x1CEB78, size: 0x8, addend: 0x0, symName: __ZN6VSTGUI13CGraphicsPath6addArcERKNS_5CRectEddb, symObjAddr: 0x4B0, symBinAddr: 0x63540, symSize: 0x1E0 }
  - { offset: 0x1CF1C5, size: 0x8, addend: 0x0, symName: __ZN6VSTGUI13CGraphicsPath12closeSubpathEv, symObjAddr: 0x690, symBinAddr: 0x63720, symSize: 0x170 }
  - { offset: 0x1CF7B5, size: 0x8, addend: 0x0, symName: __ZN6VSTGUI13CGraphicsPath7addRectERKNS_5CRectE, symObjAddr: 0x180, symBinAddr: 0x63210, symSize: 0x1A0 }
  - { offset: 0x1D029B, size: 0x8, addend: 0x0, symName: __ZNKSt3__16vectorIN6VSTGUI13CGraphicsPath7ElementENS_9allocatorIS3_EEE20__throw_length_errorB8ne180100Ev, symObjAddr: 0x1780, symBinAddr: 0x64790, symSize: 0x10 }
  - { offset: 0x1D03C3, size: 0x8, addend: 0x0, symName: __ZN6VSTGUI13CGraphicsPath7addPathERKS0_PNS_18CGraphicsTransformE, symObjAddr: 0x800, symBinAddr: 0x63890, symSize: 0x380 }
  - { offset: 0x1D0B75, size: 0x8, addend: 0x0, symName: __ZN6VSTGUI13CGraphicsPath5dirtyEv, symObjAddr: 0xB80, symBinAddr: 0x63C10, symSize: 0x30 }
  - { offset: 0x1D0C14, size: 0x8, addend: 0x0, symName: __ZN6VSTGUI13CGraphicsPath10addEllipseERKNS_5CRectE, symObjAddr: 0xBB0, symBinAddr: 0x63C40, symSize: 0x1A0 }
  - { offset: 0x1D1231, size: 0x8, addend: 0x0, symName: __ZN6VSTGUI13CGraphicsPath7addLineERKNS_6CPointE, symObjAddr: 0xD50, symBinAddr: 0x63DE0, symSize: 0x190 }
  - { offset: 0x1D184E, size: 0x8, addend: 0x0, symName: __ZN6VSTGUI13CGraphicsPath14addBezierCurveERKNS_6CPointES3_S3_, symObjAddr: 0xEE0, symBinAddr: 0x63F70, symSize: 0x1B0 }
  - { offset: 0x1D21FA, size: 0x8, addend: 0x0, symName: __ZN6VSTGUI13CGraphicsPathC2ERKNSt3__110shared_ptrINS_28IPlatformGraphicsPathFactoryEEEONS1_10unique_ptrINS_21IPlatformGraphicsPathENS1_14default_deleteIS8_EEEE, symObjAddr: 0x1090, symBinAddr: 0x64120, symSize: 0x70 }
  - { offset: 0x1D251D, size: 0x8, addend: 0x0, symName: __ZN6VSTGUI13CGraphicsPathC1ERKNSt3__110shared_ptrINS_28IPlatformGraphicsPathFactoryEEEONS1_10unique_ptrINS_21IPlatformGraphicsPathENS1_14default_deleteIS8_EEEE, symObjAddr: 0x1100, symBinAddr: 0x64190, symSize: 0x50 }
  - { offset: 0x1D2950, size: 0x8, addend: 0x0, symName: __ZN6VSTGUI13CGraphicsPathD2Ev, symObjAddr: 0x1150, symBinAddr: 0x641E0, symSize: 0x90 }
  - { offset: 0x1D2BD4, size: 0x8, addend: 0x0, symName: __ZN6VSTGUI13CGraphicsPathD1Ev, symObjAddr: 0x11E0, symBinAddr: 0x64270, symSize: 0x80 }
  - { offset: 0x1D2E64, size: 0x8, addend: 0x0, symName: __ZN6VSTGUI13CGraphicsPathD0Ev, symObjAddr: 0x1260, symBinAddr: 0x642F0, symSize: 0x80 }
  - { offset: 0x1D30FE, size: 0x8, addend: 0x0, symName: __ZN6VSTGUI13CGraphicsPath14createGradientEddRKNS_6CColorES3_, symObjAddr: 0x12E0, symBinAddr: 0x64370, symSize: 0x10 }
  - { offset: 0x1D325D, size: 0x8, addend: 0x0, symName: __ZN6VSTGUI13CGraphicsPath24makePlatformGraphicsPathENS_28PlatformGraphicsPathFillModeE, symObjAddr: 0x12F0, symBinAddr: 0x64380, symSize: 0x1D0 }
  - { offset: 0x1D37D5, size: 0x8, addend: 0x0, symName: __ZN6VSTGUI13CGraphicsPath31ensurePlatformGraphicsPathValidENS_28PlatformGraphicsPathFillModeE, symObjAddr: 0x14C0, symBinAddr: 0x64550, symSize: 0x50 }
  - { offset: 0x1D38DE, size: 0x8, addend: 0x0, symName: __ZN6VSTGUI13CGraphicsPath7hitTestERKNS_6CPointEbPNS_18CGraphicsTransformE, symObjAddr: 0x1510, symBinAddr: 0x645A0, symSize: 0x80 }
  - { offset: 0x1D3A4D, size: 0x8, addend: 0x0, symName: __ZN6VSTGUI13CGraphicsPath18getCurrentPositionEv, symObjAddr: 0x1590, symBinAddr: 0x64620, symSize: 0x90 }
  - { offset: 0x1D3B0F, size: 0x8, addend: 0x0, symName: __ZN6VSTGUI13CGraphicsPath14getBoundingBoxEv, symObjAddr: 0x1620, symBinAddr: 0x646B0, symSize: 0x90 }
  - { offset: 0x1D3C90, size: 0x8, addend: 0x0, symName: __ZN6VSTGUI13CGraphicsPath15getPlatformPathENS_28PlatformGraphicsPathFillModeE, symObjAddr: 0x16B0, symBinAddr: 0x64740, symSize: 0x50 }
  - { offset: 0x1D5CC8, size: 0x8, addend: 0x0, symName: __ZN6VSTGUI21CLayeredViewContainerC2ERKNS_5CRectE, symObjAddr: 0x0, symBinAddr: 0x647A0, symSize: 0x80 }
  - { offset: 0x1E08A2, size: 0x8, addend: 0x0, symName: __ZN6VSTGUI21CLayeredViewContainerC2ERKNS_5CRectE, symObjAddr: 0x0, symBinAddr: 0x647A0, symSize: 0x80 }
  - { offset: 0x1E096B, size: 0x8, addend: 0x0, symName: __ZN6VSTGUI21CLayeredViewContainerC1ERKNS_5CRectE, symObjAddr: 0x80, symBinAddr: 0x64820, symSize: 0x70 }
  - { offset: 0x1E09E0, size: 0x8, addend: 0x0, symName: __ZN6VSTGUI21CLayeredViewContainer9setZIndexEj, symObjAddr: 0xF0, symBinAddr: 0x64890, symSize: 0x30 }
  - { offset: 0x1E0BCF, size: 0x8, addend: 0x0, symName: __ZN6VSTGUI21CLayeredViewContainer15updateLayerSizeEv, symObjAddr: 0x120, symBinAddr: 0x648C0, symSize: 0x390 }
  - { offset: 0x1E0F9E, size: 0x8, addend: 0x0, symName: __ZN6VSTGUI21CLayeredViewContainer7removedEPNS_5CViewE, symObjAddr: 0x4B0, symBinAddr: 0x64C50, symSize: 0xB0 }
  - { offset: 0x1E105A, size: 0x8, addend: 0x0, symName: __ZN6VSTGUI21CLayeredViewContainer17registerListenersEb, symObjAddr: 0x560, symBinAddr: 0x64D00, symSize: 0x80 }
  - { offset: 0x1E1151, size: 0x8, addend: 0x0, symName: __ZN6VSTGUI21CLayeredViewContainer8attachedEPNS_5CViewE, symObjAddr: 0x5E0, symBinAddr: 0x64D80, symSize: 0x210 }
  - { offset: 0x1E1348, size: 0x8, addend: 0x0, symName: __ZN6VSTGUI21CLayeredViewContainer29viewContainerTransformChangedEPNS_14CViewContainerE, symObjAddr: 0x7F0, symBinAddr: 0x64F90, symSize: 0x10 }
  - { offset: 0x1E13A7, size: 0x8, addend: 0x0, symName: __ZThn40_N6VSTGUI21CLayeredViewContainer29viewContainerTransformChangedEPNS_14CViewContainerE, symObjAddr: 0x800, symBinAddr: 0x64FA0, symSize: 0x10 }
  - { offset: 0x1E13FF, size: 0x8, addend: 0x0, symName: __ZN6VSTGUI21CLayeredViewContainer7invalidEv, symObjAddr: 0x810, symBinAddr: 0x64FB0, symSize: 0x50 }
  - { offset: 0x1E148E, size: 0x8, addend: 0x0, symName: __ZN6VSTGUI21CLayeredViewContainer11invalidRectERKNS_5CRectE, symObjAddr: 0x860, symBinAddr: 0x65000, symSize: 0xC0 }
  - { offset: 0x1E15C6, size: 0x8, addend: 0x0, symName: __ZNK6VSTGUI21CLayeredViewContainer16getDrawTransformEv, symObjAddr: 0x920, symBinAddr: 0x650C0, symSize: 0x390 }
  - { offset: 0x1E2364, size: 0x8, addend: 0x0, symName: __ZN6VSTGUI21CLayeredViewContainer17parentSizeChangedEv, symObjAddr: 0xCB0, symBinAddr: 0x65450, symSize: 0x40 }
  - { offset: 0x1E23AD, size: 0x8, addend: 0x0, symName: __ZN6VSTGUI21CLayeredViewContainer11setViewSizeERKNS_5CRectEb, symObjAddr: 0xCF0, symBinAddr: 0x65490, symSize: 0x20 }
  - { offset: 0x1E2404, size: 0x8, addend: 0x0, symName: __ZN6VSTGUI21CLayeredViewContainer13setAlphaValueEf, symObjAddr: 0xD10, symBinAddr: 0x654B0, symSize: 0x50 }
  - { offset: 0x1E245E, size: 0x8, addend: 0x0, symName: __ZN6VSTGUI21CLayeredViewContainer8drawRectEPNS_12CDrawContextERKNS_5CRectE, symObjAddr: 0xD60, symBinAddr: 0x65500, symSize: 0x80 }
  - { offset: 0x1E2637, size: 0x8, addend: 0x0, symName: __ZN6VSTGUI21CLayeredViewContainer18drawViewLayerRectsERKNSt3__110shared_ptrINS_30IPlatformGraphicsDeviceContextEEEdRKNS1_6vectorINS_5CRectENS1_9allocatorIS8_EEEE, symObjAddr: 0xDE0, symBinAddr: 0x65580, symSize: 0x410 }
  - { offset: 0x1E2AFC, size: 0x8, addend: 0x0, symName: __ZThn32_N6VSTGUI21CLayeredViewContainer18drawViewLayerRectsERKNSt3__110shared_ptrINS_30IPlatformGraphicsDeviceContextEEEdRKNS1_6vectorINS_5CRectENS1_9allocatorIS8_EEEE, symObjAddr: 0x1230, symBinAddr: 0x65990, symSize: 0x10 }
  - { offset: 0x1E2B37, size: 0x8, addend: 0x0, symName: __ZN6VSTGUI21CLayeredViewContainer20onScaleFactorChangedEPNS_6CFrameEd, symObjAddr: 0x12A0, symBinAddr: 0x659A0, symSize: 0x20 }
  - { offset: 0x1E2BBF, size: 0x8, addend: 0x0, symName: __ZThn48_N6VSTGUI21CLayeredViewContainer20onScaleFactorChangedEPNS_6CFrameEd, symObjAddr: 0x12C0, symBinAddr: 0x659C0, symSize: 0x20 }
  - { offset: 0x1E2C4F, size: 0x8, addend: 0x0, symName: __ZN6VSTGUI21CLayeredViewContainerD1Ev, symObjAddr: 0x1590, symBinAddr: 0x659E0, symSize: 0x60 }
  - { offset: 0x1E2CE4, size: 0x8, addend: 0x0, symName: __ZN6VSTGUI21CLayeredViewContainerD0Ev, symObjAddr: 0x15F0, symBinAddr: 0x65A40, symSize: 0x70 }
  - { offset: 0x1E2D6E, size: 0x8, addend: 0x0, symName: __ZThn32_N6VSTGUI21CLayeredViewContainerD1Ev, symObjAddr: 0x1660, symBinAddr: 0x65AB0, symSize: 0x70 }
  - { offset: 0x1E2E06, size: 0x8, addend: 0x0, symName: __ZThn32_N6VSTGUI21CLayeredViewContainerD0Ev, symObjAddr: 0x16D0, symBinAddr: 0x65B20, symSize: 0x70 }
  - { offset: 0x1E2E9B, size: 0x8, addend: 0x0, symName: __ZThn40_N6VSTGUI21CLayeredViewContainerD1Ev, symObjAddr: 0x1740, symBinAddr: 0x65B90, symSize: 0x70 }
  - { offset: 0x1E2F19, size: 0x8, addend: 0x0, symName: __ZThn40_N6VSTGUI21CLayeredViewContainerD0Ev, symObjAddr: 0x17B0, symBinAddr: 0x65C00, symSize: 0x70 }
  - { offset: 0x1E2FAE, size: 0x8, addend: 0x0, symName: __ZN6VSTGUI28ViewContainerListenerAdapter22viewContainerViewAddedEPNS_14CViewContainerEPNS_5CViewE, symObjAddr: 0x1820, symBinAddr: 0x65C70, symSize: 0x10 }
  - { offset: 0x1E2FEF, size: 0x8, addend: 0x0, symName: __ZN6VSTGUI28ViewContainerListenerAdapter24viewContainerViewRemovedEPNS_14CViewContainerEPNS_5CViewE, symObjAddr: 0x1830, symBinAddr: 0x65C80, symSize: 0x10 }
  - { offset: 0x1E3030, size: 0x8, addend: 0x0, symName: __ZN6VSTGUI28ViewContainerListenerAdapter30viewContainerViewZOrderChangedEPNS_14CViewContainerEPNS_5CViewE, symObjAddr: 0x1840, symBinAddr: 0x65C90, symSize: 0x10 }
  - { offset: 0x1E3071, size: 0x8, addend: 0x0, symName: __ZThn48_N6VSTGUI21CLayeredViewContainerD1Ev, symObjAddr: 0x1850, symBinAddr: 0x65CA0, symSize: 0x70 }
  - { offset: 0x1E30EF, size: 0x8, addend: 0x0, symName: __ZThn48_N6VSTGUI21CLayeredViewContainerD0Ev, symObjAddr: 0x18C0, symBinAddr: 0x65D10, symSize: 0x70 }
  - { offset: 0x1E3184, size: 0x8, addend: 0x0, symName: __ZN6VSTGUI26IPlatformViewLayerDelegateD1Ev, symObjAddr: 0x1930, symBinAddr: 0x1770D0, symSize: 0x10 }
  - { offset: 0x1E31AD, size: 0x8, addend: 0x0, symName: __ZN6VSTGUI26IPlatformViewLayerDelegateD0Ev, symObjAddr: 0x1940, symBinAddr: 0x1770E0, symSize: 0x10 }
  - { offset: 0x1E31D6, size: 0x8, addend: 0x0, symName: __ZN6VSTGUI28ViewContainerListenerAdapterD1Ev, symObjAddr: 0x1950, symBinAddr: 0x65D80, symSize: 0x10 }
  - { offset: 0x1E3201, size: 0x8, addend: 0x0, symName: __ZN6VSTGUI28ViewContainerListenerAdapterD0Ev, symObjAddr: 0x1960, symBinAddr: 0x65D90, symSize: 0x10 }
  - { offset: 0x1E322C, size: 0x8, addend: 0x0, symName: __ZN6VSTGUI28ViewContainerListenerAdapter29viewContainerTransformChangedEPNS_14CViewContainerE, symObjAddr: 0x1970, symBinAddr: 0x65DA0, symSize: 0x10 }
  - { offset: 0x1E325F, size: 0x8, addend: 0x0, symName: __ZN6VSTGUI27IScaleFactorChangedListenerD1Ev, symObjAddr: 0x1980, symBinAddr: 0x1770F0, symSize: 0x10 }
  - { offset: 0x1E3288, size: 0x8, addend: 0x0, symName: __ZN6VSTGUI27IScaleFactorChangedListenerD0Ev, symObjAddr: 0x1990, symBinAddr: 0x177100, symSize: 0x10 }
  - { offset: 0x1E51B9, size: 0x8, addend: 0x0, symName: __ZN6VSTGUI10kLineSolidE, symObjAddr: 0x23E08, symBinAddr: 0x1F4EA0, symSize: 0x0 }
  - { offset: 0x1E543D, size: 0x8, addend: 0x0, symName: __ZN6VSTGUI14kLineOnOffDashE, symObjAddr: 0x23E30, symBinAddr: 0x1F4EC8, symSize: 0x0 }
  - { offset: 0x1E5457, size: 0x8, addend: 0x0, symName: __ZN6VSTGUIL23kDefaultOnOffDashLengthE, symObjAddr: 0xAB0, symBinAddr: 0x17B1C0, symSize: 0x0 }
  - { offset: 0x1E8CDD, size: 0x8, addend: 0x0, symName: __ZN6VSTGUI10CLineStyleC2ENS0_7LineCapENS0_8LineJoinEdjPKd, symObjAddr: 0x0, symBinAddr: 0x65DB0, symSize: 0x2A0 }
  - { offset: 0x1E93E4, size: 0x8, addend: 0x0, symName: __ZNKSt3__16vectorIdNS_9allocatorIdEEE20__throw_length_errorB8ne180100Ev, symObjAddr: 0x7A0, symBinAddr: 0x664C0, symSize: 0x10 }
  - { offset: 0x1E9419, size: 0x8, addend: 0x0, symName: __ZN6VSTGUI10CLineStyleC1ENS0_7LineCapENS0_8LineJoinEdjPKd, symObjAddr: 0x2A0, symBinAddr: 0x66050, symSize: 0x10 }
  - { offset: 0x1E96B2, size: 0x8, addend: 0x0, symName: __ZN6VSTGUI10CLineStyleC2ENS0_7LineCapENS0_8LineJoinEdRKNSt3__16vectorIdNS3_9allocatorIdEEEE, symObjAddr: 0x2B0, symBinAddr: 0x66060, symSize: 0xB0 }
  - { offset: 0x1E9B73, size: 0x8, addend: 0x0, symName: __ZN6VSTGUI10CLineStyleC1ENS0_7LineCapENS0_8LineJoinEdRKNSt3__16vectorIdNS3_9allocatorIdEEEE, symObjAddr: 0x360, symBinAddr: 0x66110, symSize: 0xB0 }
  - { offset: 0x1EA0D0, size: 0x8, addend: 0x0, symName: __ZN6VSTGUI10CLineStyleC2ERKS0_, symObjAddr: 0x410, symBinAddr: 0x661C0, symSize: 0x80 }
  - { offset: 0x1EA2DC, size: 0x8, addend: 0x0, symName: __ZNSt3__16vectorIdNS_9allocatorIdEEE18__assign_with_sizeB8ne180100IPdS5_EEvT_T0_l, symObjAddr: 0x870, symBinAddr: 0x664D0, symSize: 0x143 }
  - { offset: 0x1EAD2A, size: 0x8, addend: 0x0, symName: __ZN6VSTGUI10CLineStyleaSERKS0_, symObjAddr: 0x490, symBinAddr: 0x66240, symSize: 0x50 }
  - { offset: 0x1EAE82, size: 0x8, addend: 0x0, symName: __ZN6VSTGUI10CLineStyleC1ERKS0_, symObjAddr: 0x4E0, symBinAddr: 0x66290, symSize: 0x80 }
  - { offset: 0x1EB110, size: 0x8, addend: 0x0, symName: __ZN6VSTGUI10CLineStyleC2ENS0_7LineCapENS0_8LineJoinEdONSt3__16vectorIdNS3_9allocatorIdEEEE, symObjAddr: 0x560, symBinAddr: 0x66310, symSize: 0x40 }
  - { offset: 0x1EB255, size: 0x8, addend: 0x0, symName: __ZN6VSTGUI10CLineStyleC2EOS0_, symObjAddr: 0x5E0, symBinAddr: 0x66350, symSize: 0x50 }
  - { offset: 0x1EB308, size: 0x8, addend: 0x0, symName: __ZN6VSTGUI10CLineStyleaSEOS0_, symObjAddr: 0x630, symBinAddr: 0x663A0, symSize: 0x80 }
  - { offset: 0x1EB50E, size: 0x8, addend: 0x0, symName: __ZNK6VSTGUI10CLineStyleeqERKS0_, symObjAddr: 0x700, symBinAddr: 0x66420, symSize: 0x80 }
  - { offset: 0x1EB684, size: 0x8, addend: 0x0, symName: __ZN6VSTGUI10CLineStyleD1Ev, symObjAddr: 0x780, symBinAddr: 0x664A0, symSize: 0x20 }
  - { offset: 0x1F0EF2, size: 0x8, addend: 0x0, symName: __ZN6VSTGUI21renderBitmapOffscreenERKNS_6CPointEdNSt3__18functionIFvRNS_12CDrawContextEEEE, symObjAddr: 0x750, symBinAddr: 0x66DB0, symSize: 0xB0 }
  - { offset: 0x1F65D5, size: 0x8, addend: 0x0, symName: __ZN6VSTGUI17COffscreenContextC2EPNS_7CBitmapE, symObjAddr: 0x0, symBinAddr: 0x666A0, symSize: 0x90 }
  - { offset: 0x1F671D, size: 0x8, addend: 0x0, symName: __ZN6VSTGUI17COffscreenContextC1EPNS_7CBitmapE, symObjAddr: 0x90, symBinAddr: 0x66730, symSize: 0x90 }
  - { offset: 0x1F688B, size: 0x8, addend: 0x0, symName: __ZN6VSTGUI17COffscreenContextC2ERKNS_5CRectE, symObjAddr: 0x120, symBinAddr: 0x667C0, symSize: 0x40 }
  - { offset: 0x1F6914, size: 0x8, addend: 0x0, symName: __ZN6VSTGUI17COffscreenContextC1ERKNS_5CRectE, symObjAddr: 0x160, symBinAddr: 0x66800, symSize: 0x40 }
  - { offset: 0x1F6AAA, size: 0x8, addend: 0x0, symName: __ZN6VSTGUI17COffscreenContextC2ENSt3__110shared_ptrINS_30IPlatformGraphicsDeviceContextEEERKNS_5CRectERKNS_13SharedPointerINS_15IPlatformBitmapEEE, symObjAddr: 0x1A0, symBinAddr: 0x66840, symSize: 0x100 }
  - { offset: 0x1F6D6A, size: 0x8, addend: 0x0, symName: __ZN6VSTGUI17COffscreenContextC1ENSt3__110shared_ptrINS_30IPlatformGraphicsDeviceContextEEERKNS_5CRectERKNS_13SharedPointerINS_15IPlatformBitmapEEE, symObjAddr: 0x2E0, symBinAddr: 0x66940, symSize: 0xF0 }
  - { offset: 0x1F6FEF, size: 0x8, addend: 0x0, symName: __ZN6VSTGUI17COffscreenContext8copyFromEPNS_12CDrawContextENS_5CRectENS_6CPointE, symObjAddr: 0x3D0, symBinAddr: 0x66A30, symSize: 0x40 }
  - { offset: 0x1F70E3, size: 0x8, addend: 0x0, symName: __ZN6VSTGUI17COffscreenContext6createEPNS_6CFrameEddd, symObjAddr: 0x410, symBinAddr: 0x66A70, symSize: 0x30 }
  - { offset: 0x1F71B6, size: 0x8, addend: 0x0, symName: __ZN6VSTGUI17COffscreenContext6createERKNS_6CPointEd, symObjAddr: 0x440, symBinAddr: 0x66AA0, symSize: 0x290 }
  - { offset: 0x1F7BD0, size: 0x8, addend: 0x0, symName: __ZNSt3__110shared_ptrIN6VSTGUI23IPlatformGraphicsDeviceEED1B8ne180100Ev, symObjAddr: 0x6D0, symBinAddr: 0x66D30, symSize: 0x40 }
  - { offset: 0x1F7C6B, size: 0x8, addend: 0x0, symName: __ZNK6VSTGUI17COffscreenContext8getWidthEv, symObjAddr: 0x710, symBinAddr: 0x66D70, symSize: 0x20 }
  - { offset: 0x1F7CB3, size: 0x8, addend: 0x0, symName: __ZNK6VSTGUI17COffscreenContext9getHeightEv, symObjAddr: 0x730, symBinAddr: 0x66D90, symSize: 0x20 }
  - { offset: 0x1F7E91, size: 0x8, addend: 0x0, symName: __ZN6VSTGUI17COffscreenContextD1Ev, symObjAddr: 0x880, symBinAddr: 0x66E60, symSize: 0x40 }
  - { offset: 0x1F7F28, size: 0x8, addend: 0x0, symName: __ZN6VSTGUI17COffscreenContextD0Ev, symObjAddr: 0x8C0, symBinAddr: 0x66EA0, symSize: 0x50 }
  - { offset: 0x202895, size: 0x8, addend: 0x0, symName: __ZN6VSTGUI14CAutoAnimation10startTimerEv, symObjAddr: 0xBD0, symBinAddr: 0x67AC0, symSize: 0x130 }
  - { offset: 0x202E87, size: 0x8, addend: 0x0, symName: __ZN6VSTGUI14CAutoAnimationC2ERKNS_5CRectEPNS_16IControlListenerEiPNS_7CBitmapE, symObjAddr: 0x0, symBinAddr: 0x66EF0, symSize: 0x130 }
  - { offset: 0x202FC8, size: 0x8, addend: 0x0, symName: __ZN6VSTGUI13SharedPointerINS_12CVSTGUITimerEED1Ev, symObjAddr: 0x130, symBinAddr: 0x67020, symSize: 0x40 }
  - { offset: 0x203091, size: 0x8, addend: 0x0, symName: __ZN6VSTGUI14CAutoAnimationC1ERKNS_5CRectEPNS_16IControlListenerEiPNS_7CBitmapE, symObjAddr: 0x170, symBinAddr: 0x67060, symSize: 0x120 }
  - { offset: 0x2031A7, size: 0x8, addend: 0x0, symName: __ZN6VSTGUI14CAutoAnimationC2ERKNS_5CRectEPNS_16IControlListenerEiPNS_7CBitmapERKNS_6CPointE, symObjAddr: 0x290, symBinAddr: 0x67180, symSize: 0x140 }
  - { offset: 0x2032F7, size: 0x8, addend: 0x0, symName: __ZN6VSTGUI14CAutoAnimationC1ERKNS_5CRectEPNS_16IControlListenerEiPNS_7CBitmapERKNS_6CPointE, symObjAddr: 0x3D0, symBinAddr: 0x672C0, symSize: 0x130 }
  - { offset: 0x203457, size: 0x8, addend: 0x0, symName: __ZN6VSTGUI14CAutoAnimationC2ERKNS_5CRectEPNS_16IControlListenerEiidPNS_7CBitmapERKNS_6CPointE, symObjAddr: 0x500, symBinAddr: 0x673F0, symSize: 0x160 }
  - { offset: 0x203645, size: 0x8, addend: 0x0, symName: __ZN6VSTGUI14CAutoAnimationC1ERKNS_5CRectEPNS_16IControlListenerEiidPNS_7CBitmapERKNS_6CPointE, symObjAddr: 0x660, symBinAddr: 0x67550, symSize: 0x160 }
  - { offset: 0x20384D, size: 0x8, addend: 0x0, symName: __ZN6VSTGUI14CAutoAnimation15setBitmapOffsetERKNS_6CPointE, symObjAddr: 0x7C0, symBinAddr: 0x676B0, symSize: 0x20 }
  - { offset: 0x203896, size: 0x8, addend: 0x0, symName: __ZNK6VSTGUI14CAutoAnimation15getBitmapOffsetEv, symObjAddr: 0x7E0, symBinAddr: 0x676D0, symSize: 0x10 }
  - { offset: 0x2038BD, size: 0x8, addend: 0x0, symName: __ZN6VSTGUI14CAutoAnimationC2ERKS0_, symObjAddr: 0x7F0, symBinAddr: 0x676E0, symSize: 0xF0 }
  - { offset: 0x2039B7, size: 0x8, addend: 0x0, symName: __ZN6VSTGUI14CAutoAnimationC1ERKS0_, symObjAddr: 0x8E0, symBinAddr: 0x677D0, symSize: 0xF0 }
  - { offset: 0x203B2A, size: 0x8, addend: 0x0, symName: __ZNK6VSTGUI14CAutoAnimation14isWindowOpenedEv, symObjAddr: 0x9D0, symBinAddr: 0x678C0, symSize: 0x10 }
  - { offset: 0x203BC6, size: 0x8, addend: 0x0, symName: __ZN6VSTGUI14CAutoAnimation4drawEPNS_12CDrawContextE, symObjAddr: 0x9E0, symBinAddr: 0x678D0, symSize: 0x150 }
  - { offset: 0x203D68, size: 0x8, addend: 0x0, symName: __ZN6VSTGUI14CAutoAnimation11onMouseDownERNS_6CPointERKNS_12CButtonStateE, symObjAddr: 0xB30, symBinAddr: 0x67A20, symSize: 0x60 }
  - { offset: 0x203DFA, size: 0x8, addend: 0x0, symName: __ZN6VSTGUI14CAutoAnimation8attachedEPNS_5CViewE, symObjAddr: 0xB90, symBinAddr: 0x67A80, symSize: 0x40 }
  - { offset: 0x204254, size: 0x8, addend: 0x0, symName: __ZN6VSTGUI14CAutoAnimation7removedEPNS_5CViewE, symObjAddr: 0xD00, symBinAddr: 0x67BF0, symSize: 0x60 }
  - { offset: 0x20430B, size: 0x8, addend: 0x0, symName: __ZN6VSTGUI14CAutoAnimation10openWindowEv, symObjAddr: 0xD60, symBinAddr: 0x67C50, symSize: 0x30 }
  - { offset: 0x20435F, size: 0x8, addend: 0x0, symName: __ZN6VSTGUI14CAutoAnimation11closeWindowEv, symObjAddr: 0xD90, symBinAddr: 0x67C80, symSize: 0x50 }
  - { offset: 0x204417, size: 0x8, addend: 0x0, symName: __ZN6VSTGUI14CAutoAnimation26updateMinMaxFromBackgroundEv, symObjAddr: 0xDE0, symBinAddr: 0x67CD0, symSize: 0xA0 }
  - { offset: 0x204507, size: 0x8, addend: 0x0, symName: __ZN6VSTGUI14CAutoAnimation13setBackgroundEPNS_7CBitmapE, symObjAddr: 0xE80, symBinAddr: 0x67D70, symSize: 0xB0 }
  - { offset: 0x2045EC, size: 0x8, addend: 0x0, symName: __ZN6VSTGUI14CAutoAnimation10nextPixmapEv, symObjAddr: 0xF30, symBinAddr: 0x67E20, symSize: 0xC0 }
  - { offset: 0x204673, size: 0x8, addend: 0x0, symName: __ZN6VSTGUI14CAutoAnimation14previousPixmapEv, symObjAddr: 0xFF0, symBinAddr: 0x67EE0, symSize: 0xD0 }
  - { offset: 0x2046FC, size: 0x8, addend: 0x0, symName: __ZN6VSTGUI14CAutoAnimation16setAnimationTimeEj, symObjAddr: 0x10C0, symBinAddr: 0x67FB0, symSize: 0x20 }
  - { offset: 0x204741, size: 0x8, addend: 0x0, symName: __ZNK6VSTGUI14CAutoAnimation16getAnimationTimeEv, symObjAddr: 0x10E0, symBinAddr: 0x67FD0, symSize: 0x10 }
  - { offset: 0x204769, size: 0x8, addend: 0x0, symName: __ZNK6VSTGUI8CControl8getValueEv, symObjAddr: 0x1280, symBinAddr: 0x67FE0, symSize: 0x10 }
  - { offset: 0x20478E, size: 0x8, addend: 0x0, symName: __ZNK6VSTGUI8CControl6getTagEv, symObjAddr: 0x1290, symBinAddr: 0x67FF0, symSize: 0x10 }
  - { offset: 0x2047B3, size: 0x8, addend: 0x0, symName: __ZNK6VSTGUI8CControl11getListenerEv, symObjAddr: 0x12A0, symBinAddr: 0x68000, symSize: 0x10 }
  - { offset: 0x2047D8, size: 0x8, addend: 0x0, symName: __ZN6VSTGUI8CControl11setListenerEPNS_16IControlListenerE, symObjAddr: 0x12B0, symBinAddr: 0x68010, symSize: 0x10 }
  - { offset: 0x204850, size: 0x8, addend: 0x0, symName: __ZN6VSTGUI14CAutoAnimationD1Ev, symObjAddr: 0x1380, symBinAddr: 0x68020, symSize: 0x70 }
  - { offset: 0x20491D, size: 0x8, addend: 0x0, symName: __ZN6VSTGUI14CAutoAnimationD0Ev, symObjAddr: 0x13F0, symBinAddr: 0x68090, symSize: 0x70 }
  - { offset: 0x2049DF, size: 0x8, addend: 0x0, symName: __ZNK6VSTGUI14CAutoAnimation7newCopyEv, symObjAddr: 0x1460, symBinAddr: 0x68100, symSize: 0x40 }
  - { offset: 0x204A1A, size: 0x8, addend: 0x0, symName: __ZN6VSTGUI14CAutoAnimation16setNumSubPixmapsEi, symObjAddr: 0x14A0, symBinAddr: 0x68140, symSize: 0x10 }
  - { offset: 0x204A7C, size: 0x8, addend: 0x0, symName: __ZThn24_N6VSTGUI14CAutoAnimationD1Ev, symObjAddr: 0x14B0, symBinAddr: 0x68150, symSize: 0x70 }
  - { offset: 0x204B4C, size: 0x8, addend: 0x0, symName: __ZThn24_N6VSTGUI14CAutoAnimationD0Ev, symObjAddr: 0x1520, symBinAddr: 0x681C0, symSize: 0x80 }
  - { offset: 0x204C19, size: 0x8, addend: 0x0, symName: __ZThn64_N6VSTGUI14CAutoAnimationD1Ev, symObjAddr: 0x15A0, symBinAddr: 0x68240, symSize: 0x70 }
  - { offset: 0x204CCF, size: 0x8, addend: 0x0, symName: __ZThn64_N6VSTGUI14CAutoAnimationD0Ev, symObjAddr: 0x1610, symBinAddr: 0x682B0, symSize: 0x80 }
  - { offset: 0x204D9C, size: 0x8, addend: 0x0, symName: __ZN6VSTGUI19IMultiBitmapControl19setHeightOfOneImageERKd, symObjAddr: 0x1690, symBinAddr: 0x68330, symSize: 0x10 }
  - { offset: 0x204DCF, size: 0x8, addend: 0x0, symName: __ZNK6VSTGUI19IMultiBitmapControl19getHeightOfOneImageEv, symObjAddr: 0x16A0, symBinAddr: 0x68340, symSize: 0x10 }
  - { offset: 0x204DF4, size: 0x8, addend: 0x0, symName: __ZThn64_N6VSTGUI14CAutoAnimation16setNumSubPixmapsEi, symObjAddr: 0x16B0, symBinAddr: 0x68350, symSize: 0x20 }
  - { offset: 0x204E61, size: 0x8, addend: 0x0, symName: __ZNK6VSTGUI19IMultiBitmapControl16getNumSubPixmapsEv, symObjAddr: 0x16D0, symBinAddr: 0x68370, symSize: 0x10 }
  - { offset: 0x204E86, size: 0x8, addend: 0x0, symName: '__ZNSt3__110__function6__funcIZN6VSTGUI14CAutoAnimation10startTimerEvE3$_0NS_9allocatorIS4_EEFvPNS2_12CVSTGUITimerEEED1Ev', symObjAddr: 0x16F0, symBinAddr: 0x68380, symSize: 0x10 }
  - { offset: 0x204EAF, size: 0x8, addend: 0x0, symName: '__ZNSt3__110__function6__funcIZN6VSTGUI14CAutoAnimation10startTimerEvE3$_0NS_9allocatorIS4_EEFvPNS2_12CVSTGUITimerEEED0Ev', symObjAddr: 0x1700, symBinAddr: 0x68390, symSize: 0x10 }
  - { offset: 0x2050C2, size: 0x8, addend: 0x0, symName: '__ZNKSt3__110__function6__funcIZN6VSTGUI14CAutoAnimation10startTimerEvE3$_0NS_9allocatorIS4_EEFvPNS2_12CVSTGUITimerEEE7__cloneEv', symObjAddr: 0x1710, symBinAddr: 0x683A0, symSize: 0x30 }
  - { offset: 0x2053B1, size: 0x8, addend: 0x0, symName: '__ZNKSt3__110__function6__funcIZN6VSTGUI14CAutoAnimation10startTimerEvE3$_0NS_9allocatorIS4_EEFvPNS2_12CVSTGUITimerEEE7__cloneEPNS0_6__baseIS9_EE', symObjAddr: 0x1740, symBinAddr: 0x683D0, symSize: 0x20 }
  - { offset: 0x2054BC, size: 0x8, addend: 0x0, symName: '__ZNSt3__110__function6__funcIZN6VSTGUI14CAutoAnimation10startTimerEvE3$_0NS_9allocatorIS4_EEFvPNS2_12CVSTGUITimerEEE7destroyEv', symObjAddr: 0x1760, symBinAddr: 0x683F0, symSize: 0x10 }
  - { offset: 0x20550D, size: 0x8, addend: 0x0, symName: '__ZNSt3__110__function6__funcIZN6VSTGUI14CAutoAnimation10startTimerEvE3$_0NS_9allocatorIS4_EEFvPNS2_12CVSTGUITimerEEE18destroy_deallocateEv', symObjAddr: 0x1770, symBinAddr: 0x68400, symSize: 0x10 }
  - { offset: 0x205664, size: 0x8, addend: 0x0, symName: '__ZNSt3__110__function6__funcIZN6VSTGUI14CAutoAnimation10startTimerEvE3$_0NS_9allocatorIS4_EEFvPNS2_12CVSTGUITimerEEEclEOS8_', symObjAddr: 0x1780, symBinAddr: 0x68410, symSize: 0x30 }
  - { offset: 0x205755, size: 0x8, addend: 0x0, symName: '__ZNKSt3__110__function6__funcIZN6VSTGUI14CAutoAnimation10startTimerEvE3$_0NS_9allocatorIS4_EEFvPNS2_12CVSTGUITimerEEE6targetERKSt9type_info', symObjAddr: 0x17B0, symBinAddr: 0x68440, symSize: 0x20 }
  - { offset: 0x2057C7, size: 0x8, addend: 0x0, symName: '__ZNKSt3__110__function6__funcIZN6VSTGUI14CAutoAnimation10startTimerEvE3$_0NS_9allocatorIS4_EEFvPNS2_12CVSTGUITimerEEE11target_typeEv', symObjAddr: 0x17D0, symBinAddr: 0x68460, symSize: 0xD }
  - { offset: 0x20777E, size: 0x8, addend: 0x0, symName: __ZN6VSTGUIL12kWhiteCColorE, symObjAddr: 0x6F20, symBinAddr: 0x17B380, symSize: 0x0 }
  - { offset: 0x207B7C, size: 0x8, addend: 0x0, symName: __ZN6VSTGUIL12kBlackCColorE, symObjAddr: 0x6F24, symBinAddr: 0x17B384, symSize: 0x0 }
  - { offset: 0x207B96, size: 0x8, addend: 0x0, symName: __ZN6VSTGUIL10kRedCColorE, symObjAddr: 0x6F28, symBinAddr: 0x17B388, symSize: 0x0 }
  - { offset: 0x212168, size: 0x8, addend: 0x0, symName: __ZN6VSTGUI12COnOffButtonC2ERKNS_5CRectEPNS_16IControlListenerEiPNS_7CBitmapEi, symObjAddr: 0x0, symBinAddr: 0x68470, symSize: 0x80 }
  - { offset: 0x21222B, size: 0x8, addend: 0x0, symName: __ZN6VSTGUI12COnOffButtonC1ERKNS_5CRectEPNS_16IControlListenerEiPNS_7CBitmapEi, symObjAddr: 0x80, symBinAddr: 0x684F0, symSize: 0x80 }
  - { offset: 0x2122C5, size: 0x8, addend: 0x0, symName: __ZN6VSTGUI12COnOffButtonC2ERKS0_, symObjAddr: 0x100, symBinAddr: 0x68570, symSize: 0x80 }
  - { offset: 0x212328, size: 0x8, addend: 0x0, symName: __ZN6VSTGUI12COnOffButtonC1ERKS0_, symObjAddr: 0x180, symBinAddr: 0x685F0, symSize: 0x70 }
  - { offset: 0x2123D5, size: 0x8, addend: 0x0, symName: __ZN6VSTGUI12COnOffButton4drawEPNS_12CDrawContextE, symObjAddr: 0x1F0, symBinAddr: 0x68660, symSize: 0xC0 }
  - { offset: 0x2124D3, size: 0x8, addend: 0x0, symName: __ZN6VSTGUI12COnOffButton11onMouseDownERNS_6CPointERKNS_12CButtonStateE, symObjAddr: 0x2B0, symBinAddr: 0x68720, symSize: 0x20 }
  - { offset: 0x212522, size: 0x8, addend: 0x0, symName: __ZN6VSTGUI12COnOffButton12onMouseMovedERNS_6CPointERKNS_12CButtonStateE, symObjAddr: 0x2D0, symBinAddr: 0x68740, symSize: 0x10 }
  - { offset: 0x212586, size: 0x8, addend: 0x0, symName: __ZN6VSTGUI12COnOffButton9onMouseUpERNS_6CPointERKNS_12CButtonStateE, symObjAddr: 0x2E0, symBinAddr: 0x68750, symSize: 0xB0 }
  - { offset: 0x21264D, size: 0x8, addend: 0x0, symName: __ZN6VSTGUI12COnOffButton13onMouseCancelEv, symObjAddr: 0x390, symBinAddr: 0x68800, symSize: 0x30 }
  - { offset: 0x2126AF, size: 0x8, addend: 0x0, symName: __ZN6VSTGUI12COnOffButton15onKeyboardEventERNS_13KeyboardEventE, symObjAddr: 0x3C0, symBinAddr: 0x68830, symSize: 0x90 }
  - { offset: 0x2127BD, size: 0x8, addend: 0x0, symName: __ZN6VSTGUI12COnOffButton9sizeToFitEv, symObjAddr: 0x450, symBinAddr: 0x688C0, symSize: 0xC0 }
  - { offset: 0x212935, size: 0x8, addend: 0x0, symName: __ZN6VSTGUI11CKickButtonC2ERKNS_5CRectEPNS_16IControlListenerEiPNS_7CBitmapE, symObjAddr: 0x510, symBinAddr: 0x68980, symSize: 0xF0 }
  - { offset: 0x212A64, size: 0x8, addend: 0x0, symName: __ZN6VSTGUI11CKickButtonC1ERKNS_5CRectEPNS_16IControlListenerEiPNS_7CBitmapE, symObjAddr: 0x600, symBinAddr: 0x68A70, symSize: 0xE0 }
  - { offset: 0x212BAB, size: 0x8, addend: 0x0, symName: __ZN6VSTGUI11CKickButtonC2ERKNS_5CRectEPNS_16IControlListenerEidPNS_7CBitmapERKNS_6CPointE, symObjAddr: 0x6E0, symBinAddr: 0x68B50, symSize: 0xD0 }
  - { offset: 0x212CBC, size: 0x8, addend: 0x0, symName: __ZN6VSTGUI11CKickButtonC1ERKNS_5CRectEPNS_16IControlListenerEidPNS_7CBitmapERKNS_6CPointE, symObjAddr: 0x7B0, symBinAddr: 0x68C20, symSize: 0xC0 }
  - { offset: 0x212DC5, size: 0x8, addend: 0x0, symName: __ZN6VSTGUI11CKickButtonC2ERKS0_, symObjAddr: 0x870, symBinAddr: 0x68CE0, symSize: 0xD0 }
  - { offset: 0x212ED1, size: 0x8, addend: 0x0, symName: __ZN6VSTGUI11CKickButtonC1ERKS0_, symObjAddr: 0x940, symBinAddr: 0x68DB0, symSize: 0xB0 }
  - { offset: 0x213021, size: 0x8, addend: 0x0, symName: __ZN6VSTGUI11CKickButton4drawEPNS_12CDrawContextE, symObjAddr: 0x9F0, symBinAddr: 0x68E60, symSize: 0x160 }
  - { offset: 0x21320F, size: 0x8, addend: 0x0, symName: __ZN6VSTGUI11CKickButton11onMouseDownERNS_6CPointERKNS_12CButtonStateE, symObjAddr: 0xB50, symBinAddr: 0x68FC0, symSize: 0x50 }
  - { offset: 0x21326F, size: 0x8, addend: 0x0, symName: __ZN6VSTGUI11CKickButton13onMouseCancelEv, symObjAddr: 0xBA0, symBinAddr: 0x69010, symSize: 0x60 }
  - { offset: 0x2132F7, size: 0x8, addend: 0x0, symName: __ZN6VSTGUI11CKickButton9onMouseUpERNS_6CPointERKNS_12CButtonStateE, symObjAddr: 0xC00, symBinAddr: 0x69070, symSize: 0x80 }
  - { offset: 0x2133A8, size: 0x8, addend: 0x0, symName: __ZN6VSTGUI11CKickButton12onMouseMovedERNS_6CPointERKNS_12CButtonStateE, symObjAddr: 0xC80, symBinAddr: 0x690F0, symSize: 0xE0 }
  - { offset: 0x213443, size: 0x8, addend: 0x0, symName: __ZN6VSTGUI11CKickButton15onKeyboardEventERNS_13KeyboardEventE, symObjAddr: 0xD60, symBinAddr: 0x691D0, symSize: 0xD0 }
  - { offset: 0x21355A, size: 0x8, addend: 0x0, symName: __ZN6VSTGUI11CKickButton9sizeToFitEv, symObjAddr: 0xE30, symBinAddr: 0x692A0, symSize: 0xD0 }
  - { offset: 0x2138EA, size: 0x8, addend: 0x0, symName: __ZN6VSTGUI9CCheckBoxC2ERKNS_5CRectEPNS_16IControlListenerEiPKcPNS_7CBitmapEi, symObjAddr: 0xF00, symBinAddr: 0x69370, symSize: 0x1A0 }
  - { offset: 0x213D76, size: 0x8, addend: 0x0, symName: __ZN6VSTGUI9CCheckBoxC1ERKNS_5CRectEPNS_16IControlListenerEiPKcPNS_7CBitmapEi, symObjAddr: 0x10E0, symBinAddr: 0x69510, symSize: 0x1B0 }
  - { offset: 0x2141A4, size: 0x8, addend: 0x0, symName: __ZN6VSTGUI9CCheckBoxC2ERKS0_, symObjAddr: 0x1290, symBinAddr: 0x696C0, symSize: 0x150 }
  - { offset: 0x2143DF, size: 0x8, addend: 0x0, symName: __ZN6VSTGUI9CCheckBoxC1ERKS0_, symObjAddr: 0x13E0, symBinAddr: 0x69810, symSize: 0x150 }
  - { offset: 0x214629, size: 0x8, addend: 0x0, symName: __ZN6VSTGUI9CCheckBox8setTitleERKNS_10UTF8StringE, symObjAddr: 0x1530, symBinAddr: 0x69960, symSize: 0x40 }
  - { offset: 0x2146AF, size: 0x8, addend: 0x0, symName: __ZN6VSTGUI9CCheckBox7setFontEPNS_9CFontDescE, symObjAddr: 0x1570, symBinAddr: 0x699A0, symSize: 0x70 }
  - { offset: 0x21474B, size: 0x8, addend: 0x0, symName: __ZN6VSTGUI9CCheckBox13setBackgroundEPNS_7CBitmapE, symObjAddr: 0x15E0, symBinAddr: 0x69A10, symSize: 0x30 }
  - { offset: 0x214792, size: 0x8, addend: 0x0, symName: __ZN6VSTGUI9CCheckBox8setStyleEi, symObjAddr: 0x1610, symBinAddr: 0x69A40, symSize: 0x40 }
  - { offset: 0x2147EC, size: 0x8, addend: 0x0, symName: __ZN6VSTGUI9CCheckBox13setFrameWidthEd, symObjAddr: 0x1650, symBinAddr: 0x69A80, symSize: 0x20 }
  - { offset: 0x21482F, size: 0x8, addend: 0x0, symName: __ZN6VSTGUI9CCheckBox18setRoundRectRadiusEd, symObjAddr: 0x1670, symBinAddr: 0x69AA0, symSize: 0x20 }
  - { offset: 0x2149B1, size: 0x8, addend: 0x0, symName: __ZN6VSTGUI9CCheckBox9sizeToFitEv, symObjAddr: 0x1690, symBinAddr: 0x69AC0, symSize: 0x1D0 }
  - { offset: 0x2150D7, size: 0x8, addend: 0x0, symName: __ZN6VSTGUI9CCheckBox4drawEPNS_12CDrawContextE, symObjAddr: 0x18A0, symBinAddr: 0x69C90, symSize: 0x720 }
  - { offset: 0x215A7C, size: 0x8, addend: 0x0, symName: __ZN6VSTGUI9CCheckBox12getFocusPathERNS_13CGraphicsPathE, symObjAddr: 0x1FC0, symBinAddr: 0x6A3B0, symSize: 0x200 }
  - { offset: 0x215D25, size: 0x8, addend: 0x0, symName: __ZThn24_N6VSTGUI9CCheckBox12getFocusPathERNS_13CGraphicsPathE, symObjAddr: 0x21C0, symBinAddr: 0x6A5B0, symSize: 0x20 }
  - { offset: 0x215D83, size: 0x8, addend: 0x0, symName: __ZN6VSTGUI9CCheckBox11onMouseDownERNS_6CPointERKNS_12CButtonStateE, symObjAddr: 0x21E0, symBinAddr: 0x6A5D0, symSize: 0x70 }
  - { offset: 0x215E20, size: 0x8, addend: 0x0, symName: __ZN6VSTGUI9CCheckBox12onMouseMovedERNS_6CPointERKNS_12CButtonStateE, symObjAddr: 0x2250, symBinAddr: 0x6A640, symSize: 0xA0 }
  - { offset: 0x215EB2, size: 0x8, addend: 0x0, symName: __ZN6VSTGUI9CCheckBox13onMouseCancelEv, symObjAddr: 0x22F0, symBinAddr: 0x6A6E0, symSize: 0x60 }
  - { offset: 0x215F28, size: 0x8, addend: 0x0, symName: __ZN6VSTGUI9CCheckBox9onMouseUpERNS_6CPointERKNS_12CButtonStateE, symObjAddr: 0x2350, symBinAddr: 0x6A740, symSize: 0xD0 }
  - { offset: 0x216005, size: 0x8, addend: 0x0, symName: __ZN6VSTGUI9CCheckBox15onKeyboardEventERNS_13KeyboardEventE, symObjAddr: 0x2420, symBinAddr: 0x6A810, symSize: 0x90 }
  - { offset: 0x216233, size: 0x8, addend: 0x0, symName: __ZN6VSTGUI11CTextButtonC2ERKNS_5CRectEPNS_16IControlListenerEiPKcNS0_5StyleE, symObjAddr: 0x24B0, symBinAddr: 0x6A8A0, symSize: 0x270 }
  - { offset: 0x216864, size: 0x8, addend: 0x0, symName: __ZN6VSTGUI11CTextButtonC1ERKNS_5CRectEPNS_16IControlListenerEiPKcNS0_5StyleE, symObjAddr: 0x2720, symBinAddr: 0x6AB10, symSize: 0x270 }
  - { offset: 0x216EE7, size: 0x8, addend: 0x0, symName: __ZN6VSTGUI11CTextButton7removedEPNS_5CViewE, symObjAddr: 0x2990, symBinAddr: 0x6AD80, symSize: 0x40 }
  - { offset: 0x216F66, size: 0x8, addend: 0x0, symName: __ZN6VSTGUI11CTextButton11invalidPathEv, symObjAddr: 0x29D0, symBinAddr: 0x6ADC0, symSize: 0x30 }
  - { offset: 0x216FB4, size: 0x8, addend: 0x0, symName: __ZN6VSTGUI11CTextButton11setViewSizeERKNS_5CRectEb, symObjAddr: 0x2A00, symBinAddr: 0x6ADF0, symSize: 0x50 }
  - { offset: 0x21705F, size: 0x8, addend: 0x0, symName: __ZNK6VSTGUI11CTextButton11getGradientEv, symObjAddr: 0x2A50, symBinAddr: 0x6AE40, symSize: 0x10 }
  - { offset: 0x2170A7, size: 0x8, addend: 0x0, symName: __ZNK6VSTGUI11CTextButton22getGradientHighlightedEv, symObjAddr: 0x2A60, symBinAddr: 0x6AE50, symSize: 0x10 }
  - { offset: 0x21710A, size: 0x8, addend: 0x0, symName: __ZNK6VSTGUI11CTextButton7getIconEv, symObjAddr: 0x2A70, symBinAddr: 0x6AE60, symSize: 0x10 }
  - { offset: 0x217152, size: 0x8, addend: 0x0, symName: __ZNK6VSTGUI11CTextButton18getIconHighlightedEv, symObjAddr: 0x2A80, symBinAddr: 0x6AE70, symSize: 0x10 }
  - { offset: 0x21719A, size: 0x8, addend: 0x0, symName: __ZN6VSTGUI11CTextButton8setTitleERKNS_10UTF8StringE, symObjAddr: 0x2A90, symBinAddr: 0x6AE80, symSize: 0x30 }
  - { offset: 0x2171E1, size: 0x8, addend: 0x0, symName: __ZN6VSTGUI11CTextButton7setFontEPNS_9CFontDescE, symObjAddr: 0x2AC0, symBinAddr: 0x6AEB0, symSize: 0x50 }
  - { offset: 0x217288, size: 0x8, addend: 0x0, symName: __ZN6VSTGUI11CTextButton12setTextColorERKNS_6CColorE, symObjAddr: 0x2B10, symBinAddr: 0x6AF00, symSize: 0x10 }
  - { offset: 0x21731E, size: 0x8, addend: 0x0, symName: __ZN6VSTGUI11CTextButton11setGradientEPNS_9CGradientE, symObjAddr: 0x2B20, symBinAddr: 0x6AF10, symSize: 0x50 }
  - { offset: 0x2173A4, size: 0x8, addend: 0x0, symName: __ZN6VSTGUI11CTextButton22setGradientHighlightedEPNS_9CGradientE, symObjAddr: 0x2B70, symBinAddr: 0x6AF60, symSize: 0x50 }
  - { offset: 0x21742A, size: 0x8, addend: 0x0, symName: __ZN6VSTGUI11CTextButton13setFrameColorERKNS_6CColorE, symObjAddr: 0x2BC0, symBinAddr: 0x6AFB0, symSize: 0x10 }
  - { offset: 0x21749C, size: 0x8, addend: 0x0, symName: __ZN6VSTGUI11CTextButton23setTextColorHighlightedERKNS_6CColorE, symObjAddr: 0x2BD0, symBinAddr: 0x6AFC0, symSize: 0x10 }
  - { offset: 0x21750E, size: 0x8, addend: 0x0, symName: __ZN6VSTGUI11CTextButton24setFrameColorHighlightedERKNS_6CColorE, symObjAddr: 0x2BE0, symBinAddr: 0x6AFD0, symSize: 0x10 }
  - { offset: 0x217580, size: 0x8, addend: 0x0, symName: __ZN6VSTGUI11CTextButton13setFrameWidthEd, symObjAddr: 0x2BF0, symBinAddr: 0x6AFE0, symSize: 0x10 }
  - { offset: 0x2175CB, size: 0x8, addend: 0x0, symName: __ZN6VSTGUI11CTextButton14setRoundRadiusEd, symObjAddr: 0x2C00, symBinAddr: 0x6AFF0, symSize: 0x40 }
  - { offset: 0x217656, size: 0x8, addend: 0x0, symName: __ZN6VSTGUI11CTextButton8setStyleENS0_5StyleE, symObjAddr: 0x2C40, symBinAddr: 0x6B030, symSize: 0x10 }
  - { offset: 0x2176B1, size: 0x8, addend: 0x0, symName: __ZN6VSTGUI11CTextButton7setIconEPNS_7CBitmapE, symObjAddr: 0x2C50, symBinAddr: 0x6B040, symSize: 0x50 }
  - { offset: 0x217757, size: 0x8, addend: 0x0, symName: __ZN6VSTGUI11CTextButton18setIconHighlightedEPNS_7CBitmapE, symObjAddr: 0x2CA0, symBinAddr: 0x6B090, symSize: 0x50 }
  - { offset: 0x2177FD, size: 0x8, addend: 0x0, symName: __ZN6VSTGUI11CTextButton15setIconPositionENS_12CDrawMethods12IconPositionE, symObjAddr: 0x2CF0, symBinAddr: 0x6B0E0, symSize: 0x20 }
  - { offset: 0x217840, size: 0x8, addend: 0x0, symName: __ZN6VSTGUI11CTextButton13setTextMarginEd, symObjAddr: 0x2D10, symBinAddr: 0x6B100, symSize: 0x20 }
  - { offset: 0x217883, size: 0x8, addend: 0x0, symName: __ZN6VSTGUI11CTextButton16setTextAlignmentENS_13CHoriTxtAlignE, symObjAddr: 0x2D30, symBinAddr: 0x6B120, symSize: 0x20 }
  - { offset: 0x2178C6, size: 0x8, addend: 0x0, symName: __ZN6VSTGUI11CTextButton9sizeToFitEv, symObjAddr: 0x2D50, symBinAddr: 0x6B140, symSize: 0x150 }
  - { offset: 0x217D45, size: 0x8, addend: 0x0, symName: __ZN6VSTGUI11CTextButton4drawEPNS_12CDrawContextE, symObjAddr: 0x2EA0, symBinAddr: 0x6B290, symSize: 0x350 }
  - { offset: 0x2182EF, size: 0x8, addend: 0x0, symName: __ZN6VSTGUI11CTextButton7getPathEPNS_12CDrawContextEd, symObjAddr: 0x31F0, symBinAddr: 0x6B5E0, symSize: 0xA0 }
  - { offset: 0x2183A6, size: 0x8, addend: 0x0, symName: __ZN6VSTGUI11CTextButton12getFocusPathERNS_13CGraphicsPathE, symObjAddr: 0x3290, symBinAddr: 0x6B680, symSize: 0xB0 }
  - { offset: 0x218440, size: 0x8, addend: 0x0, symName: __ZThn24_N6VSTGUI11CTextButton12getFocusPathERNS_13CGraphicsPathE, symObjAddr: 0x3340, symBinAddr: 0x6B730, symSize: 0xC0 }
  - { offset: 0x2184AD, size: 0x8, addend: 0x0, symName: __ZN6VSTGUI11CTextButton14drawFocusOnTopEv, symObjAddr: 0x3400, symBinAddr: 0x6B7F0, symSize: 0x10 }
  - { offset: 0x2184D3, size: 0x8, addend: 0x0, symName: __ZThn24_N6VSTGUI11CTextButton14drawFocusOnTopEv, symObjAddr: 0x3410, symBinAddr: 0x6B800, symSize: 0x10 }
  - { offset: 0x2184EA, size: 0x8, addend: 0x0, symName: __ZN6VSTGUI11CTextButton11onMouseDownERNS_6CPointERKNS_12CButtonStateE, symObjAddr: 0x3420, symBinAddr: 0x6B810, symSize: 0x60 }
  - { offset: 0x21854D, size: 0x8, addend: 0x0, symName: __ZN6VSTGUI11CTextButton13onMouseCancelEv, symObjAddr: 0x3480, symBinAddr: 0x6B870, symSize: 0x50 }
  - { offset: 0x2185B0, size: 0x8, addend: 0x0, symName: __ZN6VSTGUI11CTextButton9onMouseUpERNS_6CPointERKNS_12CButtonStateE, symObjAddr: 0x34D0, symBinAddr: 0x6B8C0, symSize: 0x80 }
  - { offset: 0x218664, size: 0x8, addend: 0x0, symName: __ZN6VSTGUI11CTextButton12onMouseMovedERNS_6CPointERKNS_12CButtonStateE, symObjAddr: 0x3550, symBinAddr: 0x6B940, symSize: 0x130 }
  - { offset: 0x21870A, size: 0x8, addend: 0x0, symName: __ZN6VSTGUI11CTextButton15onKeyboardEventERNS_13KeyboardEventE, symObjAddr: 0x3680, symBinAddr: 0x6BA70, symSize: 0x110 }
  - { offset: 0x21888A, size: 0x8, addend: 0x0, symName: __ZN6VSTGUI12COnOffButtonD1Ev, symObjAddr: 0x3A20, symBinAddr: 0x6BB80, symSize: 0x20 }
  - { offset: 0x2188E1, size: 0x8, addend: 0x0, symName: __ZN6VSTGUI12COnOffButtonD0Ev, symObjAddr: 0x3A40, symBinAddr: 0x6BBA0, symSize: 0x30 }
  - { offset: 0x218964, size: 0x8, addend: 0x0, symName: __ZNK6VSTGUI12COnOffButton7newCopyEv, symObjAddr: 0x3A70, symBinAddr: 0x6BBD0, symSize: 0xA0 }
  - { offset: 0x2189C8, size: 0x8, addend: 0x0, symName: __ZNK6VSTGUI12COnOffButton8getStyleEv, symObjAddr: 0x3B10, symBinAddr: 0x6BC70, symSize: 0x10 }
  - { offset: 0x2189ED, size: 0x8, addend: 0x0, symName: __ZN6VSTGUI12COnOffButton8setStyleEi, symObjAddr: 0x3B20, symBinAddr: 0x6BC80, symSize: 0x10 }
  - { offset: 0x218A20, size: 0x8, addend: 0x0, symName: __ZThn24_N6VSTGUI12COnOffButtonD1Ev, symObjAddr: 0x3B30, symBinAddr: 0x6BC90, symSize: 0x20 }
  - { offset: 0x218A8A, size: 0x8, addend: 0x0, symName: __ZThn24_N6VSTGUI12COnOffButtonD0Ev, symObjAddr: 0x3B50, symBinAddr: 0x6BCB0, symSize: 0x30 }
  - { offset: 0x218B22, size: 0x8, addend: 0x0, symName: __ZN6VSTGUI11CKickButtonD1Ev, symObjAddr: 0x3B80, symBinAddr: 0x6BCE0, symSize: 0x20 }
  - { offset: 0x218B79, size: 0x8, addend: 0x0, symName: __ZN6VSTGUI11CKickButtonD0Ev, symObjAddr: 0x3BA0, symBinAddr: 0x6BD00, symSize: 0x30 }
  - { offset: 0x218BFC, size: 0x8, addend: 0x0, symName: __ZNK6VSTGUI11CKickButton7newCopyEv, symObjAddr: 0x3BD0, symBinAddr: 0x6BD30, symSize: 0xD0 }
  - { offset: 0x218CEA, size: 0x8, addend: 0x0, symName: __ZN6VSTGUI11CKickButton16setNumSubPixmapsEi, symObjAddr: 0x3CA0, symBinAddr: 0x6BE00, symSize: 0x10 }
  - { offset: 0x218D4C, size: 0x8, addend: 0x0, symName: __ZThn24_N6VSTGUI11CKickButtonD1Ev, symObjAddr: 0x3CB0, symBinAddr: 0x6BE10, symSize: 0x20 }
  - { offset: 0x218DB6, size: 0x8, addend: 0x0, symName: __ZThn24_N6VSTGUI11CKickButtonD0Ev, symObjAddr: 0x3CD0, symBinAddr: 0x6BE30, symSize: 0x30 }
  - { offset: 0x218E25, size: 0x8, addend: 0x0, symName: __ZThn64_N6VSTGUI11CKickButtonD1Ev, symObjAddr: 0x3D00, symBinAddr: 0x6BE60, symSize: 0x20 }
  - { offset: 0x218E75, size: 0x8, addend: 0x0, symName: __ZThn64_N6VSTGUI11CKickButtonD0Ev, symObjAddr: 0x3D20, symBinAddr: 0x6BE80, symSize: 0x30 }
  - { offset: 0x218F05, size: 0x8, addend: 0x0, symName: __ZThn64_N6VSTGUI11CKickButton16setNumSubPixmapsEi, symObjAddr: 0x3D70, symBinAddr: 0x6BEB0, symSize: 0x20 }
  - { offset: 0x218F9B, size: 0x8, addend: 0x0, symName: __ZN6VSTGUI9CCheckBoxD1Ev, symObjAddr: 0x3DA0, symBinAddr: 0x6BED0, symSize: 0x80 }
  - { offset: 0x2191BD, size: 0x8, addend: 0x0, symName: __ZN6VSTGUI9CCheckBoxD0Ev, symObjAddr: 0x3E20, symBinAddr: 0x6BF50, symSize: 0x80 }
  - { offset: 0x2193DD, size: 0x8, addend: 0x0, symName: __ZNK6VSTGUI9CCheckBox7newCopyEv, symObjAddr: 0x3EA0, symBinAddr: 0x6BFD0, symSize: 0x40 }
  - { offset: 0x219418, size: 0x8, addend: 0x0, symName: __ZN6VSTGUI9CCheckBox12setFontColorERKNS_6CColorE, symObjAddr: 0x3EE0, symBinAddr: 0x6C010, symSize: 0x10 }
  - { offset: 0x219486, size: 0x8, addend: 0x0, symName: __ZN6VSTGUI9CCheckBox16setBoxFrameColorERKNS_6CColorE, symObjAddr: 0x3EF0, symBinAddr: 0x6C020, symSize: 0x10 }
  - { offset: 0x2194F4, size: 0x8, addend: 0x0, symName: __ZN6VSTGUI9CCheckBox15setBoxFillColorERKNS_6CColorE, symObjAddr: 0x3F00, symBinAddr: 0x6C030, symSize: 0x10 }
  - { offset: 0x219562, size: 0x8, addend: 0x0, symName: __ZN6VSTGUI9CCheckBox17setCheckMarkColorERKNS_6CColorE, symObjAddr: 0x3F10, symBinAddr: 0x6C040, symSize: 0x10 }
  - { offset: 0x2195D0, size: 0x8, addend: 0x0, symName: __ZNK6VSTGUI9CCheckBox8getStyleEv, symObjAddr: 0x3F20, symBinAddr: 0x6C050, symSize: 0x10 }
  - { offset: 0x2195F5, size: 0x8, addend: 0x0, symName: __ZThn24_N6VSTGUI9CCheckBoxD1Ev, symObjAddr: 0x3F30, symBinAddr: 0x6C060, symSize: 0x80 }
  - { offset: 0x2197EE, size: 0x8, addend: 0x0, symName: __ZThn24_N6VSTGUI9CCheckBoxD0Ev, symObjAddr: 0x3FB0, symBinAddr: 0x6C0E0, symSize: 0x10 }
  - { offset: 0x219813, size: 0x8, addend: 0x0, symName: __ZN6VSTGUI11CTextButtonD1Ev, symObjAddr: 0x3FC0, symBinAddr: 0x6C0F0, symSize: 0x20 }
  - { offset: 0x219849, size: 0x8, addend: 0x0, symName: __ZN6VSTGUI11CTextButtonD2Ev, symObjAddr: 0x4080, symBinAddr: 0x6C1A0, symSize: 0xF0 }
  - { offset: 0x219B8B, size: 0x8, addend: 0x0, symName: __ZN6VSTGUI11CTextButtonD0Ev, symObjAddr: 0x3FE0, symBinAddr: 0x6C110, symSize: 0x30 }
  - { offset: 0x219BDF, size: 0x8, addend: 0x0, symName: __ZNK6VSTGUI11CTextButton7newCopyEv, symObjAddr: 0x4010, symBinAddr: 0x6C140, symSize: 0x10 }
  - { offset: 0x219C04, size: 0x8, addend: 0x0, symName: __ZThn24_N6VSTGUI11CTextButtonD1Ev, symObjAddr: 0x4020, symBinAddr: 0x6C150, symSize: 0x20 }
  - { offset: 0x219C5F, size: 0x8, addend: 0x0, symName: __ZThn24_N6VSTGUI11CTextButtonD0Ev, symObjAddr: 0x4040, symBinAddr: 0x6C170, symSize: 0x30 }
  - { offset: 0x21BBC1, size: 0x8, addend: 0x0, symName: __ZN6VSTGUI8CControl21CheckDefaultValueFuncE, symObjAddr: 0x2858, symBinAddr: 0x1CE2E8, symSize: 0x0 }
  - { offset: 0x21E9F0, size: 0x8, addend: 0x0, symName: __ZN6VSTGUI8CControl26CheckDefaultValueEventFuncE, symObjAddr: 0x2860, symBinAddr: 0x1CE2F0, symSize: 0x0 }
  - { offset: 0x227463, size: 0x8, addend: 0x0, symName: __ZN6VSTGUI8CControl21kDefaultValueModifierE, symObjAddr: 0x2868, symBinAddr: 0x1CE2F8, symSize: 0x0 }
  - { offset: 0x2274FB, size: 0x8, addend: 0x0, symName: __ZN6VSTGUI25CMouseWheelEditingSupport19onMouseWheelEditingEPNS_8CControlE, symObjAddr: 0xF20, symBinAddr: 0x6D190, symSize: 0x120 }
  - { offset: 0x227D63, size: 0x8, addend: 0x0, symName: __ZN6VSTGUI8CControlC2ERKNS_5CRectEPNS_16IControlListenerEiPNS_7CBitmapE, symObjAddr: 0x0, symBinAddr: 0x6C290, symSize: 0x130 }
  - { offset: 0x22809E, size: 0x8, addend: 0x0, symName: __ZN6VSTGUI8CControlC2ERKS0_, symObjAddr: 0x130, symBinAddr: 0x6C3C0, symSize: 0x110 }
  - { offset: 0x228359, size: 0x8, addend: 0x0, symName: __ZN6VSTGUI8CControlD2Ev, symObjAddr: 0x240, symBinAddr: 0x6C4D0, symSize: 0x70 }
  - { offset: 0x22844E, size: 0x8, addend: 0x0, symName: __ZN6VSTGUI8CControlD1Ev, symObjAddr: 0x2C0, symBinAddr: 0x6C540, symSize: 0x10 }
  - { offset: 0x228489, size: 0x8, addend: 0x0, symName: __ZThn24_N6VSTGUI8CControlD1Ev, symObjAddr: 0x2D0, symBinAddr: 0x6C550, symSize: 0x10 }
  - { offset: 0x2284B4, size: 0x8, addend: 0x0, symName: __ZN6VSTGUI8CControlD0Ev, symObjAddr: 0x2E0, symBinAddr: 0x6C560, symSize: 0x10 }
  - { offset: 0x2284EF, size: 0x8, addend: 0x0, symName: __ZThn24_N6VSTGUI8CControlD0Ev, symObjAddr: 0x2F0, symBinAddr: 0x6C570, symSize: 0x10 }
  - { offset: 0x22851A, size: 0x8, addend: 0x0, symName: __ZN6VSTGUI8CControl23registerControlListenerEPNS_16IControlListenerE, symObjAddr: 0x300, symBinAddr: 0x6C580, symSize: 0x50 }
  - { offset: 0x228594, size: 0x8, addend: 0x0, symName: __ZN6VSTGUI12DispatchListIPNS_16IControlListenerEE3addERKS2_, symObjAddr: 0x350, symBinAddr: 0x6C5D0, symSize: 0x2F0 }
  - { offset: 0x22985C, size: 0x8, addend: 0x0, symName: __ZNKSt3__16vectorIPN6VSTGUI16IControlListenerENS_9allocatorIS3_EEE20__throw_length_errorB8ne180100Ev, symObjAddr: 0x14E0, symBinAddr: 0x6D480, symSize: 0x10 }
  - { offset: 0x229891, size: 0x8, addend: 0x0, symName: __ZNKSt3__16vectorINS_4pairIbPN6VSTGUI16IControlListenerEEENS_9allocatorIS5_EEE20__throw_length_errorB8ne180100Ev, symObjAddr: 0x15B0, symBinAddr: 0x6D490, symSize: 0x10 }
  - { offset: 0x2298BB, size: 0x8, addend: 0x0, symName: __ZN6VSTGUI12DispatchListIPNS_16IControlListenerEE11postForEachEv, symObjAddr: 0x15C0, symBinAddr: 0x6D4A0, symSize: 0x3D0 }
  - { offset: 0x229AE9, size: 0x8, addend: 0x0, symName: __ZN6VSTGUI8CControl25unregisterControlListenerEPNS_16IControlListenerE, symObjAddr: 0x640, symBinAddr: 0x6C8C0, symSize: 0x80 }
  - { offset: 0x229DE1, size: 0x8, addend: 0x0, symName: __ZN6VSTGUI8CControl11setWheelIncEf, symObjAddr: 0x6C0, symBinAddr: 0x6C940, symSize: 0x10 }
  - { offset: 0x229E35, size: 0x8, addend: 0x0, symName: __ZNK6VSTGUI8CControl11getWheelIncEv, symObjAddr: 0x6D0, symBinAddr: 0x6C950, symSize: 0x10 }
  - { offset: 0x229E7B, size: 0x8, addend: 0x0, symName: __ZN6VSTGUI8CControl6setMinEf, symObjAddr: 0x6E0, symBinAddr: 0x6C960, symSize: 0x20 }
  - { offset: 0x229EE3, size: 0x8, addend: 0x0, symName: __ZNK6VSTGUI8CControl6getMinEv, symObjAddr: 0x700, symBinAddr: 0x6C980, symSize: 0x10 }
  - { offset: 0x229F29, size: 0x8, addend: 0x0, symName: __ZN6VSTGUI8CControl6setMaxEf, symObjAddr: 0x710, symBinAddr: 0x6C990, symSize: 0x20 }
  - { offset: 0x229F91, size: 0x8, addend: 0x0, symName: __ZNK6VSTGUI8CControl6getMaxEv, symObjAddr: 0x730, symBinAddr: 0x6C9B0, symSize: 0x10 }
  - { offset: 0x229FD7, size: 0x8, addend: 0x0, symName: __ZN6VSTGUI8CControl11setOldValueEf, symObjAddr: 0x740, symBinAddr: 0x6C9C0, symSize: 0x10 }
  - { offset: 0x22A02B, size: 0x8, addend: 0x0, symName: __ZNK6VSTGUI8CControl11getOldValueEv, symObjAddr: 0x750, symBinAddr: 0x6C9D0, symSize: 0x10 }
  - { offset: 0x22A071, size: 0x8, addend: 0x0, symName: __ZN6VSTGUI8CControl15setDefaultValueEf, symObjAddr: 0x760, symBinAddr: 0x6C9E0, symSize: 0x10 }
  - { offset: 0x22A0C5, size: 0x8, addend: 0x0, symName: __ZNK6VSTGUI8CControl15getDefaultValueEv, symObjAddr: 0x770, symBinAddr: 0x6C9F0, symSize: 0x10 }
  - { offset: 0x22A10B, size: 0x8, addend: 0x0, symName: __ZN6VSTGUI8CControl6setTagEi, symObjAddr: 0x780, symBinAddr: 0x6CA00, symSize: 0x50 }
  - { offset: 0x22A163, size: 0x8, addend: 0x0, symName: __ZNK6VSTGUI8CControl9isEditingEv, symObjAddr: 0x7D0, symBinAddr: 0x6CA50, symSize: 0x20 }
  - { offset: 0x22A1B8, size: 0x8, addend: 0x0, symName: __ZN6VSTGUI8CControl9beginEditEv, symObjAddr: 0x7F0, symBinAddr: 0x6CA70, symSize: 0xF0 }
  - { offset: 0x22A3F2, size: 0x8, addend: 0x0, symName: __ZN6VSTGUI12DispatchListIPNS_16IControlListenerEE11postForEachEv, symObjAddr: 0x15C0, symBinAddr: 0x6D4A0, symSize: 0x3D0 }
  - { offset: 0x22B2F5, size: 0x8, addend: 0x0, symName: __ZN6VSTGUI8CControl7endEditEv, symObjAddr: 0x8E0, symBinAddr: 0x6CB60, symSize: 0xE0 }
  - { offset: 0x22B58B, size: 0x8, addend: 0x0, symName: __ZN6VSTGUI8CControl8setValueEf, symObjAddr: 0x9C0, symBinAddr: 0x6CC40, symSize: 0x50 }
  - { offset: 0x22B670, size: 0x8, addend: 0x0, symName: __ZN6VSTGUI8CControl18setValueNormalizedEf, symObjAddr: 0xA10, symBinAddr: 0x6CC90, symSize: 0xF0 }
  - { offset: 0x22B7FF, size: 0x8, addend: 0x0, symName: __ZNK6VSTGUI8CControl18getValueNormalizedEv, symObjAddr: 0xB00, symBinAddr: 0x6CD80, symSize: 0xC0 }
  - { offset: 0x22B8E0, size: 0x8, addend: 0x0, symName: __ZN6VSTGUI8CControl12valueChangedEv, symObjAddr: 0xBC0, symBinAddr: 0x6CE40, symSize: 0xA0 }
  - { offset: 0x22BB12, size: 0x8, addend: 0x0, symName: __ZNK6VSTGUI8CControl7isDirtyEv, symObjAddr: 0xC60, symBinAddr: 0x6CEE0, symSize: 0x40 }
  - { offset: 0x22BB6E, size: 0x8, addend: 0x0, symName: __ZN6VSTGUI8CControl8setDirtyEb, symObjAddr: 0xCB0, symBinAddr: 0x6CF20, symSize: 0x60 }
  - { offset: 0x22BBB5, size: 0x8, addend: 0x0, symName: __ZN6VSTGUI8CControl11bounceValueEv, symObjAddr: 0xD10, symBinAddr: 0x6CF80, symSize: 0x50 }
  - { offset: 0x22BCE0, size: 0x8, addend: 0x0, symName: '__ZN6VSTGUI8CControl3$_38__invokeEPS0_NS_12CButtonStateE', symObjAddr: 0xD60, symBinAddr: 0x6CFD0, symSize: 0x30 }
  - { offset: 0x22BD9C, size: 0x8, addend: 0x0, symName: '__ZN6VSTGUI8CControl3$_48__invokeEPS0_RNS_14MouseDownEventE', symObjAddr: 0xD90, symBinAddr: 0x6D000, symSize: 0x40 }
  - { offset: 0x22BE3B, size: 0x8, addend: 0x0, symName: __ZN6VSTGUI8CControl14drawFocusOnTopEv, symObjAddr: 0xDD0, symBinAddr: 0x6D040, symSize: 0x10 }
  - { offset: 0x22BE61, size: 0x8, addend: 0x0, symName: __ZThn24_N6VSTGUI8CControl14drawFocusOnTopEv, symObjAddr: 0xDE0, symBinAddr: 0x6D050, symSize: 0x10 }
  - { offset: 0x22BEEE, size: 0x8, addend: 0x0, symName: __ZN6VSTGUI8CControl12getFocusPathERNS_13CGraphicsPathE, symObjAddr: 0xDF0, symBinAddr: 0x6D060, symSize: 0xA0 }
  - { offset: 0x22BFF2, size: 0x8, addend: 0x0, symName: __ZThn24_N6VSTGUI8CControl12getFocusPathERNS_13CGraphicsPathE, symObjAddr: 0xE90, symBinAddr: 0x6D100, symSize: 0x20 }
  - { offset: 0x22C01F, size: 0x8, addend: 0x0, symName: __ZN6VSTGUI8CControl17mapVstKeyModifierEi, symObjAddr: 0xEB0, symBinAddr: 0x6D120, symSize: 0x20 }
  - { offset: 0x22C070, size: 0x8, addend: 0x0, symName: __ZN6VSTGUI19IMultiBitmapControl27autoComputeHeightOfOneImageEv, symObjAddr: 0xED0, symBinAddr: 0x6D140, symSize: 0x50 }
  - { offset: 0x22C4FF, size: 0x8, addend: 0x0, symName: __ZN6VSTGUI25CMouseWheelEditingSupport26invalidMouseWheelEditTimerEPNS_8CControlE, symObjAddr: 0x1040, symBinAddr: 0x6D2B0, symSize: 0x50 }
  - { offset: 0x22C5CB, size: 0x8, addend: 0x0, symName: __ZN6VSTGUI19IMultiBitmapControlD1Ev, symObjAddr: 0x1090, symBinAddr: 0x6D300, symSize: 0x10 }
  - { offset: 0x22C5F4, size: 0x8, addend: 0x0, symName: __ZN6VSTGUI19IMultiBitmapControlD0Ev, symObjAddr: 0x10A0, symBinAddr: 0x6D310, symSize: 0x10 }
  - { offset: 0x22C61D, size: 0x8, addend: 0x0, symName: __ZN6VSTGUI19IMultiBitmapControl16setNumSubPixmapsEi, symObjAddr: 0x10D0, symBinAddr: 0x6D320, symSize: 0x10 }
  - { offset: 0x22C79C, size: 0x8, addend: 0x0, symName: __ZN6VSTGUI8CControl4ImplD1Ev, symObjAddr: 0x1390, symBinAddr: 0x6D330, symSize: 0x50 }
  - { offset: 0x22CA91, size: 0x8, addend: 0x0, symName: __ZN6VSTGUI8CControl4ImplD0Ev, symObjAddr: 0x13E0, symBinAddr: 0x6D380, symSize: 0x50 }
  - { offset: 0x22CDCD, size: 0x8, addend: 0x0, symName: __ZN6VSTGUI8CControl4Impl11viewOnEventEPNS_5CViewERNS_5EventE, symObjAddr: 0x1430, symBinAddr: 0x6D3D0, symSize: 0xB0 }
  - { offset: 0x22D888, size: 0x8, addend: 0x0, symName: '__ZNSt3__110__function6__funcIZN6VSTGUI25CMouseWheelEditingSupport19onMouseWheelEditingEPNS2_8CControlEE3$_0NS_9allocatorIS6_EEFvPNS2_12CVSTGUITimerEEED1Ev', symObjAddr: 0x1C80, symBinAddr: 0x6D870, symSize: 0x10 }
  - { offset: 0x22D8B1, size: 0x8, addend: 0x0, symName: '__ZNSt3__110__function6__funcIZN6VSTGUI25CMouseWheelEditingSupport19onMouseWheelEditingEPNS2_8CControlEE3$_0NS_9allocatorIS6_EEFvPNS2_12CVSTGUITimerEEED0Ev', symObjAddr: 0x1C90, symBinAddr: 0x6D880, symSize: 0x10 }
  - { offset: 0x22DABF, size: 0x8, addend: 0x0, symName: '__ZNKSt3__110__function6__funcIZN6VSTGUI25CMouseWheelEditingSupport19onMouseWheelEditingEPNS2_8CControlEE3$_0NS_9allocatorIS6_EEFvPNS2_12CVSTGUITimerEEE7__cloneEv', symObjAddr: 0x1CA0, symBinAddr: 0x6D890, symSize: 0x30 }
  - { offset: 0x22DDAE, size: 0x8, addend: 0x0, symName: '__ZNKSt3__110__function6__funcIZN6VSTGUI25CMouseWheelEditingSupport19onMouseWheelEditingEPNS2_8CControlEE3$_0NS_9allocatorIS6_EEFvPNS2_12CVSTGUITimerEEE7__cloneEPNS0_6__baseISB_EE', symObjAddr: 0x1CD0, symBinAddr: 0x6D8C0, symSize: 0x20 }
  - { offset: 0x22DEB9, size: 0x8, addend: 0x0, symName: '__ZNSt3__110__function6__funcIZN6VSTGUI25CMouseWheelEditingSupport19onMouseWheelEditingEPNS2_8CControlEE3$_0NS_9allocatorIS6_EEFvPNS2_12CVSTGUITimerEEE7destroyEv', symObjAddr: 0x1CF0, symBinAddr: 0x6D8E0, symSize: 0x10 }
  - { offset: 0x22DF0A, size: 0x8, addend: 0x0, symName: '__ZNSt3__110__function6__funcIZN6VSTGUI25CMouseWheelEditingSupport19onMouseWheelEditingEPNS2_8CControlEE3$_0NS_9allocatorIS6_EEFvPNS2_12CVSTGUITimerEEE18destroy_deallocateEv', symObjAddr: 0x1D00, symBinAddr: 0x6D8F0, symSize: 0x10 }
  - { offset: 0x22E05C, size: 0x8, addend: 0x0, symName: '__ZNSt3__110__function6__funcIZN6VSTGUI25CMouseWheelEditingSupport19onMouseWheelEditingEPNS2_8CControlEE3$_0NS_9allocatorIS6_EEFvPNS2_12CVSTGUITimerEEEclEOSA_', symObjAddr: 0x1D10, symBinAddr: 0x6D900, symSize: 0x30 }
  - { offset: 0x22E147, size: 0x8, addend: 0x0, symName: '__ZNKSt3__110__function6__funcIZN6VSTGUI25CMouseWheelEditingSupport19onMouseWheelEditingEPNS2_8CControlEE3$_0NS_9allocatorIS6_EEFvPNS2_12CVSTGUITimerEEE6targetERKSt9type_info', symObjAddr: 0x1D40, symBinAddr: 0x6D930, symSize: 0x20 }
  - { offset: 0x22E1B9, size: 0x8, addend: 0x0, symName: '__ZNKSt3__110__function6__funcIZN6VSTGUI25CMouseWheelEditingSupport19onMouseWheelEditingEPNS2_8CControlEE3$_0NS_9allocatorIS6_EEFvPNS2_12CVSTGUITimerEEE11target_typeEv', symObjAddr: 0x1D60, symBinAddr: 0x6D950, symSize: 0xD }
  - { offset: 0x234B56, size: 0x8, addend: 0x0, symName: __ZN6VSTGUI8CControl13kZoomModifierE, symObjAddr: 0x6858, symBinAddr: 0x1CE2FC, symSize: 0x0 }
  - { offset: 0x23AC64, size: 0x8, addend: 0x0, symName: __ZN6VSTGUI9CKnobBaseC2ERKNS_5CRectEPNS_16IControlListenerEiPNS_7CBitmapE, symObjAddr: 0x0, symBinAddr: 0x6D960, symSize: 0xC0 }
  - { offset: 0x23ADA3, size: 0x8, addend: 0x0, symName: __ZN6VSTGUI9CKnobBaseC2ERKS0_, symObjAddr: 0xC0, symBinAddr: 0x6DA20, symSize: 0x70 }
  - { offset: 0x23AE6E, size: 0x8, addend: 0x0, symName: __ZN6VSTGUI9CKnobBase11setViewSizeERKNS_5CRectEb, symObjAddr: 0x130, symBinAddr: 0x6DA90, symSize: 0x30 }
  - { offset: 0x23AEE8, size: 0x8, addend: 0x0, symName: __ZN6VSTGUI9CKnobBase7computeEv, symObjAddr: 0x160, symBinAddr: 0x6DAC0, symSize: 0x20 }
  - { offset: 0x23AF65, size: 0x8, addend: 0x0, symName: __ZN6VSTGUI9CKnobBase9sizeToFitEv, symObjAddr: 0x180, symBinAddr: 0x6DAE0, symSize: 0xB0 }
  - { offset: 0x23B182, size: 0x8, addend: 0x0, symName: __ZN6VSTGUI9CKnobBase20getMouseEditingStateEv, symObjAddr: 0x230, symBinAddr: 0x6DB90, symSize: 0x80 }
  - { offset: 0x23B2D9, size: 0x8, addend: 0x0, symName: __ZN6VSTGUI9CKnobBase22clearMouseEditingStateEv, symObjAddr: 0x2B0, symBinAddr: 0x6DC10, symSize: 0x60 }
  - { offset: 0x23B42C, size: 0x8, addend: 0x0, symName: __ZN6VSTGUI9CKnobBase11onMouseDownERNS_6CPointERKNS_12CButtonStateE, symObjAddr: 0x310, symBinAddr: 0x6DC70, symSize: 0x230 }
  - { offset: 0x23B7AA, size: 0x8, addend: 0x0, symName: __ZN6VSTGUI9CKnobBase9onMouseUpERNS_6CPointERKNS_12CButtonStateE, symObjAddr: 0x540, symBinAddr: 0x6DEA0, symSize: 0x80 }
  - { offset: 0x23B85C, size: 0x8, addend: 0x0, symName: __ZN6VSTGUI9CKnobBase13onMouseCancelEv, symObjAddr: 0x5C0, symBinAddr: 0x6DF20, symSize: 0x110 }
  - { offset: 0x23BAE9, size: 0x8, addend: 0x0, symName: __ZN6VSTGUI9CKnobBase12onMouseMovedERNS_6CPointERKNS_12CButtonStateE, symObjAddr: 0x6D0, symBinAddr: 0x6E030, symSize: 0x300 }
  - { offset: 0x23BEAF, size: 0x8, addend: 0x0, symName: __ZN6VSTGUI9CKnobBase17onMouseWheelEventERNS_15MouseWheelEventE, symObjAddr: 0x9D0, symBinAddr: 0x6E330, symSize: 0xD0 }
  - { offset: 0x23BFE5, size: 0x8, addend: 0x0, symName: __ZN6VSTGUI9CKnobBase15onKeyboardEventERNS_13KeyboardEventE, symObjAddr: 0xAA0, symBinAddr: 0x6E400, symSize: 0x140 }
  - { offset: 0x23C193, size: 0x8, addend: 0x0, symName: __ZN6VSTGUI9CKnobBase13setStartAngleEf, symObjAddr: 0xBE0, symBinAddr: 0x6E540, symSize: 0x20 }
  - { offset: 0x23C1F0, size: 0x8, addend: 0x0, symName: __ZN6VSTGUI9CKnobBase13setRangeAngleEf, symObjAddr: 0xC00, symBinAddr: 0x6E560, symSize: 0x20 }
  - { offset: 0x23C290, size: 0x8, addend: 0x0, symName: __ZNK6VSTGUI9CKnobBase12valueToPointERNS_6CPointE, symObjAddr: 0xC20, symBinAddr: 0x6E580, symSize: 0x100 }
  - { offset: 0x23C38A, size: 0x8, addend: 0x0, symName: __ZNK6VSTGUI9CKnobBase14valueFromPointERNS_6CPointE, symObjAddr: 0xD20, symBinAddr: 0x6E680, symSize: 0x1E0 }
  - { offset: 0x23C51D, size: 0x8, addend: 0x0, symName: __ZN6VSTGUI9CKnobBase6setMinEf, symObjAddr: 0xF00, symBinAddr: 0x6E860, symSize: 0x50 }
  - { offset: 0x23C5AF, size: 0x8, addend: 0x0, symName: __ZN6VSTGUI9CKnobBase6setMaxEf, symObjAddr: 0xF50, symBinAddr: 0x6E8B0, symSize: 0x50 }
  - { offset: 0x23C87D, size: 0x8, addend: 0x0, symName: __ZN6VSTGUI5CKnobC2ERKNS_5CRectEPNS_16IControlListenerEiPNS_7CBitmapES7_RKNS_6CPointEi, symObjAddr: 0xFA0, symBinAddr: 0x6E900, symSize: 0x1F0 }
  - { offset: 0x23CCDE, size: 0x8, addend: 0x0, symName: __ZN6VSTGUI9CKnobBaseD2Ev, symObjAddr: 0x1190, symBinAddr: 0x6EAF0, symSize: 0x40 }
  - { offset: 0x23CDA0, size: 0x8, addend: 0x0, symName: __ZN6VSTGUI5CKnobC1ERKNS_5CRectEPNS_16IControlListenerEiPNS_7CBitmapES7_RKNS_6CPointEi, symObjAddr: 0x11D0, symBinAddr: 0x6EB30, symSize: 0x1F0 }
  - { offset: 0x23D2B6, size: 0x8, addend: 0x0, symName: __ZN6VSTGUI5CKnobC2ERKS0_, symObjAddr: 0x13C0, symBinAddr: 0x6ED20, symSize: 0x140 }
  - { offset: 0x23D627, size: 0x8, addend: 0x0, symName: __ZN6VSTGUI5CKnobC1ERKS0_, symObjAddr: 0x1500, symBinAddr: 0x6EE60, symSize: 0x110 }
  - { offset: 0x23D9C7, size: 0x8, addend: 0x0, symName: __ZN6VSTGUI5CKnobD2Ev, symObjAddr: 0x1610, symBinAddr: 0x6EF70, symSize: 0x90 }
  - { offset: 0x23DC0E, size: 0x8, addend: 0x0, symName: __ZN6VSTGUI5CKnobD1Ev, symObjAddr: 0x16B0, symBinAddr: 0x6F000, symSize: 0x80 }
  - { offset: 0x23DE53, size: 0x8, addend: 0x0, symName: __ZThn24_N6VSTGUI5CKnobD1Ev, symObjAddr: 0x1730, symBinAddr: 0x6F080, symSize: 0x80 }
  - { offset: 0x23E077, size: 0x8, addend: 0x0, symName: __ZN6VSTGUI5CKnobD0Ev, symObjAddr: 0x17B0, symBinAddr: 0x6F100, symSize: 0x90 }
  - { offset: 0x23E2B5, size: 0x8, addend: 0x0, symName: __ZThn24_N6VSTGUI5CKnobD0Ev, symObjAddr: 0x1840, symBinAddr: 0x6F190, symSize: 0x10 }
  - { offset: 0x23E2DB, size: 0x8, addend: 0x0, symName: __ZN6VSTGUI5CKnob14drawFocusOnTopEv, symObjAddr: 0x1850, symBinAddr: 0x6F1A0, symSize: 0x40 }
  - { offset: 0x23E329, size: 0x8, addend: 0x0, symName: __ZThn24_N6VSTGUI5CKnob14drawFocusOnTopEv, symObjAddr: 0x1890, symBinAddr: 0x6F1E0, symSize: 0x40 }
  - { offset: 0x23E397, size: 0x8, addend: 0x0, symName: __ZN6VSTGUI5CKnob12getFocusPathERNS_13CGraphicsPathE, symObjAddr: 0x18D0, symBinAddr: 0x6F220, symSize: 0xA0 }
  - { offset: 0x23E469, size: 0x8, addend: 0x0, symName: __ZThn24_N6VSTGUI5CKnob12getFocusPathERNS_13CGraphicsPathE, symObjAddr: 0x1970, symBinAddr: 0x6F2C0, symSize: 0xB0 }
  - { offset: 0x23E4F2, size: 0x8, addend: 0x0, symName: __ZN6VSTGUI5CKnob4drawEPNS_12CDrawContextE, symObjAddr: 0x1A20, symBinAddr: 0x6F370, symSize: 0xE0 }
  - { offset: 0x23E5AA, size: 0x8, addend: 0x0, symName: __ZN6VSTGUI5CKnob6addArcEPNS_13CGraphicsPathERKNS_5CRectEdd, symObjAddr: 0x1B00, symBinAddr: 0x6F450, symSize: 0xD0 }
  - { offset: 0x23E748, size: 0x8, addend: 0x0, symName: __ZNK6VSTGUI5CKnob17drawCoronaOutlineEPNS_12CDrawContextE, symObjAddr: 0x1BD0, symBinAddr: 0x6F520, symSize: 0x290 }
  - { offset: 0x23EC36, size: 0x8, addend: 0x0, symName: __ZNK6VSTGUI5CKnob10drawCoronaEPNS_12CDrawContextE, symObjAddr: 0x1E60, symBinAddr: 0x6F7B0, symSize: 0x340 }
  - { offset: 0x23F191, size: 0x8, addend: 0x0, symName: __ZNK6VSTGUI5CKnob18drawHandleAsCircleEPNS_12CDrawContextE, symObjAddr: 0x21A0, symBinAddr: 0x6FAF0, symSize: 0xF0 }
  - { offset: 0x23F365, size: 0x8, addend: 0x0, symName: __ZNK6VSTGUI5CKnob16drawHandleAsLineEPNS_12CDrawContextE, symObjAddr: 0x2290, symBinAddr: 0x6FBE0, symSize: 0x220 }
  - { offset: 0x23F9A5, size: 0x8, addend: 0x0, symName: __ZN6VSTGUI5CKnob10drawHandleEPNS_12CDrawContextE, symObjAddr: 0x24B0, symBinAddr: 0x6FE00, symSize: 0xD0 }
  - { offset: 0x23FB5A, size: 0x8, addend: 0x0, symName: __ZN6VSTGUI5CKnob14setCoronaInsetEd, symObjAddr: 0x2580, symBinAddr: 0x6FED0, symSize: 0x30 }
  - { offset: 0x23FBC9, size: 0x8, addend: 0x0, symName: __ZN6VSTGUI5CKnob14setCoronaColorENS_6CColorE, symObjAddr: 0x25B0, symBinAddr: 0x6FF00, symSize: 0x50 }
  - { offset: 0x23FC51, size: 0x8, addend: 0x0, symName: __ZN6VSTGUI5CKnob20setColorShadowHandleENS_6CColorE, symObjAddr: 0x2600, symBinAddr: 0x6FF50, symSize: 0x50 }
  - { offset: 0x23FCD9, size: 0x8, addend: 0x0, symName: __ZN6VSTGUI5CKnob14setColorHandleENS_6CColorE, symObjAddr: 0x2650, symBinAddr: 0x6FFA0, symSize: 0x50 }
  - { offset: 0x23FD61, size: 0x8, addend: 0x0, symName: __ZN6VSTGUI5CKnob18setHandleLineWidthEd, symObjAddr: 0x26A0, symBinAddr: 0x6FFF0, symSize: 0x30 }
  - { offset: 0x23FDAA, size: 0x8, addend: 0x0, symName: __ZN6VSTGUI5CKnob24setCoronaOutlineWidthAddEd, symObjAddr: 0x26D0, symBinAddr: 0x70020, symSize: 0x30 }
  - { offset: 0x23FE0E, size: 0x8, addend: 0x0, symName: __ZNK6VSTGUI5CKnob23getCoronaDashDotLengthsEv, symObjAddr: 0x2700, symBinAddr: 0x70050, symSize: 0x10 }
  - { offset: 0x23FF3E, size: 0x8, addend: 0x0, symName: __ZN6VSTGUI5CKnob23setCoronaDashDotLengthsERKNSt3__16vectorIdNS1_9allocatorIdEEEE, symObjAddr: 0x2710, symBinAddr: 0x70060, symSize: 0x90 }
  - { offset: 0x2407C8, size: 0x8, addend: 0x0, symName: __ZN6VSTGUI5CKnob12setDrawStyleEi, symObjAddr: 0x27A0, symBinAddr: 0x700F0, symSize: 0x20 }
  - { offset: 0x240813, size: 0x8, addend: 0x0, symName: __ZN6VSTGUI5CKnob15setHandleBitmapEPNS_7CBitmapE, symObjAddr: 0x27C0, symBinAddr: 0x70110, symSize: 0x80 }
  - { offset: 0x2408E8, size: 0x8, addend: 0x0, symName: __ZN6VSTGUI9CAnimKnobC2ERKNS_5CRectEPNS_16IControlListenerEiPNS_7CBitmapE, symObjAddr: 0x2840, symBinAddr: 0x70190, symSize: 0x1C0 }
  - { offset: 0x240BAA, size: 0x8, addend: 0x0, symName: __ZN6VSTGUI9CAnimKnobC1ERKNS_5CRectEPNS_16IControlListenerEiPNS_7CBitmapE, symObjAddr: 0x2A00, symBinAddr: 0x70350, symSize: 0x1C0 }
  - { offset: 0x240E8A, size: 0x8, addend: 0x0, symName: __ZN6VSTGUI9CAnimKnobC2ERKS0_, symObjAddr: 0x2BC0, symBinAddr: 0x70510, symSize: 0x110 }
  - { offset: 0x241001, size: 0x8, addend: 0x0, symName: __ZN6VSTGUI9CAnimKnobC1ERKS0_, symObjAddr: 0x2CD0, symBinAddr: 0x70620, symSize: 0xF0 }
  - { offset: 0x241208, size: 0x8, addend: 0x0, symName: __ZN6VSTGUI9CAnimKnob9sizeToFitEv, symObjAddr: 0x2DC0, symBinAddr: 0x70710, symSize: 0xD0 }
  - { offset: 0x241338, size: 0x8, addend: 0x0, symName: __ZN6VSTGUI9CAnimKnobC2ERKNS_5CRectEPNS_16IControlListenerEiidPNS_7CBitmapERKNS_6CPointE, symObjAddr: 0x2E90, symBinAddr: 0x707E0, symSize: 0x1B0 }
  - { offset: 0x2415B8, size: 0x8, addend: 0x0, symName: __ZN6VSTGUI9CAnimKnobC1ERKNS_5CRectEPNS_16IControlListenerEiidPNS_7CBitmapERKNS_6CPointE, symObjAddr: 0x3040, symBinAddr: 0x70990, symSize: 0x1A0 }
  - { offset: 0x24188B, size: 0x8, addend: 0x0, symName: __ZN6VSTGUI9CAnimKnob19setHeightOfOneImageERKd, symObjAddr: 0x31E0, symBinAddr: 0x70B30, symSize: 0x90 }
  - { offset: 0x24190E, size: 0x8, addend: 0x0, symName: __ZThn96_N6VSTGUI9CAnimKnob19setHeightOfOneImageERKd, symObjAddr: 0x3270, symBinAddr: 0x70BC0, symSize: 0xB0 }
  - { offset: 0x241977, size: 0x8, addend: 0x0, symName: __ZN6VSTGUI9CAnimKnob13setBackgroundEPNS_7CBitmapE, symObjAddr: 0x3320, symBinAddr: 0x70C70, symSize: 0xC0 }
  - { offset: 0x241A88, size: 0x8, addend: 0x0, symName: __ZN6VSTGUI9CAnimKnob4drawEPNS_12CDrawContextE, symObjAddr: 0x33E0, symBinAddr: 0x70D30, symSize: 0x1F0 }
  - { offset: 0x241CF3, size: 0x8, addend: 0x0, symName: __ZN6VSTGUI9CKnobBaseD1Ev, symObjAddr: 0x3860, symBinAddr: 0x177110, symSize: 0x10 }
  - { offset: 0x241D13, size: 0x8, addend: 0x0, symName: __ZN6VSTGUI9CKnobBaseD0Ev, symObjAddr: 0x3870, symBinAddr: 0x177120, symSize: 0x10 }
  - { offset: 0x241D33, size: 0x8, addend: 0x0, symName: __ZNK6VSTGUI9CKnobBase13getStartAngleEv, symObjAddr: 0x3880, symBinAddr: 0x70F20, symSize: 0x10 }
  - { offset: 0x241D58, size: 0x8, addend: 0x0, symName: __ZNK6VSTGUI9CKnobBase13getRangeAngleEv, symObjAddr: 0x3890, symBinAddr: 0x70F30, symSize: 0x10 }
  - { offset: 0x241D7D, size: 0x8, addend: 0x0, symName: __ZN6VSTGUI9CKnobBase13setZoomFactorEf, symObjAddr: 0x38A0, symBinAddr: 0x70F40, symSize: 0x10 }
  - { offset: 0x241DB0, size: 0x8, addend: 0x0, symName: __ZNK6VSTGUI9CKnobBase13getZoomFactorEv, symObjAddr: 0x38B0, symBinAddr: 0x70F50, symSize: 0x10 }
  - { offset: 0x241DD5, size: 0x8, addend: 0x0, symName: __ZNK6VSTGUI9CKnobBase13getInsetValueEv, symObjAddr: 0x38C0, symBinAddr: 0x70F60, symSize: 0x10 }
  - { offset: 0x241DFA, size: 0x8, addend: 0x0, symName: __ZN6VSTGUI9CKnobBase13setInsetValueEd, symObjAddr: 0x38D0, symBinAddr: 0x70F70, symSize: 0x10 }
  - { offset: 0x241E2D, size: 0x8, addend: 0x0, symName: __ZN6VSTGUI9CKnobBase12setKnobRangeEf, symObjAddr: 0x38E0, symBinAddr: 0x70F80, symSize: 0x20 }
  - { offset: 0x241E60, size: 0x8, addend: 0x0, symName: __ZNK6VSTGUI9CKnobBase12getKnobRangeEv, symObjAddr: 0x3900, symBinAddr: 0x70FA0, symSize: 0x10 }
  - { offset: 0x241EA1, size: 0x8, addend: 0x0, symName: __ZThn24_N6VSTGUI9CKnobBaseD1Ev, symObjAddr: 0x3910, symBinAddr: 0x177130, symSize: 0x10 }
  - { offset: 0x241EF2, size: 0x8, addend: 0x0, symName: __ZThn24_N6VSTGUI9CKnobBaseD0Ev, symObjAddr: 0x3920, symBinAddr: 0x177140, symSize: 0x10 }
  - { offset: 0x241F27, size: 0x8, addend: 0x0, symName: __ZNK6VSTGUI5CKnob7newCopyEv, symObjAddr: 0x3930, symBinAddr: 0x70FB0, symSize: 0x40 }
  - { offset: 0x241F86, size: 0x8, addend: 0x0, symName: __ZN6VSTGUI9CAnimKnobD1Ev, symObjAddr: 0x3970, symBinAddr: 0x70FF0, symSize: 0x40 }
  - { offset: 0x242051, size: 0x8, addend: 0x0, symName: __ZN6VSTGUI9CAnimKnobD0Ev, symObjAddr: 0x39B0, symBinAddr: 0x71030, symSize: 0x40 }
  - { offset: 0x242109, size: 0x8, addend: 0x0, symName: __ZNK6VSTGUI9CAnimKnob7newCopyEv, symObjAddr: 0x39F0, symBinAddr: 0x71070, symSize: 0x40 }
  - { offset: 0x242144, size: 0x8, addend: 0x0, symName: __ZN6VSTGUI9CAnimKnob16setNumSubPixmapsEi, symObjAddr: 0x3A30, symBinAddr: 0x710B0, symSize: 0x10 }
  - { offset: 0x2421A6, size: 0x8, addend: 0x0, symName: __ZThn24_N6VSTGUI9CAnimKnobD1Ev, symObjAddr: 0x3A40, symBinAddr: 0x710C0, symSize: 0x40 }
  - { offset: 0x24226C, size: 0x8, addend: 0x0, symName: __ZThn24_N6VSTGUI9CAnimKnobD0Ev, symObjAddr: 0x3A80, symBinAddr: 0x71100, symSize: 0x40 }
  - { offset: 0x24232F, size: 0x8, addend: 0x0, symName: __ZThn96_N6VSTGUI9CAnimKnobD1Ev, symObjAddr: 0x3AC0, symBinAddr: 0x71140, symSize: 0x40 }
  - { offset: 0x2423DB, size: 0x8, addend: 0x0, symName: __ZThn96_N6VSTGUI9CAnimKnobD0Ev, symObjAddr: 0x3B00, symBinAddr: 0x71180, symSize: 0x40 }
  - { offset: 0x24249E, size: 0x8, addend: 0x0, symName: __ZThn96_N6VSTGUI9CAnimKnob16setNumSubPixmapsEi, symObjAddr: 0x3B50, symBinAddr: 0x711C0, symSize: 0x20 }
  - { offset: 0x25122D, size: 0x8, addend: 0x0, symName: __ZN6VSTGUI12CListControlC2ERKNS_5CRectEPNS_16IControlListenerEi, symObjAddr: 0x0, symBinAddr: 0x711E0, symSize: 0xA0 }
  - { offset: 0x251479, size: 0x8, addend: 0x0, symName: __ZNSt3__110unique_ptrIN6VSTGUI12CListControl4ImplENS_14default_deleteIS3_EEED1B8ne180100Ev, symObjAddr: 0xA0, symBinAddr: 0x71280, symSize: 0x80 }
  - { offset: 0x2518C8, size: 0x8, addend: 0x0, symName: __ZN6VSTGUI12CListControlC1ERKNS_5CRectEPNS_16IControlListenerEi, symObjAddr: 0x120, symBinAddr: 0x71300, symSize: 0xB0 }
  - { offset: 0x251B3D, size: 0x8, addend: 0x0, symName: __ZN6VSTGUI12CListControlD2Ev, symObjAddr: 0x1D0, symBinAddr: 0x713B0, symSize: 0xA0 }
  - { offset: 0x251DBD, size: 0x8, addend: 0x0, symName: __ZN6VSTGUI12CListControlD1Ev, symObjAddr: 0x270, symBinAddr: 0x71450, symSize: 0x20 }
  - { offset: 0x251E14, size: 0x8, addend: 0x0, symName: __ZThn24_N6VSTGUI12CListControlD1Ev, symObjAddr: 0x290, symBinAddr: 0x71470, symSize: 0x20 }
  - { offset: 0x251E55, size: 0x8, addend: 0x0, symName: __ZN6VSTGUI12CListControlD0Ev, symObjAddr: 0x2B0, symBinAddr: 0x71490, symSize: 0x30 }
  - { offset: 0x251EC5, size: 0x8, addend: 0x0, symName: __ZThn24_N6VSTGUI12CListControlD0Ev, symObjAddr: 0x2E0, symBinAddr: 0x714C0, symSize: 0x30 }
  - { offset: 0x251F6A, size: 0x8, addend: 0x0, symName: __ZN6VSTGUI12CListControl9setDrawerEPNS_18IListControlDrawerE, symObjAddr: 0x310, symBinAddr: 0x714F0, symSize: 0x60 }
  - { offset: 0x252027, size: 0x8, addend: 0x0, symName: __ZN6VSTGUI12CListControl15setConfiguratorEPNS_24IListControlConfiguratorE, symObjAddr: 0x370, symBinAddr: 0x71550, symSize: 0x70 }
  - { offset: 0x2520CE, size: 0x8, addend: 0x0, symName: __ZN6VSTGUI12CListControl17recalculateLayoutEv, symObjAddr: 0x3E0, symBinAddr: 0x715C0, symSize: 0x1B0 }
  - { offset: 0x252528, size: 0x8, addend: 0x0, symName: __ZNSt3__16vectorIN6VSTGUI19CListControlRowDescENS_9allocatorIS2_EEE8__appendEm, symObjAddr: 0x2250, symBinAddr: 0x73140, symSize: 0x180 }
  - { offset: 0x252BC6, size: 0x8, addend: 0x0, symName: __ZNK6VSTGUI12CListControl9getDrawerEv, symObjAddr: 0x590, symBinAddr: 0x71770, symSize: 0x10 }
  - { offset: 0x252C3F, size: 0x8, addend: 0x0, symName: __ZNK6VSTGUI12CListControl15getConfiguratorEv, symObjAddr: 0x5A0, symBinAddr: 0x71780, symSize: 0x10 }
  - { offset: 0x252CC0, size: 0x8, addend: 0x0, symName: __ZNK6VSTGUI12CListControl13getHoveredRowEv, symObjAddr: 0x5B0, symBinAddr: 0x71790, symSize: 0x20 }
  - { offset: 0x252D25, size: 0x8, addend: 0x0, symName: __ZNK6VSTGUI12CListControl10getNumRowsEv, symObjAddr: 0x5D0, symBinAddr: 0x717B0, symSize: 0x60 }
  - { offset: 0x252DC8, size: 0x8, addend: 0x0, symName: __ZNK6VSTGUI12CListControl11getIntValueEv, symObjAddr: 0x630, symBinAddr: 0x71810, symSize: 0x30 }
  - { offset: 0x252E24, size: 0x8, addend: 0x0, symName: __ZN6VSTGUI12CListControl11setViewSizeERKNS_5CRectEb, symObjAddr: 0x670, symBinAddr: 0x71840, symSize: 0x30 }
  - { offset: 0x2530DD, size: 0x8, addend: 0x0, symName: __ZNK6VSTGUI12CListControl10getRowRectEi, symObjAddr: 0x6A0, symBinAddr: 0x71870, symSize: 0x130 }
  - { offset: 0x25331E, size: 0x8, addend: 0x0, symName: __ZNK6VSTGUI12CListControl14getMinRowIndexEv, symObjAddr: 0x7D0, symBinAddr: 0x719A0, symSize: 0x10 }
  - { offset: 0x253340, size: 0x8, addend: 0x0, symName: __ZNK6VSTGUI12CListControl14getMaxRowIndexEv, symObjAddr: 0x7E0, symBinAddr: 0x719B0, symSize: 0x10 }
  - { offset: 0x253395, size: 0x8, addend: 0x0, symName: __ZN6VSTGUI12CListControl10invalidRowEi, symObjAddr: 0x7F0, symBinAddr: 0x719C0, symSize: 0x40 }
  - { offset: 0x253475, size: 0x8, addend: 0x0, symName: __ZNK6VSTGUI12CListControl13getRowAtPointENS_6CPointE, symObjAddr: 0x830, symBinAddr: 0x71A00, symSize: 0xD0 }
  - { offset: 0x2535A6, size: 0x8, addend: 0x0, symName: __ZN6VSTGUI12CListControl4drawEPNS_12CDrawContextE, symObjAddr: 0x900, symBinAddr: 0x71AD0, symSize: 0x30 }
  - { offset: 0x2535ED, size: 0x8, addend: 0x0, symName: __ZN6VSTGUI12CListControl8drawRectEPNS_12CDrawContextERKNS_5CRectE, symObjAddr: 0x930, symBinAddr: 0x71B00, symSize: 0x510 }
  - { offset: 0x253E6A, size: 0x8, addend: 0x0, symName: __ZNK6VSTGUI12CListControl21getNormalizedRowIndexEi, symObjAddr: 0xE40, symBinAddr: 0x72010, symSize: 0x50 }
  - { offset: 0x253EE2, size: 0x8, addend: 0x0, symName: __ZN6VSTGUI12CListControl8attachedEPNS_5CViewE, symObjAddr: 0xEB0, symBinAddr: 0x72060, symSize: 0xD0 }
  - { offset: 0x254125, size: 0x8, addend: 0x0, symName: __ZN6VSTGUI12CListControl6setMinEf, symObjAddr: 0xF80, symBinAddr: 0x72130, symSize: 0x80 }
  - { offset: 0x2541CB, size: 0x8, addend: 0x0, symName: __ZN6VSTGUI12CListControl6setMaxEf, symObjAddr: 0x1000, symBinAddr: 0x721B0, symSize: 0x80 }
  - { offset: 0x2542A5, size: 0x8, addend: 0x0, symName: __ZN6VSTGUI12CListControl11onMouseDownERNS_6CPointERKNS_12CButtonStateE, symObjAddr: 0x1080, symBinAddr: 0x72230, symSize: 0x20 }
  - { offset: 0x254350, size: 0x8, addend: 0x0, symName: __ZN6VSTGUI12CListControl15clearHoveredRowEv, symObjAddr: 0x10A0, symBinAddr: 0x72250, symSize: 0x50 }
  - { offset: 0x254506, size: 0x8, addend: 0x0, symName: __ZN6VSTGUI12CListControl12onMouseMovedERNS_6CPointERKNS_12CButtonStateE, symObjAddr: 0x10F0, symBinAddr: 0x722A0, symSize: 0x210 }
  - { offset: 0x254A40, size: 0x8, addend: 0x0, symName: __ZN6VSTGUI12CListControl9onMouseUpERNS_6CPointERKNS_12CButtonStateE, symObjAddr: 0x1300, symBinAddr: 0x724B0, symSize: 0x250 }
  - { offset: 0x254F31, size: 0x8, addend: 0x0, symName: __ZNK6VSTGUI12CListControl13rowSelectableEi, symObjAddr: 0x1550, symBinAddr: 0x72700, symSize: 0x70 }
  - { offset: 0x255014, size: 0x8, addend: 0x0, symName: __ZN6VSTGUI12CListControl13onMouseExitedERNS_6CPointERKNS_12CButtonStateE, symObjAddr: 0x15C0, symBinAddr: 0x72770, symSize: 0x60 }
  - { offset: 0x255175, size: 0x8, addend: 0x0, symName: __ZNK6VSTGUI12CListControl20getNextSelectableRowEii, symObjAddr: 0x1620, symBinAddr: 0x727D0, symSize: 0xD0 }
  - { offset: 0x255339, size: 0x8, addend: 0x0, symName: __ZN6VSTGUI12CListControl15onKeyboardEventERNS_13KeyboardEventE, symObjAddr: 0x16F0, symBinAddr: 0x728A0, symSize: 0x650 }
  - { offset: 0x255DBB, size: 0x8, addend: 0x0, symName: __ZN6VSTGUI12CListControl14drawFocusOnTopEv, symObjAddr: 0x1D40, symBinAddr: 0x72EF0, symSize: 0x10 }
  - { offset: 0x255DE1, size: 0x8, addend: 0x0, symName: __ZThn24_N6VSTGUI12CListControl14drawFocusOnTopEv, symObjAddr: 0x1D50, symBinAddr: 0x72F00, symSize: 0x10 }
  - { offset: 0x255E25, size: 0x8, addend: 0x0, symName: __ZN6VSTGUI12CListControl12getFocusPathERNS_13CGraphicsPathE, symObjAddr: 0x1D60, symBinAddr: 0x72F10, symSize: 0x80 }
  - { offset: 0x255ED1, size: 0x8, addend: 0x0, symName: __ZThn24_N6VSTGUI12CListControl12getFocusPathERNS_13CGraphicsPathE, symObjAddr: 0x1DE0, symBinAddr: 0x72F90, symSize: 0x80 }
  - { offset: 0x255F50, size: 0x8, addend: 0x0, symName: __ZNK6VSTGUI12CListControl7newCopyEv, symObjAddr: 0x20E0, symBinAddr: 0x73010, symSize: 0x10 }
  - { offset: 0x255F8F, size: 0x8, addend: 0x0, symName: __ZZN6VSTGUI12CListControl8attachedEPNS_5CViewEEN12SizeListenerD1Ev, symObjAddr: 0x2100, symBinAddr: 0x73020, symSize: 0x40 }
  - { offset: 0x255FE2, size: 0x8, addend: 0x0, symName: __ZZN6VSTGUI12CListControl8attachedEPNS_5CViewEEN12SizeListenerD0Ev, symObjAddr: 0x2140, symBinAddr: 0x73060, symSize: 0x50 }
  - { offset: 0x25603B, size: 0x8, addend: 0x0, symName: __ZZN6VSTGUI12CListControl8attachedEPNS_5CViewEEN12SizeListener15viewSizeChangedES2_RKNS_5CRectE, symObjAddr: 0x2190, symBinAddr: 0x730B0, symSize: 0x50 }
  - { offset: 0x2560CD, size: 0x8, addend: 0x0, symName: __ZZN6VSTGUI12CListControl8attachedEPNS_5CViewEEN12SizeListener12viewAttachedES2_, symObjAddr: 0x21E0, symBinAddr: 0x73100, symSize: 0x10 }
  - { offset: 0x2560FF, size: 0x8, addend: 0x0, symName: __ZZN6VSTGUI12CListControl8attachedEPNS_5CViewEEN12SizeListener11viewRemovedES2_, symObjAddr: 0x21F0, symBinAddr: 0x73110, symSize: 0x10 }
  - { offset: 0x256131, size: 0x8, addend: 0x0, symName: __ZZN6VSTGUI12CListControl8attachedEPNS_5CViewEEN12SizeListener14viewWillDeleteES2_, symObjAddr: 0x2220, symBinAddr: 0x73120, symSize: 0x20 }
  - { offset: 0x256576, size: 0x8, addend: 0x0, symName: __ZNKSt3__16vectorIN6VSTGUI19CListControlRowDescENS_9allocatorIS2_EEE20__throw_length_errorB8ne180100Ev, symObjAddr: 0x23D0, symBinAddr: 0x732C0, symSize: 0x10 }
  - { offset: 0x2584D8, size: 0x8, addend: 0x0, symName: __ZN6VSTGUI12CMovieBitmapC2ERKNS_5CRectEPNS_16IControlListenerEiPNS_7CBitmapE, symObjAddr: 0x0, symBinAddr: 0x732D0, symSize: 0xF0 }
  - { offset: 0x2584F1, size: 0x8, addend: 0x0, symName: __ZN6VSTGUI12CMovieBitmap25useLegacyFrameCalculationE, symObjAddr: 0x2F218, symBinAddr: 0x1F4EF0, symSize: 0x0 }
  - { offset: 0x25EFB2, size: 0x8, addend: 0x0, symName: __ZN6VSTGUI12CMovieBitmapC2ERKNS_5CRectEPNS_16IControlListenerEiPNS_7CBitmapE, symObjAddr: 0x0, symBinAddr: 0x732D0, symSize: 0xF0 }
  - { offset: 0x25F11D, size: 0x8, addend: 0x0, symName: __ZN6VSTGUI12CMovieBitmapC1ERKNS_5CRectEPNS_16IControlListenerEiPNS_7CBitmapE, symObjAddr: 0xF0, symBinAddr: 0x733C0, symSize: 0xD0 }
  - { offset: 0x25F276, size: 0x8, addend: 0x0, symName: __ZN6VSTGUI12CMovieBitmapC2ERKNS_5CRectEPNS_16IControlListenerEiidPNS_7CBitmapERKNS_6CPointE, symObjAddr: 0x1C0, symBinAddr: 0x73490, symSize: 0xE0 }
  - { offset: 0x25F3E3, size: 0x8, addend: 0x0, symName: __ZN6VSTGUI12CMovieBitmapC1ERKNS_5CRectEPNS_16IControlListenerEiidPNS_7CBitmapERKNS_6CPointE, symObjAddr: 0x2A0, symBinAddr: 0x73570, symSize: 0xE0 }
  - { offset: 0x25F565, size: 0x8, addend: 0x0, symName: __ZN6VSTGUI12CMovieBitmapC2ERKS0_, symObjAddr: 0x380, symBinAddr: 0x73650, symSize: 0xD0 }
  - { offset: 0x25F651, size: 0x8, addend: 0x0, symName: __ZN6VSTGUI12CMovieBitmapC1ERKS0_, symObjAddr: 0x450, symBinAddr: 0x73720, symSize: 0xD0 }
  - { offset: 0x25F863, size: 0x8, addend: 0x0, symName: __ZN6VSTGUI12CMovieBitmap4drawEPNS_12CDrawContextE, symObjAddr: 0x520, symBinAddr: 0x737F0, symSize: 0x200 }
  - { offset: 0x25FB2E, size: 0x8, addend: 0x0, symName: __ZN6VSTGUI12CMovieBitmap9sizeToFitEv, symObjAddr: 0x720, symBinAddr: 0x739F0, symSize: 0xE0 }
  - { offset: 0x25FCC7, size: 0x8, addend: 0x0, symName: __ZN6VSTGUI12CMovieBitmapD1Ev, symObjAddr: 0xA90, symBinAddr: 0x73AD0, symSize: 0x20 }
  - { offset: 0x25FD1E, size: 0x8, addend: 0x0, symName: __ZN6VSTGUI12CMovieBitmapD0Ev, symObjAddr: 0xAB0, symBinAddr: 0x73AF0, symSize: 0x30 }
  - { offset: 0x25FDA1, size: 0x8, addend: 0x0, symName: __ZNK6VSTGUI12CMovieBitmap7newCopyEv, symObjAddr: 0xAE0, symBinAddr: 0x73B20, symSize: 0xF0 }
  - { offset: 0x25FEC9, size: 0x8, addend: 0x0, symName: __ZN6VSTGUI12CMovieBitmap16setNumSubPixmapsEi, symObjAddr: 0xBD0, symBinAddr: 0x73C10, symSize: 0x10 }
  - { offset: 0x25FF2B, size: 0x8, addend: 0x0, symName: __ZThn24_N6VSTGUI12CMovieBitmapD1Ev, symObjAddr: 0xBE0, symBinAddr: 0x73C20, symSize: 0x20 }
  - { offset: 0x25FF95, size: 0x8, addend: 0x0, symName: __ZThn24_N6VSTGUI12CMovieBitmapD0Ev, symObjAddr: 0xC00, symBinAddr: 0x73C40, symSize: 0x30 }
  - { offset: 0x260004, size: 0x8, addend: 0x0, symName: __ZThn64_N6VSTGUI12CMovieBitmapD1Ev, symObjAddr: 0xC30, symBinAddr: 0x73C70, symSize: 0x20 }
  - { offset: 0x260054, size: 0x8, addend: 0x0, symName: __ZThn64_N6VSTGUI12CMovieBitmapD0Ev, symObjAddr: 0xC50, symBinAddr: 0x73C90, symSize: 0x30 }
  - { offset: 0x2600C3, size: 0x8, addend: 0x0, symName: __ZThn64_N6VSTGUI12CMovieBitmap16setNumSubPixmapsEi, symObjAddr: 0xCA0, symBinAddr: 0x73CC0, symSize: 0x20 }
  - { offset: 0x261FFE, size: 0x8, addend: 0x0, symName: __ZN6VSTGUI12CMovieButtonC2ERKNS_5CRectEPNS_16IControlListenerEiPNS_7CBitmapE, symObjAddr: 0x0, symBinAddr: 0x73CE0, symSize: 0xD0 }
  - { offset: 0x268B41, size: 0x8, addend: 0x0, symName: __ZN6VSTGUI12CMovieButtonC2ERKNS_5CRectEPNS_16IControlListenerEiPNS_7CBitmapE, symObjAddr: 0x0, symBinAddr: 0x73CE0, symSize: 0xD0 }
  - { offset: 0x268C91, size: 0x8, addend: 0x0, symName: __ZN6VSTGUI12CMovieButtonC1ERKNS_5CRectEPNS_16IControlListenerEiPNS_7CBitmapE, symObjAddr: 0xD0, symBinAddr: 0x73DB0, symSize: 0xC0 }
  - { offset: 0x268DD8, size: 0x8, addend: 0x0, symName: __ZN6VSTGUI12CMovieButtonC2ERKNS_5CRectEPNS_16IControlListenerEidPNS_7CBitmapERKNS_6CPointE, symObjAddr: 0x190, symBinAddr: 0x73E70, symSize: 0xD0 }
  - { offset: 0x268EE9, size: 0x8, addend: 0x0, symName: __ZN6VSTGUI12CMovieButtonC1ERKNS_5CRectEPNS_16IControlListenerEidPNS_7CBitmapERKNS_6CPointE, symObjAddr: 0x260, symBinAddr: 0x73F40, symSize: 0xD0 }
  - { offset: 0x268FF2, size: 0x8, addend: 0x0, symName: __ZN6VSTGUI12CMovieButtonC2ERKS0_, symObjAddr: 0x330, symBinAddr: 0x74010, symSize: 0xE0 }
  - { offset: 0x2690FE, size: 0x8, addend: 0x0, symName: __ZN6VSTGUI12CMovieButtonC1ERKS0_, symObjAddr: 0x410, symBinAddr: 0x740F0, symSize: 0xC0 }
  - { offset: 0x26924E, size: 0x8, addend: 0x0, symName: __ZN6VSTGUI12CMovieButton4drawEPNS_12CDrawContextE, symObjAddr: 0x4D0, symBinAddr: 0x741B0, symSize: 0x150 }
  - { offset: 0x269424, size: 0x8, addend: 0x0, symName: __ZN6VSTGUI12CMovieButton11onMouseDownERNS_6CPointERKNS_12CButtonStateE, symObjAddr: 0x620, symBinAddr: 0x74300, symSize: 0x60 }
  - { offset: 0x269484, size: 0x8, addend: 0x0, symName: __ZN6VSTGUI12CMovieButton9onMouseUpERNS_6CPointERKNS_12CButtonStateE, symObjAddr: 0x680, symBinAddr: 0x74360, symSize: 0x30 }
  - { offset: 0x2694D6, size: 0x8, addend: 0x0, symName: __ZN6VSTGUI12CMovieButton12onMouseMovedERNS_6CPointERKNS_12CButtonStateE, symObjAddr: 0x6B0, symBinAddr: 0x74390, symSize: 0x110 }
  - { offset: 0x269579, size: 0x8, addend: 0x0, symName: __ZN6VSTGUI12CMovieButton13onMouseCancelEv, symObjAddr: 0x7C0, symBinAddr: 0x744A0, symSize: 0x60 }
  - { offset: 0x26962F, size: 0x8, addend: 0x0, symName: __ZN6VSTGUI12CMovieButton15onKeyboardEventERNS_13KeyboardEventE, symObjAddr: 0x820, symBinAddr: 0x74500, symSize: 0x90 }
  - { offset: 0x26975E, size: 0x8, addend: 0x0, symName: __ZN6VSTGUI12CMovieButton9sizeToFitEv, symObjAddr: 0x8B0, symBinAddr: 0x74590, symSize: 0xD0 }
  - { offset: 0x2698B9, size: 0x8, addend: 0x0, symName: __ZN6VSTGUI12CMovieButtonD1Ev, symObjAddr: 0xC10, symBinAddr: 0x74660, symSize: 0x20 }
  - { offset: 0x269910, size: 0x8, addend: 0x0, symName: __ZN6VSTGUI12CMovieButtonD0Ev, symObjAddr: 0xC30, symBinAddr: 0x74680, symSize: 0x30 }
  - { offset: 0x269993, size: 0x8, addend: 0x0, symName: __ZNK6VSTGUI12CMovieButton7newCopyEv, symObjAddr: 0xC60, symBinAddr: 0x746B0, symSize: 0xE0 }
  - { offset: 0x269A81, size: 0x8, addend: 0x0, symName: __ZN6VSTGUI12CMovieButton16setNumSubPixmapsEi, symObjAddr: 0xD40, symBinAddr: 0x74790, symSize: 0x10 }
  - { offset: 0x269AE3, size: 0x8, addend: 0x0, symName: __ZThn24_N6VSTGUI12CMovieButtonD1Ev, symObjAddr: 0xD50, symBinAddr: 0x747A0, symSize: 0x20 }
  - { offset: 0x269B4D, size: 0x8, addend: 0x0, symName: __ZThn24_N6VSTGUI12CMovieButtonD0Ev, symObjAddr: 0xD70, symBinAddr: 0x747C0, symSize: 0x30 }
  - { offset: 0x269BBC, size: 0x8, addend: 0x0, symName: __ZThn64_N6VSTGUI12CMovieButtonD1Ev, symObjAddr: 0xDA0, symBinAddr: 0x747F0, symSize: 0x20 }
  - { offset: 0x269C0C, size: 0x8, addend: 0x0, symName: __ZThn64_N6VSTGUI12CMovieButtonD0Ev, symObjAddr: 0xDC0, symBinAddr: 0x74810, symSize: 0x30 }
  - { offset: 0x269C9C, size: 0x8, addend: 0x0, symName: __ZThn64_N6VSTGUI12CMovieButton16setNumSubPixmapsEi, symObjAddr: 0xE10, symBinAddr: 0x74840, symSize: 0x20 }
  - { offset: 0x284A6B, size: 0x8, addend: 0x0, symName: __ZN6VSTGUI11COptionMenu15onKeyboardEventERNS_13KeyboardEventE, symObjAddr: 0x23F0, symBinAddr: 0x76C00, symSize: 0x2B0 }
  - { offset: 0x28534B, size: 0x8, addend: 0x0, symName: __ZN6VSTGUI11COptionMenu5popupERKNSt3__18functionIFvPS0_EEE, symObjAddr: 0x2990, symBinAddr: 0x771A0, symSize: 0x300 }
  - { offset: 0x286031, size: 0x8, addend: 0x0, symName: __ZN6VSTGUI11COptionMenu5popupEPNS_6CFrameERKNS_6CPointERKNSt3__18functionIFvPS0_EEE, symObjAddr: 0x2CF0, symBinAddr: 0x77500, symSize: 0x300 }
  - { offset: 0x286E5D, size: 0x8, addend: 0x0, symName: __ZN6VSTGUI11COptionMenu11onMouseDownERNS_6CPointERKNS_12CButtonStateE, symObjAddr: 0x41A0, symBinAddr: 0x78950, symSize: 0x120 }
  - { offset: 0x2878DF, size: 0x8, addend: 0x0, symName: __ZN6VSTGUI9CMenuItemC2Ev, symObjAddr: 0x0, symBinAddr: 0x74860, symSize: 0x140 }
  - { offset: 0x287CB0, size: 0x8, addend: 0x0, symName: __ZN6VSTGUI9CMenuItem4ImplD2Ev, symObjAddr: 0x4860, symBinAddr: 0x78D80, symSize: 0x90 }
  - { offset: 0x288046, size: 0x8, addend: 0x0, symName: __ZNSt3__110unique_ptrIN6VSTGUI9CMenuItem4ImplENS_14default_deleteIS3_EEED1B8ne180100Ev, symObjAddr: 0x140, symBinAddr: 0x749A0, symSize: 0x40 }
  - { offset: 0x288120, size: 0x8, addend: 0x0, symName: __ZN6VSTGUI9CMenuItemC1Ev, symObjAddr: 0x180, symBinAddr: 0x749E0, symSize: 0x110 }
  - { offset: 0x2884EB, size: 0x8, addend: 0x0, symName: __ZN6VSTGUI9CMenuItemD2Ev, symObjAddr: 0x290, symBinAddr: 0x74AF0, symSize: 0x50 }
  - { offset: 0x2885F9, size: 0x8, addend: 0x0, symName: __ZN6VSTGUI9CMenuItemD1Ev, symObjAddr: 0x2E0, symBinAddr: 0x74B40, symSize: 0x40 }
  - { offset: 0x288713, size: 0x8, addend: 0x0, symName: __ZN6VSTGUI9CMenuItemD0Ev, symObjAddr: 0x320, symBinAddr: 0x74B80, symSize: 0x50 }
  - { offset: 0x288856, size: 0x8, addend: 0x0, symName: __ZN6VSTGUI9CMenuItemC2ERKNS_10UTF8StringES3_iPNS_7CBitmapEi, symObjAddr: 0x370, symBinAddr: 0x74BD0, symSize: 0x80 }
  - { offset: 0x288955, size: 0x8, addend: 0x0, symName: __ZN6VSTGUI9CMenuItemC1ERKNS_10UTF8StringES3_iPNS_7CBitmapEi, symObjAddr: 0x3F0, symBinAddr: 0x74C50, symSize: 0x80 }
  - { offset: 0x288A3F, size: 0x8, addend: 0x0, symName: __ZN6VSTGUI9CMenuItemC2ERKNS_10UTF8StringEPNS_11COptionMenuEPNS_7CBitmapE, symObjAddr: 0x470, symBinAddr: 0x74CD0, symSize: 0x70 }
  - { offset: 0x288B2B, size: 0x8, addend: 0x0, symName: __ZN6VSTGUI9CMenuItemC1ERKNS_10UTF8StringEPNS_11COptionMenuEPNS_7CBitmapE, symObjAddr: 0x4E0, symBinAddr: 0x74D40, symSize: 0x60 }
  - { offset: 0x288BDC, size: 0x8, addend: 0x0, symName: __ZN6VSTGUI9CMenuItemC2ERKNS_10UTF8StringEi, symObjAddr: 0x540, symBinAddr: 0x74DA0, symSize: 0x60 }
  - { offset: 0x288C9F, size: 0x8, addend: 0x0, symName: __ZN6VSTGUI9CMenuItemC1ERKNS_10UTF8StringEi, symObjAddr: 0x5A0, symBinAddr: 0x74E00, symSize: 0x60 }
  - { offset: 0x288E12, size: 0x8, addend: 0x0, symName: __ZN6VSTGUI9CMenuItemC2ERKS0_, symObjAddr: 0x600, symBinAddr: 0x74E60, symSize: 0xC0 }
  - { offset: 0x28909A, size: 0x8, addend: 0x0, symName: __ZNK6VSTGUI9CMenuItem8getTitleEv, symObjAddr: 0x6C0, symBinAddr: 0x74F20, symSize: 0x10 }
  - { offset: 0x2890D9, size: 0x8, addend: 0x0, symName: __ZNK6VSTGUI9CMenuItem7getIconEv, symObjAddr: 0x6D0, symBinAddr: 0x74F30, symSize: 0x10 }
  - { offset: 0x289138, size: 0x8, addend: 0x0, symName: __ZNK6VSTGUI9CMenuItem13getVirtualKeyEv, symObjAddr: 0x6E0, symBinAddr: 0x74F40, symSize: 0x10 }
  - { offset: 0x289177, size: 0x8, addend: 0x0, symName: __ZNK6VSTGUI9CMenuItem15getKeyModifiersEv, symObjAddr: 0x6F0, symBinAddr: 0x74F50, symSize: 0x10 }
  - { offset: 0x2891B6, size: 0x8, addend: 0x0, symName: __ZNK6VSTGUI9CMenuItem10getKeycodeEv, symObjAddr: 0x700, symBinAddr: 0x74F60, symSize: 0x10 }
  - { offset: 0x2891F5, size: 0x8, addend: 0x0, symName: __ZNK6VSTGUI9CMenuItem6getTagEv, symObjAddr: 0x710, symBinAddr: 0x74F70, symSize: 0x10 }
  - { offset: 0x289234, size: 0x8, addend: 0x0, symName: __ZNK6VSTGUI9CMenuItem10getSubmenuEv, symObjAddr: 0x720, symBinAddr: 0x74F80, symSize: 0x10 }
  - { offset: 0x289293, size: 0x8, addend: 0x0, symName: __ZN6VSTGUI9CMenuItemC1ERKS0_, symObjAddr: 0x730, symBinAddr: 0x74F90, symSize: 0xB0 }
  - { offset: 0x289500, size: 0x8, addend: 0x0, symName: __ZN6VSTGUI9CMenuItem8setTitleERKNS_10UTF8StringE, symObjAddr: 0x7E0, symBinAddr: 0x75040, symSize: 0x10 }
  - { offset: 0x289556, size: 0x8, addend: 0x0, symName: __ZN6VSTGUI9CMenuItem6setKeyERKNS_10UTF8StringEi, symObjAddr: 0x7F0, symBinAddr: 0x75050, symSize: 0x30 }
  - { offset: 0x2895DD, size: 0x8, addend: 0x0, symName: __ZN6VSTGUI9CMenuItem13setVirtualKeyEii, symObjAddr: 0x820, symBinAddr: 0x75080, symSize: 0x90 }
  - { offset: 0x289901, size: 0x8, addend: 0x0, symName: __ZNK6VSTGUI9CMenuItem17getVirtualKeyCodeEv, symObjAddr: 0x8F0, symBinAddr: 0x75110, symSize: 0x20 }
  - { offset: 0x28996C, size: 0x8, addend: 0x0, symName: __ZN6VSTGUI9CMenuItem13setVirtualKeyENS_10VirtualKeyEi, symObjAddr: 0x910, symBinAddr: 0x75130, symSize: 0x90 }
  - { offset: 0x289BAA, size: 0x8, addend: 0x0, symName: __ZN6VSTGUI9CMenuItem10setSubmenuEPNS_11COptionMenuE, symObjAddr: 0x9A0, symBinAddr: 0x751C0, symSize: 0x40 }
  - { offset: 0x289C64, size: 0x8, addend: 0x0, symName: __ZN6VSTGUI9CMenuItem7setIconEPNS_7CBitmapE, symObjAddr: 0x9E0, symBinAddr: 0x75200, symSize: 0x40 }
  - { offset: 0x289CFA, size: 0x8, addend: 0x0, symName: __ZN6VSTGUI9CMenuItem6setTagEi, symObjAddr: 0xA20, symBinAddr: 0x75240, symSize: 0x10 }
  - { offset: 0x289D4E, size: 0x8, addend: 0x0, symName: __ZN6VSTGUI9CMenuItem10setEnabledEb, symObjAddr: 0xA30, symBinAddr: 0x75250, symSize: 0x20 }
  - { offset: 0x289DD3, size: 0x8, addend: 0x0, symName: __ZN6VSTGUI9CMenuItem10setCheckedEb, symObjAddr: 0xA50, symBinAddr: 0x75270, symSize: 0x20 }
  - { offset: 0x289E59, size: 0x8, addend: 0x0, symName: __ZN6VSTGUI9CMenuItem10setIsTitleEb, symObjAddr: 0xA70, symBinAddr: 0x75290, symSize: 0x20 }
  - { offset: 0x289EDF, size: 0x8, addend: 0x0, symName: __ZN6VSTGUI9CMenuItem14setIsSeparatorEb, symObjAddr: 0xA90, symBinAddr: 0x752B0, symSize: 0x20 }
  - { offset: 0x289F65, size: 0x8, addend: 0x0, symName: __ZNK6VSTGUI9CMenuItem9isEnabledEv, symObjAddr: 0xAB0, symBinAddr: 0x752D0, symSize: 0x20 }
  - { offset: 0x289FC7, size: 0x8, addend: 0x0, symName: __ZNK6VSTGUI9CMenuItem9isCheckedEv, symObjAddr: 0xAD0, symBinAddr: 0x752F0, symSize: 0x20 }
  - { offset: 0x28A022, size: 0x8, addend: 0x0, symName: __ZNK6VSTGUI9CMenuItem7isTitleEv, symObjAddr: 0xAF0, symBinAddr: 0x75310, symSize: 0x20 }
  - { offset: 0x28A084, size: 0x8, addend: 0x0, symName: __ZNK6VSTGUI9CMenuItem11isSeparatorEv, symObjAddr: 0xB10, symBinAddr: 0x75330, symSize: 0x20 }
  - { offset: 0x28A293, size: 0x8, addend: 0x0, symName: __ZN6VSTGUI16CCommandMenuItemC2EONS0_4DescE, symObjAddr: 0xB30, symBinAddr: 0x75350, symSize: 0x1B0 }
  - { offset: 0x28A6BC, size: 0x8, addend: 0x0, symName: __ZN6VSTGUI13SharedPointerINS_22ICommandMenuItemTargetEED1Ev, symObjAddr: 0xCE0, symBinAddr: 0x75500, symSize: 0x30 }
  - { offset: 0x28A73E, size: 0x8, addend: 0x0, symName: __ZN6VSTGUI16CCommandMenuItemC1EONS0_4DescE, symObjAddr: 0xD10, symBinAddr: 0x75530, symSize: 0x1A0 }
  - { offset: 0x28ABBC, size: 0x8, addend: 0x0, symName: __ZN6VSTGUI16CCommandMenuItemC2ERKNS0_4DescE, symObjAddr: 0xEB0, symBinAddr: 0x756D0, symSize: 0x1A0 }
  - { offset: 0x28AF61, size: 0x8, addend: 0x0, symName: __ZN6VSTGUI16CCommandMenuItemC1ERKNS0_4DescE, symObjAddr: 0x1050, symBinAddr: 0x75870, symSize: 0x1A0 }
  - { offset: 0x28B443, size: 0x8, addend: 0x0, symName: __ZN6VSTGUI16CCommandMenuItemC2ERKS0_, symObjAddr: 0x11F0, symBinAddr: 0x75A10, symSize: 0x1A0 }
  - { offset: 0x28B7DB, size: 0x8, addend: 0x0, symName: __ZN6VSTGUI16CCommandMenuItem13setItemTargetEPNS_22ICommandMenuItemTargetE, symObjAddr: 0x1390, symBinAddr: 0x75BB0, symSize: 0x60 }
  - { offset: 0x28B848, size: 0x8, addend: 0x0, symName: __ZN6VSTGUI16CCommandMenuItemC1ERKS0_, symObjAddr: 0x13F0, symBinAddr: 0x75C10, symSize: 0x190 }
  - { offset: 0x28BBE6, size: 0x8, addend: 0x0, symName: __ZN6VSTGUI16CCommandMenuItem18setCommandCategoryERKNS_10UTF8StringE, symObjAddr: 0x1580, symBinAddr: 0x75DA0, symSize: 0x10 }
  - { offset: 0x28BC1F, size: 0x8, addend: 0x0, symName: __ZNK6VSTGUI16CCommandMenuItem17isCommandCategoryERKNS_10UTF8StringE, symObjAddr: 0x1590, symBinAddr: 0x75DB0, symSize: 0x10 }
  - { offset: 0x28BC58, size: 0x8, addend: 0x0, symName: __ZN6VSTGUI16CCommandMenuItem14setCommandNameERKNS_10UTF8StringE, symObjAddr: 0x15A0, symBinAddr: 0x75DC0, symSize: 0x20 }
  - { offset: 0x28BC91, size: 0x8, addend: 0x0, symName: __ZNK6VSTGUI16CCommandMenuItem13isCommandNameERKNS_10UTF8StringE, symObjAddr: 0x15C0, symBinAddr: 0x75DE0, symSize: 0x20 }
  - { offset: 0x28BD3B, size: 0x8, addend: 0x0, symName: __ZN6VSTGUI16CCommandMenuItem10setActionsEONSt3__18functionIFvPS0_EEES6_, symObjAddr: 0x15E0, symBinAddr: 0x75E00, symSize: 0x110 }
  - { offset: 0x28BF0F, size: 0x8, addend: 0x0, symName: __ZN6VSTGUI16CCommandMenuItem7executeEv, symObjAddr: 0x16F0, symBinAddr: 0x75F10, symSize: 0x40 }
  - { offset: 0x28C008, size: 0x8, addend: 0x0, symName: __ZN6VSTGUI16CCommandMenuItem8validateEv, symObjAddr: 0x1730, symBinAddr: 0x75F50, symSize: 0x40 }
  - { offset: 0x28C2F3, size: 0x8, addend: 0x0, symName: __ZN6VSTGUI11COptionMenuC2ERKNS_5CRectEPNS_16IControlListenerEiPNS_7CBitmapES7_i, symObjAddr: 0x1770, symBinAddr: 0x75F90, symSize: 0x130 }
  - { offset: 0x28C552, size: 0x8, addend: 0x0, symName: __ZNSt3__110unique_ptrIN6VSTGUI12DispatchListIPNS1_19IOptionMenuListenerEEENS_14default_deleteIS5_EEED1B8ne180100Ev, symObjAddr: 0x18A0, symBinAddr: 0x760C0, symSize: 0x50 }
  - { offset: 0x28CB0F, size: 0x8, addend: 0x0, symName: __ZN6VSTGUI11COptionMenuC1ERKNS_5CRectEPNS_16IControlListenerEiPNS_7CBitmapES7_i, symObjAddr: 0x18F0, symBinAddr: 0x76110, symSize: 0x130 }
  - { offset: 0x28CE0C, size: 0x8, addend: 0x0, symName: __ZN6VSTGUI11COptionMenuC2Ev, symObjAddr: 0x1A20, symBinAddr: 0x76240, symSize: 0x100 }
  - { offset: 0x28CF88, size: 0x8, addend: 0x0, symName: __ZN6VSTGUI11COptionMenuC1Ev, symObjAddr: 0x1B20, symBinAddr: 0x76340, symSize: 0xF0 }
  - { offset: 0x28D173, size: 0x8, addend: 0x0, symName: __ZN6VSTGUI11COptionMenuC2ERKS0_, symObjAddr: 0x1C10, symBinAddr: 0x76430, symSize: 0x120 }
  - { offset: 0x28D355, size: 0x8, addend: 0x0, symName: __ZNSt3__16vectorIN6VSTGUI13SharedPointerINS1_9CMenuItemEEENS_9allocatorIS4_EEEC2ERKS7_, symObjAddr: 0x48F0, symBinAddr: 0x78E10, symSize: 0x100 }
  - { offset: 0x28D7A5, size: 0x8, addend: 0x0, symName: __ZN6VSTGUI11COptionMenuC1ERKS0_, symObjAddr: 0x1D30, symBinAddr: 0x76550, symSize: 0x120 }
  - { offset: 0x28DB24, size: 0x8, addend: 0x0, symName: __ZN6VSTGUI11COptionMenuD2Ev, symObjAddr: 0x1E50, symBinAddr: 0x76670, symSize: 0x120 }
  - { offset: 0x28E053, size: 0x8, addend: 0x0, symName: __ZN6VSTGUI11COptionMenuD1Ev, symObjAddr: 0x1F80, symBinAddr: 0x76790, symSize: 0x20 }
  - { offset: 0x28E0A6, size: 0x8, addend: 0x0, symName: __ZThn24_N6VSTGUI11COptionMenuD1Ev, symObjAddr: 0x1FA0, symBinAddr: 0x767B0, symSize: 0x20 }
  - { offset: 0x28E0E8, size: 0x8, addend: 0x0, symName: __ZN6VSTGUI11COptionMenuD0Ev, symObjAddr: 0x1FC0, symBinAddr: 0x767D0, symSize: 0x30 }
  - { offset: 0x28E159, size: 0x8, addend: 0x0, symName: __ZThn24_N6VSTGUI11COptionMenuD0Ev, symObjAddr: 0x1FF0, symBinAddr: 0x76800, symSize: 0x30 }
  - { offset: 0x28E264, size: 0x8, addend: 0x0, symName: __ZN6VSTGUI11COptionMenu26registerOptionMenuListenerEPNS_19IOptionMenuListenerE, symObjAddr: 0x2020, symBinAddr: 0x76830, symSize: 0x60 }
  - { offset: 0x28E386, size: 0x8, addend: 0x0, symName: __ZN6VSTGUI12DispatchListIPNS_19IOptionMenuListenerEE3addERKS2_, symObjAddr: 0x2080, symBinAddr: 0x76890, symSize: 0x2F0 }
  - { offset: 0x28F58A, size: 0x8, addend: 0x0, symName: __ZNKSt3__16vectorIPN6VSTGUI19IOptionMenuListenerENS_9allocatorIS3_EEE20__throw_length_errorB8ne180100Ev, symObjAddr: 0x4AC0, symBinAddr: 0x78F20, symSize: 0x10 }
  - { offset: 0x28F5B4, size: 0x8, addend: 0x0, symName: __ZNKSt3__16vectorINS_4pairIbPN6VSTGUI19IOptionMenuListenerEEENS_9allocatorIS5_EEE20__throw_length_errorB8ne180100Ev, symObjAddr: 0x4AD0, symBinAddr: 0x78F30, symSize: 0x10 }
  - { offset: 0x28F5BF, size: 0x8, addend: 0x0, symName: __ZNKSt3__16vectorINS_4pairIbPN6VSTGUI19IOptionMenuListenerEEENS_9allocatorIS5_EEE20__throw_length_errorB8ne180100Ev, symObjAddr: 0x4AD0, symBinAddr: 0x78F30, symSize: 0x10 }
  - { offset: 0x28F5E9, size: 0x8, addend: 0x0, symName: '__ZNSt3__110__function6__funcIZN6VSTGUI11COptionMenu15onKeyboardEventERNS2_13KeyboardEventEE3$_0NS_9allocatorIS6_EEFvvEED1Ev', symObjAddr: 0x4AE0, symBinAddr: 0x78F40, symSize: 0x30 }
  - { offset: 0x28F7E9, size: 0x8, addend: 0x0, symName: __ZN6VSTGUI11COptionMenu28unregisterOptionMenuListenerEPNS_19IOptionMenuListenerE, symObjAddr: 0x2370, symBinAddr: 0x76B80, symSize: 0x80 }
  - { offset: 0x2900A5, size: 0x8, addend: 0x0, symName: __ZN6VSTGUI11COptionMenu11beforePopupEv, symObjAddr: 0x26A0, symBinAddr: 0x76EB0, symSize: 0x120 }
  - { offset: 0x2905D4, size: 0x8, addend: 0x0, symName: __ZN6VSTGUI12DispatchListIPNS_19IOptionMenuListenerEE11postForEachEv, symObjAddr: 0x4D40, symBinAddr: 0x791A0, symSize: 0x3D0 }
  - { offset: 0x2914BA, size: 0x8, addend: 0x0, symName: __ZN6VSTGUI11COptionMenu10afterPopupEv, symObjAddr: 0x27C0, symBinAddr: 0x76FD0, symSize: 0xD0 }
  - { offset: 0x291904, size: 0x8, addend: 0x0, symName: __ZN6VSTGUI11COptionMenu7doPopupEv, symObjAddr: 0x2890, symBinAddr: 0x770A0, symSize: 0x100 }
  - { offset: 0x2921D6, size: 0x8, addend: 0x0, symName: '__ZZN6VSTGUI11COptionMenu5popupERKNSt3__18functionIFvPS0_EEEEN3$_0D1Ev', symObjAddr: 0x2C90, symBinAddr: 0x774A0, symSize: 0x60 }
  - { offset: 0x292A64, size: 0x8, addend: 0x0, symName: '__ZZN6VSTGUI11COptionMenu5popupEPNS_6CFrameERKNS_6CPointERKNSt3__18functionIFvPS0_EEEEN3$_0D1Ev', symObjAddr: 0x2FF0, symBinAddr: 0x77800, symSize: 0x60 }
  - { offset: 0x2930DC, size: 0x8, addend: 0x0, symName: __ZN6VSTGUI11COptionMenu17cleanupSeparatorsEb, symObjAddr: 0x3050, symBinAddr: 0x77860, symSize: 0x2A0 }
  - { offset: 0x293B91, size: 0x8, addend: 0x0, symName: __ZN6VSTGUI11COptionMenu16setPrefixNumbersEi, symObjAddr: 0x3350, symBinAddr: 0x77B00, symSize: 0x20 }
  - { offset: 0x293E0F, size: 0x8, addend: 0x0, symName: __ZN6VSTGUI11COptionMenu8addEntryEPNS_9CMenuItemEi, symObjAddr: 0x3370, symBinAddr: 0x77B20, symSize: 0xF0 }
  - { offset: 0x294207, size: 0x8, addend: 0x0, symName: __ZNSt3__16vectorIN6VSTGUI13SharedPointerINS1_9CMenuItemEEENS_9allocatorIS4_EEE24__emplace_back_slow_pathIJS4_EEEPS4_DpOT_, symObjAddr: 0x5C90, symBinAddr: 0x79E00, symSize: 0x200 }
  - { offset: 0x29473F, size: 0x8, addend: 0x0, symName: __ZNSt3__16vectorIN6VSTGUI13SharedPointerINS1_9CMenuItemEEENS_9allocatorIS4_EEE6insertENS_11__wrap_iterIPKS4_EEOS4_, symObjAddr: 0x3460, symBinAddr: 0x77C10, symSize: 0x560 }
  - { offset: 0x2955C0, size: 0x8, addend: 0x0, symName: __ZNSt3__114__split_bufferIN6VSTGUI13SharedPointerINS1_9CMenuItemEEERNS_9allocatorIS4_EEE9push_backEOS4_, symObjAddr: 0x5F00, symBinAddr: 0x7A070, symSize: 0x280 }
  - { offset: 0x295BAC, size: 0x8, addend: 0x0, symName: __ZNKSt3__16vectorIN6VSTGUI13SharedPointerINS1_9CMenuItemEEENS_9allocatorIS4_EEE20__throw_length_errorB8ne180100Ev, symObjAddr: 0x49F0, symBinAddr: 0x78F10, symSize: 0x10 }
  - { offset: 0x295BE1, size: 0x8, addend: 0x0, symName: __ZNSt3__114__split_bufferIN6VSTGUI13SharedPointerINS1_9CMenuItemEEERNS_9allocatorIS4_EEED1Ev, symObjAddr: 0x5E90, symBinAddr: 0x7A000, symSize: 0x70 }
  - { offset: 0x295DB1, size: 0x8, addend: 0x0, symName: __ZN6VSTGUI11COptionMenu8addEntryEPS0_RKNS_10UTF8StringE, symObjAddr: 0x39C0, symBinAddr: 0x78170, symSize: 0xA0 }
  - { offset: 0x295F01, size: 0x8, addend: 0x0, symName: __ZN6VSTGUI11COptionMenu8addEntryERKNS_10UTF8StringEii, symObjAddr: 0x3A60, symBinAddr: 0x78210, symSize: 0x130 }
  - { offset: 0x29620C, size: 0x8, addend: 0x0, symName: __ZN6VSTGUI11COptionMenu12addSeparatorEi, symObjAddr: 0x3B90, symBinAddr: 0x78340, symSize: 0x130 }
  - { offset: 0x296678, size: 0x8, addend: 0x0, symName: __ZNK6VSTGUI11COptionMenu10getCurrentEv, symObjAddr: 0x3CC0, symBinAddr: 0x78470, symSize: 0x20 }
  - { offset: 0x2966EE, size: 0x8, addend: 0x0, symName: __ZNK6VSTGUI11COptionMenu8getEntryEi, symObjAddr: 0x3CE0, symBinAddr: 0x78490, symSize: 0x50 }
  - { offset: 0x296793, size: 0x8, addend: 0x0, symName: __ZNK6VSTGUI11COptionMenu12getNbEntriesEv, symObjAddr: 0x3D30, symBinAddr: 0x784E0, symSize: 0x20 }
  - { offset: 0x2967D8, size: 0x8, addend: 0x0, symName: __ZNK6VSTGUI11COptionMenu10getSubMenuEi, symObjAddr: 0x3D50, symBinAddr: 0x78500, symSize: 0x20 }
  - { offset: 0x29689D, size: 0x8, addend: 0x0, symName: __ZNK6VSTGUI11COptionMenu15getCurrentIndexEb, symObjAddr: 0x3D70, symBinAddr: 0x78520, symSize: 0x70 }
  - { offset: 0x296A4C, size: 0x8, addend: 0x0, symName: __ZN6VSTGUI11COptionMenu10setCurrentEib, symObjAddr: 0x3DE0, symBinAddr: 0x78590, symSize: 0xE0 }
  - { offset: 0x296D8F, size: 0x8, addend: 0x0, symName: __ZN6VSTGUI11COptionMenu11removeEntryEi, symObjAddr: 0x3EC0, symBinAddr: 0x78670, symSize: 0xF0 }
  - { offset: 0x29706F, size: 0x8, addend: 0x0, symName: __ZN6VSTGUI11COptionMenu14removeAllEntryEv, symObjAddr: 0x3FB0, symBinAddr: 0x78760, symSize: 0x60 }
  - { offset: 0x297172, size: 0x8, addend: 0x0, symName: __ZN6VSTGUI11COptionMenu10checkEntryEib, symObjAddr: 0x4010, symBinAddr: 0x787C0, symSize: 0x40 }
  - { offset: 0x2971FD, size: 0x8, addend: 0x0, symName: __ZN6VSTGUI11COptionMenu15checkEntryAloneEi, symObjAddr: 0x4050, symBinAddr: 0x78800, symSize: 0x50 }
  - { offset: 0x297333, size: 0x8, addend: 0x0, symName: __ZNK6VSTGUI11COptionMenu12isCheckEntryEi, symObjAddr: 0x40A0, symBinAddr: 0x78850, symSize: 0x30 }
  - { offset: 0x29740C, size: 0x8, addend: 0x0, symName: __ZN6VSTGUI11COptionMenu4drawEPNS_12CDrawContextE, symObjAddr: 0x40D0, symBinAddr: 0x78880, symSize: 0xD0 }
  - { offset: 0x297913, size: 0x8, addend: 0x0, symName: __ZNK6VSTGUI11COptionMenu15getLastItemMenuERi, symObjAddr: 0x42C0, symBinAddr: 0x78A70, symSize: 0x40 }
  - { offset: 0x297959, size: 0x8, addend: 0x0, symName: __ZN6VSTGUI11COptionMenu8setValueEf, symObjAddr: 0x4300, symBinAddr: 0x78AB0, symSize: 0xA0 }
  - { offset: 0x297A77, size: 0x8, addend: 0x0, symName: __ZNK6VSTGUI11COptionMenu6getMaxEv, symObjAddr: 0x43A0, symBinAddr: 0x78B50, symSize: 0x60 }
  - { offset: 0x297AB7, size: 0x8, addend: 0x0, symName: __ZN6VSTGUI11COptionMenu9takeFocusEv, symObjAddr: 0x4400, symBinAddr: 0x78BB0, symSize: 0x10 }
  - { offset: 0x297ADF, size: 0x8, addend: 0x0, symName: __ZN6VSTGUI11COptionMenu10looseFocusEv, symObjAddr: 0x4410, symBinAddr: 0x78BC0, symSize: 0x80 }
  - { offset: 0x297B33, size: 0x8, addend: 0x0, symName: __ZNK6VSTGUI13CParamDisplay7newCopyEv, symObjAddr: 0x4550, symBinAddr: 0x78C40, symSize: 0x40 }
  - { offset: 0x297B5A, size: 0x8, addend: 0x0, symName: __ZN6VSTGUI13CParamDisplay12setAntialiasEb, symObjAddr: 0x4710, symBinAddr: 0x78C80, symSize: 0x20 }
  - { offset: 0x297BAC, size: 0x8, addend: 0x0, symName: __ZNK6VSTGUI11COptionMenu7newCopyEv, symObjAddr: 0x4780, symBinAddr: 0x78CA0, symSize: 0x40 }
  - { offset: 0x297BE7, size: 0x8, addend: 0x0, symName: __ZN6VSTGUI11COptionMenu6setMinEf, symObjAddr: 0x47C0, symBinAddr: 0x78CE0, symSize: 0x10 }
  - { offset: 0x297C1B, size: 0x8, addend: 0x0, symName: __ZNK6VSTGUI11COptionMenu6getMinEv, symObjAddr: 0x47D0, symBinAddr: 0x78CF0, symSize: 0x10 }
  - { offset: 0x297C40, size: 0x8, addend: 0x0, symName: __ZN6VSTGUI11COptionMenu6setMaxEf, symObjAddr: 0x47E0, symBinAddr: 0x78D00, symSize: 0x10 }
  - { offset: 0x297C74, size: 0x8, addend: 0x0, symName: __ZN6VSTGUI11COptionMenu19setNbItemsPerColumnEi, symObjAddr: 0x47F0, symBinAddr: 0x78D10, symSize: 0x10 }
  - { offset: 0x297CA8, size: 0x8, addend: 0x0, symName: __ZNK6VSTGUI11COptionMenu19getNbItemsPerColumnEv, symObjAddr: 0x4800, symBinAddr: 0x78D20, symSize: 0x10 }
  - { offset: 0x297CCD, size: 0x8, addend: 0x0, symName: __ZN6VSTGUI16CCommandMenuItemD1Ev, symObjAddr: 0x4810, symBinAddr: 0x78D30, symSize: 0x20 }
  - { offset: 0x297D03, size: 0x8, addend: 0x0, symName: __ZN6VSTGUI16CCommandMenuItemD2Ev, symObjAddr: 0x63E0, symBinAddr: 0x7A550, symSize: 0x136 }
  - { offset: 0x29826F, size: 0x8, addend: 0x0, symName: __ZN6VSTGUI16CCommandMenuItemD0Ev, symObjAddr: 0x4830, symBinAddr: 0x78D50, symSize: 0x30 }
  - { offset: 0x29861F, size: 0x8, addend: 0x0, symName: '__ZNSt3__110__function6__funcIZN6VSTGUI11COptionMenu15onKeyboardEventERNS2_13KeyboardEventEE3$_0NS_9allocatorIS6_EEFvvEED1Ev', symObjAddr: 0x4AE0, symBinAddr: 0x78F40, symSize: 0x30 }
  - { offset: 0x2986FF, size: 0x8, addend: 0x0, symName: '__ZNSt3__110__function6__funcIZN6VSTGUI11COptionMenu15onKeyboardEventERNS2_13KeyboardEventEE3$_0NS_9allocatorIS6_EEFvvEED0Ev', symObjAddr: 0x4B10, symBinAddr: 0x78F70, symSize: 0x40 }
  - { offset: 0x298A0C, size: 0x8, addend: 0x0, symName: '__ZNKSt3__110__function6__funcIZN6VSTGUI11COptionMenu15onKeyboardEventERNS2_13KeyboardEventEE3$_0NS_9allocatorIS6_EEFvvEE7__cloneEv', symObjAddr: 0x4B50, symBinAddr: 0x78FB0, symSize: 0x50 }
  - { offset: 0x298D34, size: 0x8, addend: 0x0, symName: '__ZNKSt3__110__function6__funcIZN6VSTGUI11COptionMenu15onKeyboardEventERNS2_13KeyboardEventEE3$_0NS_9allocatorIS6_EEFvvEE7__cloneEPNS0_6__baseIS9_EE', symObjAddr: 0x4BA0, symBinAddr: 0x79000, symSize: 0x30 }
  - { offset: 0x298E92, size: 0x8, addend: 0x0, symName: '__ZNSt3__110__function6__funcIZN6VSTGUI11COptionMenu15onKeyboardEventERNS2_13KeyboardEventEE3$_0NS_9allocatorIS6_EEFvvEE7destroyEv', symObjAddr: 0x4BD0, symBinAddr: 0x79030, symSize: 0x20 }
  - { offset: 0x298F65, size: 0x8, addend: 0x0, symName: '__ZNSt3__110__function6__funcIZN6VSTGUI11COptionMenu15onKeyboardEventERNS2_13KeyboardEventEE3$_0NS_9allocatorIS6_EEFvvEE18destroy_deallocateEv', symObjAddr: 0x4BF0, symBinAddr: 0x79050, symSize: 0x30 }
  - { offset: 0x29913B, size: 0x8, addend: 0x0, symName: '__ZNSt3__110__function6__funcIZN6VSTGUI11COptionMenu15onKeyboardEventERNS2_13KeyboardEventEE3$_0NS_9allocatorIS6_EEFvvEEclEv', symObjAddr: 0x4C20, symBinAddr: 0x79080, symSize: 0xF0 }
  - { offset: 0x2993BA, size: 0x8, addend: 0x0, symName: '__ZNKSt3__110__function6__funcIZN6VSTGUI11COptionMenu15onKeyboardEventERNS2_13KeyboardEventEE3$_0NS_9allocatorIS6_EEFvvEE6targetERKSt9type_info', symObjAddr: 0x4D10, symBinAddr: 0x79170, symSize: 0x20 }
  - { offset: 0x29942C, size: 0x8, addend: 0x0, symName: '__ZNKSt3__110__function6__funcIZN6VSTGUI11COptionMenu15onKeyboardEventERNS2_13KeyboardEventEE3$_0NS_9allocatorIS6_EEFvvEE11target_typeEv', symObjAddr: 0x4D30, symBinAddr: 0x79190, symSize: 0x10 }
  - { offset: 0x299E0D, size: 0x8, addend: 0x0, symName: '__ZNSt3__110__function6__funcIZN6VSTGUI11COptionMenu5popupERKNS_8functionIFvPS3_EEEE3$_0NS_9allocatorISA_EEFvS5_NS2_24PlatformOptionMenuResultEEED1Ev', symObjAddr: 0x5400, symBinAddr: 0x79570, symSize: 0x60 }
  - { offset: 0x299FAA, size: 0x8, addend: 0x0, symName: '__ZNSt3__110__function6__funcIZN6VSTGUI11COptionMenu5popupERKNS_8functionIFvPS3_EEEE3$_0NS_9allocatorISA_EEFvS5_NS2_24PlatformOptionMenuResultEEED0Ev', symObjAddr: 0x5460, symBinAddr: 0x795D0, symSize: 0x70 }
  - { offset: 0x29A3E1, size: 0x8, addend: 0x0, symName: '__ZNKSt3__110__function6__funcIZN6VSTGUI11COptionMenu5popupERKNS_8functionIFvPS3_EEEE3$_0NS_9allocatorISA_EEFvS5_NS2_24PlatformOptionMenuResultEEE7__cloneEv', symObjAddr: 0x54D0, symBinAddr: 0x79640, symSize: 0xB0 }
  - { offset: 0x29A945, size: 0x8, addend: 0x0, symName: '__ZNKSt3__110__function6__funcIZN6VSTGUI11COptionMenu5popupERKNS_8functionIFvPS3_EEEE3$_0NS_9allocatorISA_EEFvS5_NS2_24PlatformOptionMenuResultEEE7__cloneEPNS0_6__baseISE_EE', symObjAddr: 0x5580, symBinAddr: 0x796F0, symSize: 0xA0 }
  - { offset: 0x29ABDF, size: 0x8, addend: 0x0, symName: '__ZNSt3__110__function6__funcIZN6VSTGUI11COptionMenu5popupERKNS_8functionIFvPS3_EEEE3$_0NS_9allocatorISA_EEFvS5_NS2_24PlatformOptionMenuResultEEE7destroyEv', symObjAddr: 0x5620, symBinAddr: 0x79790, symSize: 0x60 }
  - { offset: 0x29AD3A, size: 0x8, addend: 0x0, symName: '__ZNSt3__110__function6__funcIZN6VSTGUI11COptionMenu5popupERKNS_8functionIFvPS3_EEEE3$_0NS_9allocatorISA_EEFvS5_NS2_24PlatformOptionMenuResultEEE18destroy_deallocateEv', symObjAddr: 0x5680, symBinAddr: 0x797F0, symSize: 0x60 }
  - { offset: 0x29B261, size: 0x8, addend: 0x0, symName: '__ZNSt3__110__function6__funcIZN6VSTGUI11COptionMenu5popupERKNS_8functionIFvPS3_EEEE3$_0NS_9allocatorISA_EEFvS5_NS2_24PlatformOptionMenuResultEEEclEOS5_OSD_', symObjAddr: 0x56E0, symBinAddr: 0x79850, symSize: 0x200 }
  - { offset: 0x29B888, size: 0x8, addend: 0x0, symName: '__ZNKSt3__110__function6__funcIZN6VSTGUI11COptionMenu5popupERKNS_8functionIFvPS3_EEEE3$_0NS_9allocatorISA_EEFvS5_NS2_24PlatformOptionMenuResultEEE6targetERKSt9type_info', symObjAddr: 0x58E0, symBinAddr: 0x79A50, symSize: 0x20 }
  - { offset: 0x29B8FA, size: 0x8, addend: 0x0, symName: '__ZNKSt3__110__function6__funcIZN6VSTGUI11COptionMenu5popupERKNS_8functionIFvPS3_EEEE3$_0NS_9allocatorISA_EEFvS5_NS2_24PlatformOptionMenuResultEEE11target_typeEv', symObjAddr: 0x5900, symBinAddr: 0x79A70, symSize: 0x10 }
  - { offset: 0x29B9C7, size: 0x8, addend: 0x0, symName: '__ZNSt3__110__function6__funcIZN6VSTGUI11COptionMenu5popupEPNS2_6CFrameERKNS2_6CPointERKNS_8functionIFvPS3_EEEE3$_0NS_9allocatorISF_EESB_ED1Ev', symObjAddr: 0x5910, symBinAddr: 0x79A80, symSize: 0x60 }
  - { offset: 0x29BB64, size: 0x8, addend: 0x0, symName: '__ZNSt3__110__function6__funcIZN6VSTGUI11COptionMenu5popupEPNS2_6CFrameERKNS2_6CPointERKNS_8functionIFvPS3_EEEE3$_0NS_9allocatorISF_EESB_ED0Ev', symObjAddr: 0x5970, symBinAddr: 0x79AE0, symSize: 0x70 }
  - { offset: 0x29BF9B, size: 0x8, addend: 0x0, symName: '__ZNKSt3__110__function6__funcIZN6VSTGUI11COptionMenu5popupEPNS2_6CFrameERKNS2_6CPointERKNS_8functionIFvPS3_EEEE3$_0NS_9allocatorISF_EESB_E7__cloneEv', symObjAddr: 0x59E0, symBinAddr: 0x79B50, symSize: 0xB0 }
  - { offset: 0x29C4FF, size: 0x8, addend: 0x0, symName: '__ZNKSt3__110__function6__funcIZN6VSTGUI11COptionMenu5popupEPNS2_6CFrameERKNS2_6CPointERKNS_8functionIFvPS3_EEEE3$_0NS_9allocatorISF_EESB_E7__cloneEPNS0_6__baseISB_EE', symObjAddr: 0x5A90, symBinAddr: 0x79C00, symSize: 0xA0 }
  - { offset: 0x29C799, size: 0x8, addend: 0x0, symName: '__ZNSt3__110__function6__funcIZN6VSTGUI11COptionMenu5popupEPNS2_6CFrameERKNS2_6CPointERKNS_8functionIFvPS3_EEEE3$_0NS_9allocatorISF_EESB_E7destroyEv', symObjAddr: 0x5B30, symBinAddr: 0x79CA0, symSize: 0x60 }
  - { offset: 0x29C8F4, size: 0x8, addend: 0x0, symName: '__ZNSt3__110__function6__funcIZN6VSTGUI11COptionMenu5popupEPNS2_6CFrameERKNS2_6CPointERKNS_8functionIFvPS3_EEEE3$_0NS_9allocatorISF_EESB_E18destroy_deallocateEv', symObjAddr: 0x5B90, symBinAddr: 0x79D00, symSize: 0x60 }
  - { offset: 0x29CBA8, size: 0x8, addend: 0x0, symName: '__ZNSt3__110__function6__funcIZN6VSTGUI11COptionMenu5popupEPNS2_6CFrameERKNS2_6CPointERKNS_8functionIFvPS3_EEEE3$_0NS_9allocatorISF_EESB_EclEOSA_', symObjAddr: 0x5BF0, symBinAddr: 0x79D60, symSize: 0x70 }
  - { offset: 0x29CD0C, size: 0x8, addend: 0x0, symName: '__ZNKSt3__110__function6__funcIZN6VSTGUI11COptionMenu5popupEPNS2_6CFrameERKNS2_6CPointERKNS_8functionIFvPS3_EEEE3$_0NS_9allocatorISF_EESB_E6targetERKSt9type_info', symObjAddr: 0x5C60, symBinAddr: 0x79DD0, symSize: 0x20 }
  - { offset: 0x29CD7E, size: 0x8, addend: 0x0, symName: '__ZNKSt3__110__function6__funcIZN6VSTGUI11COptionMenu5popupEPNS2_6CFrameERKNS2_6CPointERKNS_8functionIFvPS3_EEEE3$_0NS_9allocatorISF_EESB_E11target_typeEv', symObjAddr: 0x5C80, symBinAddr: 0x79DF0, symSize: 0x10 }
  - { offset: 0x29CF97, size: 0x8, addend: 0x0, symName: '__ZNSt3__110__function6__funcIZN6VSTGUI11COptionMenu11onMouseDownERNS2_6CPointERKNS2_12CButtonStateEE3$_0NS_9allocatorIS9_EEFvvEED1Ev', symObjAddr: 0x6180, symBinAddr: 0x7A2F0, symSize: 0x30 }
  - { offset: 0x29D077, size: 0x8, addend: 0x0, symName: '__ZNSt3__110__function6__funcIZN6VSTGUI11COptionMenu11onMouseDownERNS2_6CPointERKNS2_12CButtonStateEE3$_0NS_9allocatorIS9_EEFvvEED0Ev', symObjAddr: 0x61B0, symBinAddr: 0x7A320, symSize: 0x40 }
  - { offset: 0x29D384, size: 0x8, addend: 0x0, symName: '__ZNKSt3__110__function6__funcIZN6VSTGUI11COptionMenu11onMouseDownERNS2_6CPointERKNS2_12CButtonStateEE3$_0NS_9allocatorIS9_EEFvvEE7__cloneEv', symObjAddr: 0x61F0, symBinAddr: 0x7A360, symSize: 0x50 }
  - { offset: 0x29D6AC, size: 0x8, addend: 0x0, symName: '__ZNKSt3__110__function6__funcIZN6VSTGUI11COptionMenu11onMouseDownERNS2_6CPointERKNS2_12CButtonStateEE3$_0NS_9allocatorIS9_EEFvvEE7__cloneEPNS0_6__baseISC_EE', symObjAddr: 0x6240, symBinAddr: 0x7A3B0, symSize: 0x30 }
  - { offset: 0x29D80A, size: 0x8, addend: 0x0, symName: '__ZNSt3__110__function6__funcIZN6VSTGUI11COptionMenu11onMouseDownERNS2_6CPointERKNS2_12CButtonStateEE3$_0NS_9allocatorIS9_EEFvvEE7destroyEv', symObjAddr: 0x6270, symBinAddr: 0x7A3E0, symSize: 0x20 }
  - { offset: 0x29D8DD, size: 0x8, addend: 0x0, symName: '__ZNSt3__110__function6__funcIZN6VSTGUI11COptionMenu11onMouseDownERNS2_6CPointERKNS2_12CButtonStateEE3$_0NS_9allocatorIS9_EEFvvEE18destroy_deallocateEv', symObjAddr: 0x6290, symBinAddr: 0x7A400, symSize: 0x30 }
  - { offset: 0x29DA8E, size: 0x8, addend: 0x0, symName: '__ZNSt3__110__function6__funcIZN6VSTGUI11COptionMenu11onMouseDownERNS2_6CPointERKNS2_12CButtonStateEE3$_0NS_9allocatorIS9_EEFvvEEclEv', symObjAddr: 0x62C0, symBinAddr: 0x7A430, symSize: 0xF0 }
  - { offset: 0x29DCC8, size: 0x8, addend: 0x0, symName: '__ZNKSt3__110__function6__funcIZN6VSTGUI11COptionMenu11onMouseDownERNS2_6CPointERKNS2_12CButtonStateEE3$_0NS_9allocatorIS9_EEFvvEE6targetERKSt9type_info', symObjAddr: 0x63B0, symBinAddr: 0x7A520, symSize: 0x20 }
  - { offset: 0x29DD3A, size: 0x8, addend: 0x0, symName: '__ZNKSt3__110__function6__funcIZN6VSTGUI11COptionMenu11onMouseDownERNS2_6CPointERKNS2_12CButtonStateEE3$_0NS_9allocatorIS9_EEFvvEE11target_typeEv', symObjAddr: 0x63D0, symBinAddr: 0x7A540, symSize: 0x10 }
  - { offset: 0x2ABEFA, size: 0x8, addend: 0x0, symName: __ZN6VSTGUI13CParamDisplay24setValueToStringFunctionERKNSt3__18functionIFbfPcPS0_EEE, symObjAddr: 0x9E0, symBinAddr: 0x7B060, symSize: 0x1C0 }
  - { offset: 0x2ACB6B, size: 0x8, addend: 0x0, symName: __ZN6VSTGUI13CParamDisplayC2ERKNS_5CRectEPNS_7CBitmapEi, symObjAddr: 0x0, symBinAddr: 0x7A690, symSize: 0x150 }
  - { offset: 0x2ACEEC, size: 0x8, addend: 0x0, symName: __ZN6VSTGUI13CParamDisplayC1ERKNS_5CRectEPNS_7CBitmapEi, symObjAddr: 0x150, symBinAddr: 0x7A7E0, symSize: 0x150 }
  - { offset: 0x2AD341, size: 0x8, addend: 0x0, symName: __ZN6VSTGUI13CParamDisplayC2ERKS0_, symObjAddr: 0x2A0, symBinAddr: 0x7A930, symSize: 0x180 }
  - { offset: 0x2AD687, size: 0x8, addend: 0x0, symName: __ZN6VSTGUI13CParamDisplayC1ERKS0_, symObjAddr: 0x420, symBinAddr: 0x7AAB0, symSize: 0x170 }
  - { offset: 0x2AD9DC, size: 0x8, addend: 0x0, symName: __ZN6VSTGUI13CParamDisplayD2Ev, symObjAddr: 0x590, symBinAddr: 0x7AC20, symSize: 0x80 }
  - { offset: 0x2ADAC4, size: 0x8, addend: 0x0, symName: __ZN6VSTGUI13CParamDisplayD1Ev, symObjAddr: 0x620, symBinAddr: 0x7ACA0, symSize: 0x80 }
  - { offset: 0x2ADBB3, size: 0x8, addend: 0x0, symName: __ZThn24_N6VSTGUI13CParamDisplayD1Ev, symObjAddr: 0x6A0, symBinAddr: 0x7AD20, symSize: 0x80 }
  - { offset: 0x2ADC6C, size: 0x8, addend: 0x0, symName: __ZN6VSTGUI13CParamDisplayD0Ev, symObjAddr: 0x720, symBinAddr: 0x7ADA0, symSize: 0x80 }
  - { offset: 0x2ADD6A, size: 0x8, addend: 0x0, symName: __ZThn24_N6VSTGUI13CParamDisplayD0Ev, symObjAddr: 0x7A0, symBinAddr: 0x7AE20, symSize: 0x80 }
  - { offset: 0x2ADE3A, size: 0x8, addend: 0x0, symName: __ZN6VSTGUI13CParamDisplay7removedEPNS_5CViewE, symObjAddr: 0x820, symBinAddr: 0x7AEA0, symSize: 0x10 }
  - { offset: 0x2ADE6F, size: 0x8, addend: 0x0, symName: __ZN6VSTGUI13CParamDisplay8setStyleEi, symObjAddr: 0x830, symBinAddr: 0x7AEB0, symSize: 0x30 }
  - { offset: 0x2ADF08, size: 0x8, addend: 0x0, symName: __ZNK6VSTGUI13CParamDisplay8getStyleEv, symObjAddr: 0x860, symBinAddr: 0x7AEE0, symSize: 0x10 }
  - { offset: 0x2ADF64, size: 0x8, addend: 0x0, symName: __ZN6VSTGUI13CParamDisplay12setPrecisionEh, symObjAddr: 0x870, symBinAddr: 0x7AEF0, symSize: 0x20 }
  - { offset: 0x2ADFED, size: 0x8, addend: 0x0, symName: __ZN6VSTGUI13CParamDisplay25setValueToStringFunction2ERKNSt3__18functionIFbfRNS1_12basic_stringIcNS1_11char_traitsIcEENS1_9allocatorIcEEEEPS0_EEE, symObjAddr: 0x890, symBinAddr: 0x7AF10, symSize: 0xB0 }
  - { offset: 0x2AE1DB, size: 0x8, addend: 0x0, symName: __ZNSt3__110__function12__value_funcIFbfRNS_12basic_stringIcNS_11char_traitsIcEENS_9allocatorIcEEEEPN6VSTGUI13CParamDisplayEEE4swapB8ne180100ERSD_, symObjAddr: 0x2050, symBinAddr: 0x7C3A0, symSize: 0x140 }
  - { offset: 0x2AE380, size: 0x8, addend: 0x0, symName: __ZN6VSTGUI13CParamDisplay25setValueToStringFunction2EONSt3__18functionIFbfRNS1_12basic_stringIcNS1_11char_traitsIcEENS1_9allocatorIcEEEEPS0_EEE, symObjAddr: 0x940, symBinAddr: 0x7AFC0, symSize: 0xA0 }
  - { offset: 0x2AEAF7, size: 0x8, addend: 0x0, symName: __ZN6VSTGUI13CParamDisplay24setValueToStringFunctionEONSt3__18functionIFbfPcPS0_EEE, symObjAddr: 0xBA0, symBinAddr: 0x7B220, symSize: 0x10 }
  - { offset: 0x2AEBBE, size: 0x8, addend: 0x0, symName: __ZN6VSTGUI13CParamDisplay12getFocusPathERNS_13CGraphicsPathE, symObjAddr: 0xBB0, symBinAddr: 0x7B230, symSize: 0x160 }
  - { offset: 0x2AED36, size: 0x8, addend: 0x0, symName: __ZThn24_N6VSTGUI13CParamDisplay12getFocusPathERNS_13CGraphicsPathE, symObjAddr: 0xD10, symBinAddr: 0x7B390, symSize: 0x20 }
  - { offset: 0x2AF057, size: 0x8, addend: 0x0, symName: __ZN6VSTGUI13CParamDisplay4drawEPNS_12CDrawContextE, symObjAddr: 0xD30, symBinAddr: 0x7B3B0, symSize: 0x1C0 }
  - { offset: 0x2AF974, size: 0x8, addend: 0x0, symName: __ZN6VSTGUI13CParamDisplay8drawBackEPNS_12CDrawContextEPNS_7CBitmapE, symObjAddr: 0xF30, symBinAddr: 0x7B570, symSize: 0x5D0 }
  - { offset: 0x2B004D, size: 0x8, addend: 0x0, symName: __ZN6VSTGUI13CParamDisplay16drawPlatformTextEPNS_12CDrawContextERKNS_10UTF8StringE, symObjAddr: 0x1500, symBinAddr: 0x7BB40, symSize: 0x40 }
  - { offset: 0x2B0123, size: 0x8, addend: 0x0, symName: __ZN6VSTGUI13CParamDisplay16drawPlatformTextEPNS_12CDrawContextERKNS_10UTF8StringERKNS_5CRectE, symObjAddr: 0x1540, symBinAddr: 0x7BB80, symSize: 0x420 }
  - { offset: 0x2B0901, size: 0x8, addend: 0x0, symName: __ZN6VSTGUI13CParamDisplay7setFontEPNS_9CFontDescE, symObjAddr: 0x1960, symBinAddr: 0x7BFA0, symSize: 0x50 }
  - { offset: 0x2B098C, size: 0x8, addend: 0x0, symName: __ZN6VSTGUI13CParamDisplay12setFontColorENS_6CColorE, symObjAddr: 0x19B0, symBinAddr: 0x7BFF0, symSize: 0x70 }
  - { offset: 0x2B0A16, size: 0x8, addend: 0x0, symName: __ZN6VSTGUI13CParamDisplay12setBackColorENS_6CColorE, symObjAddr: 0x1A20, symBinAddr: 0x7C060, symSize: 0x70 }
  - { offset: 0x2B0AA0, size: 0x8, addend: 0x0, symName: __ZN6VSTGUI13CParamDisplay13setFrameColorENS_6CColorE, symObjAddr: 0x1A90, symBinAddr: 0x7C0D0, symSize: 0x70 }
  - { offset: 0x2B0B2A, size: 0x8, addend: 0x0, symName: __ZN6VSTGUI13CParamDisplay14setShadowColorENS_6CColorE, symObjAddr: 0x1B00, symBinAddr: 0x7C140, symSize: 0x70 }
  - { offset: 0x2B0BDA, size: 0x8, addend: 0x0, symName: __ZN6VSTGUI13CParamDisplay19setShadowTextOffsetERKNS_6CPointE, symObjAddr: 0x1B70, symBinAddr: 0x7C1B0, symSize: 0x40 }
  - { offset: 0x2B0C3A, size: 0x8, addend: 0x0, symName: __ZN6VSTGUI13CParamDisplay12setHoriAlignENS_13CHoriTxtAlignE, symObjAddr: 0x1BB0, symBinAddr: 0x7C1F0, symSize: 0x20 }
  - { offset: 0x2B0C7D, size: 0x8, addend: 0x0, symName: __ZN6VSTGUI13CParamDisplay12setTextInsetERKNS_6CPointE, symObjAddr: 0x1BD0, symBinAddr: 0x7C210, symSize: 0x40 }
  - { offset: 0x2B0CDD, size: 0x8, addend: 0x0, symName: __ZN6VSTGUI13CParamDisplay15setTextRotationEd, symObjAddr: 0x1C10, symBinAddr: 0x7C250, symSize: 0x80 }
  - { offset: 0x2B0D20, size: 0x8, addend: 0x0, symName: __ZN6VSTGUI13CParamDisplay18setRoundRectRadiusERKd, symObjAddr: 0x1C90, symBinAddr: 0x7C2D0, symSize: 0x30 }
  - { offset: 0x2B0D63, size: 0x8, addend: 0x0, symName: __ZN6VSTGUI13CParamDisplay13setFrameWidthERKd, symObjAddr: 0x1CC0, symBinAddr: 0x7C300, symSize: 0x30 }
  - { offset: 0x2B0DA6, size: 0x8, addend: 0x0, symName: __ZN6VSTGUI13CParamDisplay16drawStyleChangedEv, symObjAddr: 0x1CF0, symBinAddr: 0x7C330, symSize: 0x20 }
  - { offset: 0x2B0DE7, size: 0x8, addend: 0x0, symName: __ZN6VSTGUI13CParamDisplay13setBackOffsetERKNS_6CPointE, symObjAddr: 0x1D10, symBinAddr: 0x7C350, symSize: 0x10 }
  - { offset: 0x2B0E1E, size: 0x8, addend: 0x0, symName: __ZN6VSTGUI13CParamDisplay14copyBackOffsetEv, symObjAddr: 0x1D20, symBinAddr: 0x7C360, symSize: 0x40 }
  - { offset: 0x2B0F24, size: 0x8, addend: 0x0, symName: '__ZNSt3__110__function6__funcIZN6VSTGUI13CParamDisplay24setValueToStringFunctionERKNS_8functionIFbfPcPS3_EEEE3$_0NS_9allocatorISB_EEFbfRNS_12basic_stringIcNS_11char_traitsIcEENSC_IcEEEES6_EED1Ev', symObjAddr: 0x2190, symBinAddr: 0x7C4E0, symSize: 0x40 }
  - { offset: 0x2B1099, size: 0x8, addend: 0x0, symName: '__ZNSt3__110__function6__funcIZN6VSTGUI13CParamDisplay24setValueToStringFunctionERKNS_8functionIFbfPcPS3_EEEE3$_0NS_9allocatorISB_EEFbfRNS_12basic_stringIcNS_11char_traitsIcEENSC_IcEEEES6_EED0Ev', symObjAddr: 0x21D0, symBinAddr: 0x7C520, symSize: 0x50 }
  - { offset: 0x2B14F2, size: 0x8, addend: 0x0, symName: '__ZNKSt3__110__function6__funcIZN6VSTGUI13CParamDisplay24setValueToStringFunctionERKNS_8functionIFbfPcPS3_EEEE3$_0NS_9allocatorISB_EEFbfRNS_12basic_stringIcNS_11char_traitsIcEENSC_IcEEEES6_EE7__cloneEv', symObjAddr: 0x2220, symBinAddr: 0x7C570, symSize: 0x70 }
  - { offset: 0x2B19C8, size: 0x8, addend: 0x0, symName: '__ZNKSt3__110__function6__funcIZN6VSTGUI13CParamDisplay24setValueToStringFunctionERKNS_8functionIFbfPcPS3_EEEE3$_0NS_9allocatorISB_EEFbfRNS_12basic_stringIcNS_11char_traitsIcEENSC_IcEEEES6_EE7__cloneEPNS0_6__baseISK_EE', symObjAddr: 0x2290, symBinAddr: 0x7C5E0, symSize: 0x70 }
  - { offset: 0x2B1BD5, size: 0x8, addend: 0x0, symName: '__ZNSt3__110__function6__funcIZN6VSTGUI13CParamDisplay24setValueToStringFunctionERKNS_8functionIFbfPcPS3_EEEE3$_0NS_9allocatorISB_EEFbfRNS_12basic_stringIcNS_11char_traitsIcEENSC_IcEEEES6_EE7destroyEv', symObjAddr: 0x2300, symBinAddr: 0x7C650, symSize: 0x40 }
  - { offset: 0x2B1D00, size: 0x8, addend: 0x0, symName: '__ZNSt3__110__function6__funcIZN6VSTGUI13CParamDisplay24setValueToStringFunctionERKNS_8functionIFbfPcPS3_EEEE3$_0NS_9allocatorISB_EEFbfRNS_12basic_stringIcNS_11char_traitsIcEENSC_IcEEEES6_EE18destroy_deallocateEv', symObjAddr: 0x2340, symBinAddr: 0x7C690, symSize: 0x40 }
  - { offset: 0x2B2080, size: 0x8, addend: 0x0, symName: '__ZNSt3__110__function6__funcIZN6VSTGUI13CParamDisplay24setValueToStringFunctionERKNS_8functionIFbfPcPS3_EEEE3$_0NS_9allocatorISB_EEFbfRNS_12basic_stringIcNS_11char_traitsIcEENSC_IcEEEES6_EEclEOfSJ_OS6_', symObjAddr: 0x2380, symBinAddr: 0x7C6D0, symSize: 0xB0 }
  - { offset: 0x2B2222, size: 0x8, addend: 0x0, symName: '__ZNKSt3__110__function6__funcIZN6VSTGUI13CParamDisplay24setValueToStringFunctionERKNS_8functionIFbfPcPS3_EEEE3$_0NS_9allocatorISB_EEFbfRNS_12basic_stringIcNS_11char_traitsIcEENSC_IcEEEES6_EE6targetERKSt9type_info', symObjAddr: 0x2430, symBinAddr: 0x7C780, symSize: 0x20 }
  - { offset: 0x2B2294, size: 0x8, addend: 0x0, symName: '__ZNKSt3__110__function6__funcIZN6VSTGUI13CParamDisplay24setValueToStringFunctionERKNS_8functionIFbfPcPS3_EEEE3$_0NS_9allocatorISB_EEFbfRNS_12basic_stringIcNS_11char_traitsIcEENSC_IcEEEES6_EE11target_typeEv', symObjAddr: 0x2450, symBinAddr: 0x7C7A0, symSize: 0x10 }
  - { offset: 0x2B41B5, size: 0x8, addend: 0x0, symName: __ZN6VSTGUI10CScrollbarC2ERKNS_5CRectEPNS_16IControlListenerEiNS0_18ScrollbarDirectionES3_, symObjAddr: 0x0, symBinAddr: 0x7C7B0, symSize: 0x180 }
  - { offset: 0x2BE326, size: 0x8, addend: 0x0, symName: __ZN6VSTGUI10CScrollbarC2ERKNS_5CRectEPNS_16IControlListenerEiNS0_18ScrollbarDirectionES3_, symObjAddr: 0x0, symBinAddr: 0x7C7B0, symSize: 0x180 }
  - { offset: 0x2BE536, size: 0x8, addend: 0x0, symName: __ZN6VSTGUI10CScrollbar23calculateScrollerLengthEv, symObjAddr: 0x180, symBinAddr: 0x7C930, symSize: 0x140 }
  - { offset: 0x2BE78B, size: 0x8, addend: 0x0, symName: __ZN6VSTGUI10CScrollbarC1ERKNS_5CRectEPNS_16IControlListenerEiNS0_18ScrollbarDirectionES3_, symObjAddr: 0x300, symBinAddr: 0x7CA70, symSize: 0x180 }
  - { offset: 0x2BEA16, size: 0x8, addend: 0x0, symName: __ZN6VSTGUI10CScrollbarC2ERKS0_, symObjAddr: 0x480, symBinAddr: 0x7CBF0, symSize: 0x140 }
  - { offset: 0x2BEBC5, size: 0x8, addend: 0x0, symName: __ZN6VSTGUI10CScrollbarC1ERKS0_, symObjAddr: 0x5C0, symBinAddr: 0x7CD30, symSize: 0x140 }
  - { offset: 0x2BED83, size: 0x8, addend: 0x0, symName: __ZN6VSTGUI10CScrollbar11setViewSizeERKNS_5CRectEb, symObjAddr: 0x700, symBinAddr: 0x7CE70, symSize: 0x50 }
  - { offset: 0x2BEE38, size: 0x8, addend: 0x0, symName: __ZN6VSTGUI10CScrollbar13setScrollSizeERKNS_5CRectE, symObjAddr: 0x750, symBinAddr: 0x7CEC0, symSize: 0x70 }
  - { offset: 0x2BEF25, size: 0x8, addend: 0x0, symName: __ZN6VSTGUI10CScrollbar15getScrollerRectEv, symObjAddr: 0x7C0, symBinAddr: 0x7CF30, symSize: 0xB0 }
  - { offset: 0x2BF082, size: 0x8, addend: 0x0, symName: __ZN6VSTGUI10CScrollbar10doSteppingEv, symObjAddr: 0x870, symBinAddr: 0x7CFE0, symSize: 0x200 }
  - { offset: 0x2BF22E, size: 0x8, addend: 0x0, symName: __ZN6VSTGUI10CScrollbar6notifyEPNS_11CBaseObjectEPKc, symObjAddr: 0xA70, symBinAddr: 0x7D1E0, symSize: 0x50 }
  - { offset: 0x2BF29B, size: 0x8, addend: 0x0, symName: __ZN6VSTGUI10CScrollbar15setOverlayStyleEb, symObjAddr: 0xAC0, symBinAddr: 0x7D230, symSize: 0x50 }
  - { offset: 0x2BF3DA, size: 0x8, addend: 0x0, symName: __ZN6VSTGUI10CScrollbar14onMouseEnteredERNS_6CPointERKNS_12CButtonStateE, symObjAddr: 0xB10, symBinAddr: 0x7D280, symSize: 0x140 }
  - { offset: 0x2BF5C3, size: 0x8, addend: 0x0, symName: __ZN6VSTGUI10CScrollbar13onMouseExitedERNS_6CPointERKNS_12CButtonStateE, symObjAddr: 0xC50, symBinAddr: 0x7D3C0, symSize: 0x1A0 }
  - { offset: 0x2BF83D, size: 0x8, addend: 0x0, symName: __ZN6VSTGUI10CScrollbar11onMouseDownERNS_6CPointERKNS_12CButtonStateE, symObjAddr: 0xDF0, symBinAddr: 0x7D560, symSize: 0x210 }
  - { offset: 0x2BFA79, size: 0x8, addend: 0x0, symName: __ZN6VSTGUI10CScrollbar9onMouseUpERNS_6CPointERKNS_12CButtonStateE, symObjAddr: 0x1000, symBinAddr: 0x7D770, symSize: 0x50 }
  - { offset: 0x2BFB1B, size: 0x8, addend: 0x0, symName: __ZN6VSTGUI10CScrollbar12onMouseMovedERNS_6CPointERKNS_12CButtonStateE, symObjAddr: 0x1050, symBinAddr: 0x7D7C0, symSize: 0x280 }
  - { offset: 0x2BFD3B, size: 0x8, addend: 0x0, symName: __ZN6VSTGUI10CScrollbar13onMouseCancelEv, symObjAddr: 0x12D0, symBinAddr: 0x7DA40, symSize: 0x50 }
  - { offset: 0x2BFDE4, size: 0x8, addend: 0x0, symName: __ZN6VSTGUI10CScrollbar14onVisualChangeEv, symObjAddr: 0x1320, symBinAddr: 0x7DA90, symSize: 0x1E0 }
  - { offset: 0x2C0063, size: 0x8, addend: 0x0, symName: __ZN6VSTGUI10CScrollbar17onMouseWheelEventERNS_15MouseWheelEventE, symObjAddr: 0x1500, symBinAddr: 0x7DC70, symSize: 0x120 }
  - { offset: 0x2C01CF, size: 0x8, addend: 0x0, symName: __ZN6VSTGUI10CScrollbar14drawBackgroundEPNS_12CDrawContextE, symObjAddr: 0x1620, symBinAddr: 0x7DD90, symSize: 0xB0 }
  - { offset: 0x2C0296, size: 0x8, addend: 0x0, symName: __ZN6VSTGUI10CScrollbar12drawScrollerEPNS_12CDrawContextERKNS_5CRectE, symObjAddr: 0x16D0, symBinAddr: 0x7DE40, symSize: 0x170 }
  - { offset: 0x2C03A7, size: 0x8, addend: 0x0, symName: __ZN6VSTGUI10CScrollbar4drawEPNS_12CDrawContextE, symObjAddr: 0x1840, symBinAddr: 0x7DFB0, symSize: 0xD0 }
  - { offset: 0x2C05A9, size: 0x8, addend: 0x0, symName: __ZN6VSTGUI10CScrollbarD1Ev, symObjAddr: 0x1BA0, symBinAddr: 0x7E080, symSize: 0x60 }
  - { offset: 0x2C0676, size: 0x8, addend: 0x0, symName: __ZN6VSTGUI10CScrollbarD0Ev, symObjAddr: 0x1C00, symBinAddr: 0x7E0E0, symSize: 0x70 }
  - { offset: 0x2C0738, size: 0x8, addend: 0x0, symName: __ZNK6VSTGUI10CScrollbar7newCopyEv, symObjAddr: 0x1C70, symBinAddr: 0x7E150, symSize: 0x40 }
  - { offset: 0x2C0773, size: 0x8, addend: 0x0, symName: __ZN6VSTGUI10CScrollbar9setDrawerEPNS_16IScrollbarDrawerE, symObjAddr: 0x1CB0, symBinAddr: 0x7E190, symSize: 0x10 }
  - { offset: 0x2C07A6, size: 0x8, addend: 0x0, symName: __ZN6VSTGUI10CScrollbar7setStepEf, symObjAddr: 0x1CC0, symBinAddr: 0x7E1A0, symSize: 0x10 }
  - { offset: 0x2C07FA, size: 0x8, addend: 0x0, symName: __ZN6VSTGUI10CScrollbar13setFrameColorERKNS_6CColorE, symObjAddr: 0x1CD0, symBinAddr: 0x7E1B0, symSize: 0x10 }
  - { offset: 0x2C0854, size: 0x8, addend: 0x0, symName: __ZN6VSTGUI10CScrollbar16setScrollerColorERKNS_6CColorE, symObjAddr: 0x1CE0, symBinAddr: 0x7E1C0, symSize: 0x10 }
  - { offset: 0x2C08AE, size: 0x8, addend: 0x0, symName: __ZN6VSTGUI10CScrollbar18setBackgroundColorERKNS_6CColorE, symObjAddr: 0x1CF0, symBinAddr: 0x7E1D0, symSize: 0x10 }
  - { offset: 0x2C0908, size: 0x8, addend: 0x0, symName: __ZThn24_N6VSTGUI10CScrollbarD1Ev, symObjAddr: 0x1D00, symBinAddr: 0x7E1E0, symSize: 0x70 }
  - { offset: 0x2C09D8, size: 0x8, addend: 0x0, symName: __ZThn24_N6VSTGUI10CScrollbarD0Ev, symObjAddr: 0x1D70, symBinAddr: 0x7E250, symSize: 0x70 }
  - { offset: 0x2D03A0, size: 0x8, addend: 0x0, symName: __ZN6VSTGUI15CSearchTextEditC2ERKNS_5CRectEPNS_16IControlListenerEiPKcPNS_7CBitmapEi, symObjAddr: 0x0, symBinAddr: 0x7E2C0, symSize: 0xE0 }
  - { offset: 0x2D0763, size: 0x8, addend: 0x0, symName: __ZN6VSTGUI15CSearchTextEditC1ERKNS_5CRectEPNS_16IControlListenerEiPKcPNS_7CBitmapEi, symObjAddr: 0x120, symBinAddr: 0x7E3A0, symSize: 0xF0 }
  - { offset: 0x2D0A51, size: 0x8, addend: 0x0, symName: __ZN6VSTGUI15CSearchTextEdit17setClearMarkInsetENS_6CPointE, symObjAddr: 0x210, symBinAddr: 0x7E490, symSize: 0x40 }
  - { offset: 0x2D0AB3, size: 0x8, addend: 0x0, symName: __ZNK6VSTGUI15CSearchTextEdit17getClearMarkInsetEv, symObjAddr: 0x250, symBinAddr: 0x7E4D0, symSize: 0x20 }
  - { offset: 0x2D0B78, size: 0x8, addend: 0x0, symName: __ZNK6VSTGUI15CSearchTextEdit16getClearMarkRectEv, symObjAddr: 0x270, symBinAddr: 0x7E4F0, symSize: 0xB0 }
  - { offset: 0x2D0D11, size: 0x8, addend: 0x0, symName: __ZN6VSTGUI15CSearchTextEdit11onMouseDownERNS_6CPointERKNS_12CButtonStateE, symObjAddr: 0x320, symBinAddr: 0x7E5A0, symSize: 0x1C0 }
  - { offset: 0x2D11EC, size: 0x8, addend: 0x0, symName: __ZNK6VSTGUI15CSearchTextEdit13drawClearMarkEPNS_12CDrawContextE, symObjAddr: 0x4E0, symBinAddr: 0x7E760, symSize: 0x350 }
  - { offset: 0x2D17A5, size: 0x8, addend: 0x0, symName: __ZN6VSTGUI15CSearchTextEdit4drawEPNS_12CDrawContextE, symObjAddr: 0x830, symBinAddr: 0x7EAB0, symSize: 0x290 }
  - { offset: 0x2D1BC0, size: 0x8, addend: 0x0, symName: __ZNK6VSTGUI15CSearchTextEdit11getTextRectEv, symObjAddr: 0xAC0, symBinAddr: 0x7ED40, symSize: 0xC0 }
  - { offset: 0x2D1D91, size: 0x8, addend: 0x0, symName: __ZNK6VSTGUI15CSearchTextEdit15platformGetSizeEv, symObjAddr: 0xB80, symBinAddr: 0x7EE00, symSize: 0x180 }
  - { offset: 0x2D1F6A, size: 0x8, addend: 0x0, symName: __ZThn304_NK6VSTGUI15CSearchTextEdit15platformGetSizeEv, symObjAddr: 0xD00, symBinAddr: 0x7EF80, symSize: 0x20 }
  - { offset: 0x2D1FCD, size: 0x8, addend: 0x0, symName: __ZNK6VSTGUI15CSearchTextEdit22platformGetVisibleSizeEv, symObjAddr: 0xD20, symBinAddr: 0x7EFA0, symSize: 0x1B0 }
  - { offset: 0x2D21EC, size: 0x8, addend: 0x0, symName: __ZThn304_NK6VSTGUI15CSearchTextEdit22platformGetVisibleSizeEv, symObjAddr: 0xED0, symBinAddr: 0x7F150, symSize: 0x20 }
  - { offset: 0x2D2218, size: 0x8, addend: 0x0, symName: __ZN6VSTGUI15CSearchTextEdit21platformTextDidChangeEv, symObjAddr: 0xEF0, symBinAddr: 0x7F170, symSize: 0xB0 }
  - { offset: 0x2D2332, size: 0x8, addend: 0x0, symName: __ZThn304_N6VSTGUI15CSearchTextEdit21platformTextDidChangeEv, symObjAddr: 0xFA0, symBinAddr: 0x7F220, symSize: 0x20 }
  - { offset: 0x2D2357, size: 0x8, addend: 0x0, symName: __ZNK6VSTGUI9CTextEdit7newCopyEv, symObjAddr: 0x1010, symBinAddr: 0x7F240, symSize: 0x40 }
  - { offset: 0x2D237E, size: 0x8, addend: 0x0, symName: __ZN6VSTGUI10CTextLabel7onWheelERKNS_6CPointERKNS_15CMouseWheelAxisERKfRKNS_12CButtonStateE, symObjAddr: 0x1110, symBinAddr: 0x7F280, symSize: 0x10 }
  - { offset: 0x2D23DB, size: 0x8, addend: 0x0, symName: __ZN6VSTGUI9CTextEdit15setTextRotationEd, symObjAddr: 0x11D0, symBinAddr: 0x7F290, symSize: 0x10 }
  - { offset: 0x2D2429, size: 0x8, addend: 0x0, symName: __ZNK6VSTGUI9CTextEdit20platformGetBackColorEv, symObjAddr: 0x11E0, symBinAddr: 0x7F2A0, symSize: 0x20 }
  - { offset: 0x2D24CA, size: 0x8, addend: 0x0, symName: __ZNK6VSTGUI9CTextEdit20platformGetFontColorEv, symObjAddr: 0x1200, symBinAddr: 0x7F2C0, symSize: 0x20 }
  - { offset: 0x2D256B, size: 0x8, addend: 0x0, symName: __ZNK6VSTGUI9CTextEdit23platformGetHoriTxtAlignEv, symObjAddr: 0x1220, symBinAddr: 0x7F2E0, symSize: 0x10 }
  - { offset: 0x2D25A8, size: 0x8, addend: 0x0, symName: __ZNK6VSTGUI9CTextEdit15platformGetTextEv, symObjAddr: 0x1230, symBinAddr: 0x7F2F0, symSize: 0x10 }
  - { offset: 0x2D25C8, size: 0x8, addend: 0x0, symName: __ZNK6VSTGUI9CTextEdit26platformGetPlaceholderTextEv, symObjAddr: 0x1240, symBinAddr: 0x7F300, symSize: 0x10 }
  - { offset: 0x2D25FE, size: 0x8, addend: 0x0, symName: __ZNK6VSTGUI9CTextEdit20platformGetTextInsetEv, symObjAddr: 0x1250, symBinAddr: 0x7F310, symSize: 0x20 }
  - { offset: 0x2D263B, size: 0x8, addend: 0x0, symName: __ZN6VSTGUI10CTextLabelD1Ev, symObjAddr: 0x1270, symBinAddr: 0x7F330, symSize: 0x20 }
  - { offset: 0x2D2671, size: 0x8, addend: 0x0, symName: __ZN6VSTGUI10CTextLabelD2Ev, symObjAddr: 0x1570, symBinAddr: 0x7F4F0, symSize: 0xEB }
  - { offset: 0x2D2D1E, size: 0x8, addend: 0x0, symName: __ZN6VSTGUI10CTextLabelD0Ev, symObjAddr: 0x1290, symBinAddr: 0x7F350, symSize: 0x30 }
  - { offset: 0x2D2D7B, size: 0x8, addend: 0x0, symName: __ZNK6VSTGUI10CTextLabel7newCopyEv, symObjAddr: 0x12C0, symBinAddr: 0x7F380, symSize: 0x40 }
  - { offset: 0x2D2DD2, size: 0x8, addend: 0x0, symName: __ZN6VSTGUI15CSearchTextEditD1Ev, symObjAddr: 0x1430, symBinAddr: 0x7F3C0, symSize: 0x20 }
  - { offset: 0x2D2E2B, size: 0x8, addend: 0x0, symName: __ZN6VSTGUI15CSearchTextEditD0Ev, symObjAddr: 0x1450, symBinAddr: 0x7F3E0, symSize: 0x30 }
  - { offset: 0x2D2E87, size: 0x8, addend: 0x0, symName: __ZThn24_N6VSTGUI15CSearchTextEditD1Ev, symObjAddr: 0x1480, symBinAddr: 0x7F410, symSize: 0x20 }
  - { offset: 0x2D2EF3, size: 0x8, addend: 0x0, symName: __ZThn24_N6VSTGUI15CSearchTextEditD0Ev, symObjAddr: 0x14A0, symBinAddr: 0x7F430, symSize: 0x30 }
  - { offset: 0x2D2F7D, size: 0x8, addend: 0x0, symName: __ZThn304_NK6VSTGUI9CTextEdit20platformGetBackColorEv, symObjAddr: 0x14D0, symBinAddr: 0x7F460, symSize: 0x20 }
  - { offset: 0x2D3037, size: 0x8, addend: 0x0, symName: __ZThn304_NK6VSTGUI9CTextEdit20platformGetFontColorEv, symObjAddr: 0x14F0, symBinAddr: 0x7F480, symSize: 0x20 }
  - { offset: 0x2D30F1, size: 0x8, addend: 0x0, symName: __ZThn304_NK6VSTGUI9CTextEdit23platformGetHoriTxtAlignEv, symObjAddr: 0x1510, symBinAddr: 0x7F4A0, symSize: 0x10 }
  - { offset: 0x2D315D, size: 0x8, addend: 0x0, symName: __ZThn304_NK6VSTGUI9CTextEdit15platformGetTextEv, symObjAddr: 0x1520, symBinAddr: 0x7F4B0, symSize: 0x10 }
  - { offset: 0x2D31A9, size: 0x8, addend: 0x0, symName: __ZThn304_NK6VSTGUI9CTextEdit26platformGetPlaceholderTextEv, symObjAddr: 0x1530, symBinAddr: 0x7F4C0, symSize: 0x10 }
  - { offset: 0x2D31F5, size: 0x8, addend: 0x0, symName: __ZThn304_NK6VSTGUI9CTextEdit20platformGetTextInsetEv, symObjAddr: 0x1540, symBinAddr: 0x7F4D0, symSize: 0x20 }
  - { offset: 0x2E270C, size: 0x8, addend: 0x0, symName: __ZNSt3__16vectorIN6VSTGUI14CSegmentButton7SegmentENS_9allocatorIS3_EEE26__swap_out_circular_bufferERNS_14__split_bufferIS3_RS5_EEPS3_, symObjAddr: 0x3AA0, symBinAddr: 0x82C80, symSize: 0x200 }
  - { offset: 0x2E307C, size: 0x8, addend: 0x0, symName: __ZN6VSTGUI14CSegmentButtonC2ERKNS_5CRectEPNS_16IControlListenerEi, symObjAddr: 0x0, symBinAddr: 0x7F5E0, symSize: 0x150 }
  - { offset: 0x2E3310, size: 0x8, addend: 0x0, symName: __ZNSt3__16vectorIN6VSTGUI14CSegmentButton7SegmentENS_9allocatorIS3_EEED1B8ne180100Ev, symObjAddr: 0x150, symBinAddr: 0x7F730, symSize: 0x70 }
  - { offset: 0x2E37E0, size: 0x8, addend: 0x0, symName: __ZN6VSTGUI14CSegmentButtonC1ERKNS_5CRectEPNS_16IControlListenerEi, symObjAddr: 0x1C0, symBinAddr: 0x7F7A0, symSize: 0x160 }
  - { offset: 0x2E3A9C, size: 0x8, addend: 0x0, symName: __ZNK6VSTGUI14CSegmentButton20canAddOneMoreSegmentEv, symObjAddr: 0x320, symBinAddr: 0x7F900, symSize: 0x40 }
  - { offset: 0x2E3C91, size: 0x8, addend: 0x0, symName: __ZN6VSTGUI14CSegmentButton10addSegmentERKNS0_7SegmentEj, symObjAddr: 0x360, symBinAddr: 0x7F940, symSize: 0x100 }
  - { offset: 0x2E3F15, size: 0x8, addend: 0x0, symName: __ZN6VSTGUI14CSegmentButton7SegmentC2ERKS1_, symObjAddr: 0x33A0, symBinAddr: 0x82620, symSize: 0xA0 }
  - { offset: 0x2E407C, size: 0x8, addend: 0x0, symName: __ZNSt3__16vectorIN6VSTGUI14CSegmentButton7SegmentENS_9allocatorIS3_EEE6insertENS_11__wrap_iterIPKS3_EERS8_, symObjAddr: 0x460, symBinAddr: 0x7FA40, symSize: 0x300 }
  - { offset: 0x2E4A15, size: 0x8, addend: 0x0, symName: __ZN6VSTGUI14CSegmentButton18updateSegmentSizesEv, symObjAddr: 0x760, symBinAddr: 0x7FD40, symSize: 0x340 }
  - { offset: 0x2E4F9D, size: 0x8, addend: 0x0, symName: __ZNSt3__16vectorIN6VSTGUI14CSegmentButton7SegmentENS_9allocatorIS3_EEE24__emplace_back_slow_pathIJRKS3_EEEPS3_DpOT_, symObjAddr: 0x34E0, symBinAddr: 0x826C0, symSize: 0x220 }
  - { offset: 0x2E5D9E, size: 0x8, addend: 0x0, symName: __ZN6VSTGUI14CSegmentButton7SegmentaSEOS1_, symObjAddr: 0x3CA0, symBinAddr: 0x82E80, symSize: 0xE0 }
  - { offset: 0x2E5E7D, size: 0x8, addend: 0x0, symName: __ZN6VSTGUI14CSegmentButton7SegmentaSERKS1_, symObjAddr: 0x3750, symBinAddr: 0x82930, symSize: 0x110 }
  - { offset: 0x2E602C, size: 0x8, addend: 0x0, symName: __ZNSt3__114__split_bufferIN6VSTGUI14CSegmentButton7SegmentERNS_9allocatorIS3_EEE9push_backB8ne180100ERKS3_, symObjAddr: 0x3860, symBinAddr: 0x82A40, symSize: 0x240 }
  - { offset: 0x2E67AE, size: 0x8, addend: 0x0, symName: __ZNKSt3__16vectorIN6VSTGUI14CSegmentButton7SegmentENS_9allocatorIS3_EEE20__throw_length_errorB8ne180100Ev, symObjAddr: 0x32C0, symBinAddr: 0x82610, symSize: 0x10 }
  - { offset: 0x2E67E3, size: 0x8, addend: 0x0, symName: __ZNSt3__114__split_bufferIN6VSTGUI14CSegmentButton7SegmentERNS_9allocatorIS3_EEED1Ev, symObjAddr: 0x3700, symBinAddr: 0x828E0, symSize: 0x50 }
  - { offset: 0x2E6B58, size: 0x8, addend: 0x0, symName: __ZN6VSTGUI14CSegmentButton10addSegmentEONS0_7SegmentEj, symObjAddr: 0xAA0, symBinAddr: 0x80080, symSize: 0x180 }
  - { offset: 0x2E6F87, size: 0x8, addend: 0x0, symName: __ZNSt3__16vectorIN6VSTGUI14CSegmentButton7SegmentENS_9allocatorIS3_EEE6insertENS_11__wrap_iterIPKS3_EEOS3_, symObjAddr: 0xC20, symBinAddr: 0x80200, symSize: 0x360 }
  - { offset: 0x2E7A60, size: 0x8, addend: 0x0, symName: __ZNSt3__16vectorIN6VSTGUI14CSegmentButton7SegmentENS_9allocatorIS3_EEE24__emplace_back_slow_pathIJS3_EEEPS3_DpOT_, symObjAddr: 0x3D80, symBinAddr: 0x82F60, symSize: 0x260 }
  - { offset: 0x2E83A1, size: 0x8, addend: 0x0, symName: __ZNSt3__114__split_bufferIN6VSTGUI14CSegmentButton7SegmentERNS_9allocatorIS3_EEE9push_backEOS3_, symObjAddr: 0x3FE0, symBinAddr: 0x831C0, symSize: 0x2C0 }
  - { offset: 0x2E8DDA, size: 0x8, addend: 0x0, symName: __ZN6VSTGUI14CSegmentButton13removeSegmentEj, symObjAddr: 0xF80, symBinAddr: 0x80560, symSize: 0xB0 }
  - { offset: 0x2E90ED, size: 0x8, addend: 0x0, symName: __ZN6VSTGUI14CSegmentButton17removeAllSegmentsEv, symObjAddr: 0x1030, symBinAddr: 0x80610, symSize: 0x50 }
  - { offset: 0x2E9275, size: 0x8, addend: 0x0, symName: __ZN6VSTGUI14CSegmentButton12valueChangedEv, symObjAddr: 0x1080, symBinAddr: 0x80660, symSize: 0x170 }
  - { offset: 0x2E9504, size: 0x8, addend: 0x0, symName: __ZNK6VSTGUI14CSegmentButton18getSelectedSegmentEv, symObjAddr: 0x11F0, symBinAddr: 0x807D0, symSize: 0x90 }
  - { offset: 0x2E9579, size: 0x8, addend: 0x0, symName: __ZN6VSTGUI14CSegmentButton18setSelectedSegmentEj, symObjAddr: 0x1280, symBinAddr: 0x80860, symSize: 0xB0 }
  - { offset: 0x2E960D, size: 0x8, addend: 0x0, symName: __ZNK6VSTGUI14CSegmentButton15getSegmentIndexEf, symObjAddr: 0x1330, symBinAddr: 0x80910, symSize: 0x70 }
  - { offset: 0x2E9653, size: 0x8, addend: 0x0, symName: __ZN6VSTGUI14CSegmentButton8setStyleENS0_5StyleE, symObjAddr: 0x13A0, symBinAddr: 0x80980, symSize: 0x40 }
  - { offset: 0x2E9722, size: 0x8, addend: 0x0, symName: __ZN6VSTGUI14CSegmentButton16setSelectionModeENS0_13SelectionModeE, symObjAddr: 0x13E0, symBinAddr: 0x809C0, symSize: 0x170 }
  - { offset: 0x2E98B1, size: 0x8, addend: 0x0, symName: __ZN6VSTGUI14CSegmentButton16verifySelectionsEv, symObjAddr: 0x1550, symBinAddr: 0x80B30, symSize: 0x140 }
  - { offset: 0x2E99FA, size: 0x8, addend: 0x0, symName: __ZN6VSTGUI14CSegmentButton19setTextTruncateModeENS_12CDrawMethods16TextTruncateModeE, symObjAddr: 0x1690, symBinAddr: 0x80C70, symSize: 0x20 }
  - { offset: 0x2E9A7A, size: 0x8, addend: 0x0, symName: __ZN6VSTGUI14CSegmentButton11setGradientEPNS_9CGradientE, symObjAddr: 0x16B0, symBinAddr: 0x80C90, symSize: 0x50 }
  - { offset: 0x2E9B1D, size: 0x8, addend: 0x0, symName: __ZN6VSTGUI14CSegmentButton22setGradientHighlightedEPNS_9CGradientE, symObjAddr: 0x1700, symBinAddr: 0x80CE0, symSize: 0x50 }
  - { offset: 0x2E9BC0, size: 0x8, addend: 0x0, symName: __ZN6VSTGUI14CSegmentButton14setRoundRadiusEd, symObjAddr: 0x1750, symBinAddr: 0x80D30, symSize: 0x20 }
  - { offset: 0x2E9C40, size: 0x8, addend: 0x0, symName: __ZN6VSTGUI14CSegmentButton7setFontEPNS_9CFontDescE, symObjAddr: 0x1770, symBinAddr: 0x80D50, symSize: 0x50 }
  - { offset: 0x2E9CE3, size: 0x8, addend: 0x0, symName: __ZN6VSTGUI14CSegmentButton16setTextAlignmentENS_13CHoriTxtAlignE, symObjAddr: 0x17C0, symBinAddr: 0x80DA0, symSize: 0x20 }
  - { offset: 0x2E9D24, size: 0x8, addend: 0x0, symName: __ZN6VSTGUI14CSegmentButton13setTextMarginEd, symObjAddr: 0x17E0, symBinAddr: 0x80DC0, symSize: 0x20 }
  - { offset: 0x2E9DAC, size: 0x8, addend: 0x0, symName: __ZN6VSTGUI14CSegmentButton12setTextColorENS_6CColorE, symObjAddr: 0x1800, symBinAddr: 0x80DE0, symSize: 0x60 }
  - { offset: 0x2E9E34, size: 0x8, addend: 0x0, symName: __ZN6VSTGUI14CSegmentButton23setTextColorHighlightedENS_6CColorE, symObjAddr: 0x1860, symBinAddr: 0x80E40, symSize: 0x60 }
  - { offset: 0x2E9EBC, size: 0x8, addend: 0x0, symName: __ZN6VSTGUI14CSegmentButton13setFrameColorENS_6CColorE, symObjAddr: 0x18C0, symBinAddr: 0x80EA0, symSize: 0x60 }
  - { offset: 0x2E9F44, size: 0x8, addend: 0x0, symName: __ZN6VSTGUI14CSegmentButton13setFrameWidthEd, symObjAddr: 0x1920, symBinAddr: 0x80F00, symSize: 0x20 }
  - { offset: 0x2E9F87, size: 0x8, addend: 0x0, symName: __ZN6VSTGUI14CSegmentButton8attachedEPNS_5CViewE, symObjAddr: 0x1940, symBinAddr: 0x80F20, symSize: 0x160 }
  - { offset: 0x2EA109, size: 0x8, addend: 0x0, symName: __ZN6VSTGUI14CSegmentButton11setViewSizeERKNS_5CRectEb, symObjAddr: 0x1AA0, symBinAddr: 0x81080, symSize: 0x20 }
  - { offset: 0x2EA169, size: 0x8, addend: 0x0, symName: __ZN6VSTGUI14CSegmentButton13selectSegmentEjb, symObjAddr: 0x1AC0, symBinAddr: 0x810A0, symSize: 0x60 }
  - { offset: 0x2EA214, size: 0x8, addend: 0x0, symName: __ZNK6VSTGUI14CSegmentButton17isSegmentSelectedEj, symObjAddr: 0x1B20, symBinAddr: 0x81100, symSize: 0x20 }
  - { offset: 0x2EA326, size: 0x8, addend: 0x0, symName: __ZN6VSTGUI14CSegmentButton11onMouseDownERNS_6CPointERKNS_12CButtonStateE, symObjAddr: 0x1B40, symBinAddr: 0x81120, symSize: 0x340 }
  - { offset: 0x2EA71B, size: 0x8, addend: 0x0, symName: __ZN6VSTGUI14CSegmentButton15onKeyboardEventERNS_13KeyboardEventE, symObjAddr: 0x1E80, symBinAddr: 0x81460, symSize: 0x280 }
  - { offset: 0x2EA8ED, size: 0x8, addend: 0x0, symName: __ZN6VSTGUI14CSegmentButton4drawEPNS_12CDrawContextE, symObjAddr: 0x2100, symBinAddr: 0x816E0, symSize: 0x10 }
  - { offset: 0x2EAAC5, size: 0x8, addend: 0x0, symName: __ZN6VSTGUI14CSegmentButton8drawRectEPNS_12CDrawContextERKNS_5CRectE, symObjAddr: 0x2110, symBinAddr: 0x816F0, symSize: 0x8D0 }
  - { offset: 0x2EB6A8, size: 0x8, addend: 0x0, symName: __ZN6VSTGUI14CSegmentButton14drawFocusOnTopEv, symObjAddr: 0x29E0, symBinAddr: 0x81FC0, symSize: 0x10 }
  - { offset: 0x2EB6CE, size: 0x8, addend: 0x0, symName: __ZThn24_N6VSTGUI14CSegmentButton14drawFocusOnTopEv, symObjAddr: 0x29F0, symBinAddr: 0x81FD0, symSize: 0x10 }
  - { offset: 0x2EB712, size: 0x8, addend: 0x0, symName: __ZN6VSTGUI14CSegmentButton12getFocusPathERNS_13CGraphicsPathE, symObjAddr: 0x2A00, symBinAddr: 0x81FE0, symSize: 0x100 }
  - { offset: 0x2EB87B, size: 0x8, addend: 0x0, symName: __ZThn24_N6VSTGUI14CSegmentButton12getFocusPathERNS_13CGraphicsPathE, symObjAddr: 0x2B00, symBinAddr: 0x820E0, symSize: 0x100 }
  - { offset: 0x2EB9A4, size: 0x8, addend: 0x0, symName: __ZN6VSTGUI14CSegmentButtonD1Ev, symObjAddr: 0x2E90, symBinAddr: 0x821E0, symSize: 0x20 }
  - { offset: 0x2EB9DA, size: 0x8, addend: 0x0, symName: __ZN6VSTGUI14CSegmentButtonD2Ev, symObjAddr: 0x2F70, symBinAddr: 0x822C0, symSize: 0xC0 }
  - { offset: 0x2EBC78, size: 0x8, addend: 0x0, symName: __ZN6VSTGUI14CSegmentButtonD0Ev, symObjAddr: 0x2EB0, symBinAddr: 0x82200, symSize: 0x30 }
  - { offset: 0x2EBCCC, size: 0x8, addend: 0x0, symName: __ZNK6VSTGUI14CSegmentButton7newCopyEv, symObjAddr: 0x2EE0, symBinAddr: 0x82230, symSize: 0x40 }
  - { offset: 0x2EBD0D, size: 0x8, addend: 0x0, symName: __ZN6VSTGUI14CSegmentButtonC1ERKS0_, symObjAddr: 0x3030, symBinAddr: 0x82380, symSize: 0x120 }
  - { offset: 0x2EBFC0, size: 0x8, addend: 0x0, symName: __ZThn24_N6VSTGUI14CSegmentButtonD1Ev, symObjAddr: 0x2F20, symBinAddr: 0x82270, symSize: 0x20 }
  - { offset: 0x2EC01D, size: 0x8, addend: 0x0, symName: __ZThn24_N6VSTGUI14CSegmentButtonD0Ev, symObjAddr: 0x2F40, symBinAddr: 0x82290, symSize: 0x30 }
  - { offset: 0x2EC1B9, size: 0x8, addend: 0x0, symName: __ZNSt3__16vectorIN6VSTGUI14CSegmentButton7SegmentENS_9allocatorIS3_EEE16__init_with_sizeB8ne180100IPS3_S8_EEvT_T0_m, symObjAddr: 0x3150, symBinAddr: 0x824A0, symSize: 0x100 }
  - { offset: 0x2EC853, size: 0x8, addend: 0x0, symName: __ZNSt3__128__exception_guard_exceptionsINS_6vectorIN6VSTGUI14CSegmentButton7SegmentENS_9allocatorIS4_EEE16__destroy_vectorEED1B8ne180100Ev, symObjAddr: 0x3250, symBinAddr: 0x825A0, symSize: 0x70 }
  - { offset: 0x2EEC8F, size: 0x8, addend: 0x0, symName: __ZN6VSTGUI11CSliderBase20kAlwaysUseZoomFactorE, symObjAddr: 0x674FF, symBinAddr: 0x1F4EF1, symSize: 0x0 }
  - { offset: 0x2F1A0E, size: 0x8, addend: 0x0, symName: __ZN6VSTGUI11CSliderBase4Impl10globalModeE, symObjAddr: 0x3BB0, symBinAddr: 0x1CE300, symSize: 0x0 }
  - { offset: 0x2F9442, size: 0x8, addend: 0x0, symName: __ZN6VSTGUI11CSliderBase11onMouseDownERNS_6CPointERKNS_12CButtonStateE, symObjAddr: 0xC60, symBinAddr: 0x840E0, symSize: 0x2B0 }
  - { offset: 0x2F9F67, size: 0x8, addend: 0x0, symName: __ZN6VSTGUI11CSliderBaseC2ERKNS_5CRectEPNS_16IControlListenerEi, symObjAddr: 0x0, symBinAddr: 0x83480, symSize: 0xF0 }
  - { offset: 0x2FA2FD, size: 0x8, addend: 0x0, symName: __ZNSt3__110unique_ptrIN6VSTGUI11CSliderBase4ImplENS_14default_deleteIS3_EEED1B8ne180100Ev, symObjAddr: 0xF0, symBinAddr: 0x83570, symSize: 0x50 }
  - { offset: 0x2FA5FB, size: 0x8, addend: 0x0, symName: __ZN6VSTGUI11CSliderBaseC2ERKS0_, symObjAddr: 0x140, symBinAddr: 0x835C0, symSize: 0x100 }
  - { offset: 0x2FA938, size: 0x8, addend: 0x0, symName: __ZN6VSTGUI11CSliderBaseD2Ev, symObjAddr: 0x240, symBinAddr: 0x836C0, symSize: 0xA0 }
  - { offset: 0x2FAADD, size: 0x8, addend: 0x0, symName: __ZN6VSTGUI11CSliderBaseD1Ev, symObjAddr: 0x2E0, symBinAddr: 0x83760, symSize: 0x10 }
  - { offset: 0x2FAB18, size: 0x8, addend: 0x0, symName: __ZThn24_N6VSTGUI11CSliderBaseD1Ev, symObjAddr: 0x2F0, symBinAddr: 0x83770, symSize: 0x10 }
  - { offset: 0x2FAB43, size: 0x8, addend: 0x0, symName: __ZN6VSTGUI11CSliderBaseD0Ev, symObjAddr: 0x300, symBinAddr: 0x83780, symSize: 0x10 }
  - { offset: 0x2FAB7E, size: 0x8, addend: 0x0, symName: __ZThn24_N6VSTGUI11CSliderBaseD0Ev, symObjAddr: 0x310, symBinAddr: 0x83790, symSize: 0x10 }
  - { offset: 0x2FABF4, size: 0x8, addend: 0x0, symName: __ZN6VSTGUI11CSliderBase21setHandleRangePrivateEd, symObjAddr: 0x320, symBinAddr: 0x837A0, symSize: 0x40 }
  - { offset: 0x2FAC68, size: 0x8, addend: 0x0, symName: __ZN6VSTGUI11CSliderBase26updateInternalHandleValuesEv, symObjAddr: 0x360, symBinAddr: 0x837E0, symSize: 0x40 }
  - { offset: 0x2FACC5, size: 0x8, addend: 0x0, symName: __ZN6VSTGUI11CSliderBase22setHandleMinPosPrivateEd, symObjAddr: 0x3A0, symBinAddr: 0x83820, symSize: 0x40 }
  - { offset: 0x2FAD39, size: 0x8, addend: 0x0, symName: __ZNK6VSTGUI11CSliderBase22getHandleMinPosPrivateEv, symObjAddr: 0x3E0, symBinAddr: 0x83860, symSize: 0x10 }
  - { offset: 0x2FAD80, size: 0x8, addend: 0x0, symName: __ZN6VSTGUI11CSliderBase15setOffsetHandleERKNS_6CPointE, symObjAddr: 0x3F0, symBinAddr: 0x83870, symSize: 0x50 }
  - { offset: 0x2FAE21, size: 0x8, addend: 0x0, symName: __ZNK6VSTGUI11CSliderBase15getOffsetHandleEv, symObjAddr: 0x440, symBinAddr: 0x838C0, symSize: 0x20 }
  - { offset: 0x2FAE68, size: 0x8, addend: 0x0, symName: __ZN6VSTGUI11CSliderBase20setHandleSizePrivateEdd, symObjAddr: 0x460, symBinAddr: 0x838E0, symSize: 0x50 }
  - { offset: 0x2FAEE3, size: 0x8, addend: 0x0, symName: __ZNK6VSTGUI11CSliderBase20getHandleSizePrivateEv, symObjAddr: 0x4B0, symBinAddr: 0x83930, symSize: 0x20 }
  - { offset: 0x2FAF8E, size: 0x8, addend: 0x0, symName: __ZNK6VSTGUI11CSliderBase21getControlSizePrivateEv, symObjAddr: 0x4D0, symBinAddr: 0x83950, symSize: 0x40 }
  - { offset: 0x2FB024, size: 0x8, addend: 0x0, symName: __ZN6VSTGUI11CSliderBase8setStyleEi, symObjAddr: 0x510, symBinAddr: 0x83990, symSize: 0x50 }
  - { offset: 0x2FB082, size: 0x8, addend: 0x0, symName: __ZNK6VSTGUI11CSliderBase8getStyleEv, symObjAddr: 0x560, symBinAddr: 0x839E0, symSize: 0x10 }
  - { offset: 0x2FB0C2, size: 0x8, addend: 0x0, symName: __ZNK6VSTGUI11CSliderBase17isStyleHorizontalEv, symObjAddr: 0x570, symBinAddr: 0x839F0, symSize: 0x10 }
  - { offset: 0x2FB102, size: 0x8, addend: 0x0, symName: __ZNK6VSTGUI11CSliderBase12isStyleRightEv, symObjAddr: 0x580, symBinAddr: 0x83A00, symSize: 0x20 }
  - { offset: 0x2FB142, size: 0x8, addend: 0x0, symName: __ZNK6VSTGUI11CSliderBase13isStyleBottomEv, symObjAddr: 0x5A0, symBinAddr: 0x83A20, symSize: 0x20 }
  - { offset: 0x2FB189, size: 0x8, addend: 0x0, symName: __ZNK6VSTGUI11CSliderBase14isInverseStyleEv, symObjAddr: 0x5C0, symBinAddr: 0x83A40, symSize: 0x20 }
  - { offset: 0x2FB1E6, size: 0x8, addend: 0x0, symName: __ZN6VSTGUI11CSliderBase13setZoomFactorEf, symObjAddr: 0x5E0, symBinAddr: 0x83A60, symSize: 0x10 }
  - { offset: 0x2FB23B, size: 0x8, addend: 0x0, symName: __ZNK6VSTGUI11CSliderBase13getZoomFactorEv, symObjAddr: 0x5F0, symBinAddr: 0x83A70, symSize: 0x10 }
  - { offset: 0x2FB282, size: 0x8, addend: 0x0, symName: __ZN6VSTGUI11CSliderBase13setSliderModeENS_11CSliderModeE, symObjAddr: 0x600, symBinAddr: 0x83A80, symSize: 0x10 }
  - { offset: 0x2FB2D7, size: 0x8, addend: 0x0, symName: __ZNK6VSTGUI11CSliderBase13getSliderModeEv, symObjAddr: 0x610, symBinAddr: 0x83A90, symSize: 0x10 }
  - { offset: 0x2FB31E, size: 0x8, addend: 0x0, symName: __ZNK6VSTGUI11CSliderBase22getEffectiveSliderModeEv, symObjAddr: 0x620, symBinAddr: 0x83AA0, symSize: 0x20 }
  - { offset: 0x2FB35E, size: 0x8, addend: 0x0, symName: __ZN6VSTGUI11CSliderBase13setGlobalModeENS_11CSliderModeE, symObjAddr: 0x640, symBinAddr: 0x83AC0, symSize: 0x40 }
  - { offset: 0x2FB393, size: 0x8, addend: 0x0, symName: __ZN6VSTGUI11CSliderBase13getGlobalModeEv, symObjAddr: 0x680, symBinAddr: 0x83B00, symSize: 0x10 }
  - { offset: 0x2FB3A9, size: 0x8, addend: 0x0, symName: __ZN6VSTGUI11CSliderBase11setViewSizeERKNS_5CRectEb, symObjAddr: 0x690, symBinAddr: 0x83B10, symSize: 0xD0 }
  - { offset: 0x2FB53B, size: 0x8, addend: 0x0, symName: __ZNK6VSTGUI11CSliderBase19calculateHandleRectEf, symObjAddr: 0x760, symBinAddr: 0x83BE0, symSize: 0x160 }
  - { offset: 0x2FB65B, size: 0x8, addend: 0x0, symName: __ZNK6VSTGUI11CSliderBase14calculateDeltaERKNS_6CPointEPNS_5CRectE, symObjAddr: 0x8C0, symBinAddr: 0x83D40, symSize: 0x190 }
  - { offset: 0x2FB868, size: 0x8, addend: 0x0, symName: __ZN6VSTGUI11CSliderBase9doRampingEv, symObjAddr: 0xA50, symBinAddr: 0x83ED0, symSize: 0x210 }
  - { offset: 0x2FBF46, size: 0x8, addend: 0x0, symName: __ZN6VSTGUI11CSliderBase13onMouseCancelEv, symObjAddr: 0xF10, symBinAddr: 0x84390, symSize: 0xA0 }
  - { offset: 0x2FC07C, size: 0x8, addend: 0x0, symName: __ZN6VSTGUI11CSliderBase9onMouseUpERNS_6CPointERKNS_12CButtonStateE, symObjAddr: 0xFB0, symBinAddr: 0x84430, symSize: 0x70 }
  - { offset: 0x2FC1E3, size: 0x8, addend: 0x0, symName: __ZN6VSTGUI11CSliderBase12onMouseMovedERNS_6CPointERKNS_12CButtonStateE, symObjAddr: 0x1020, symBinAddr: 0x844A0, symSize: 0x3F0 }
  - { offset: 0x2FC6A6, size: 0x8, addend: 0x0, symName: __ZN6VSTGUI11CSliderBase17onMouseWheelEventERNS_15MouseWheelEventE, symObjAddr: 0x1410, symBinAddr: 0x84890, symSize: 0x130 }
  - { offset: 0x2FC87C, size: 0x8, addend: 0x0, symName: __ZN6VSTGUI11CSliderBase15onKeyboardEventERNS_13KeyboardEventE, symObjAddr: 0x1540, symBinAddr: 0x849C0, symSize: 0x200 }
  - { offset: 0x2FCD31, size: 0x8, addend: 0x0, symName: __ZN6VSTGUI7CSliderC2ERKNS_5CRectEPNS_16IControlListenerEiiiPNS_7CBitmapES7_RKNS_6CPointEi, symObjAddr: 0x1740, symBinAddr: 0x84BC0, symSize: 0x1F0 }
  - { offset: 0x2FD130, size: 0x8, addend: 0x0, symName: __ZNSt3__110unique_ptrIN6VSTGUI7CSlider4ImplENS_14default_deleteIS3_EEED1B8ne180100Ev, symObjAddr: 0x1930, symBinAddr: 0x84DB0, symSize: 0x40 }
  - { offset: 0x2FD2E2, size: 0x8, addend: 0x0, symName: __ZN6VSTGUI7CSlider19setBackgroundOffsetERKNS_6CPointE, symObjAddr: 0x1970, symBinAddr: 0x84DF0, symSize: 0x10 }
  - { offset: 0x2FD34A, size: 0x8, addend: 0x0, symName: __ZN6VSTGUI7CSliderC1ERKNS_5CRectEPNS_16IControlListenerEiiiPNS_7CBitmapES7_RKNS_6CPointEi, symObjAddr: 0x1980, symBinAddr: 0x84E00, symSize: 0x1E0 }
  - { offset: 0x2FD75D, size: 0x8, addend: 0x0, symName: __ZN6VSTGUI7CSliderC2ERKNS_5CRectEPNS_16IControlListenerEiRKNS_6CPointEiPNS_7CBitmapESA_S8_i, symObjAddr: 0x1B60, symBinAddr: 0x84FE0, symSize: 0x1B0 }
  - { offset: 0x2FDBBD, size: 0x8, addend: 0x0, symName: __ZN6VSTGUI7CSliderC1ERKNS_5CRectEPNS_16IControlListenerEiRKNS_6CPointEiPNS_7CBitmapESA_S8_i, symObjAddr: 0x1D10, symBinAddr: 0x85190, symSize: 0x1B0 }
  - { offset: 0x2FE0C3, size: 0x8, addend: 0x0, symName: __ZN6VSTGUI7CSliderC2ERKS0_, symObjAddr: 0x1EC0, symBinAddr: 0x85340, symSize: 0x120 }
  - { offset: 0x2FE454, size: 0x8, addend: 0x0, symName: __ZN6VSTGUI7CSliderC1ERKS0_, symObjAddr: 0x1FE0, symBinAddr: 0x85460, symSize: 0x110 }
  - { offset: 0x2FE801, size: 0x8, addend: 0x0, symName: __ZN6VSTGUI7CSliderD2Ev, symObjAddr: 0x20F0, symBinAddr: 0x85570, symSize: 0x80 }
  - { offset: 0x2FE94A, size: 0x8, addend: 0x0, symName: __ZN6VSTGUI7CSliderD1Ev, symObjAddr: 0x2170, symBinAddr: 0x855F0, symSize: 0x70 }
  - { offset: 0x2FEA9A, size: 0x8, addend: 0x0, symName: __ZThn24_N6VSTGUI7CSliderD1Ev, symObjAddr: 0x21E0, symBinAddr: 0x85660, symSize: 0x70 }
  - { offset: 0x2FEBD2, size: 0x8, addend: 0x0, symName: __ZN6VSTGUI7CSliderD0Ev, symObjAddr: 0x2250, symBinAddr: 0x856D0, symSize: 0x70 }
  - { offset: 0x2FED39, size: 0x8, addend: 0x0, symName: __ZThn24_N6VSTGUI7CSliderD0Ev, symObjAddr: 0x22C0, symBinAddr: 0x85740, symSize: 0x70 }
  - { offset: 0x2FEE8F, size: 0x8, addend: 0x0, symName: __ZN6VSTGUI7CSlider9setOffsetERKNS_6CPointE, symObjAddr: 0x2330, symBinAddr: 0x857B0, symSize: 0x10 }
  - { offset: 0x2FEF28, size: 0x8, addend: 0x0, symName: __ZNK6VSTGUI7CSlider9getOffsetEv, symObjAddr: 0x2340, symBinAddr: 0x857C0, symSize: 0x20 }
  - { offset: 0x2FEF8D, size: 0x8, addend: 0x0, symName: __ZNK6VSTGUI7CSlider19getBackgroundOffsetEv, symObjAddr: 0x2360, symBinAddr: 0x857E0, symSize: 0x20 }
  - { offset: 0x2FF011, size: 0x8, addend: 0x0, symName: __ZN6VSTGUI7CSlider9sizeToFitEv, symObjAddr: 0x2380, symBinAddr: 0x85800, symSize: 0xB0 }
  - { offset: 0x2FF269, size: 0x8, addend: 0x0, symName: __ZN6VSTGUI7CSlider4drawEPNS_12CDrawContextE, symObjAddr: 0x2430, symBinAddr: 0x858B0, symSize: 0x610 }
  - { offset: 0x2FFAF9, size: 0x8, addend: 0x0, symName: __ZNK6VSTGUI7CSlider13getFrameWidthEv, symObjAddr: 0x2A40, symBinAddr: 0x85EC0, symSize: 0x10 }
  - { offset: 0x2FFBA1, size: 0x8, addend: 0x0, symName: __ZN6VSTGUI7CSlider9setHandleEPNS_7CBitmapE, symObjAddr: 0x2A50, symBinAddr: 0x85ED0, symSize: 0x120 }
  - { offset: 0x2FFDC2, size: 0x8, addend: 0x0, symName: __ZNK6VSTGUI7CSlider9getHandleEv, symObjAddr: 0x2B70, symBinAddr: 0x85FF0, symSize: 0x10 }
  - { offset: 0x2FFE29, size: 0x8, addend: 0x0, symName: __ZN6VSTGUI7CSlider12setDrawStyleEi, symObjAddr: 0x2B80, symBinAddr: 0x86000, symSize: 0x20 }
  - { offset: 0x2FFE8C, size: 0x8, addend: 0x0, symName: __ZN6VSTGUI7CSlider13setFrameWidthEd, symObjAddr: 0x2BA0, symBinAddr: 0x86020, symSize: 0x20 }
  - { offset: 0x2FFF36, size: 0x8, addend: 0x0, symName: __ZN6VSTGUI7CSlider13setFrameColorENS_6CColorE, symObjAddr: 0x2BC0, symBinAddr: 0x86040, symSize: 0x50 }
  - { offset: 0x2FFFD6, size: 0x8, addend: 0x0, symName: __ZN6VSTGUI7CSlider12setBackColorENS_6CColorE, symObjAddr: 0x2C10, symBinAddr: 0x86090, symSize: 0x50 }
  - { offset: 0x300076, size: 0x8, addend: 0x0, symName: __ZN6VSTGUI7CSlider13setValueColorENS_6CColorE, symObjAddr: 0x2C60, symBinAddr: 0x860E0, symSize: 0x50 }
  - { offset: 0x300116, size: 0x8, addend: 0x0, symName: __ZNK6VSTGUI7CSlider12getDrawStyleEv, symObjAddr: 0x2CB0, symBinAddr: 0x86130, symSize: 0x10 }
  - { offset: 0x30015E, size: 0x8, addend: 0x0, symName: __ZNK6VSTGUI7CSlider13getFrameColorEv, symObjAddr: 0x2CC0, symBinAddr: 0x86140, symSize: 0x20 }
  - { offset: 0x3001F2, size: 0x8, addend: 0x0, symName: __ZNK6VSTGUI7CSlider12getBackColorEv, symObjAddr: 0x2CE0, symBinAddr: 0x86160, symSize: 0x20 }
  - { offset: 0x300286, size: 0x8, addend: 0x0, symName: __ZNK6VSTGUI7CSlider13getValueColorEv, symObjAddr: 0x2D00, symBinAddr: 0x86180, symSize: 0x20 }
  - { offset: 0x30032A, size: 0x8, addend: 0x0, symName: __ZN6VSTGUI15CVerticalSliderC2ERKNS_5CRectEPNS_16IControlListenerEiiiPNS_7CBitmapES7_RKNS_6CPointEi, symObjAddr: 0x2D20, symBinAddr: 0x861A0, symSize: 0x70 }
  - { offset: 0x30042A, size: 0x8, addend: 0x0, symName: __ZN6VSTGUI15CVerticalSliderC1ERKNS_5CRectEPNS_16IControlListenerEiiiPNS_7CBitmapES7_RKNS_6CPointEi, symObjAddr: 0x2D90, symBinAddr: 0x86210, symSize: 0x70 }
  - { offset: 0x30053A, size: 0x8, addend: 0x0, symName: __ZN6VSTGUI15CVerticalSliderC2ERKNS_5CRectEPNS_16IControlListenerEiRKNS_6CPointEiPNS_7CBitmapESA_S8_i, symObjAddr: 0x2E00, symBinAddr: 0x86280, symSize: 0x70 }
  - { offset: 0x30063A, size: 0x8, addend: 0x0, symName: __ZN6VSTGUI15CVerticalSliderC1ERKNS_5CRectEPNS_16IControlListenerEiRKNS_6CPointEiPNS_7CBitmapESA_S8_i, symObjAddr: 0x2E70, symBinAddr: 0x862F0, symSize: 0x70 }
  - { offset: 0x30075A, size: 0x8, addend: 0x0, symName: __ZN6VSTGUI17CHorizontalSliderC2ERKNS_5CRectEPNS_16IControlListenerEiiiPNS_7CBitmapES7_RKNS_6CPointEi, symObjAddr: 0x2EE0, symBinAddr: 0x86360, symSize: 0x70 }
  - { offset: 0x30085A, size: 0x8, addend: 0x0, symName: __ZN6VSTGUI17CHorizontalSliderC1ERKNS_5CRectEPNS_16IControlListenerEiiiPNS_7CBitmapES7_RKNS_6CPointEi, symObjAddr: 0x2F50, symBinAddr: 0x863D0, symSize: 0x70 }
  - { offset: 0x30096A, size: 0x8, addend: 0x0, symName: __ZN6VSTGUI17CHorizontalSliderC2ERKNS_5CRectEPNS_16IControlListenerEiRKNS_6CPointEiPNS_7CBitmapESA_S8_i, symObjAddr: 0x2FC0, symBinAddr: 0x86440, symSize: 0x70 }
  - { offset: 0x300A6A, size: 0x8, addend: 0x0, symName: __ZN6VSTGUI17CHorizontalSliderC1ERKNS_5CRectEPNS_16IControlListenerEiRKNS_6CPointEiPNS_7CBitmapESA_S8_i, symObjAddr: 0x3030, symBinAddr: 0x864B0, symSize: 0x70 }
  - { offset: 0x300B7A, size: 0x8, addend: 0x0, symName: __ZNK6VSTGUI7CSlider7newCopyEv, symObjAddr: 0x3330, symBinAddr: 0x86520, symSize: 0x40 }
  - { offset: 0x300BE0, size: 0x8, addend: 0x0, symName: __ZN6VSTGUI15CVerticalSliderD1Ev, symObjAddr: 0x3370, symBinAddr: 0x86560, symSize: 0x70 }
  - { offset: 0x300D4E, size: 0x8, addend: 0x0, symName: __ZN6VSTGUI15CVerticalSliderD0Ev, symObjAddr: 0x33E0, symBinAddr: 0x865D0, symSize: 0x70 }
  - { offset: 0x300EAD, size: 0x8, addend: 0x0, symName: __ZThn24_N6VSTGUI15CVerticalSliderD1Ev, symObjAddr: 0x3450, symBinAddr: 0x86640, symSize: 0x70 }
  - { offset: 0x301016, size: 0x8, addend: 0x0, symName: __ZThn24_N6VSTGUI15CVerticalSliderD0Ev, symObjAddr: 0x34C0, symBinAddr: 0x866B0, symSize: 0x70 }
  - { offset: 0x3011AB, size: 0x8, addend: 0x0, symName: __ZN6VSTGUI17CHorizontalSliderD1Ev, symObjAddr: 0x3530, symBinAddr: 0x86720, symSize: 0x70 }
  - { offset: 0x301319, size: 0x8, addend: 0x0, symName: __ZN6VSTGUI17CHorizontalSliderD0Ev, symObjAddr: 0x35A0, symBinAddr: 0x86790, symSize: 0x70 }
  - { offset: 0x301478, size: 0x8, addend: 0x0, symName: __ZThn24_N6VSTGUI17CHorizontalSliderD1Ev, symObjAddr: 0x3610, symBinAddr: 0x86800, symSize: 0x70 }
  - { offset: 0x3015E1, size: 0x8, addend: 0x0, symName: __ZThn24_N6VSTGUI17CHorizontalSliderD0Ev, symObjAddr: 0x3680, symBinAddr: 0x86870, symSize: 0x70 }
  - { offset: 0x30174B, size: 0x8, addend: 0x0, symName: '__ZNSt3__110__function6__funcIZN6VSTGUI11CSliderBase11onMouseDownERNS2_6CPointERKNS2_12CButtonStateEE3$_0NS_9allocatorIS9_EEFvPNS2_12CVSTGUITimerEEED1Ev', symObjAddr: 0x3700, symBinAddr: 0x868E0, symSize: 0x10 }
  - { offset: 0x301774, size: 0x8, addend: 0x0, symName: '__ZNSt3__110__function6__funcIZN6VSTGUI11CSliderBase11onMouseDownERNS2_6CPointERKNS2_12CButtonStateEE3$_0NS_9allocatorIS9_EEFvPNS2_12CVSTGUITimerEEED0Ev', symObjAddr: 0x3710, symBinAddr: 0x868F0, symSize: 0x10 }
  - { offset: 0x301987, size: 0x8, addend: 0x0, symName: '__ZNKSt3__110__function6__funcIZN6VSTGUI11CSliderBase11onMouseDownERNS2_6CPointERKNS2_12CButtonStateEE3$_0NS_9allocatorIS9_EEFvPNS2_12CVSTGUITimerEEE7__cloneEv', symObjAddr: 0x3720, symBinAddr: 0x86900, symSize: 0x30 }
  - { offset: 0x301C76, size: 0x8, addend: 0x0, symName: '__ZNKSt3__110__function6__funcIZN6VSTGUI11CSliderBase11onMouseDownERNS2_6CPointERKNS2_12CButtonStateEE3$_0NS_9allocatorIS9_EEFvPNS2_12CVSTGUITimerEEE7__cloneEPNS0_6__baseISE_EE', symObjAddr: 0x3750, symBinAddr: 0x86930, symSize: 0x20 }
  - { offset: 0x301D81, size: 0x8, addend: 0x0, symName: '__ZNSt3__110__function6__funcIZN6VSTGUI11CSliderBase11onMouseDownERNS2_6CPointERKNS2_12CButtonStateEE3$_0NS_9allocatorIS9_EEFvPNS2_12CVSTGUITimerEEE7destroyEv', symObjAddr: 0x3770, symBinAddr: 0x86950, symSize: 0x10 }
  - { offset: 0x301DD2, size: 0x8, addend: 0x0, symName: '__ZNSt3__110__function6__funcIZN6VSTGUI11CSliderBase11onMouseDownERNS2_6CPointERKNS2_12CButtonStateEE3$_0NS_9allocatorIS9_EEFvPNS2_12CVSTGUITimerEEE18destroy_deallocateEv', symObjAddr: 0x3780, symBinAddr: 0x86960, symSize: 0x10 }
  - { offset: 0x301F21, size: 0x8, addend: 0x0, symName: '__ZNSt3__110__function6__funcIZN6VSTGUI11CSliderBase11onMouseDownERNS2_6CPointERKNS2_12CButtonStateEE3$_0NS_9allocatorIS9_EEFvPNS2_12CVSTGUITimerEEEclEOSD_', symObjAddr: 0x3790, symBinAddr: 0x86970, symSize: 0x10 }
  - { offset: 0x302001, size: 0x8, addend: 0x0, symName: '__ZNKSt3__110__function6__funcIZN6VSTGUI11CSliderBase11onMouseDownERNS2_6CPointERKNS2_12CButtonStateEE3$_0NS_9allocatorIS9_EEFvPNS2_12CVSTGUITimerEEE6targetERKSt9type_info', symObjAddr: 0x37A0, symBinAddr: 0x86980, symSize: 0x20 }
  - { offset: 0x302073, size: 0x8, addend: 0x0, symName: '__ZNKSt3__110__function6__funcIZN6VSTGUI11CSliderBase11onMouseDownERNS2_6CPointERKNS2_12CButtonStateEE3$_0NS_9allocatorIS9_EEFvPNS2_12CVSTGUITimerEEE11target_typeEv', symObjAddr: 0x37C0, symBinAddr: 0x869A0, symSize: 0xD }
  - { offset: 0x30E6E2, size: 0x8, addend: 0x0, symName: __ZN6VSTGUI22CAnimationSplashScreen15createAnimationEjjPNS_5CViewEb, symObjAddr: 0xFB0, symBinAddr: 0x87950, symSize: 0x200 }
  - { offset: 0x30EDC2, size: 0x8, addend: 0x0, symName: __ZN6VSTGUI13CSplashScreenC2ERKNS_5CRectEPNS_16IControlListenerEiPNS_7CBitmapES3_RKNS_6CPointE, symObjAddr: 0x0, symBinAddr: 0x869B0, symSize: 0x160 }
  - { offset: 0x30EF88, size: 0x8, addend: 0x0, symName: __ZN6VSTGUI13CSplashScreenC1ERKNS_5CRectEPNS_16IControlListenerEiPNS_7CBitmapES3_RKNS_6CPointE, symObjAddr: 0x160, symBinAddr: 0x86B10, symSize: 0x150 }
  - { offset: 0x30F140, size: 0x8, addend: 0x0, symName: __ZN6VSTGUI13CSplashScreenC2ERKNS_5CRectEPNS_16IControlListenerEiPNS_5CViewE, symObjAddr: 0x2B0, symBinAddr: 0x86C60, symSize: 0xA0 }
  - { offset: 0x30F29A, size: 0x8, addend: 0x0, symName: __ZN6VSTGUI13CSplashScreenC1ERKNS_5CRectEPNS_16IControlListenerEiPNS_5CViewE, symObjAddr: 0x350, symBinAddr: 0x86D00, symSize: 0x90 }
  - { offset: 0x30F3E4, size: 0x8, addend: 0x0, symName: __ZN6VSTGUI13CSplashScreenC2ERKS0_, symObjAddr: 0x3E0, symBinAddr: 0x86D90, symSize: 0xE0 }
  - { offset: 0x30F4D9, size: 0x8, addend: 0x0, symName: __ZN6VSTGUI13CSplashScreenC1ERKS0_, symObjAddr: 0x4C0, symBinAddr: 0x86E70, symSize: 0xD0 }
  - { offset: 0x30F5AC, size: 0x8, addend: 0x0, symName: __ZN6VSTGUI13CSplashScreenD2Ev, symObjAddr: 0x590, symBinAddr: 0x86F40, symSize: 0x70 }
  - { offset: 0x30F612, size: 0x8, addend: 0x0, symName: __ZN6VSTGUI13CSplashScreenD1Ev, symObjAddr: 0x610, symBinAddr: 0x86FB0, symSize: 0x60 }
  - { offset: 0x30F67A, size: 0x8, addend: 0x0, symName: __ZThn24_N6VSTGUI13CSplashScreenD1Ev, symObjAddr: 0x670, symBinAddr: 0x87010, symSize: 0x60 }
  - { offset: 0x30F6C9, size: 0x8, addend: 0x0, symName: __ZThn56_N6VSTGUI13CSplashScreenD1Ev, symObjAddr: 0x6D0, symBinAddr: 0x87070, symSize: 0x60 }
  - { offset: 0x30F718, size: 0x8, addend: 0x0, symName: __ZN6VSTGUI13CSplashScreenD0Ev, symObjAddr: 0x730, symBinAddr: 0x870D0, symSize: 0x60 }
  - { offset: 0x30F78F, size: 0x8, addend: 0x0, symName: __ZThn24_N6VSTGUI13CSplashScreenD0Ev, symObjAddr: 0x790, symBinAddr: 0x87130, symSize: 0x60 }
  - { offset: 0x30F7F5, size: 0x8, addend: 0x0, symName: __ZThn56_N6VSTGUI13CSplashScreenD0Ev, symObjAddr: 0x7F0, symBinAddr: 0x87190, symSize: 0x60 }
  - { offset: 0x30F85B, size: 0x8, addend: 0x0, symName: __ZN6VSTGUI13CSplashScreen4drawEPNS_12CDrawContextE, symObjAddr: 0x850, symBinAddr: 0x871F0, symSize: 0x10 }
  - { offset: 0x30F8C1, size: 0x8, addend: 0x0, symName: __ZN6VSTGUI13CSplashScreen7hitTestERKNS_6CPointERKNS_5EventE, symObjAddr: 0x860, symBinAddr: 0x87200, symSize: 0x40 }
  - { offset: 0x30F9CC, size: 0x8, addend: 0x0, symName: __ZN6VSTGUI13CSplashScreen11onMouseDownERNS_6CPointERKNS_12CButtonStateE, symObjAddr: 0x8A0, symBinAddr: 0x87240, symSize: 0xE0 }
  - { offset: 0x30FACD, size: 0x8, addend: 0x0, symName: __ZN6VSTGUI13CSplashScreen12valueChangedEPNS_8CControlE, symObjAddr: 0x980, symBinAddr: 0x87320, symSize: 0x30 }
  - { offset: 0x30FB26, size: 0x8, addend: 0x0, symName: __ZThn56_N6VSTGUI13CSplashScreen12valueChangedEPNS_8CControlE, symObjAddr: 0x9B0, symBinAddr: 0x87350, symSize: 0x40 }
  - { offset: 0x30FB6F, size: 0x8, addend: 0x0, symName: __ZN6VSTGUI13CSplashScreen8unSplashEv, symObjAddr: 0x9F0, symBinAddr: 0x87390, symSize: 0x70 }
  - { offset: 0x30FD0B, size: 0x8, addend: 0x0, symName: __ZN6VSTGUI22CAnimationSplashScreenC2ERKNS_5CRectEiPNS_7CBitmapES5_, symObjAddr: 0xA60, symBinAddr: 0x87400, symSize: 0xC0 }
  - { offset: 0x30FE9B, size: 0x8, addend: 0x0, symName: __ZN6VSTGUI22CAnimationSplashScreenC1ERKNS_5CRectEiPNS_7CBitmapES5_, symObjAddr: 0xB20, symBinAddr: 0x874C0, symSize: 0xC0 }
  - { offset: 0x31002C, size: 0x8, addend: 0x0, symName: __ZN6VSTGUI22CAnimationSplashScreen15setSplashBitmapEPNS_7CBitmapE, symObjAddr: 0xBE0, symBinAddr: 0x87580, symSize: 0x20 }
  - { offset: 0x31006F, size: 0x8, addend: 0x0, symName: __ZNK6VSTGUI22CAnimationSplashScreen15getSplashBitmapEv, symObjAddr: 0xC00, symBinAddr: 0x875A0, symSize: 0x20 }
  - { offset: 0x310098, size: 0x8, addend: 0x0, symName: __ZN6VSTGUI22CAnimationSplashScreen13setSplashRectERKNS_5CRectE, symObjAddr: 0xC20, symBinAddr: 0x875C0, symSize: 0x50 }
  - { offset: 0x3100EF, size: 0x8, addend: 0x0, symName: __ZNK6VSTGUI22CAnimationSplashScreen13getSplashRectEv, symObjAddr: 0xC70, symBinAddr: 0x87610, symSize: 0x20 }
  - { offset: 0x310118, size: 0x8, addend: 0x0, symName: __ZN6VSTGUI22CAnimationSplashScreen11onMouseDownERNS_6CPointERKNS_12CButtonStateE, symObjAddr: 0xC90, symBinAddr: 0x87630, symSize: 0x70 }
  - { offset: 0x3101B3, size: 0x8, addend: 0x0, symName: __ZN6VSTGUI22CAnimationSplashScreen8unSplashEv, symObjAddr: 0xD00, symBinAddr: 0x876A0, symSize: 0xC0 }
  - { offset: 0x310293, size: 0x8, addend: 0x0, symName: __ZN6VSTGUI22CAnimationSplashScreen4drawEPNS_12CDrawContextE, symObjAddr: 0xDC0, symBinAddr: 0x87760, symSize: 0x30 }
  - { offset: 0x3103CD, size: 0x8, addend: 0x0, symName: __ZN6VSTGUI22CAnimationSplashScreen9sizeToFitEv, symObjAddr: 0xDF0, symBinAddr: 0x87790, symSize: 0x1C0 }
  - { offset: 0x310A02, size: 0x8, addend: 0x0, symName: __ZNK6VSTGUI13CSplashScreen7newCopyEv, symObjAddr: 0x1440, symBinAddr: 0x87B50, symSize: 0x100 }
  - { offset: 0x310AF1, size: 0x8, addend: 0x0, symName: __ZN6VSTGUI13CSplashScreen14setDisplayAreaERKNS_5CRectE, symObjAddr: 0x1540, symBinAddr: 0x87C50, symSize: 0x20 }
  - { offset: 0x310B24, size: 0x8, addend: 0x0, symName: __ZNK6VSTGUI13CSplashScreen14getDisplayAreaERNS_5CRectE, symObjAddr: 0x1560, symBinAddr: 0x87C70, symSize: 0x20 }
  - { offset: 0x310B7D, size: 0x8, addend: 0x0, symName: __ZN6VSTGUI22CAnimationSplashScreenD1Ev, symObjAddr: 0x15D0, symBinAddr: 0x87C90, symSize: 0x60 }
  - { offset: 0x310C02, size: 0x8, addend: 0x0, symName: __ZN6VSTGUI22CAnimationSplashScreenD0Ev, symObjAddr: 0x1630, symBinAddr: 0x87CF0, symSize: 0x60 }
  - { offset: 0x310C74, size: 0x8, addend: 0x0, symName: __ZN6VSTGUI22CAnimationSplashScreen17setAnimationIndexEj, symObjAddr: 0x1690, symBinAddr: 0x87D50, symSize: 0x10 }
  - { offset: 0x310CA7, size: 0x8, addend: 0x0, symName: __ZN6VSTGUI22CAnimationSplashScreen16setAnimationTimeEj, symObjAddr: 0x16A0, symBinAddr: 0x87D60, symSize: 0x10 }
  - { offset: 0x310CDA, size: 0x8, addend: 0x0, symName: __ZThn24_N6VSTGUI22CAnimationSplashScreenD1Ev, symObjAddr: 0x16B0, symBinAddr: 0x87D70, symSize: 0x60 }
  - { offset: 0x310D5A, size: 0x8, addend: 0x0, symName: __ZThn24_N6VSTGUI22CAnimationSplashScreenD0Ev, symObjAddr: 0x1710, symBinAddr: 0x87DD0, symSize: 0x60 }
  - { offset: 0x310DD7, size: 0x8, addend: 0x0, symName: __ZThn56_N6VSTGUI22CAnimationSplashScreenD1Ev, symObjAddr: 0x1770, symBinAddr: 0x87E30, symSize: 0x60 }
  - { offset: 0x310E3D, size: 0x8, addend: 0x0, symName: __ZThn56_N6VSTGUI22CAnimationSplashScreenD0Ev, symObjAddr: 0x17D0, symBinAddr: 0x87E90, symSize: 0x60 }
  - { offset: 0x310EBA, size: 0x8, addend: 0x0, symName: __ZN6VSTGUI16IControlListenerD1Ev, symObjAddr: 0x1830, symBinAddr: 0x177150, symSize: 0x10 }
  - { offset: 0x310EE3, size: 0x8, addend: 0x0, symName: __ZN6VSTGUI16IControlListenerD0Ev, symObjAddr: 0x1840, symBinAddr: 0x177160, symSize: 0x10 }
  - { offset: 0x310F32, size: 0x8, addend: 0x0, symName: __ZN6VSTGUI24CDefaultSplashScreenViewD1Ev, symObjAddr: 0x1850, symBinAddr: 0x87EF0, symSize: 0x20 }
  - { offset: 0x310F8B, size: 0x8, addend: 0x0, symName: __ZN6VSTGUI24CDefaultSplashScreenViewD0Ev, symObjAddr: 0x1870, symBinAddr: 0x87F10, symSize: 0x30 }
  - { offset: 0x31103A, size: 0x8, addend: 0x0, symName: __ZNK6VSTGUI24CDefaultSplashScreenView7newCopyEv, symObjAddr: 0x18A0, symBinAddr: 0x87F40, symSize: 0x70 }
  - { offset: 0x3110A2, size: 0x8, addend: 0x0, symName: __ZN6VSTGUI24CDefaultSplashScreenView4drawEPNS_12CDrawContextE, symObjAddr: 0x1910, symBinAddr: 0x87FB0, symSize: 0x70 }
  - { offset: 0x31113B, size: 0x8, addend: 0x0, symName: __ZN6VSTGUI24CDefaultSplashScreenView11onMouseDownERNS_6CPointERKNS_12CButtonStateE, symObjAddr: 0x1980, symBinAddr: 0x88020, symSize: 0x30 }
  - { offset: 0x3111C7, size: 0x8, addend: 0x0, symName: __ZThn24_N6VSTGUI24CDefaultSplashScreenViewD1Ev, symObjAddr: 0x19B0, symBinAddr: 0x88050, symSize: 0x20 }
  - { offset: 0x311233, size: 0x8, addend: 0x0, symName: __ZThn24_N6VSTGUI24CDefaultSplashScreenViewD0Ev, symObjAddr: 0x19D0, symBinAddr: 0x88070, symSize: 0x30 }
  - { offset: 0x3112A2, size: 0x8, addend: 0x0, symName: '__ZNSt3__110__function6__funcIZN6VSTGUI22CAnimationSplashScreen15createAnimationEjjPNS2_5CViewEbE3$_0NS_9allocatorIS6_EEFvS5_PKcPNS2_9Animation16IAnimationTargetEEED1Ev', symObjAddr: 0x1A00, symBinAddr: 0x880A0, symSize: 0x10 }
  - { offset: 0x3112CB, size: 0x8, addend: 0x0, symName: '__ZNSt3__110__function6__funcIZN6VSTGUI22CAnimationSplashScreen15createAnimationEjjPNS2_5CViewEbE3$_0NS_9allocatorIS6_EEFvS5_PKcPNS2_9Animation16IAnimationTargetEEED0Ev', symObjAddr: 0x1A10, symBinAddr: 0x880B0, symSize: 0x10 }
  - { offset: 0x3114DE, size: 0x8, addend: 0x0, symName: '__ZNKSt3__110__function6__funcIZN6VSTGUI22CAnimationSplashScreen15createAnimationEjjPNS2_5CViewEbE3$_0NS_9allocatorIS6_EEFvS5_PKcPNS2_9Animation16IAnimationTargetEEE7__cloneEv', symObjAddr: 0x1A20, symBinAddr: 0x880C0, symSize: 0x30 }
  - { offset: 0x3117CD, size: 0x8, addend: 0x0, symName: '__ZNKSt3__110__function6__funcIZN6VSTGUI22CAnimationSplashScreen15createAnimationEjjPNS2_5CViewEbE3$_0NS_9allocatorIS6_EEFvS5_PKcPNS2_9Animation16IAnimationTargetEEE7__cloneEPNS0_6__baseISE_EE', symObjAddr: 0x1A50, symBinAddr: 0x880F0, symSize: 0x20 }
  - { offset: 0x3118D8, size: 0x8, addend: 0x0, symName: '__ZNSt3__110__function6__funcIZN6VSTGUI22CAnimationSplashScreen15createAnimationEjjPNS2_5CViewEbE3$_0NS_9allocatorIS6_EEFvS5_PKcPNS2_9Animation16IAnimationTargetEEE7destroyEv', symObjAddr: 0x1A70, symBinAddr: 0x88110, symSize: 0x10 }
  - { offset: 0x311929, size: 0x8, addend: 0x0, symName: '__ZNSt3__110__function6__funcIZN6VSTGUI22CAnimationSplashScreen15createAnimationEjjPNS2_5CViewEbE3$_0NS_9allocatorIS6_EEFvS5_PKcPNS2_9Animation16IAnimationTargetEEE18destroy_deallocateEv', symObjAddr: 0x1A80, symBinAddr: 0x88120, symSize: 0x10 }
  - { offset: 0x311AD7, size: 0x8, addend: 0x0, symName: '__ZNSt3__110__function6__funcIZN6VSTGUI22CAnimationSplashScreen15createAnimationEjjPNS2_5CViewEbE3$_0NS_9allocatorIS6_EEFvS5_PKcPNS2_9Animation16IAnimationTargetEEEclEOS5_OSA_OSD_', symObjAddr: 0x1A90, symBinAddr: 0x88130, symSize: 0x80 }
  - { offset: 0x311C58, size: 0x8, addend: 0x0, symName: '__ZNKSt3__110__function6__funcIZN6VSTGUI22CAnimationSplashScreen15createAnimationEjjPNS2_5CViewEbE3$_0NS_9allocatorIS6_EEFvS5_PKcPNS2_9Animation16IAnimationTargetEEE6targetERKSt9type_info', symObjAddr: 0x1B10, symBinAddr: 0x881B0, symSize: 0x20 }
  - { offset: 0x311CCA, size: 0x8, addend: 0x0, symName: '__ZNKSt3__110__function6__funcIZN6VSTGUI22CAnimationSplashScreen15createAnimationEjjPNS2_5CViewEbE3$_0NS_9allocatorIS6_EEFvS5_PKcPNS2_9Animation16IAnimationTargetEEE11target_typeEv', symObjAddr: 0x1B30, symBinAddr: 0x881D0, symSize: 0xD }
  - { offset: 0x31984A, size: 0x8, addend: 0x0, symName: __ZN6VSTGUI23StringListControlDrawerC2Ev, symObjAddr: 0x0, symBinAddr: 0x881E0, symSize: 0x160 }
  - { offset: 0x319C7B, size: 0x8, addend: 0x0, symName: __ZNSt3__110unique_ptrIN6VSTGUI23StringListControlDrawer4ImplENS_14default_deleteIS3_EEED1B8ne180100Ev, symObjAddr: 0x160, symBinAddr: 0x88340, symSize: 0x70 }
  - { offset: 0x319DE2, size: 0x8, addend: 0x0, symName: __ZN6VSTGUI23StringListControlDrawerC1Ev, symObjAddr: 0x1D0, symBinAddr: 0x883B0, symSize: 0x130 }
  - { offset: 0x31A1F0, size: 0x8, addend: 0x0, symName: __ZN6VSTGUI23StringListControlDrawerD2Ev, symObjAddr: 0x300, symBinAddr: 0x884E0, symSize: 0x80 }
  - { offset: 0x31A388, size: 0x8, addend: 0x0, symName: __ZN6VSTGUI23StringListControlDrawerD1Ev, symObjAddr: 0x380, symBinAddr: 0x88560, symSize: 0x80 }
  - { offset: 0x31A51F, size: 0x8, addend: 0x0, symName: __ZThn8_N6VSTGUI23StringListControlDrawerD1Ev, symObjAddr: 0x400, symBinAddr: 0x885E0, symSize: 0x80 }
  - { offset: 0x31A6A5, size: 0x8, addend: 0x0, symName: __ZN6VSTGUI23StringListControlDrawerD0Ev, symObjAddr: 0x480, symBinAddr: 0x88660, symSize: 0x80 }
  - { offset: 0x31A871, size: 0x8, addend: 0x0, symName: __ZThn8_N6VSTGUI23StringListControlDrawerD0Ev, symObjAddr: 0x500, symBinAddr: 0x886E0, symSize: 0x90 }
  - { offset: 0x31AAA6, size: 0x8, addend: 0x0, symName: __ZN6VSTGUI23StringListControlDrawer17setStringProviderEONSt3__18functionIFNS_13SharedPointerINS_15IPlatformStringEEEiEEE, symObjAddr: 0x590, symBinAddr: 0x88770, symSize: 0x90 }
  - { offset: 0x31AC5A, size: 0x8, addend: 0x0, symName: __ZN6VSTGUI23StringListControlDrawer17setStringProviderERKNSt3__18functionIFNS_13SharedPointerINS_15IPlatformStringEEEiEEE, symObjAddr: 0x620, symBinAddr: 0x88800, symSize: 0xB0 }
  - { offset: 0x31AE67, size: 0x8, addend: 0x0, symName: __ZNSt3__110__function12__value_funcIFN6VSTGUI13SharedPointerINS2_15IPlatformStringEEEiEE4swapB8ne180100ERS7_, symObjAddr: 0xCB0, symBinAddr: 0x88DE0, symSize: 0x13B }
  - { offset: 0x31AFBF, size: 0x8, addend: 0x0, symName: __ZN6VSTGUI23StringListControlDrawer7setFontEPNS_9CFontDescE, symObjAddr: 0x6D0, symBinAddr: 0x888B0, symSize: 0x40 }
  - { offset: 0x31B076, size: 0x8, addend: 0x0, symName: __ZN6VSTGUI23StringListControlDrawer12setFontColorENS_6CColorE, symObjAddr: 0x710, symBinAddr: 0x888F0, symSize: 0x10 }
  - { offset: 0x31B0F1, size: 0x8, addend: 0x0, symName: __ZN6VSTGUI23StringListControlDrawer20setSelectedFontColorENS_6CColorE, symObjAddr: 0x720, symBinAddr: 0x88900, symSize: 0x10 }
  - { offset: 0x31B16C, size: 0x8, addend: 0x0, symName: __ZN6VSTGUI23StringListControlDrawer12setBackColorENS_6CColorE, symObjAddr: 0x730, symBinAddr: 0x88910, symSize: 0x10 }
  - { offset: 0x31B1E8, size: 0x8, addend: 0x0, symName: __ZN6VSTGUI23StringListControlDrawer20setSelectedBackColorENS_6CColorE, symObjAddr: 0x740, symBinAddr: 0x88920, symSize: 0x10 }
  - { offset: 0x31B264, size: 0x8, addend: 0x0, symName: __ZN6VSTGUI23StringListControlDrawer13setHoverColorENS_6CColorE, symObjAddr: 0x750, symBinAddr: 0x88930, symSize: 0x10 }
  - { offset: 0x31B2E0, size: 0x8, addend: 0x0, symName: __ZN6VSTGUI23StringListControlDrawer12setLineColorENS_6CColorE, symObjAddr: 0x760, symBinAddr: 0x88940, symSize: 0x10 }
  - { offset: 0x31B35C, size: 0x8, addend: 0x0, symName: __ZN6VSTGUI23StringListControlDrawer12setLineWidthEd, symObjAddr: 0x770, symBinAddr: 0x88950, symSize: 0x10 }
  - { offset: 0x31B3B0, size: 0x8, addend: 0x0, symName: __ZN6VSTGUI23StringListControlDrawer12setTextInsetEd, symObjAddr: 0x780, symBinAddr: 0x88960, symSize: 0x10 }
  - { offset: 0x31B404, size: 0x8, addend: 0x0, symName: __ZN6VSTGUI23StringListControlDrawer12setTextAlignENS_13CHoriTxtAlignE, symObjAddr: 0x790, symBinAddr: 0x88970, symSize: 0x10 }
  - { offset: 0x31B473, size: 0x8, addend: 0x0, symName: __ZNK6VSTGUI23StringListControlDrawer7getFontEv, symObjAddr: 0x7A0, symBinAddr: 0x88980, symSize: 0x10 }
  - { offset: 0x31B4D8, size: 0x8, addend: 0x0, symName: __ZNK6VSTGUI23StringListControlDrawer12getFontColorEv, symObjAddr: 0x7B0, symBinAddr: 0x88990, symSize: 0x20 }
  - { offset: 0x31B56A, size: 0x8, addend: 0x0, symName: __ZNK6VSTGUI23StringListControlDrawer20getSelectedFontColorEv, symObjAddr: 0x7D0, symBinAddr: 0x889B0, symSize: 0x20 }
  - { offset: 0x31B5FC, size: 0x8, addend: 0x0, symName: __ZNK6VSTGUI23StringListControlDrawer12getBackColorEv, symObjAddr: 0x7F0, symBinAddr: 0x889D0, symSize: 0x20 }
  - { offset: 0x31B68E, size: 0x8, addend: 0x0, symName: __ZNK6VSTGUI23StringListControlDrawer20getSelectedBackColorEv, symObjAddr: 0x810, symBinAddr: 0x889F0, symSize: 0x20 }
  - { offset: 0x31B720, size: 0x8, addend: 0x0, symName: __ZNK6VSTGUI23StringListControlDrawer13getHoverColorEv, symObjAddr: 0x830, symBinAddr: 0x88A10, symSize: 0x20 }
  - { offset: 0x31B7B2, size: 0x8, addend: 0x0, symName: __ZNK6VSTGUI23StringListControlDrawer12getLineColorEv, symObjAddr: 0x850, symBinAddr: 0x88A30, symSize: 0x20 }
  - { offset: 0x31B844, size: 0x8, addend: 0x0, symName: __ZNK6VSTGUI23StringListControlDrawer12getLineWidthEv, symObjAddr: 0x870, symBinAddr: 0x88A50, symSize: 0x10 }
  - { offset: 0x31B88A, size: 0x8, addend: 0x0, symName: __ZNK6VSTGUI23StringListControlDrawer12getTextInsetEv, symObjAddr: 0x880, symBinAddr: 0x88A60, symSize: 0x10 }
  - { offset: 0x31B8D0, size: 0x8, addend: 0x0, symName: __ZNK6VSTGUI23StringListControlDrawer12getTextAlignEv, symObjAddr: 0x890, symBinAddr: 0x88A70, symSize: 0x10 }
  - { offset: 0x31B916, size: 0x8, addend: 0x0, symName: __ZN6VSTGUI23StringListControlDrawer14drawBackgroundEPNS_12CDrawContextENS_5CRectE, symObjAddr: 0x8A0, symBinAddr: 0x88A80, symSize: 0x40 }
  - { offset: 0x31BB36, size: 0x8, addend: 0x0, symName: __ZN6VSTGUI23StringListControlDrawer7drawRowEPNS_12CDrawContextENS_5CRectENS_18IListControlDrawer3RowE, symObjAddr: 0x8E0, symBinAddr: 0x88AC0, symSize: 0x200 }
  - { offset: 0x31BE39, size: 0x8, addend: 0x0, symName: __ZNK6VSTGUI23StringListControlDrawer9getStringEi, symObjAddr: 0xAE0, symBinAddr: 0x88CC0, symSize: 0xC0 }
  - { offset: 0x31C4B7, size: 0x8, addend: 0x0, symName: __ZN6VSTGUI18IListControlDrawerD1Ev, symObjAddr: 0xBA0, symBinAddr: 0x177170, symSize: 0x10 }
  - { offset: 0x31C4E0, size: 0x8, addend: 0x0, symName: __ZN6VSTGUI18IListControlDrawerD0Ev, symObjAddr: 0xBB0, symBinAddr: 0x177180, symSize: 0x10 }
  - { offset: 0x31C51F, size: 0x8, addend: 0x0, symName: __ZTv0_n24_N6VSTGUI16ReferenceCountedIiE6forgetEv, symObjAddr: 0xC40, symBinAddr: 0x88D80, symSize: 0x40 }
  - { offset: 0x31C582, size: 0x8, addend: 0x0, symName: __ZTv0_n32_N6VSTGUI16ReferenceCountedIiE8rememberEv, symObjAddr: 0xC80, symBinAddr: 0x88DC0, symSize: 0x20 }
  - { offset: 0x31E4A1, size: 0x8, addend: 0x0, symName: __ZN6VSTGUI11CSwitchBase25useLegacyIndexCalculationE, symObjAddr: 0x45AF0, symBinAddr: 0x1F4EF2, symSize: 0x0 }
  - { offset: 0x3256A1, size: 0x8, addend: 0x0, symName: __ZN6VSTGUI11CSwitchBaseC2ERKNS_5CRectEPNS_16IControlListenerEiPNS_7CBitmapE, symObjAddr: 0x0, symBinAddr: 0x88F20, symSize: 0xC0 }
  - { offset: 0x32579A, size: 0x8, addend: 0x0, symName: __ZN6VSTGUI11CSwitchBaseC2ERKNS_5CRectEPNS_16IControlListenerEiidiPNS_7CBitmapERKNS_6CPointE, symObjAddr: 0xC0, symBinAddr: 0x88FE0, symSize: 0x100 }
  - { offset: 0x32589C, size: 0x8, addend: 0x0, symName: __ZN6VSTGUI11CSwitchBaseC2ERKS0_, symObjAddr: 0x1C0, symBinAddr: 0x890E0, symSize: 0xE0 }
  - { offset: 0x3259D0, size: 0x8, addend: 0x0, symName: __ZNK6VSTGUI11CSwitchBase17normalizedToIndexEf, symObjAddr: 0x2A0, symBinAddr: 0x891C0, symSize: 0x150 }
  - { offset: 0x325B34, size: 0x8, addend: 0x0, symName: __ZNK6VSTGUI11CSwitchBase17indexToNormalizedEi, symObjAddr: 0x3F0, symBinAddr: 0x89310, symSize: 0xD0 }
  - { offset: 0x325CCE, size: 0x8, addend: 0x0, symName: __ZN6VSTGUI11CSwitchBase4drawEPNS_12CDrawContextE, symObjAddr: 0x4C0, symBinAddr: 0x893E0, symSize: 0x1B0 }
  - { offset: 0x325F5E, size: 0x8, addend: 0x0, symName: __ZN6VSTGUI11CSwitchBase9sizeToFitEv, symObjAddr: 0x670, symBinAddr: 0x89590, symSize: 0xD0 }
  - { offset: 0x32608B, size: 0x8, addend: 0x0, symName: __ZN6VSTGUI11CSwitchBase11onMouseDownERNS_6CPointERKNS_12CButtonStateE, symObjAddr: 0x740, symBinAddr: 0x89660, symSize: 0x80 }
  - { offset: 0x326111, size: 0x8, addend: 0x0, symName: __ZN6VSTGUI11CSwitchBase9onMouseUpERNS_6CPointERKNS_12CButtonStateE, symObjAddr: 0x7C0, symBinAddr: 0x896E0, symSize: 0x30 }
  - { offset: 0x326163, size: 0x8, addend: 0x0, symName: __ZN6VSTGUI11CSwitchBase13onMouseCancelEv, symObjAddr: 0x7F0, symBinAddr: 0x89710, symSize: 0x60 }
  - { offset: 0x3261D8, size: 0x8, addend: 0x0, symName: __ZN6VSTGUI11CSwitchBase12onMouseMovedERNS_6CPointERKNS_12CButtonStateE, symObjAddr: 0x850, symBinAddr: 0x89770, symSize: 0xD0 }
  - { offset: 0x3262D9, size: 0x8, addend: 0x0, symName: __ZN6VSTGUI11CSwitchBase16setInverseBitmapEb, symObjAddr: 0x920, symBinAddr: 0x89840, symSize: 0x20 }
  - { offset: 0x3263A4, size: 0x8, addend: 0x0, symName: __ZN6VSTGUI15CVerticalSwitchC2ERKNS_5CRectEPNS_16IControlListenerEiPNS_7CBitmapE, symObjAddr: 0x940, symBinAddr: 0x89860, symSize: 0x140 }
  - { offset: 0x326560, size: 0x8, addend: 0x0, symName: __ZN6VSTGUI15CVerticalSwitchC1ERKNS_5CRectEPNS_16IControlListenerEiPNS_7CBitmapE, symObjAddr: 0xA80, symBinAddr: 0x899A0, symSize: 0x120 }
  - { offset: 0x32676C, size: 0x8, addend: 0x0, symName: __ZN6VSTGUI15CVerticalSwitchC2ERKNS_5CRectEPNS_16IControlListenerEiidiPNS_7CBitmapERKNS_6CPointE, symObjAddr: 0xBA0, symBinAddr: 0x89AC0, symSize: 0x120 }
  - { offset: 0x32696D, size: 0x8, addend: 0x0, symName: __ZN6VSTGUI15CVerticalSwitchC1ERKNS_5CRectEPNS_16IControlListenerEiidiPNS_7CBitmapERKNS_6CPointE, symObjAddr: 0xCC0, symBinAddr: 0x89BE0, symSize: 0x120 }
  - { offset: 0x326BB0, size: 0x8, addend: 0x0, symName: __ZN6VSTGUI15CVerticalSwitchC2ERKS0_, symObjAddr: 0xDE0, symBinAddr: 0x89D00, symSize: 0x110 }
  - { offset: 0x326CE0, size: 0x8, addend: 0x0, symName: __ZN6VSTGUI15CVerticalSwitchC1ERKS0_, symObjAddr: 0xEF0, symBinAddr: 0x89E10, symSize: 0x100 }
  - { offset: 0x326EAC, size: 0x8, addend: 0x0, symName: __ZNK6VSTGUI15CVerticalSwitch13calculateCoefEv, symObjAddr: 0xFF0, symBinAddr: 0x89F10, symSize: 0xA0 }
  - { offset: 0x326F31, size: 0x8, addend: 0x0, symName: __ZNK6VSTGUI15CVerticalSwitch17calcNormFromPointERKNS_6CPointE, symObjAddr: 0x1090, symBinAddr: 0x89FB0, symSize: 0xE0 }
  - { offset: 0x326FEC, size: 0x8, addend: 0x0, symName: __ZN6VSTGUI15CVerticalSwitch15onKeyboardEventERNS_13KeyboardEventE, symObjAddr: 0x1170, symBinAddr: 0x8A090, symSize: 0x180 }
  - { offset: 0x3271E6, size: 0x8, addend: 0x0, symName: __ZN6VSTGUI17CHorizontalSwitchC2ERKNS_5CRectEPNS_16IControlListenerEiPNS_7CBitmapE, symObjAddr: 0x12F0, symBinAddr: 0x8A210, symSize: 0x140 }
  - { offset: 0x327386, size: 0x8, addend: 0x0, symName: __ZN6VSTGUI17CHorizontalSwitchC1ERKNS_5CRectEPNS_16IControlListenerEiPNS_7CBitmapE, symObjAddr: 0x1430, symBinAddr: 0x8A350, symSize: 0x120 }
  - { offset: 0x327519, size: 0x8, addend: 0x0, symName: __ZN6VSTGUI17CHorizontalSwitchC2ERKNS_5CRectEPNS_16IControlListenerEiidiPNS_7CBitmapERKNS_6CPointE, symObjAddr: 0x1550, symBinAddr: 0x8A470, symSize: 0x120 }
  - { offset: 0x3276CC, size: 0x8, addend: 0x0, symName: __ZN6VSTGUI17CHorizontalSwitchC1ERKNS_5CRectEPNS_16IControlListenerEiidiPNS_7CBitmapERKNS_6CPointE, symObjAddr: 0x1670, symBinAddr: 0x8A590, symSize: 0x120 }
  - { offset: 0x3278E8, size: 0x8, addend: 0x0, symName: __ZN6VSTGUI17CHorizontalSwitchC2ERKS0_, symObjAddr: 0x1790, symBinAddr: 0x8A6B0, symSize: 0x110 }
  - { offset: 0x327A18, size: 0x8, addend: 0x0, symName: __ZN6VSTGUI17CHorizontalSwitchC1ERKS0_, symObjAddr: 0x18A0, symBinAddr: 0x8A7C0, symSize: 0x100 }
  - { offset: 0x327BB8, size: 0x8, addend: 0x0, symName: __ZNK6VSTGUI17CHorizontalSwitch13calculateCoefEv, symObjAddr: 0x19A0, symBinAddr: 0x8A8C0, symSize: 0xA0 }
  - { offset: 0x327C3C, size: 0x8, addend: 0x0, symName: __ZNK6VSTGUI17CHorizontalSwitch17calcNormFromPointERKNS_6CPointE, symObjAddr: 0x1A40, symBinAddr: 0x8A960, symSize: 0xE0 }
  - { offset: 0x327CD1, size: 0x8, addend: 0x0, symName: __ZN6VSTGUI17CHorizontalSwitch15onKeyboardEventERNS_13KeyboardEventE, symObjAddr: 0x1B20, symBinAddr: 0x8AA40, symSize: 0x180 }
  - { offset: 0x327EC0, size: 0x8, addend: 0x0, symName: __ZN6VSTGUI13CRockerSwitchC2ERKNS_5CRectEPNS_16IControlListenerEiPNS_7CBitmapEi, symObjAddr: 0x1CA0, symBinAddr: 0x8ABC0, symSize: 0x180 }
  - { offset: 0x3280C4, size: 0x8, addend: 0x0, symName: __ZN6VSTGUI13CRockerSwitchC1ERKNS_5CRectEPNS_16IControlListenerEiPNS_7CBitmapEi, symObjAddr: 0x1E20, symBinAddr: 0x8AD40, symSize: 0x180 }
  - { offset: 0x328313, size: 0x8, addend: 0x0, symName: __ZN6VSTGUI13CRockerSwitchC2ERKNS_5CRectEPNS_16IControlListenerEiPNS_7CBitmapERKNS_6CPointEi, symObjAddr: 0x1FA0, symBinAddr: 0x8AEC0, symSize: 0x180 }
  - { offset: 0x3284C1, size: 0x8, addend: 0x0, symName: __ZN6VSTGUI13CRockerSwitchC1ERKNS_5CRectEPNS_16IControlListenerEiPNS_7CBitmapERKNS_6CPointEi, symObjAddr: 0x2120, symBinAddr: 0x8B040, symSize: 0x190 }
  - { offset: 0x3286E0, size: 0x8, addend: 0x0, symName: __ZN6VSTGUI13CRockerSwitchC2ERKNS_5CRectEPNS_16IControlListenerEidPNS_7CBitmapERKNS_6CPointEi, symObjAddr: 0x22B0, symBinAddr: 0x8B1D0, symSize: 0x170 }
  - { offset: 0x328882, size: 0x8, addend: 0x0, symName: __ZN6VSTGUI13CRockerSwitchC1ERKNS_5CRectEPNS_16IControlListenerEidPNS_7CBitmapERKNS_6CPointEi, symObjAddr: 0x2420, symBinAddr: 0x8B340, symSize: 0x170 }
  - { offset: 0x328AB6, size: 0x8, addend: 0x0, symName: __ZN6VSTGUI13CRockerSwitchC2ERKS0_, symObjAddr: 0x2590, symBinAddr: 0x8B4B0, symSize: 0xE0 }
  - { offset: 0x328BC4, size: 0x8, addend: 0x0, symName: __ZN6VSTGUI13CRockerSwitchC1ERKS0_, symObjAddr: 0x2670, symBinAddr: 0x8B590, symSize: 0xC0 }
  - { offset: 0x328CD0, size: 0x8, addend: 0x0, symName: __ZN6VSTGUI13CRockerSwitchD2Ev, symObjAddr: 0x2730, symBinAddr: 0x8B650, symSize: 0x80 }
  - { offset: 0x328D65, size: 0x8, addend: 0x0, symName: __ZN6VSTGUI13CRockerSwitchD1Ev, symObjAddr: 0x27F0, symBinAddr: 0x8B6D0, symSize: 0x70 }
  - { offset: 0x328E06, size: 0x8, addend: 0x0, symName: __ZThn24_N6VSTGUI13CRockerSwitchD1Ev, symObjAddr: 0x2860, symBinAddr: 0x8B740, symSize: 0x70 }
  - { offset: 0x328E8F, size: 0x8, addend: 0x0, symName: __ZThn64_N6VSTGUI13CRockerSwitchD1Ev, symObjAddr: 0x28D0, symBinAddr: 0x8B7B0, symSize: 0x70 }
  - { offset: 0x328F18, size: 0x8, addend: 0x0, symName: __ZN6VSTGUI13CRockerSwitchD0Ev, symObjAddr: 0x2940, symBinAddr: 0x8B820, symSize: 0x70 }
  - { offset: 0x328FCA, size: 0x8, addend: 0x0, symName: __ZThn24_N6VSTGUI13CRockerSwitchD0Ev, symObjAddr: 0x29B0, symBinAddr: 0x8B890, symSize: 0x80 }
  - { offset: 0x32906B, size: 0x8, addend: 0x0, symName: __ZThn64_N6VSTGUI13CRockerSwitchD0Ev, symObjAddr: 0x2A30, symBinAddr: 0x8B910, symSize: 0x80 }
  - { offset: 0x329153, size: 0x8, addend: 0x0, symName: __ZN6VSTGUI13CRockerSwitch4drawEPNS_12CDrawContextE, symObjAddr: 0x2AB0, symBinAddr: 0x8B990, symSize: 0x1C0 }
  - { offset: 0x32936B, size: 0x8, addend: 0x0, symName: __ZN6VSTGUI13CRockerSwitch11onMouseDownERNS_6CPointERKNS_12CButtonStateE, symObjAddr: 0x2C70, symBinAddr: 0x8BB50, symSize: 0x60 }
  - { offset: 0x3293CE, size: 0x8, addend: 0x0, symName: __ZN6VSTGUI13CRockerSwitch9onMouseUpERNS_6CPointERKNS_12CButtonStateE, symObjAddr: 0x2CD0, symBinAddr: 0x8BBB0, symSize: 0x90 }
  - { offset: 0x329482, size: 0x8, addend: 0x0, symName: __ZN6VSTGUI13CRockerSwitch13onMouseCancelEv, symObjAddr: 0x2D60, symBinAddr: 0x8BC40, symSize: 0x60 }
  - { offset: 0x3294F8, size: 0x8, addend: 0x0, symName: __ZN6VSTGUI13CRockerSwitch12onMouseMovedERNS_6CPointERKNS_12CButtonStateE, symObjAddr: 0x2DC0, symBinAddr: 0x8BCA0, symSize: 0x2A0 }
  - { offset: 0x329611, size: 0x8, addend: 0x0, symName: __ZN6VSTGUI13CRockerSwitch15onKeyboardEventERNS_13KeyboardEventE, symObjAddr: 0x3060, symBinAddr: 0x8BF40, symSize: 0x180 }
  - { offset: 0x329777, size: 0x8, addend: 0x0, symName: __ZN6VSTGUI13CRockerSwitch17onMouseWheelEventERNS_15MouseWheelEventE, symObjAddr: 0x31E0, symBinAddr: 0x8C0C0, symSize: 0xE0 }
  - { offset: 0x329841, size: 0x8, addend: 0x0, symName: __ZN6VSTGUI13CRockerSwitch6notifyEPNS_11CBaseObjectEPKc, symObjAddr: 0x32C0, symBinAddr: 0x8C1A0, symSize: 0xF0 }
  - { offset: 0x32997A, size: 0x8, addend: 0x0, symName: __ZN6VSTGUI13CRockerSwitch9sizeToFitEv, symObjAddr: 0x33B0, symBinAddr: 0x8C290, symSize: 0xD0 }
  - { offset: 0x329AAA, size: 0x8, addend: 0x0, symName: __ZN6VSTGUI11CSwitchBaseD1Ev, symObjAddr: 0x36E0, symBinAddr: 0x177190, symSize: 0x10 }
  - { offset: 0x329ACA, size: 0x8, addend: 0x0, symName: __ZN6VSTGUI11CSwitchBaseD0Ev, symObjAddr: 0x36F0, symBinAddr: 0x1771A0, symSize: 0x10 }
  - { offset: 0x329AEA, size: 0x8, addend: 0x0, symName: __ZN6VSTGUI11CSwitchBase16setNumSubPixmapsEi, symObjAddr: 0x3700, symBinAddr: 0x8C360, symSize: 0x10 }
  - { offset: 0x329B66, size: 0x8, addend: 0x0, symName: __ZThn24_N6VSTGUI11CSwitchBaseD1Ev, symObjAddr: 0x3710, symBinAddr: 0x1771B0, symSize: 0x10 }
  - { offset: 0x329BB5, size: 0x8, addend: 0x0, symName: __ZThn24_N6VSTGUI11CSwitchBaseD0Ev, symObjAddr: 0x3720, symBinAddr: 0x1771C0, symSize: 0x10 }
  - { offset: 0x329BEA, size: 0x8, addend: 0x0, symName: __ZThn64_N6VSTGUI11CSwitchBaseD1Ev, symObjAddr: 0x3730, symBinAddr: 0x1771D0, symSize: 0x10 }
  - { offset: 0x329C1F, size: 0x8, addend: 0x0, symName: __ZThn64_N6VSTGUI11CSwitchBaseD0Ev, symObjAddr: 0x3740, symBinAddr: 0x1771E0, symSize: 0x10 }
  - { offset: 0x329C54, size: 0x8, addend: 0x0, symName: __ZThn64_N6VSTGUI11CSwitchBase16setNumSubPixmapsEi, symObjAddr: 0x3770, symBinAddr: 0x8C370, symSize: 0x20 }
  - { offset: 0x329D0E, size: 0x8, addend: 0x0, symName: __ZN6VSTGUI15CVerticalSwitchD1Ev, symObjAddr: 0x37A0, symBinAddr: 0x8C390, symSize: 0x20 }
  - { offset: 0x329D82, size: 0x8, addend: 0x0, symName: __ZN6VSTGUI15CVerticalSwitchD0Ev, symObjAddr: 0x37C0, symBinAddr: 0x8C3B0, symSize: 0x30 }
  - { offset: 0x329DFB, size: 0x8, addend: 0x0, symName: __ZNK6VSTGUI15CVerticalSwitch7newCopyEv, symObjAddr: 0x37F0, symBinAddr: 0x8C3E0, symSize: 0x40 }
  - { offset: 0x329E36, size: 0x8, addend: 0x0, symName: __ZThn24_N6VSTGUI15CVerticalSwitchD1Ev, symObjAddr: 0x3830, symBinAddr: 0x8C420, symSize: 0x20 }
  - { offset: 0x329EBD, size: 0x8, addend: 0x0, symName: __ZThn24_N6VSTGUI15CVerticalSwitchD0Ev, symObjAddr: 0x3850, symBinAddr: 0x8C440, symSize: 0x30 }
  - { offset: 0x329F49, size: 0x8, addend: 0x0, symName: __ZThn64_N6VSTGUI15CVerticalSwitchD1Ev, symObjAddr: 0x3880, symBinAddr: 0x8C470, symSize: 0x20 }
  - { offset: 0x329FB6, size: 0x8, addend: 0x0, symName: __ZThn64_N6VSTGUI15CVerticalSwitchD0Ev, symObjAddr: 0x38A0, symBinAddr: 0x8C490, symSize: 0x30 }
  - { offset: 0x32A06B, size: 0x8, addend: 0x0, symName: __ZN6VSTGUI17CHorizontalSwitchD1Ev, symObjAddr: 0x38D0, symBinAddr: 0x8C4C0, symSize: 0x20 }
  - { offset: 0x32A0DF, size: 0x8, addend: 0x0, symName: __ZN6VSTGUI17CHorizontalSwitchD0Ev, symObjAddr: 0x38F0, symBinAddr: 0x8C4E0, symSize: 0x30 }
  - { offset: 0x32A158, size: 0x8, addend: 0x0, symName: __ZNK6VSTGUI17CHorizontalSwitch7newCopyEv, symObjAddr: 0x3920, symBinAddr: 0x8C510, symSize: 0x40 }
  - { offset: 0x32A193, size: 0x8, addend: 0x0, symName: __ZThn24_N6VSTGUI17CHorizontalSwitchD1Ev, symObjAddr: 0x3960, symBinAddr: 0x8C550, symSize: 0x20 }
  - { offset: 0x32A21A, size: 0x8, addend: 0x0, symName: __ZThn24_N6VSTGUI17CHorizontalSwitchD0Ev, symObjAddr: 0x3980, symBinAddr: 0x8C570, symSize: 0x30 }
  - { offset: 0x32A2A6, size: 0x8, addend: 0x0, symName: __ZThn64_N6VSTGUI17CHorizontalSwitchD1Ev, symObjAddr: 0x39B0, symBinAddr: 0x8C5A0, symSize: 0x20 }
  - { offset: 0x32A313, size: 0x8, addend: 0x0, symName: __ZThn64_N6VSTGUI17CHorizontalSwitchD0Ev, symObjAddr: 0x39D0, symBinAddr: 0x8C5C0, symSize: 0x30 }
  - { offset: 0x32A3C8, size: 0x8, addend: 0x0, symName: __ZNK6VSTGUI13CRockerSwitch7newCopyEv, symObjAddr: 0x3A00, symBinAddr: 0x8C5F0, symSize: 0xE0 }
  - { offset: 0x32A495, size: 0x8, addend: 0x0, symName: __ZN6VSTGUI13CRockerSwitch16setNumSubPixmapsEi, symObjAddr: 0x3AE0, symBinAddr: 0x8C6D0, symSize: 0x10 }
  - { offset: 0x32A4F7, size: 0x8, addend: 0x0, symName: __ZThn64_N6VSTGUI13CRockerSwitch16setNumSubPixmapsEi, symObjAddr: 0x3AF0, symBinAddr: 0x8C6E0, symSize: 0x16 }
  - { offset: 0x33BFFB, size: 0x8, addend: 0x0, symName: __ZN6VSTGUI9CTextEditC2ERKNS_5CRectEPNS_16IControlListenerEiPKcPNS_7CBitmapEi, symObjAddr: 0x0, symBinAddr: 0x8C700, symSize: 0x190 }
  - { offset: 0x33C35B, size: 0x8, addend: 0x0, symName: __ZN6VSTGUI12DispatchListIPNS_17ITextEditListenerEED1Ev, symObjAddr: 0x190, symBinAddr: 0x8C890, symSize: 0x40 }
  - { offset: 0x33D0DB, size: 0x8, addend: 0x0, symName: __ZN6VSTGUI9CTextEditC1ERKNS_5CRectEPNS_16IControlListenerEiPKcPNS_7CBitmapEi, symObjAddr: 0x300, symBinAddr: 0x8C8D0, symSize: 0x180 }
  - { offset: 0x33D50F, size: 0x8, addend: 0x0, symName: __ZN6VSTGUI9CTextEditC2ERKS0_, symObjAddr: 0x480, symBinAddr: 0x8CA50, symSize: 0x1F0 }
  - { offset: 0x33D874, size: 0x8, addend: 0x0, symName: __ZN6VSTGUI9CTextEditC1ERKS0_, symObjAddr: 0x670, symBinAddr: 0x8CC40, symSize: 0x1E0 }
  - { offset: 0x33DBDE, size: 0x8, addend: 0x0, symName: __ZN6VSTGUI9CTextEditD2Ev, symObjAddr: 0x850, symBinAddr: 0x8CE20, symSize: 0x150 }
  - { offset: 0x33E163, size: 0x8, addend: 0x0, symName: __ZN6VSTGUI9CTextEditD1Ev, symObjAddr: 0x9B0, symBinAddr: 0x8CF70, symSize: 0x20 }
  - { offset: 0x33E1B5, size: 0x8, addend: 0x0, symName: __ZThn24_N6VSTGUI9CTextEditD1Ev, symObjAddr: 0x9D0, symBinAddr: 0x8CF90, symSize: 0x20 }
  - { offset: 0x33E1F6, size: 0x8, addend: 0x0, symName: __ZN6VSTGUI9CTextEditD0Ev, symObjAddr: 0x9F0, symBinAddr: 0x8CFB0, symSize: 0x30 }
  - { offset: 0x33E266, size: 0x8, addend: 0x0, symName: __ZThn24_N6VSTGUI9CTextEditD0Ev, symObjAddr: 0xA20, symBinAddr: 0x8CFE0, symSize: 0x30 }
  - { offset: 0x33E314, size: 0x8, addend: 0x0, symName: __ZN6VSTGUI9CTextEdit24setStringToValueFunctionERKNSt3__18functionIFbPKcRfPS0_EEE, symObjAddr: 0xA50, symBinAddr: 0x8D010, symSize: 0xB0 }
  - { offset: 0x33E502, size: 0x8, addend: 0x0, symName: __ZNSt3__110__function12__value_funcIFbPKcRfPN6VSTGUI9CTextEditEEE4swapB8ne180100ERS9_, symObjAddr: 0x25C0, symBinAddr: 0x8E680, symSize: 0x140 }
  - { offset: 0x33E6A7, size: 0x8, addend: 0x0, symName: __ZN6VSTGUI9CTextEdit24setStringToValueFunctionEONSt3__18functionIFbPKcRfPS0_EEE, symObjAddr: 0xB00, symBinAddr: 0x8D0C0, symSize: 0xB0 }
  - { offset: 0x33E75D, size: 0x8, addend: 0x0, symName: __ZN6VSTGUI9CTextEdit22setImmediateTextChangeEb, symObjAddr: 0xBB0, symBinAddr: 0x8D170, symSize: 0x10 }
  - { offset: 0x33E792, size: 0x8, addend: 0x0, symName: __ZN6VSTGUI9CTextEdit14setSecureStyleEb, symObjAddr: 0xBC0, symBinAddr: 0x8D180, symSize: 0x20 }
  - { offset: 0x33E7C9, size: 0x8, addend: 0x0, symName: __ZNK6VSTGUI9CTextEdit14getSecureStyleEv, symObjAddr: 0xBE0, symBinAddr: 0x8D1A0, symSize: 0x10 }
  - { offset: 0x33E7E9, size: 0x8, addend: 0x0, symName: __ZN6VSTGUI9CTextEdit24registerTextEditListenerEPNS_17ITextEditListenerE, symObjAddr: 0xBF0, symBinAddr: 0x8D1B0, symSize: 0x30 }
  - { offset: 0x33E836, size: 0x8, addend: 0x0, symName: __ZN6VSTGUI12DispatchListIPNS_17ITextEditListenerEE3addERKS2_, symObjAddr: 0xC20, symBinAddr: 0x8D1E0, symSize: 0x2F0 }
  - { offset: 0x33FA3A, size: 0x8, addend: 0x0, symName: __ZNKSt3__16vectorIPN6VSTGUI17ITextEditListenerENS_9allocatorIS3_EEE20__throw_length_errorB8ne180100Ev, symObjAddr: 0x2700, symBinAddr: 0x8E7C0, symSize: 0x10 }
  - { offset: 0x33FA6F, size: 0x8, addend: 0x0, symName: __ZNKSt3__16vectorINS_4pairIbPN6VSTGUI17ITextEditListenerEEENS_9allocatorIS5_EEE20__throw_length_errorB8ne180100Ev, symObjAddr: 0x27D0, symBinAddr: 0x8E7D0, symSize: 0x10 }
  - { offset: 0x33FC99, size: 0x8, addend: 0x0, symName: __ZN6VSTGUI9CTextEdit26unregisterTextEditListenerEPNS_17ITextEditListenerE, symObjAddr: 0xF10, symBinAddr: 0x8D4D0, symSize: 0x80 }
  - { offset: 0x340141, size: 0x8, addend: 0x0, symName: __ZN6VSTGUI9CTextEdit8setValueEf, symObjAddr: 0xF90, symBinAddr: 0x8D550, symSize: 0x220 }
  - { offset: 0x340B56, size: 0x8, addend: 0x0, symName: __ZN6VSTGUI9CTextEdit7setTextERKNS_10UTF8StringE, symObjAddr: 0x11B0, symBinAddr: 0x8D770, symSize: 0x1B0 }
  - { offset: 0x341327, size: 0x8, addend: 0x0, symName: __ZN6VSTGUI9CTextEdit12valueChangedEv, symObjAddr: 0x1360, symBinAddr: 0x8D920, symSize: 0x30 }
  - { offset: 0x341390, size: 0x8, addend: 0x0, symName: __ZN6VSTGUI9CTextEdit20setPlaceholderStringERKNS_10UTF8StringE, symObjAddr: 0x1390, symBinAddr: 0x8D950, symSize: 0x20 }
  - { offset: 0x341494, size: 0x8, addend: 0x0, symName: __ZN6VSTGUI9CTextEdit4drawEPNS_12CDrawContextE, symObjAddr: 0x13B0, symBinAddr: 0x8D970, symSize: 0x260 }
  - { offset: 0x341B76, size: 0x8, addend: 0x0, symName: __ZN6VSTGUI9CTextEdit11onMouseDownERNS_6CPointERKNS_12CButtonStateE, symObjAddr: 0x1610, symBinAddr: 0x8DBD0, symSize: 0x60 }
  - { offset: 0x341C34, size: 0x8, addend: 0x0, symName: __ZN6VSTGUI9CTextEdit15onKeyboardEventERNS_13KeyboardEventE, symObjAddr: 0x1670, symBinAddr: 0x8DC30, symSize: 0x80 }
  - { offset: 0x341D22, size: 0x8, addend: 0x0, symName: __ZNK6VSTGUI9CTextEdit15platformGetFontEv, symObjAddr: 0x16F0, symBinAddr: 0x8DCB0, symSize: 0xC0 }
  - { offset: 0x341E01, size: 0x8, addend: 0x0, symName: __ZThn304_NK6VSTGUI9CTextEdit15platformGetFontEv, symObjAddr: 0x17B0, symBinAddr: 0x8DD70, symSize: 0x20 }
  - { offset: 0x341F14, size: 0x8, addend: 0x0, symName: __ZNK6VSTGUI9CTextEdit15platformGetSizeEv, symObjAddr: 0x17D0, symBinAddr: 0x8DD90, symSize: 0xB0 }
  - { offset: 0x34203B, size: 0x8, addend: 0x0, symName: __ZThn304_NK6VSTGUI9CTextEdit15platformGetSizeEv, symObjAddr: 0x1880, symBinAddr: 0x8DE40, symSize: 0xB0 }
  - { offset: 0x34215B, size: 0x8, addend: 0x0, symName: __ZNK6VSTGUI9CTextEdit22platformGetVisibleSizeEv, symObjAddr: 0x1930, symBinAddr: 0x8DEF0, symSize: 0xB0 }
  - { offset: 0x34229E, size: 0x8, addend: 0x0, symName: __ZThn304_NK6VSTGUI9CTextEdit22platformGetVisibleSizeEv, symObjAddr: 0x19E0, symBinAddr: 0x8DFA0, symSize: 0xC0 }
  - { offset: 0x3423D3, size: 0x8, addend: 0x0, symName: __ZN6VSTGUI9CTextEdit18platformLooseFocusEb, symObjAddr: 0x1AA0, symBinAddr: 0x8E060, symSize: 0x50 }
  - { offset: 0x342443, size: 0x8, addend: 0x0, symName: __ZThn304_N6VSTGUI9CTextEdit18platformLooseFocusEb, symObjAddr: 0x1AF0, symBinAddr: 0x8E0B0, symSize: 0x70 }
  - { offset: 0x3424A1, size: 0x8, addend: 0x0, symName: __ZN6VSTGUI9CTextEdit23platformOnKeyboardEventERNS_13KeyboardEventE, symObjAddr: 0x1B60, symBinAddr: 0x8E120, symSize: 0x50 }
  - { offset: 0x342518, size: 0x8, addend: 0x0, symName: __ZThn304_N6VSTGUI9CTextEdit23platformOnKeyboardEventERNS_13KeyboardEventE, symObjAddr: 0x1BB0, symBinAddr: 0x8E170, symSize: 0x60 }
  - { offset: 0x34257A, size: 0x8, addend: 0x0, symName: __ZN6VSTGUI9CTextEdit21platformTextDidChangeEv, symObjAddr: 0x1C10, symBinAddr: 0x8E1D0, symSize: 0x30 }
  - { offset: 0x3425C8, size: 0x8, addend: 0x0, symName: __ZN6VSTGUI9CTextEdit10updateTextEPNS_17IPlatformTextEditE, symObjAddr: 0x1C40, symBinAddr: 0x8E200, symSize: 0xB0 }
  - { offset: 0x342826, size: 0x8, addend: 0x0, symName: __ZThn304_N6VSTGUI9CTextEdit21platformTextDidChangeEv, symObjAddr: 0x1CF0, symBinAddr: 0x8E2B0, symSize: 0x30 }
  - { offset: 0x342881, size: 0x8, addend: 0x0, symName: __ZN6VSTGUI9CTextEdit24platformIsSecureTextEditEv, symObjAddr: 0x1D20, symBinAddr: 0x8E2E0, symSize: 0x10 }
  - { offset: 0x3428D7, size: 0x8, addend: 0x0, symName: __ZThn304_N6VSTGUI9CTextEdit24platformIsSecureTextEditEv, symObjAddr: 0x1D30, symBinAddr: 0x8E2F0, symSize: 0x10 }
  - { offset: 0x34292E, size: 0x8, addend: 0x0, symName: __ZN6VSTGUI9CTextEdit17parentSizeChangedEv, symObjAddr: 0x1D40, symBinAddr: 0x8E300, symSize: 0x20 }
  - { offset: 0x342984, size: 0x8, addend: 0x0, symName: __ZN6VSTGUI9CTextEdit11setViewSizeERKNS_5CRectEb, symObjAddr: 0x1D60, symBinAddr: 0x8E320, symSize: 0x30 }
  - { offset: 0x342A36, size: 0x8, addend: 0x0, symName: __ZN6VSTGUI9CTextEdit22createPlatformTextEditEv, symObjAddr: 0x1D90, symBinAddr: 0x8E350, symSize: 0xF0 }
  - { offset: 0x342C70, size: 0x8, addend: 0x0, symName: __ZN6VSTGUI12DispatchListIPNS_17ITextEditListenerEE11postForEachEv, symObjAddr: 0x2850, symBinAddr: 0x8E7E0, symSize: 0x3D0 }
  - { offset: 0x343B6C, size: 0x8, addend: 0x0, symName: __ZNK6VSTGUI9CTextEdit10wantsFocusEv, symObjAddr: 0x1E80, symBinAddr: 0x8E440, symSize: 0x40 }
  - { offset: 0x343BF6, size: 0x8, addend: 0x0, symName: __ZN6VSTGUI9CTextEdit9takeFocusEv, symObjAddr: 0x1ED0, symBinAddr: 0x8E480, symSize: 0x70 }
  - { offset: 0x343D77, size: 0x8, addend: 0x0, symName: __ZN6VSTGUI9CTextEdit10looseFocusEv, symObjAddr: 0x1F40, symBinAddr: 0x8E4F0, symSize: 0x190 }
  - { offset: 0x3444F3, size: 0x8, addend: 0x0, symName: __ZN6VSTGUI12DispatchListIPNS_17ITextEditListenerEE3addEOS2_, symObjAddr: 0x2C20, symBinAddr: 0x8EBB0, symSize: 0x2E6 }
  - { offset: 0x3550DE, size: 0x8, addend: 0x0, symName: __ZNSt3__17getlineB8ne180100IcNS_11char_traitsIcEENS_9allocatorIcEEEERNS_13basic_istreamIT_T0_EES9_RNS_12basic_stringIS6_S7_T1_EES6_, symObjAddr: 0x34D0, symBinAddr: 0x92280, symSize: 0x150 }
  - { offset: 0x35775D, size: 0x8, addend: 0x0, symName: __ZN6VSTGUI10CTextLabelC2ERKNS_5CRectEPKcPNS_7CBitmapEi, symObjAddr: 0x0, symBinAddr: 0x8EEA0, symSize: 0x120 }
  - { offset: 0x357FA2, size: 0x8, addend: 0x0, symName: __ZN6VSTGUI10CTextLabelC1ERKNS_5CRectEPKcPNS_7CBitmapEi, symObjAddr: 0x1B0, symBinAddr: 0x8EFC0, symSize: 0x120 }
  - { offset: 0x35827D, size: 0x8, addend: 0x0, symName: __ZN6VSTGUI10CTextLabelC2ERKS0_, symObjAddr: 0x2D0, symBinAddr: 0x8F0E0, symSize: 0xF0 }
  - { offset: 0x3583BB, size: 0x8, addend: 0x0, symName: __ZN6VSTGUI10CTextLabelC1ERKS0_, symObjAddr: 0x3C0, symBinAddr: 0x8F1D0, symSize: 0xF0 }
  - { offset: 0x3585AC, size: 0x8, addend: 0x0, symName: __ZN6VSTGUI10CTextLabel25registerTextLabelListenerEPNS_18ITextLabelListenerE, symObjAddr: 0x4B0, symBinAddr: 0x8F2C0, symSize: 0x60 }
  - { offset: 0x3586CC, size: 0x8, addend: 0x0, symName: __ZN6VSTGUI12DispatchListIPNS_18ITextLabelListenerEE3addERKS2_, symObjAddr: 0x510, symBinAddr: 0x8F320, symSize: 0x2F0 }
  - { offset: 0x3598D0, size: 0x8, addend: 0x0, symName: __ZNKSt3__16vectorIPN6VSTGUI18ITextLabelListenerENS_9allocatorIS3_EEE20__throw_length_errorB8ne180100Ev, symObjAddr: 0x4590, symBinAddr: 0x92760, symSize: 0x10 }
  - { offset: 0x359905, size: 0x8, addend: 0x0, symName: __ZNKSt3__16vectorINS_4pairIbPN6VSTGUI18ITextLabelListenerEEENS_9allocatorIS5_EEE20__throw_length_errorB8ne180100Ev, symObjAddr: 0x4660, symBinAddr: 0x92770, symSize: 0x10 }
  - { offset: 0x35992F, size: 0x8, addend: 0x0, symName: __ZN6VSTGUI12DispatchListIPNS_18ITextLabelListenerEE11postForEachEv, symObjAddr: 0x4670, symBinAddr: 0x92780, symSize: 0x3D0 }
  - { offset: 0x359B2F, size: 0x8, addend: 0x0, symName: __ZN6VSTGUI10CTextLabel27unregisterTextLabelListenerEPNS_18ITextLabelListenerE, symObjAddr: 0x800, symBinAddr: 0x8F610, symSize: 0x80 }
  - { offset: 0x359E30, size: 0x8, addend: 0x0, symName: __ZN6VSTGUI10CTextLabel7setTextERKNS_10UTF8StringE, symObjAddr: 0x880, symBinAddr: 0x8F690, symSize: 0x70 }
  - { offset: 0x359E81, size: 0x8, addend: 0x0, symName: __ZN6VSTGUI10CTextLabel22calculateTruncatedTextEv, symObjAddr: 0x8F0, symBinAddr: 0x8F700, symSize: 0x280 }
  - { offset: 0x35A737, size: 0x8, addend: 0x0, symName: __ZN6VSTGUI12DispatchListIPNS_18ITextLabelListenerEE11postForEachEv, symObjAddr: 0x4670, symBinAddr: 0x92780, symSize: 0x3D0 }
  - { offset: 0x35B61D, size: 0x8, addend: 0x0, symName: __ZN6VSTGUI10CTextLabel19setTextTruncateModeENS0_16TextTruncateModeE, symObjAddr: 0xB70, symBinAddr: 0x8F980, symSize: 0x20 }
  - { offset: 0x35B652, size: 0x8, addend: 0x0, symName: __ZNK6VSTGUI10CTextLabel7getTextEv, symObjAddr: 0xB90, symBinAddr: 0x8F9A0, symSize: 0x10 }
  - { offset: 0x35B679, size: 0x8, addend: 0x0, symName: __ZN6VSTGUI10CTextLabel4drawEPNS_12CDrawContextE, symObjAddr: 0xBA0, symBinAddr: 0x8F9B0, symSize: 0x70 }
  - { offset: 0x35B872, size: 0x8, addend: 0x0, symName: __ZN6VSTGUI10CTextLabel9sizeToFitEv, symObjAddr: 0xC10, symBinAddr: 0x8FA20, symSize: 0x220 }
  - { offset: 0x35BCCC, size: 0x8, addend: 0x0, symName: __ZN6VSTGUI10CTextLabel11setViewSizeERKNS_5CRectEb, symObjAddr: 0xE70, symBinAddr: 0x8FC40, symSize: 0x90 }
  - { offset: 0x35BD67, size: 0x8, addend: 0x0, symName: __ZN6VSTGUI10CTextLabel16drawStyleChangedEv, symObjAddr: 0xF00, symBinAddr: 0x8FCD0, symSize: 0x30 }
  - { offset: 0x35BF29, size: 0x8, addend: 0x0, symName: __ZN6VSTGUI10CTextLabel12valueChangedEv, symObjAddr: 0xF30, symBinAddr: 0x8FD00, symSize: 0xF0 }
  - { offset: 0x35C4E0, size: 0x8, addend: 0x0, symName: __ZN6VSTGUI19CMultiLineTextLabelC2ERKNS_5CRectE, symObjAddr: 0x1020, symBinAddr: 0x8FDF0, symSize: 0x60 }
  - { offset: 0x35C556, size: 0x8, addend: 0x0, symName: __ZN6VSTGUI19CMultiLineTextLabelC1ERKNS_5CRectE, symObjAddr: 0x1080, symBinAddr: 0x8FE50, symSize: 0x60 }
  - { offset: 0x35C5DB, size: 0x8, addend: 0x0, symName: __ZN6VSTGUI19CMultiLineTextLabel8setValueEf, symObjAddr: 0x10E0, symBinAddr: 0x8FEB0, symSize: 0xD0 }
  - { offset: 0x35CBB6, size: 0x8, addend: 0x0, symName: __ZN6VSTGUI19CMultiLineTextLabel19setTextTruncateModeENS_10CTextLabel16TextTruncateModeE, symObjAddr: 0x11B0, symBinAddr: 0x8FF80, symSize: 0x20 }
  - { offset: 0x35CD2A, size: 0x8, addend: 0x0, symName: __ZN6VSTGUI19CMultiLineTextLabel13setLineLayoutENS0_10LineLayoutE, symObjAddr: 0x11D0, symBinAddr: 0x8FFA0, symSize: 0x80 }
  - { offset: 0x35CFF5, size: 0x8, addend: 0x0, symName: __ZN6VSTGUI19CMultiLineTextLabel13setAutoHeightEb, symObjAddr: 0x1250, symBinAddr: 0x90020, symSize: 0x60 }
  - { offset: 0x35D092, size: 0x8, addend: 0x0, symName: __ZN6VSTGUI19CMultiLineTextLabel16recalculateLinesEPNS_12CDrawContextE, symObjAddr: 0x12B0, symBinAddr: 0x90080, symSize: 0x8D0 }
  - { offset: 0x35EBB0, size: 0x8, addend: 0x0, symName: __ZN6VSTGUI19CMultiLineTextLabel17recalculateHeightEv, symObjAddr: 0x1B80, symBinAddr: 0x90950, symSize: 0xC0 }
  - { offset: 0x35F62D, size: 0x8, addend: 0x0, symName: __ZNSt3__118basic_stringstreamIcNS_11char_traitsIcEENS_9allocatorIcEEEC1B8ne180100ERKNS_12basic_stringIcS2_S4_EEj, symObjAddr: 0x3390, symBinAddr: 0x92140, symSize: 0x140 }
  - { offset: 0x35F87A, size: 0x8, addend: 0x0, symName: __ZNSt3__16vectorINS_4pairIN6VSTGUI10UTF8StringEdEENS_9allocatorIS4_EEE24__emplace_back_slow_pathIJS3_RdEEEPS4_DpOT_, symObjAddr: 0x50B0, symBinAddr: 0x92E50, symSize: 0x1E0 }
  - { offset: 0x35FFB6, size: 0x8, addend: 0x0, symName: __ZNSt3__16vectorIN6VSTGUI19CMultiLineTextLabel4LineENS_9allocatorIS3_EEE24__emplace_back_slow_pathIJS3_EEEPS3_DpOT_, symObjAddr: 0x4DB0, symBinAddr: 0x92B50, symSize: 0x1D0 }
  - { offset: 0x360605, size: 0x8, addend: 0x0, symName: __ZN6VSTGUI19CMultiLineTextLabel17calculateWrapLineEPNS_12CDrawContextERNSt3__14pairINS_10UTF8StringEdEERKPKNS_12IFontPainterEdddRKNS_6CPointERd, symObjAddr: 0x2650, symBinAddr: 0x91400, symSize: 0xD00 }
  - { offset: 0x362534, size: 0x8, addend: 0x0, symName: __ZN6VSTGUI19CMultiLineTextLabel4LineD1Ev, symObjAddr: 0x3350, symBinAddr: 0x92100, symSize: 0x40 }
  - { offset: 0x3627BC, size: 0x8, addend: 0x0, symName: __ZNSt3__16vectorINS_4pairIN6VSTGUI10UTF8StringEdEENS_9allocatorIS4_EEED1B8ne180100Ev, symObjAddr: 0x36B0, symBinAddr: 0x923D0, symSize: 0x90 }
  - { offset: 0x362AEA, size: 0x8, addend: 0x0, symName: __ZN6VSTGUI19CMultiLineTextLabel19setVerticalCenteredEb, symObjAddr: 0x1C40, symBinAddr: 0x90A10, symSize: 0x80 }
  - { offset: 0x362D89, size: 0x8, addend: 0x0, symName: __ZN6VSTGUI19CMultiLineTextLabel15getMaxLineWidthEv, symObjAddr: 0x1CC0, symBinAddr: 0x90A90, symSize: 0x140 }
  - { offset: 0x36324F, size: 0x8, addend: 0x0, symName: __ZN6VSTGUI19CMultiLineTextLabel8drawRectEPNS_12CDrawContextERKNS_5CRectE, symObjAddr: 0x1E00, symBinAddr: 0x90BD0, symSize: 0x560 }
  - { offset: 0x363A50, size: 0x8, addend: 0x0, symName: __ZN6VSTGUI19CMultiLineTextLabel9sizeToFitEv, symObjAddr: 0x2380, symBinAddr: 0x91130, symSize: 0x10 }
  - { offset: 0x363A99, size: 0x8, addend: 0x0, symName: __ZN6VSTGUI19CMultiLineTextLabel7setTextERKNS_10UTF8StringE, symObjAddr: 0x2390, symBinAddr: 0x91140, symSize: 0x100 }
  - { offset: 0x363E1D, size: 0x8, addend: 0x0, symName: __ZN6VSTGUI19CMultiLineTextLabel11setViewSizeERKNS_5CRectEb, symObjAddr: 0x2490, symBinAddr: 0x91240, symSize: 0x140 }
  - { offset: 0x36420F, size: 0x8, addend: 0x0, symName: __ZN6VSTGUI19CMultiLineTextLabel16drawStyleChangedEv, symObjAddr: 0x25D0, symBinAddr: 0x91380, symSize: 0x80 }
  - { offset: 0x3649A6, size: 0x8, addend: 0x0, symName: __ZNSt3__16vectorIN6VSTGUI19CMultiLineTextLabel4LineENS_9allocatorIS3_EEE24__emplace_back_slow_pathIJS3_EEEPS3_DpOT_, symObjAddr: 0x4DB0, symBinAddr: 0x92B50, symSize: 0x1D0 }
  - { offset: 0x364AC9, size: 0x8, addend: 0x0, symName: __ZNSt3__115basic_stringbufIcNS_11char_traitsIcEENS_9allocatorIcEEE15__init_buf_ptrsB8ne180100Ev, symObjAddr: 0x4F90, symBinAddr: 0x92D30, symSize: 0x120 }
  - { offset: 0x365282, size: 0x8, addend: 0x0, symName: __ZThn24_N6VSTGUI10CTextLabelD1Ev, symObjAddr: 0x3AD0, symBinAddr: 0x92460, symSize: 0x20 }
  - { offset: 0x3652DD, size: 0x8, addend: 0x0, symName: __ZThn24_N6VSTGUI10CTextLabelD0Ev, symObjAddr: 0x3AF0, symBinAddr: 0x92480, symSize: 0x30 }
  - { offset: 0x365415, size: 0x8, addend: 0x0, symName: __ZN6VSTGUI19CMultiLineTextLabelD1Ev, symObjAddr: 0x3B20, symBinAddr: 0x924B0, symSize: 0xA0 }
  - { offset: 0x36577B, size: 0x8, addend: 0x0, symName: __ZN6VSTGUI19CMultiLineTextLabelD0Ev, symObjAddr: 0x3BC0, symBinAddr: 0x92550, symSize: 0xB0 }
  - { offset: 0x365ADA, size: 0x8, addend: 0x0, symName: __ZThn24_N6VSTGUI19CMultiLineTextLabelD1Ev, symObjAddr: 0x3C70, symBinAddr: 0x92600, symSize: 0xB0 }
  - { offset: 0x365E43, size: 0x8, addend: 0x0, symName: __ZThn24_N6VSTGUI19CMultiLineTextLabelD0Ev, symObjAddr: 0x3D20, symBinAddr: 0x926B0, symSize: 0xB0 }
  - { offset: 0x366E1E, size: 0x8, addend: 0x0, symName: __ZNKSt3__16vectorIN6VSTGUI19CMultiLineTextLabel4LineENS_9allocatorIS3_EEE20__throw_length_errorB8ne180100Ev, symObjAddr: 0x4F80, symBinAddr: 0x92D20, symSize: 0x10 }
  - { offset: 0x366E48, size: 0x8, addend: 0x0, symName: __ZNSt3__115basic_stringbufIcNS_11char_traitsIcEENS_9allocatorIcEEE15__init_buf_ptrsB8ne180100Ev, symObjAddr: 0x4F90, symBinAddr: 0x92D30, symSize: 0x120 }
  - { offset: 0x367171, size: 0x8, addend: 0x0, symName: __ZNKSt3__16vectorINS_4pairIN6VSTGUI10UTF8StringEdEENS_9allocatorIS4_EEE20__throw_length_errorB8ne180100Ev, symObjAddr: 0x5290, symBinAddr: 0x93030, symSize: 0x10 }
  - { offset: 0x36FB2B, size: 0x8, addend: 0x0, symName: __ZN6VSTGUI8CVuMeterC2ERKNS_5CRectEPNS_7CBitmapES5_ii, symObjAddr: 0x0, symBinAddr: 0x93040, symSize: 0x130 }
  - { offset: 0x36FCD9, size: 0x8, addend: 0x0, symName: __ZN6VSTGUI8CVuMeterC1ERKNS_5CRectEPNS_7CBitmapES5_ii, symObjAddr: 0x130, symBinAddr: 0x93170, symSize: 0x120 }
  - { offset: 0x36FE4E, size: 0x8, addend: 0x0, symName: __ZN6VSTGUI8CVuMeterC2ERKS0_, symObjAddr: 0x250, symBinAddr: 0x93290, symSize: 0xD0 }
  - { offset: 0x36FECF, size: 0x8, addend: 0x0, symName: __ZN6VSTGUI8CVuMeterC1ERKS0_, symObjAddr: 0x320, symBinAddr: 0x93360, symSize: 0xC0 }
  - { offset: 0x36FF46, size: 0x8, addend: 0x0, symName: __ZN6VSTGUI8CVuMeterD2Ev, symObjAddr: 0x3E0, symBinAddr: 0x93420, symSize: 0x60 }
  - { offset: 0x36FFCD, size: 0x8, addend: 0x0, symName: __ZN6VSTGUI8CVuMeterD1Ev, symObjAddr: 0x450, symBinAddr: 0x93480, symSize: 0x50 }
  - { offset: 0x370065, size: 0x8, addend: 0x0, symName: __ZThn24_N6VSTGUI8CVuMeterD1Ev, symObjAddr: 0x4A0, symBinAddr: 0x934D0, symSize: 0x60 }
  - { offset: 0x3700F4, size: 0x8, addend: 0x0, symName: __ZN6VSTGUI8CVuMeterD0Ev, symObjAddr: 0x500, symBinAddr: 0x93530, symSize: 0x60 }
  - { offset: 0x37019B, size: 0x8, addend: 0x0, symName: __ZThn24_N6VSTGUI8CVuMeterD0Ev, symObjAddr: 0x560, symBinAddr: 0x93590, symSize: 0x60 }
  - { offset: 0x370239, size: 0x8, addend: 0x0, symName: __ZN6VSTGUI8CVuMeter11setViewSizeERKNS_5CRectEb, symObjAddr: 0x5C0, symBinAddr: 0x935F0, symSize: 0x50 }
  - { offset: 0x3702C6, size: 0x8, addend: 0x0, symName: __ZN6VSTGUI8CVuMeter9sizeToFitEv, symObjAddr: 0x610, symBinAddr: 0x93640, symSize: 0xB0 }
  - { offset: 0x370389, size: 0x8, addend: 0x0, symName: __ZN6VSTGUI8CVuMeter12setOffBitmapEPNS_7CBitmapE, symObjAddr: 0x6C0, symBinAddr: 0x936F0, symSize: 0x40 }
  - { offset: 0x3703CB, size: 0x8, addend: 0x0, symName: __ZN6VSTGUI8CVuMeter8setDirtyEb, symObjAddr: 0x700, symBinAddr: 0x93730, symSize: 0x10 }
  - { offset: 0x37040C, size: 0x8, addend: 0x0, symName: __ZN6VSTGUI8CVuMeter6onIdleEv, symObjAddr: 0x710, symBinAddr: 0x93740, symSize: 0x30 }
  - { offset: 0x3704D5, size: 0x8, addend: 0x0, symName: __ZN6VSTGUI8CVuMeter4drawEPNS_12CDrawContextE, symObjAddr: 0x740, symBinAddr: 0x93770, symSize: 0x230 }
  - { offset: 0x3707FF, size: 0x8, addend: 0x0, symName: __ZNK6VSTGUI8CVuMeter7newCopyEv, symObjAddr: 0xC00, symBinAddr: 0x939A0, symSize: 0xF0 }
  - { offset: 0x370892, size: 0x8, addend: 0x0, symName: __ZN6VSTGUI8CVuMeter20setDecreaseStepValueEf, symObjAddr: 0xCF0, symBinAddr: 0x93A90, symSize: 0x10 }
  - { offset: 0x3708B9, size: 0x8, addend: 0x0, symName: __ZNK6VSTGUI8CVuMeter11getOnBitmapEv, symObjAddr: 0xD00, symBinAddr: 0x93AA0, symSize: 0x10 }
  - { offset: 0x3708DE, size: 0x8, addend: 0x0, symName: __ZNK6VSTGUI8CVuMeter12getOffBitmapEv, symObjAddr: 0xD10, symBinAddr: 0x93AB0, symSize: 0x10 }
  - { offset: 0x370903, size: 0x8, addend: 0x0, symName: __ZN6VSTGUI8CVuMeter11setOnBitmapEPNS_7CBitmapE, symObjAddr: 0xD20, symBinAddr: 0x93AC0, symSize: 0x11 }
  - { offset: 0x37281A, size: 0x8, addend: 0x0, symName: __ZN6VSTGUI6CXYPadC2ERKNS_5CRectE, symObjAddr: 0x0, symBinAddr: 0x93AE0, symSize: 0xE0 }
  - { offset: 0x379C01, size: 0x8, addend: 0x0, symName: __ZN6VSTGUI6CXYPadC2ERKNS_5CRectE, symObjAddr: 0x0, symBinAddr: 0x93AE0, symSize: 0xE0 }
  - { offset: 0x379DF4, size: 0x8, addend: 0x0, symName: __ZN6VSTGUI6CXYPadC1ERKNS_5CRectE, symObjAddr: 0xE0, symBinAddr: 0x93BC0, symSize: 0xD0 }
  - { offset: 0x379FF9, size: 0x8, addend: 0x0, symName: __ZN6VSTGUI6CXYPad15setHandleBitmapEPNS_7CBitmapE, symObjAddr: 0x1B0, symBinAddr: 0x93C90, symSize: 0x50 }
  - { offset: 0x37A097, size: 0x8, addend: 0x0, symName: __ZNK6VSTGUI6CXYPad15getHandleBitmapEv, symObjAddr: 0x200, symBinAddr: 0x93CE0, symSize: 0x10 }
  - { offset: 0x37A2D1, size: 0x8, addend: 0x0, symName: __ZN6VSTGUI6CXYPad4drawEPNS_12CDrawContextE, symObjAddr: 0x210, symBinAddr: 0x93CF0, symSize: 0x2C0 }
  - { offset: 0x37A66C, size: 0x8, addend: 0x0, symName: __ZN6VSTGUI6CXYPad8drawBackEPNS_12CDrawContextEPNS_7CBitmapE, symObjAddr: 0x4D0, symBinAddr: 0x93FB0, symSize: 0x10 }
  - { offset: 0x37A714, size: 0x8, addend: 0x0, symName: __ZN6VSTGUI6CXYPad16onMouseDownEventERNS_14MouseDownEventE, symObjAddr: 0x4E0, symBinAddr: 0x93FC0, symSize: 0xE0 }
  - { offset: 0x37A7D0, size: 0x8, addend: 0x0, symName: __ZN6VSTGUI6CXYPad11onMouseMoveERNS_20MouseDownUpMoveEventE, symObjAddr: 0x5C0, symBinAddr: 0x940A0, symSize: 0x1B0 }
  - { offset: 0x37AA84, size: 0x8, addend: 0x0, symName: __ZN6VSTGUI6CXYPad14onMouseUpEventERNS_12MouseUpEventE, symObjAddr: 0x770, symBinAddr: 0x94250, symSize: 0x30 }
  - { offset: 0x37AAF7, size: 0x8, addend: 0x0, symName: __ZN6VSTGUI6CXYPad18onMouseCancelEventERNS_16MouseCancelEventE, symObjAddr: 0x7A0, symBinAddr: 0x94280, symSize: 0x60 }
  - { offset: 0x37ABA3, size: 0x8, addend: 0x0, symName: __ZN6VSTGUI6CXYPad16onMouseMoveEventERNS_14MouseMoveEventE, symObjAddr: 0x800, symBinAddr: 0x942E0, symSize: 0x30 }
  - { offset: 0x37AC09, size: 0x8, addend: 0x0, symName: __ZN6VSTGUI6CXYPad11boundValuesERfS1_, symObjAddr: 0x830, symBinAddr: 0x94310, symSize: 0x40 }
  - { offset: 0x37AC5D, size: 0x8, addend: 0x0, symName: __ZN6VSTGUI6CXYPad17onMouseWheelEventERNS_15MouseWheelEventE, symObjAddr: 0x870, symBinAddr: 0x94350, symSize: 0x1B0 }
  - { offset: 0x37AE47, size: 0x8, addend: 0x0, symName: __ZN6VSTGUI6CXYPad15onKeyboardEventERNS_13KeyboardEventE, symObjAddr: 0xA20, symBinAddr: 0x94500, symSize: 0x40 }
  - { offset: 0x37AEBA, size: 0x8, addend: 0x0, symName: __ZN6VSTGUI6CXYPad15setDefaultValueEf, symObjAddr: 0xA60, symBinAddr: 0x94540, symSize: 0x30 }
  - { offset: 0x37AF36, size: 0x8, addend: 0x0, symName: __ZN6VSTGUI6CXYPad16setDefaultValuesEff, symObjAddr: 0xA90, symBinAddr: 0x94570, symSize: 0x40 }
  - { offset: 0x37AFE5, size: 0x8, addend: 0x0, symName: __ZN6VSTGUI6CXYPadD1Ev, symObjAddr: 0xDC0, symBinAddr: 0x945B0, symSize: 0x70 }
  - { offset: 0x37B0CD, size: 0x8, addend: 0x0, symName: __ZN6VSTGUI6CXYPadD0Ev, symObjAddr: 0xE30, symBinAddr: 0x94620, symSize: 0x70 }
  - { offset: 0x37B1A8, size: 0x8, addend: 0x0, symName: __ZN6VSTGUI6CXYPad6setMinEf, symObjAddr: 0xEA0, symBinAddr: 0x94690, symSize: 0x10 }
  - { offset: 0x37B1DB, size: 0x8, addend: 0x0, symName: __ZN6VSTGUI6CXYPad6setMaxEf, symObjAddr: 0xEB0, symBinAddr: 0x946A0, symSize: 0x10 }
  - { offset: 0x37B20E, size: 0x8, addend: 0x0, symName: __ZThn24_N6VSTGUI6CXYPadD1Ev, symObjAddr: 0xEC0, symBinAddr: 0x946B0, symSize: 0x70 }
  - { offset: 0x37B2F9, size: 0x8, addend: 0x0, symName: __ZThn24_N6VSTGUI6CXYPadD0Ev, symObjAddr: 0xF30, symBinAddr: 0x94720, symSize: 0x80 }
  - { offset: 0x37D2A8, size: 0x8, addend: 0x0, symName: __ZN6VSTGUI9Layouting9translateENS_14CRowColumnView11LayoutStyleE, symObjAddr: 0x0, symBinAddr: 0x947A0, symSize: 0x20 }
  - { offset: 0x37D32F, size: 0x8, addend: 0x0, symName: __ZN6VSTGUI9Layouting9translateENS_14CRowColumnView11LayoutStyleE, symObjAddr: 0x0, symBinAddr: 0x947A0, symSize: 0x20 }
  - { offset: 0x37D34B, size: 0x8, addend: 0x0, symName: __ZN6VSTGUI9Layouting9translateENS_14CRowColumnView5StyleE, symObjAddr: 0x20, symBinAddr: 0x947C0, symSize: 0x10 }
  - { offset: 0x37D367, size: 0x8, addend: 0x0, symName: __ZN6VSTGUI9Layouting17computeRectOffsetERKNS_6CPointES3_NS0_9AlignmentE, symObjAddr: 0x30, symBinAddr: 0x947D0, symSize: 0x110 }
  - { offset: 0x37D3DA, size: 0x8, addend: 0x0, symName: __ZN6VSTGUI9Layouting16computeGroupRectERKNS_5CRectERKNSt3__16vectorIS1_NS4_9allocatorIS1_EEEENS0_9AlignmentENS0_5StyleEd, symObjAddr: 0x140, symBinAddr: 0x948E0, symSize: 0x3B0 }
  - { offset: 0x37D67B, size: 0x8, addend: 0x0, symName: __ZN6VSTGUI9Layouting16computeGroupRectERKNS_14CViewContainerENS0_9AlignmentENS0_5StyleEd, symObjAddr: 0x4F0, symBinAddr: 0x94C90, symSize: 0x220 }
  - { offset: 0x382AE7, size: 0x8, addend: 0x0, symName: __ZN6VSTGUI14CRowColumnViewC2ERKNS_5CRectENS0_5StyleENS0_11LayoutStyleEdS3_, symObjAddr: 0x710, symBinAddr: 0x94EB0, symSize: 0xA0 }
  - { offset: 0x382BA1, size: 0x8, addend: 0x0, symName: __ZN6VSTGUI24CAutoLayoutContainerViewC2ERKNS_5CRectE, symObjAddr: 0x7B0, symBinAddr: 0x94F50, symSize: 0x30 }
  - { offset: 0x382BF6, size: 0x8, addend: 0x0, symName: __ZN6VSTGUI14CRowColumnViewC1ERKNS_5CRectENS0_5StyleENS0_11LayoutStyleEdS3_, symObjAddr: 0x7E0, symBinAddr: 0x94F80, symSize: 0xA0 }
  - { offset: 0x382CCA, size: 0x8, addend: 0x0, symName: __ZN6VSTGUI14CRowColumnView8setStyleENS0_5StyleE, symObjAddr: 0x880, symBinAddr: 0x95020, symSize: 0x40 }
  - { offset: 0x382D2C, size: 0x8, addend: 0x0, symName: __ZN6VSTGUI14CRowColumnView10setSpacingEd, symObjAddr: 0x8C0, symBinAddr: 0x95060, symSize: 0x40 }
  - { offset: 0x382DB2, size: 0x8, addend: 0x0, symName: __ZN6VSTGUI14CRowColumnView9setMarginERKNS_5CRectE, symObjAddr: 0x900, symBinAddr: 0x950A0, symSize: 0x80 }
  - { offset: 0x382E33, size: 0x8, addend: 0x0, symName: __ZN6VSTGUI14CRowColumnView14setLayoutStyleENS0_11LayoutStyleE, symObjAddr: 0x980, symBinAddr: 0x95120, symSize: 0x40 }
  - { offset: 0x382E97, size: 0x8, addend: 0x0, symName: __ZNK6VSTGUI14CRowColumnView21isAnimateViewResizingEv, symObjAddr: 0x9C0, symBinAddr: 0x95160, symSize: 0x10 }
  - { offset: 0x382EBD, size: 0x8, addend: 0x0, symName: __ZN6VSTGUI14CRowColumnView22setAnimateViewResizingEb, symObjAddr: 0x9D0, symBinAddr: 0x95170, symSize: 0x20 }
  - { offset: 0x382F26, size: 0x8, addend: 0x0, symName: __ZNK6VSTGUI14CRowColumnView19hideClippedSubviewsEv, symObjAddr: 0x9F0, symBinAddr: 0x95190, symSize: 0x10 }
  - { offset: 0x382F62, size: 0x8, addend: 0x0, symName: __ZN6VSTGUI14CRowColumnView22setHideClippedSubviewsEb, symObjAddr: 0xA00, symBinAddr: 0x951A0, symSize: 0x20 }
  - { offset: 0x3830D9, size: 0x8, addend: 0x0, symName: __ZN6VSTGUI14CRowColumnView13resizeSubViewEPNS_5CViewERKNS_5CRectE, symObjAddr: 0xA20, symBinAddr: 0x951C0, symSize: 0x1C0 }
  - { offset: 0x383353, size: 0x8, addend: 0x0, symName: __ZN6VSTGUI14CRowColumnView19getMaxChildViewSizeERNS_6CPointE, symObjAddr: 0xBE0, symBinAddr: 0x95380, symSize: 0x90 }
  - { offset: 0x383634, size: 0x8, addend: 0x0, symName: __ZN6VSTGUI14CRowColumnView20layoutViewsEqualSizeEv, symObjAddr: 0xC70, symBinAddr: 0x95410, symSize: 0x480 }
  - { offset: 0x383D26, size: 0x8, addend: 0x0, symName: __ZN6VSTGUI14CRowColumnView11layoutViewsEv, symObjAddr: 0x10F0, symBinAddr: 0x95890, symSize: 0xE0 }
  - { offset: 0x383F87, size: 0x8, addend: 0x0, symName: __ZN6VSTGUI14CRowColumnView9sizeToFitEv, symObjAddr: 0x11D0, symBinAddr: 0x95970, symSize: 0x1D0 }
  - { offset: 0x384480, size: 0x8, addend: 0x0, symName: __ZN6VSTGUI14CRowColumnView6notifyEPNS_11CBaseObjectEPKc, symObjAddr: 0x13A0, symBinAddr: 0x95B40, symSize: 0x60 }
  - { offset: 0x3844FC, size: 0x8, addend: 0x0, symName: __ZN6VSTGUI24CAutoLayoutContainerView8attachedEPNS_5CViewE, symObjAddr: 0x1400, symBinAddr: 0x95BA0, symSize: 0x40 }
  - { offset: 0x384567, size: 0x8, addend: 0x0, symName: __ZN6VSTGUI24CAutoLayoutContainerView11setViewSizeERKNS_5CRectEb, symObjAddr: 0x1440, symBinAddr: 0x95BE0, symSize: 0x40 }
  - { offset: 0x3845DC, size: 0x8, addend: 0x0, symName: __ZN6VSTGUI24CAutoLayoutContainerView7addViewEPNS_5CViewES2_, symObjAddr: 0x1480, symBinAddr: 0x95C20, symSize: 0x40 }
  - { offset: 0x384658, size: 0x8, addend: 0x0, symName: __ZN6VSTGUI24CAutoLayoutContainerView10removeViewEPNS_5CViewEb, symObjAddr: 0x14C0, symBinAddr: 0x95C60, symSize: 0x40 }
  - { offset: 0x3846D4, size: 0x8, addend: 0x0, symName: __ZN6VSTGUI24CAutoLayoutContainerView16changeViewZOrderEPNS_5CViewEj, symObjAddr: 0x1500, symBinAddr: 0x95CA0, symSize: 0x40 }
  - { offset: 0x384750, size: 0x8, addend: 0x0, symName: __ZN6VSTGUI24CAutoLayoutContainerViewD1Ev, symObjAddr: 0x1580, symBinAddr: 0x1771F0, symSize: 0x10 }
  - { offset: 0x38477B, size: 0x8, addend: 0x0, symName: __ZN6VSTGUI24CAutoLayoutContainerViewD0Ev, symObjAddr: 0x1590, symBinAddr: 0x177200, symSize: 0x10 }
  - { offset: 0x3847F2, size: 0x8, addend: 0x0, symName: __ZN6VSTGUI14CRowColumnViewD1Ev, symObjAddr: 0x1810, symBinAddr: 0x95CE0, symSize: 0x20 }
  - { offset: 0x384868, size: 0x8, addend: 0x0, symName: __ZN6VSTGUI14CRowColumnViewD0Ev, symObjAddr: 0x1830, symBinAddr: 0x95D00, symSize: 0x30 }
  - { offset: 0x384970, size: 0x8, addend: 0x0, symName: __ZNK6VSTGUI14CRowColumnView7newCopyEv, symObjAddr: 0x1860, symBinAddr: 0x95D30, symSize: 0x80 }
  - { offset: 0x38FB55, size: 0x8, addend: 0x0, symName: __ZN6VSTGUI16CScrollContainerC2ERKNS_5CRectES3_, symObjAddr: 0x0, symBinAddr: 0x95DB0, symSize: 0x90 }
  - { offset: 0x38FC40, size: 0x8, addend: 0x0, symName: __ZN6VSTGUI16CScrollContainerC1ERKNS_5CRectES3_, symObjAddr: 0x90, symBinAddr: 0x95E40, symSize: 0x80 }
  - { offset: 0x38FCE9, size: 0x8, addend: 0x0, symName: __ZN6VSTGUI16CScrollContainerC2ERKS0_, symObjAddr: 0x110, symBinAddr: 0x95EC0, symSize: 0x70 }
  - { offset: 0x38FD33, size: 0x8, addend: 0x0, symName: __ZN6VSTGUI16CScrollContainerC1ERKS0_, symObjAddr: 0x180, symBinAddr: 0x95F30, symSize: 0x60 }
  - { offset: 0x38FD7B, size: 0x8, addend: 0x0, symName: __ZN6VSTGUI16CScrollContainer16setContainerSizeERKNS_5CRectE, symObjAddr: 0x1E0, symBinAddr: 0x95F90, symSize: 0x30 }
  - { offset: 0x38FDBF, size: 0x8, addend: 0x0, symName: __ZN6VSTGUI16CScrollContainer15setScrollOffsetENS_6CPointEb, symObjAddr: 0x210, symBinAddr: 0x95FC0, symSize: 0x4C0 }
  - { offset: 0x390425, size: 0x8, addend: 0x0, symName: __ZNK6VSTGUI16CScrollContainer7isDirtyEv, symObjAddr: 0x6D0, symBinAddr: 0x96480, symSize: 0xF0 }
  - { offset: 0x3905D6, size: 0x8, addend: 0x0, symName: __ZN6VSTGUI16CScrollContainer14getScrollValueERKNS_6CPointERfS4_, symObjAddr: 0x7D0, symBinAddr: 0x96570, symSize: 0x190 }
  - { offset: 0x39074B, size: 0x8, addend: 0x0, symName: __ZN6VSTGUI16CScrollContainer13getDropTargetEv, symObjAddr: 0x960, symBinAddr: 0x96700, symSize: 0x80 }
  - { offset: 0x39094B, size: 0x8, addend: 0x0, symName: __ZN6VSTGUI16CScrollContainer10onDragMoveENS_6CPointE, symObjAddr: 0xA10, symBinAddr: 0x96780, symSize: 0xA0 }
  - { offset: 0x390A94, size: 0x8, addend: 0x0, symName: __ZN6VSTGUI16CScrollContainer8attachedEPNS_5CViewE, symObjAddr: 0xAB0, symBinAddr: 0x96820, symSize: 0xD0 }
  - { offset: 0x390BE4, size: 0x8, addend: 0x0, symName: __ZN6VSTGUI16CScrollContainer6notifyEPNS_11CBaseObjectEPKc, symObjAddr: 0xB80, symBinAddr: 0x968F0, symSize: 0x110 }
  - { offset: 0x390D94, size: 0x8, addend: 0x0, symName: __ZN6VSTGUI11CScrollViewC2ERKNS_5CRectES3_idPNS_7CBitmapE, symObjAddr: 0xC90, symBinAddr: 0x96A00, symSize: 0x100 }
  - { offset: 0x390E8F, size: 0x8, addend: 0x0, symName: __ZN6VSTGUI11CScrollViewC1ERKNS_5CRectES3_idPNS_7CBitmapE, symObjAddr: 0xD90, symBinAddr: 0x96B00, symSize: 0xE0 }
  - { offset: 0x390F42, size: 0x8, addend: 0x0, symName: __ZN6VSTGUI11CScrollViewC2ERKS0_, symObjAddr: 0xE70, symBinAddr: 0x96BE0, symSize: 0x150 }
  - { offset: 0x39100B, size: 0x8, addend: 0x0, symName: __ZN6VSTGUI11CScrollViewC1ERKS0_, symObjAddr: 0xFC0, symBinAddr: 0x96D30, symSize: 0x140 }
  - { offset: 0x3910AE, size: 0x8, addend: 0x0, symName: __ZNK6VSTGUI11CScrollView29calculateOptimalContainerSizeEv, symObjAddr: 0x1100, symBinAddr: 0x96E70, symSize: 0xC0 }
  - { offset: 0x3911A4, size: 0x8, addend: 0x0, symName: __ZN6VSTGUI11CScrollView19recalculateSubViewsEv, symObjAddr: 0x11C0, symBinAddr: 0x96F30, symSize: 0x610 }
  - { offset: 0x39160F, size: 0x8, addend: 0x0, symName: __ZN6VSTGUI11CScrollView11setViewSizeERKNS_5CRectEb, symObjAddr: 0x17D0, symBinAddr: 0x97540, symSize: 0x50 }
  - { offset: 0x391679, size: 0x8, addend: 0x0, symName: __ZN6VSTGUI11CScrollView16setAutosizeFlagsEi, symObjAddr: 0x1820, symBinAddr: 0x97590, symSize: 0x40 }
  - { offset: 0x3916C0, size: 0x8, addend: 0x0, symName: __ZN6VSTGUI11CScrollView8setStyleEi, symObjAddr: 0x1860, symBinAddr: 0x975D0, symSize: 0x50 }
  - { offset: 0x39171A, size: 0x8, addend: 0x0, symName: __ZN6VSTGUI11CScrollView17setScrollbarWidthEd, symObjAddr: 0x18B0, symBinAddr: 0x97620, symSize: 0x20 }
  - { offset: 0x3917A5, size: 0x8, addend: 0x0, symName: __ZN6VSTGUI11CScrollView16setContainerSizeERKNS_5CRectEb, symObjAddr: 0x18D0, symBinAddr: 0x97640, symSize: 0x3B0 }
  - { offset: 0x391B42, size: 0x8, addend: 0x0, symName: __ZN6VSTGUI11CScrollView15makeRectVisibleERKNS_5CRectE, symObjAddr: 0x1C80, symBinAddr: 0x979F0, symSize: 0x270 }
  - { offset: 0x391CB5, size: 0x8, addend: 0x0, symName: __ZN6VSTGUI11CScrollView17resetScrollOffsetEv, symObjAddr: 0x1EF0, symBinAddr: 0x97C60, symSize: 0xB0 }
  - { offset: 0x391D71, size: 0x8, addend: 0x0, symName: __ZNK6VSTGUI11CScrollView15getScrollOffsetEv, symObjAddr: 0x1FA0, symBinAddr: 0x97D10, symSize: 0x10 }
  - { offset: 0x391DB6, size: 0x8, addend: 0x0, symName: __ZN6VSTGUI11CScrollView7addViewEPNS_5CViewES2_, symObjAddr: 0x1FB0, symBinAddr: 0x97D20, symSize: 0x20 }
  - { offset: 0x391E19, size: 0x8, addend: 0x0, symName: __ZN6VSTGUI11CScrollView10removeViewEPNS_5CViewEb, symObjAddr: 0x1FD0, symBinAddr: 0x97D40, symSize: 0x20 }
  - { offset: 0x391E88, size: 0x8, addend: 0x0, symName: __ZN6VSTGUI11CScrollView9removeAllEb, symObjAddr: 0x1FF0, symBinAddr: 0x97D60, symSize: 0x20 }
  - { offset: 0x391EE1, size: 0x8, addend: 0x0, symName: __ZNK6VSTGUI11CScrollView10getNbViewsEv, symObjAddr: 0x2010, symBinAddr: 0x97D80, symSize: 0x20 }
  - { offset: 0x391F17, size: 0x8, addend: 0x0, symName: __ZNK6VSTGUI11CScrollView7getViewEj, symObjAddr: 0x2030, symBinAddr: 0x97DA0, symSize: 0x20 }
  - { offset: 0x391F64, size: 0x8, addend: 0x0, symName: __ZN6VSTGUI11CScrollView16changeViewZOrderEPNS_5CViewEj, symObjAddr: 0x2050, symBinAddr: 0x97DC0, symSize: 0x20 }
  - { offset: 0x391FC7, size: 0x8, addend: 0x0, symName: __ZN6VSTGUI11CScrollView15setTransparencyEb, symObjAddr: 0x2070, symBinAddr: 0x97DE0, symSize: 0x10 }
  - { offset: 0x39200A, size: 0x8, addend: 0x0, symName: __ZN6VSTGUI11CScrollView18setBackgroundColorERKNS_6CColorE, symObjAddr: 0x2080, symBinAddr: 0x97DF0, symSize: 0x10 }
  - { offset: 0x392078, size: 0x8, addend: 0x0, symName: __ZN6VSTGUI11CScrollView12valueChangedEPNS_8CControlE, symObjAddr: 0x2090, symBinAddr: 0x97E00, symSize: 0x110 }
  - { offset: 0x3921D6, size: 0x8, addend: 0x0, symName: __ZThn32_N6VSTGUI11CScrollView12valueChangedEPNS_8CControlE, symObjAddr: 0x21A0, symBinAddr: 0x97F10, symSize: 0x10 }
  - { offset: 0x392204, size: 0x8, addend: 0x0, symName: __ZN6VSTGUI11CScrollView18drawBackgroundRectEPNS_12CDrawContextERKNS_5CRectE, symObjAddr: 0x21B0, symBinAddr: 0x97F20, symSize: 0x60 }
  - { offset: 0x392298, size: 0x8, addend: 0x0, symName: __ZN6VSTGUI11CScrollView17onMouseWheelEventERNS_15MouseWheelEventE, symObjAddr: 0x2210, symBinAddr: 0x97F80, symSize: 0x70 }
  - { offset: 0x3922F2, size: 0x8, addend: 0x0, symName: __ZN6VSTGUI11CScrollView6notifyEPNS_11CBaseObjectEPKc, symObjAddr: 0x2280, symBinAddr: 0x97FF0, symSize: 0xE0 }
  - { offset: 0x39244B, size: 0x8, addend: 0x0, symName: __ZN6VSTGUI11CScrollView15viewSizeChangedEPNS_5CViewERKNS_5CRectE, symObjAddr: 0x2360, symBinAddr: 0x980D0, symSize: 0x50 }
  - { offset: 0x3924C4, size: 0x8, addend: 0x0, symName: __ZThn40_N6VSTGUI11CScrollView15viewSizeChangedEPNS_5CViewERKNS_5CRectE, symObjAddr: 0x23B0, symBinAddr: 0x98120, symSize: 0x50 }
  - { offset: 0x392512, size: 0x8, addend: 0x0, symName: __ZN6VSTGUI11CScrollView14viewWillDeleteEPNS_5CViewE, symObjAddr: 0x2400, symBinAddr: 0x98170, symSize: 0x30 }
  - { offset: 0x392562, size: 0x8, addend: 0x0, symName: __ZThn40_N6VSTGUI11CScrollView14viewWillDeleteEPNS_5CViewE, symObjAddr: 0x2430, symBinAddr: 0x981A0, symSize: 0x30 }
  - { offset: 0x3925BD, size: 0x8, addend: 0x0, symName: __ZN6VSTGUI16CScrollContainerD1Ev, symObjAddr: 0x2700, symBinAddr: 0x981D0, symSize: 0x20 }
  - { offset: 0x392614, size: 0x8, addend: 0x0, symName: __ZN6VSTGUI16CScrollContainerD0Ev, symObjAddr: 0x2720, symBinAddr: 0x981F0, symSize: 0x30 }
  - { offset: 0x39269F, size: 0x8, addend: 0x0, symName: __ZNK6VSTGUI16CScrollContainer7newCopyEv, symObjAddr: 0x2750, symBinAddr: 0x98220, symSize: 0x80 }
  - { offset: 0x392745, size: 0x8, addend: 0x0, symName: __ZThn32_N6VSTGUI11CScrollViewD1Ev, symObjAddr: 0x2860, symBinAddr: 0x982A0, symSize: 0x20 }
  - { offset: 0x3927AF, size: 0x8, addend: 0x0, symName: __ZThn32_N6VSTGUI11CScrollViewD0Ev, symObjAddr: 0x2880, symBinAddr: 0x982C0, symSize: 0x30 }
  - { offset: 0x39281E, size: 0x8, addend: 0x0, symName: __ZThn40_N6VSTGUI11CScrollViewD1Ev, symObjAddr: 0x2900, symBinAddr: 0x982F0, symSize: 0x20 }
  - { offset: 0x39286E, size: 0x8, addend: 0x0, symName: __ZThn40_N6VSTGUI11CScrollViewD0Ev, symObjAddr: 0x2920, symBinAddr: 0x98310, symSize: 0x30 }
  - { offset: 0x3928DD, size: 0x8, addend: 0x0, symName: __ZN6VSTGUI19ViewListenerAdapterD1Ev, symObjAddr: 0x29C0, symBinAddr: 0x98340, symSize: 0x10 }
  - { offset: 0x392908, size: 0x8, addend: 0x0, symName: __ZN6VSTGUI19ViewListenerAdapterD0Ev, symObjAddr: 0x29D0, symBinAddr: 0x98350, symSize: 0x10 }
  - { offset: 0x392933, size: 0x8, addend: 0x0, symName: __ZN6VSTGUI19ViewListenerAdapter14viewWillDeleteEPNS_5CViewE, symObjAddr: 0x29F0, symBinAddr: 0x98360, symSize: 0x10 }
  - { offset: 0x392981, size: 0x8, addend: 0x0, symName: __ZN6VSTGUI16CScrollContainer10DropTarget11onDragEnterENS_13DragEventDataE, symObjAddr: 0x2A70, symBinAddr: 0x98370, symSize: 0x10 }
  - { offset: 0x392A34, size: 0x8, addend: 0x0, symName: __ZN6VSTGUI16CScrollContainer10DropTarget10onDragMoveENS_13DragEventDataE, symObjAddr: 0x2A80, symBinAddr: 0x98380, symSize: 0xD0 }
  - { offset: 0x392B98, size: 0x8, addend: 0x0, symName: __ZN6VSTGUI16CScrollContainer10DropTarget11onDragLeaveENS_13DragEventDataE, symObjAddr: 0x2B50, symBinAddr: 0x98450, symSize: 0x10 }
  - { offset: 0x392BF9, size: 0x8, addend: 0x0, symName: __ZN6VSTGUI16CScrollContainer10DropTarget6onDropENS_13DragEventDataE, symObjAddr: 0x2B60, symBinAddr: 0x98460, symSize: 0x10 }
  - { offset: 0x392C9C, size: 0x8, addend: 0x0, symName: __ZN6VSTGUI16CScrollContainer10DropTargetD1Ev, symObjAddr: 0x2B70, symBinAddr: 0x98470, symSize: 0x40 }
  - { offset: 0x392D2B, size: 0x8, addend: 0x0, symName: __ZN6VSTGUI16CScrollContainer10DropTargetD0Ev, symObjAddr: 0x2BB0, symBinAddr: 0x984B0, symSize: 0x50 }
  - { offset: 0x392DB5, size: 0x8, addend: 0x0, symName: __ZThn8_N6VSTGUI16CScrollContainer10DropTargetD1Ev, symObjAddr: 0x2C00, symBinAddr: 0x98500, symSize: 0x40 }
  - { offset: 0x392E4F, size: 0x8, addend: 0x0, symName: __ZThn8_N6VSTGUI16CScrollContainer10DropTargetD0Ev, symObjAddr: 0x2C40, symBinAddr: 0x98540, symSize: 0x52 }
  - { offset: 0x394D9E, size: 0x8, addend: 0x0, symName: __ZN6VSTGUI20CShadowViewContainerC2ERKNS_5CRectE, symObjAddr: 0x0, symBinAddr: 0x985A0, symSize: 0xB0 }
  - { offset: 0x394DD0, size: 0x8, addend: 0x0, symName: __ZN6VSTGUIL12kBlackCColorE, symObjAddr: 0x2099, symBinAddr: 0x17C3B8, symSize: 0x0 }
  - { offset: 0x398A13, size: 0x8, addend: 0x0, symName: __ZN6VSTGUIL13boxesForGaussILm3EEENSt3__15arrayIiXT_EEEd, symObjAddr: 0xAF0, symBinAddr: 0x99090, symSize: 0xB0 }
  - { offset: 0x39DA82, size: 0x8, addend: 0x0, symName: __ZN6VSTGUI20CShadowViewContainerC2ERKNS_5CRectE, symObjAddr: 0x0, symBinAddr: 0x985A0, symSize: 0xB0 }
  - { offset: 0x39DB63, size: 0x8, addend: 0x0, symName: __ZN6VSTGUI20CShadowViewContainerC1ERKNS_5CRectE, symObjAddr: 0xB0, symBinAddr: 0x98650, symSize: 0x90 }
  - { offset: 0x39DBFB, size: 0x8, addend: 0x0, symName: __ZN6VSTGUI20CShadowViewContainerC2ERKS0_, symObjAddr: 0x140, symBinAddr: 0x986E0, symSize: 0xC0 }
  - { offset: 0x39DCC0, size: 0x8, addend: 0x0, symName: __ZN6VSTGUI20CShadowViewContainerC1ERKS0_, symObjAddr: 0x200, symBinAddr: 0x987A0, symSize: 0xA0 }
  - { offset: 0x39DD46, size: 0x8, addend: 0x0, symName: __ZN6VSTGUI20CShadowViewContainerD2Ev, symObjAddr: 0x2A0, symBinAddr: 0x98840, symSize: 0x10 }
  - { offset: 0x39DD9F, size: 0x8, addend: 0x0, symName: __ZN6VSTGUI20CShadowViewContainerD1Ev, symObjAddr: 0x2B0, symBinAddr: 0x98850, symSize: 0x20 }
  - { offset: 0x39DDF8, size: 0x8, addend: 0x0, symName: __ZThn32_N6VSTGUI20CShadowViewContainerD1Ev, symObjAddr: 0x2D0, symBinAddr: 0x98870, symSize: 0x20 }
  - { offset: 0x39DE48, size: 0x8, addend: 0x0, symName: __ZThn40_N6VSTGUI20CShadowViewContainerD1Ev, symObjAddr: 0x2F0, symBinAddr: 0x98890, symSize: 0x20 }
  - { offset: 0x39DE98, size: 0x8, addend: 0x0, symName: __ZN6VSTGUI20CShadowViewContainerD0Ev, symObjAddr: 0x310, symBinAddr: 0x988B0, symSize: 0x30 }
  - { offset: 0x39DF10, size: 0x8, addend: 0x0, symName: __ZThn32_N6VSTGUI20CShadowViewContainerD0Ev, symObjAddr: 0x340, symBinAddr: 0x988E0, symSize: 0x30 }
  - { offset: 0x39DF7F, size: 0x8, addend: 0x0, symName: __ZThn40_N6VSTGUI20CShadowViewContainerD0Ev, symObjAddr: 0x370, symBinAddr: 0x98910, symSize: 0x30 }
  - { offset: 0x39DFEE, size: 0x8, addend: 0x0, symName: __ZN6VSTGUI20CShadowViewContainer12beforeDeleteEv, symObjAddr: 0x3A0, symBinAddr: 0x98940, symSize: 0x20 }
  - { offset: 0x39E017, size: 0x8, addend: 0x0, symName: __ZN6VSTGUI20CShadowViewContainer7removedEPNS_5CViewE, symObjAddr: 0x3C0, symBinAddr: 0x98960, symSize: 0x40 }
  - { offset: 0x39E080, size: 0x8, addend: 0x0, symName: __ZN6VSTGUI20CShadowViewContainer8attachedEPNS_5CViewE, symObjAddr: 0x400, symBinAddr: 0x989A0, symSize: 0x50 }
  - { offset: 0x39E0E9, size: 0x8, addend: 0x0, symName: __ZN6VSTGUI20CShadowViewContainer16invalidateShadowEv, symObjAddr: 0x450, symBinAddr: 0x989F0, symSize: 0x20 }
  - { offset: 0x39E11D, size: 0x8, addend: 0x0, symName: __ZN6VSTGUI20CShadowViewContainer20onScaleFactorChangedEPNS_6CFrameEd, symObjAddr: 0x470, symBinAddr: 0x98A10, symSize: 0x20 }
  - { offset: 0x39E1A8, size: 0x8, addend: 0x0, symName: __ZThn32_N6VSTGUI20CShadowViewContainer20onScaleFactorChangedEPNS_6CFrameEd, symObjAddr: 0x490, symBinAddr: 0x98A30, symSize: 0x20 }
  - { offset: 0x39E22A, size: 0x8, addend: 0x0, symName: __ZN6VSTGUI20CShadowViewContainer15setShadowOffsetERKNS_6CPointE, symObjAddr: 0x4B0, symBinAddr: 0x98A50, symSize: 0x40 }
  - { offset: 0x39E2A5, size: 0x8, addend: 0x0, symName: __ZN6VSTGUI20CShadowViewContainer18setShadowIntensityEf, symObjAddr: 0x4F0, symBinAddr: 0x98A90, symSize: 0x20 }
  - { offset: 0x39E2E6, size: 0x8, addend: 0x0, symName: __ZN6VSTGUI20CShadowViewContainer17setShadowBlurSizeEd, symObjAddr: 0x510, symBinAddr: 0x98AB0, symSize: 0x30 }
  - { offset: 0x39E344, size: 0x8, addend: 0x0, symName: __ZN6VSTGUI20CShadowViewContainer6notifyEPNS_11CBaseObjectEPKc, symObjAddr: 0x540, symBinAddr: 0x98AE0, symSize: 0x50 }
  - { offset: 0x39E68B, size: 0x8, addend: 0x0, symName: __ZN6VSTGUI20CShadowViewContainer8drawRectEPNS_12CDrawContextERKNS_5CRectE, symObjAddr: 0x590, symBinAddr: 0x98B30, symSize: 0x560 }
  - { offset: 0x39ECD3, size: 0x8, addend: 0x0, symName: __ZN6VSTGUI20CShadowViewContainer18drawBackgroundRectEPNS_12CDrawContextERKNS_5CRectE, symObjAddr: 0xBA0, symBinAddr: 0x99140, symSize: 0x70 }
  - { offset: 0x39ED5D, size: 0x8, addend: 0x0, symName: __ZN6VSTGUI20CShadowViewContainer11setViewSizeERKNS_5CRectEb, symObjAddr: 0xC10, symBinAddr: 0x991B0, symSize: 0xF0 }
  - { offset: 0x39EEBD, size: 0x8, addend: 0x0, symName: __ZN6VSTGUI20CShadowViewContainer22viewContainerViewAddedEPNS_14CViewContainerEPNS_5CViewE, symObjAddr: 0xD00, symBinAddr: 0x992A0, symSize: 0x50 }
  - { offset: 0x39EF5A, size: 0x8, addend: 0x0, symName: __ZThn40_N6VSTGUI20CShadowViewContainer22viewContainerViewAddedEPNS_14CViewContainerEPNS_5CViewE, symObjAddr: 0xD50, symBinAddr: 0x992F0, symSize: 0x50 }
  - { offset: 0x39EFD6, size: 0x8, addend: 0x0, symName: __ZN6VSTGUI20CShadowViewContainer24viewContainerViewRemovedEPNS_14CViewContainerEPNS_5CViewE, symObjAddr: 0xDA0, symBinAddr: 0x99340, symSize: 0x50 }
  - { offset: 0x39F073, size: 0x8, addend: 0x0, symName: __ZThn40_N6VSTGUI20CShadowViewContainer24viewContainerViewRemovedEPNS_14CViewContainerEPNS_5CViewE, symObjAddr: 0xDF0, symBinAddr: 0x99390, symSize: 0x50 }
  - { offset: 0x39F0EF, size: 0x8, addend: 0x0, symName: __ZN6VSTGUI20CShadowViewContainer30viewContainerViewZOrderChangedEPNS_14CViewContainerEPNS_5CViewE, symObjAddr: 0xE40, symBinAddr: 0x993E0, symSize: 0x50 }
  - { offset: 0x39F18C, size: 0x8, addend: 0x0, symName: __ZThn40_N6VSTGUI20CShadowViewContainer30viewContainerViewZOrderChangedEPNS_14CViewContainerEPNS_5CViewE, symObjAddr: 0xE90, symBinAddr: 0x99430, symSize: 0x50 }
  - { offset: 0x39F22F, size: 0x8, addend: 0x0, symName: __ZNK6VSTGUI20CShadowViewContainer7newCopyEv, symObjAddr: 0x1190, symBinAddr: 0x99480, symSize: 0xD0 }
  - { offset: 0x3A4C08, size: 0x8, addend: 0x0, symName: __ZN6VSTGUI17getViewControllerEPKNS_5CViewEb, symObjAddr: 0x2CB0, symBinAddr: 0x9BEE0, symSize: 0x7E }
  - { offset: 0x3AABAE, size: 0x8, addend: 0x0, symName: __ZN6VSTGUI10CSplitViewC2ERKNS_5CRectENS0_5StyleEdPNS_25ISplitViewSeparatorDrawerE, symObjAddr: 0x0, symBinAddr: 0x99550, symSize: 0x70 }
  - { offset: 0x3AAC4A, size: 0x8, addend: 0x0, symName: __ZN6VSTGUI10CSplitViewC1ERKNS_5CRectENS0_5StyleEdPNS_25ISplitViewSeparatorDrawerE, symObjAddr: 0x70, symBinAddr: 0x995C0, symSize: 0x70 }
  - { offset: 0x3AACD4, size: 0x8, addend: 0x0, symName: __ZN6VSTGUI10CSplitView8setStyleENS0_5StyleE, symObjAddr: 0xE0, symBinAddr: 0x99630, symSize: 0x10 }
  - { offset: 0x3AAD09, size: 0x8, addend: 0x0, symName: __ZN6VSTGUI10CSplitView15setResizeMethodENS0_12ResizeMethodE, symObjAddr: 0xF0, symBinAddr: 0x99640, symSize: 0x10 }
  - { offset: 0x3AAECF, size: 0x8, addend: 0x0, symName: __ZN6VSTGUI10CSplitView17setSeparatorWidthEd, symObjAddr: 0x100, symBinAddr: 0x99650, symSize: 0x140 }
  - { offset: 0x3AB19C, size: 0x8, addend: 0x0, symName: __ZN6VSTGUI10CSplitView23requestNewSeparatorSizeEPNS_23CSplitViewSeparatorViewERKNS_5CRectE, symObjAddr: 0x240, symBinAddr: 0x99790, symSize: 0x770 }
  - { offset: 0x3AC069, size: 0x8, addend: 0x0, symName: __ZN6VSTGUI10CSplitView15resizeFirstViewENS_6CPointE, symObjAddr: 0x9B0, symBinAddr: 0x99F00, symSize: 0x350 }
  - { offset: 0x3ACBDE, size: 0x8, addend: 0x0, symName: __ZN6VSTGUI10CSplitView16resizeSecondViewENS_6CPointE, symObjAddr: 0xD60, symBinAddr: 0x9A250, symSize: 0x2F0 }
  - { offset: 0x3AD466, size: 0x8, addend: 0x0, symName: __ZN6VSTGUI10CSplitView14resizeLastViewENS_6CPointE, symObjAddr: 0x1050, symBinAddr: 0x9A540, symSize: 0x310 }
  - { offset: 0x3AE034, size: 0x8, addend: 0x0, symName: __ZN6VSTGUI10CSplitView16resizeViewsEqualENS_6CPointE, symObjAddr: 0x1360, symBinAddr: 0x9A850, symSize: 0x460 }
  - { offset: 0x3AEA9C, size: 0x8, addend: 0x0, symName: __ZN6VSTGUI10CSplitView11setViewSizeERKNS_5CRectEb, symObjAddr: 0x17C0, symBinAddr: 0x9ACB0, symSize: 0x120 }
  - { offset: 0x3AEC97, size: 0x8, addend: 0x0, symName: __ZN6VSTGUI10CSplitView7addViewEPNS_5CViewES2_, symObjAddr: 0x18E0, symBinAddr: 0x9ADD0, symSize: 0x2D0 }
  - { offset: 0x3AF166, size: 0x8, addend: 0x0, symName: __ZN6VSTGUI23CSplitViewSeparatorViewC1ERKNS_5CRectENS_10CSplitView5StyleEi, symObjAddr: 0x1BB0, symBinAddr: 0x9B0A0, symSize: 0x90 }
  - { offset: 0x3AF1FE, size: 0x8, addend: 0x0, symName: __ZN6VSTGUI10CSplitView10removeViewEPNS_5CViewEb, symObjAddr: 0x1C40, symBinAddr: 0x9B130, symSize: 0x1B0 }
  - { offset: 0x3AF6AA, size: 0x8, addend: 0x0, symName: __ZN6VSTGUI10CSplitView9removeAllEb, symObjAddr: 0x1DF0, symBinAddr: 0x9B2E0, symSize: 0x10 }
  - { offset: 0x3AF6ED, size: 0x8, addend: 0x0, symName: __ZN6VSTGUI10CSplitView9sizeToFitEv, symObjAddr: 0x1E00, symBinAddr: 0x9B2F0, symSize: 0x10 }
  - { offset: 0x3AF713, size: 0x8, addend: 0x0, symName: __ZN6VSTGUI10CSplitView14storeViewSizesEv, symObjAddr: 0x1E10, symBinAddr: 0x9B300, symSize: 0x1A0 }
  - { offset: 0x3AF9D1, size: 0x8, addend: 0x0, symName: __ZN6VSTGUI10CSplitView7removedEPNS_5CViewE, symObjAddr: 0x1FB0, symBinAddr: 0x9B4A0, symSize: 0x30 }
  - { offset: 0x3AFA21, size: 0x8, addend: 0x0, symName: __ZN6VSTGUI10CSplitView8attachedEPNS_5CViewE, symObjAddr: 0x1FE0, symBinAddr: 0x9B4D0, symSize: 0x2E0 }
  - { offset: 0x3AFE5F, size: 0x8, addend: 0x0, symName: __ZN6VSTGUI10CSplitView9getDrawerEv, symObjAddr: 0x22C0, symBinAddr: 0x9B7B0, symSize: 0x60 }
  - { offset: 0x3AFEE9, size: 0x8, addend: 0x0, symName: __ZN6VSTGUI10CSplitView18addViewToSeparatorEiPNS_5CViewE, symObjAddr: 0x2320, symBinAddr: 0x9B810, symSize: 0xF0 }
  - { offset: 0x3B00BE, size: 0x8, addend: 0x0, symName: __ZN6VSTGUI23CSplitViewSeparatorViewC2ERKNS_5CRectENS_10CSplitView5StyleEi, symObjAddr: 0x2410, symBinAddr: 0x9B900, symSize: 0xA0 }
  - { offset: 0x3B01B3, size: 0x8, addend: 0x0, symName: __ZN6VSTGUI23CSplitViewSeparatorView8drawRectEPNS_12CDrawContextERKNS_5CRectE, symObjAddr: 0x24B0, symBinAddr: 0x9B9A0, symSize: 0xC0 }
  - { offset: 0x3B02BD, size: 0x8, addend: 0x0, symName: __ZN6VSTGUI23CSplitViewSeparatorView15hitTestSubViewsERKNS_6CPointERKNS_5EventE, symObjAddr: 0x2570, symBinAddr: 0x9BA60, symSize: 0x20 }
  - { offset: 0x3B033F, size: 0x8, addend: 0x0, symName: __ZN6VSTGUI23CSplitViewSeparatorView16onMouseDownEventERNS_14MouseDownEventE, symObjAddr: 0x2590, symBinAddr: 0x9BA80, symSize: 0x90 }
  - { offset: 0x3B03E7, size: 0x8, addend: 0x0, symName: __ZN6VSTGUI23CSplitViewSeparatorView10mouseMovedERNS_10MouseEventE, symObjAddr: 0x2620, symBinAddr: 0x9BB10, symSize: 0x1C0 }
  - { offset: 0x3B0926, size: 0x8, addend: 0x0, symName: __ZN6VSTGUI23CSplitViewSeparatorView14onMouseUpEventERNS_12MouseUpEventE, symObjAddr: 0x27E0, symBinAddr: 0x9BCD0, symSize: 0x50 }
  - { offset: 0x3B09E1, size: 0x8, addend: 0x0, symName: __ZN6VSTGUI23CSplitViewSeparatorView16onMouseMoveEventERNS_14MouseMoveEventE, symObjAddr: 0x2830, symBinAddr: 0x9BD20, symSize: 0x30 }
  - { offset: 0x3B0A29, size: 0x8, addend: 0x0, symName: __ZN6VSTGUI23CSplitViewSeparatorView17onMouseEnterEventERNS_15MouseEnterEventE, symObjAddr: 0x2860, symBinAddr: 0x9BD50, symSize: 0x60 }
  - { offset: 0x3B0AB8, size: 0x8, addend: 0x0, symName: __ZN6VSTGUI23CSplitViewSeparatorView16onMouseExitEventERNS_14MouseExitEventE, symObjAddr: 0x28C0, symBinAddr: 0x9BDB0, symSize: 0x40 }
  - { offset: 0x3B0B5B, size: 0x8, addend: 0x0, symName: __ZN6VSTGUI23CSplitViewSeparatorView7removedEPNS_5CViewE, symObjAddr: 0x2900, symBinAddr: 0x9BDF0, symSize: 0x50 }
  - { offset: 0x3B0BDA, size: 0x8, addend: 0x0, symName: __ZN6VSTGUI10CSplitViewD1Ev, symObjAddr: 0x2C00, symBinAddr: 0x9BE40, symSize: 0x20 }
  - { offset: 0x3B0C31, size: 0x8, addend: 0x0, symName: __ZN6VSTGUI10CSplitViewD0Ev, symObjAddr: 0x2C20, symBinAddr: 0x9BE60, symSize: 0x30 }
  - { offset: 0x3B0CBC, size: 0x8, addend: 0x0, symName: __ZN6VSTGUI23CSplitViewSeparatorViewD1Ev, symObjAddr: 0x2C50, symBinAddr: 0x9BE90, symSize: 0x20 }
  - { offset: 0x3B0D15, size: 0x8, addend: 0x0, symName: __ZN6VSTGUI23CSplitViewSeparatorViewD0Ev, symObjAddr: 0x2C70, symBinAddr: 0x9BEB0, symSize: 0x30 }
  - { offset: 0x3B76F2, size: 0x8, addend: 0x0, symName: __ZN6VSTGUI4trimERKNS_10UTF8StringENS_11TrimOptionsE, symObjAddr: 0x1440, symBinAddr: 0x9D1E0, symSize: 0x480 }
  - { offset: 0x3B827D, size: 0x8, addend: 0x0, symName: __ZN6VSTGUI7isSpaceEDi, symObjAddr: 0x13C0, symBinAddr: 0x9D160, symSize: 0x80 }
  - { offset: 0x3B82ED, size: 0x8, addend: 0x0, symName: __ZN6VSTGUI6String13newWithStringEPKc, symObjAddr: 0x18C0, symBinAddr: 0x9D660, symSize: 0x40 }
  - { offset: 0x3B8375, size: 0x8, addend: 0x0, symName: __ZN6VSTGUI6String4freeEPc, symObjAddr: 0x1900, symBinAddr: 0x9D6A0, symSize: 0x20 }
  - { offset: 0x3B8A0F, size: 0x8, addend: 0x0, symName: __ZNK6VSTGUI14UTF8StringView8toDoubleEj, symObjAddr: 0x0, symBinAddr: 0x9BF60, symSize: 0x250 }
  - { offset: 0x3B938A, size: 0x8, addend: 0x0, symName: __ZNSt3__119basic_istringstreamIcNS_11char_traitsIcEENS_9allocatorIcEEEC1B8ne180100ERKNS_12basic_stringIcS2_S4_EEj, symObjAddr: 0x250, symBinAddr: 0x9C1B0, symSize: 0x120 }
  - { offset: 0x3B95D5, size: 0x8, addend: 0x0, symName: __ZNSt3__119basic_istringstreamIcNS_11char_traitsIcEENS_9allocatorIcEEED1Ev, symObjAddr: 0x370, symBinAddr: 0x9C2D0, symSize: 0x80 }
  - { offset: 0x3B99E9, size: 0x8, addend: 0x0, symName: __ZNK6VSTGUI14UTF8StringView9toIntegerEv, symObjAddr: 0x3F0, symBinAddr: 0x9C350, symSize: 0x250 }
  - { offset: 0x3BA3B8, size: 0x8, addend: 0x0, symName: __ZN6VSTGUI10UTF8StringC2EPKc, symObjAddr: 0x640, symBinAddr: 0x9C5A0, symSize: 0x50 }
  - { offset: 0x3BA562, size: 0x8, addend: 0x0, symName: __ZN6VSTGUI10UTF8StringC1EPKc, symObjAddr: 0x690, symBinAddr: 0x9C5F0, symSize: 0x50 }
  - { offset: 0x3BA794, size: 0x8, addend: 0x0, symName: __ZN6VSTGUI10UTF8StringC2ERKNSt3__112basic_stringIcNS1_11char_traitsIcEENS1_9allocatorIcEEEE, symObjAddr: 0x6E0, symBinAddr: 0x9C640, symSize: 0x40 }
  - { offset: 0x3BABCA, size: 0x8, addend: 0x0, symName: __ZN6VSTGUI10UTF8StringC2EONSt3__112basic_stringIcNS1_11char_traitsIcEENS1_9allocatorIcEEEE, symObjAddr: 0x760, symBinAddr: 0x9C680, symSize: 0x50 }
  - { offset: 0x3BACE9, size: 0x8, addend: 0x0, symName: __ZN6VSTGUI10UTF8StringaSEONSt3__112basic_stringIcNS1_11char_traitsIcEENS1_9allocatorIcEEEE, symObjAddr: 0x7B0, symBinAddr: 0x9C6D0, symSize: 0x60 }
