---
triple:          'x86_64-apple-darwin'
binary-path:     '/Users/noahlynaugh/Desktop/Coding/Studio_PLND/Digital-Effect-Controller/DEC/VST_Plugin/vst3sdk/build/VST3/Release/again.vst3/Contents/MacOS/again'
relocations:
  - { offset: 0x49, size: 0x8, addend: 0x0, symName: __ZN9Steinberg3VstL17AGainProcessorUIDE, symObjAddr: 0x3B9F0, symBinAddr: 0x1D0920, symSize: 0x0 }
  - { offset: 0x62, size: 0x8, addend: 0x0, symName: __ZN9Steinberg3VstL30AGainWithSideChainProcessorUIDE, symObjAddr: 0x3BA08, symBinAddr: 0x1D0938, symSize: 0x0 }
  - { offset: 0x7B, size: 0x8, addend: 0x0, symName: __ZN9Steinberg3VstL18AGainControllerUIDE, symObjAddr: 0x3BA20, symBinAddr: 0x1D0950, symSize: 0x0 }
  - { offset: 0x22F0, size: 0x8, addend: 0x0, symName: __ZN9Steinberg3Vst7Helpers14isProjectStateEPNS_8IBStreamE, symObjAddr: 0xEB0, symBinAddr: 0x6510, symSize: 0x1D0 }
  - { offset: 0x9B45, size: 0x8, addend: 0x0, symName: __ZNSt3__120__throw_length_errorB8ne180100EPKc, symObjAddr: 0x1EB0, symBinAddr: 0x7510, symSize: 0x50 }
  - { offset: 0x9B82, size: 0x8, addend: 0x0, symName: __ZNSt3__120__throw_out_of_rangeB8ne180100EPKc, symObjAddr: 0x1F80, symBinAddr: 0x75E0, symSize: 0x50 }
  - { offset: 0xAA82, size: 0x8, addend: 0x0, symName: __ZSt28__throw_bad_array_new_lengthB8ne180100v, symObjAddr: 0x1F30, symBinAddr: 0x7590, symSize: 0x40 }
  - { offset: 0xB1BB, size: 0x8, addend: 0x0, symName: __ZN9Steinberg3Vst5AGainC2Ev, symObjAddr: 0x0, symBinAddr: 0x5660, symSize: 0xB0 }
  - { offset: 0xB232, size: 0x8, addend: 0x0, symName: __ZN9Steinberg3Vst9ComponentD2Ev, symObjAddr: 0x1AB0, symBinAddr: 0x7110, symSize: 0x1F0 }
  - { offset: 0xB89E, size: 0x8, addend: 0x0, symName: __ZN9Steinberg3Vst5AGainC1Ev, symObjAddr: 0xB0, symBinAddr: 0x5710, symSize: 0xB0 }
  - { offset: 0xB936, size: 0x8, addend: 0x0, symName: __ZN9Steinberg3Vst5AGainD2Ev, symObjAddr: 0x160, symBinAddr: 0x57C0, symSize: 0x10 }
  - { offset: 0xB9A1, size: 0x8, addend: 0x0, symName: __ZN9Steinberg3Vst5AGainD1Ev, symObjAddr: 0x170, symBinAddr: 0x57D0, symSize: 0x10 }
  - { offset: 0xBA29, size: 0x8, addend: 0x0, symName: __ZN9Steinberg3Vst5AGainD0Ev, symObjAddr: 0x180, symBinAddr: 0x57E0, symSize: 0x20 }
  - { offset: 0xBABE, size: 0x8, addend: 0x0, symName: __ZN9Steinberg3Vst5AGain10initializeEPNS_8FUnknownE, symObjAddr: 0x1A0, symBinAddr: 0x5800, symSize: 0x70 }
  - { offset: 0xBB1F, size: 0x8, addend: 0x0, symName: __ZThn16_N9Steinberg3Vst5AGain10initializeEPNS_8FUnknownE, symObjAddr: 0x210, symBinAddr: 0x5870, symSize: 0x80 }
  - { offset: 0xBB64, size: 0x8, addend: 0x0, symName: __ZThn48_N9Steinberg3Vst5AGain10initializeEPNS_8FUnknownE, symObjAddr: 0x290, symBinAddr: 0x58F0, symSize: 0x80 }
  - { offset: 0xBBA8, size: 0x8, addend: 0x0, symName: __ZN9Steinberg3Vst5AGain9terminateEv, symObjAddr: 0x310, symBinAddr: 0x5970, symSize: 0x10 }
  - { offset: 0xBBDF, size: 0x8, addend: 0x0, symName: __ZThn16_N9Steinberg3Vst5AGain9terminateEv, symObjAddr: 0x320, symBinAddr: 0x5980, symSize: 0x10 }
  - { offset: 0xBC12, size: 0x8, addend: 0x0, symName: __ZThn48_N9Steinberg3Vst5AGain9terminateEv, symObjAddr: 0x330, symBinAddr: 0x5990, symSize: 0x10 }
  - { offset: 0xBC44, size: 0x8, addend: 0x0, symName: __ZN9Steinberg3Vst5AGain9setActiveEh, symObjAddr: 0x340, symBinAddr: 0x59A0, symSize: 0x40 }
  - { offset: 0xBC91, size: 0x8, addend: 0x0, symName: __ZThn48_N9Steinberg3Vst5AGain9setActiveEh, symObjAddr: 0x380, symBinAddr: 0x59E0, symSize: 0x50 }
  - { offset: 0xBF0A, size: 0x8, addend: 0x0, symName: __ZN9Steinberg3Vst5AGain7processERNS0_11ProcessDataE, symObjAddr: 0x3D0, symBinAddr: 0x5A30, symSize: 0x8A0 }
  - { offset: 0xC4D5, size: 0x8, addend: 0x0, symName: __ZThn272_N9Steinberg3Vst5AGain7processERNS0_11ProcessDataE, symObjAddr: 0xC70, symBinAddr: 0x62D0, symSize: 0x20 }
  - { offset: 0xC501, size: 0x8, addend: 0x0, symName: __ZN9Steinberg3Vst5AGain11receiveTextEPKc, symObjAddr: 0xC90, symBinAddr: 0x62F0, symSize: 0x60 }
  - { offset: 0xC5A2, size: 0x8, addend: 0x0, symName: __ZN9Steinberg3Vst5AGain8setStateEPNS_8IBStreamE, symObjAddr: 0xCF0, symBinAddr: 0x6350, symSize: 0x1C0 }
  - { offset: 0xC868, size: 0x8, addend: 0x0, symName: __ZThn48_N9Steinberg3Vst5AGain8setStateEPNS_8IBStreamE, symObjAddr: 0x1080, symBinAddr: 0x66E0, symSize: 0x10 }
  - { offset: 0xC895, size: 0x8, addend: 0x0, symName: __ZN9Steinberg3Vst5AGain8getStateEPNS_8IBStreamE, symObjAddr: 0x1090, symBinAddr: 0x66F0, symSize: 0x60 }
  - { offset: 0xC9A3, size: 0x8, addend: 0x0, symName: __ZThn48_N9Steinberg3Vst5AGain8getStateEPNS_8IBStreamE, symObjAddr: 0x10F0, symBinAddr: 0x6750, symSize: 0x60 }
  - { offset: 0xC9EA, size: 0x8, addend: 0x0, symName: __ZN9Steinberg3Vst5AGain15setupProcessingERNS0_12ProcessSetupE, symObjAddr: 0x1150, symBinAddr: 0x67B0, symSize: 0x20 }
  - { offset: 0xCA35, size: 0x8, addend: 0x0, symName: __ZThn272_N9Steinberg3Vst5AGain15setupProcessingERNS0_12ProcessSetupE, symObjAddr: 0x1170, symBinAddr: 0x67D0, symSize: 0x20 }
  - { offset: 0xCDB0, size: 0x8, addend: 0x0, symName: __ZN9Steinberg3Vst5AGain18setBusArrangementsEPyiS2_i, symObjAddr: 0x1190, symBinAddr: 0x67F0, symSize: 0x4A0 }
  - { offset: 0xE0CA, size: 0x8, addend: 0x0, symName: __ZNSt3__112basic_stringIDsNS_11char_traitsIDsEENS_9allocatorIDsEEE17__assign_no_aliasILb0EEERS5_PKDsm, symObjAddr: 0x1CB0, symBinAddr: 0x7310, symSize: 0x80 }
  - { offset: 0xE3EE, size: 0x8, addend: 0x0, symName: __ZNKSt3__16vectorIN9Steinberg4IPtrINS1_3Vst3BusEEENS_9allocatorIS5_EEE20__throw_out_of_rangeB8ne180100Ev, symObjAddr: 0x1F70, symBinAddr: 0x75D0, symSize: 0x10 }
  - { offset: 0xE418, size: 0x8, addend: 0x0, symName: __ZNSt3__120__throw_out_of_rangeB8ne180100EPKc, symObjAddr: 0x1F80, symBinAddr: 0x75E0, symSize: 0x50 }
  - { offset: 0xE423, size: 0x8, addend: 0x0, symName: __ZThn272_N9Steinberg3Vst5AGain18setBusArrangementsEPyiS2_i, symObjAddr: 0x1630, symBinAddr: 0x6C90, symSize: 0x20 }
  - { offset: 0xE465, size: 0x8, addend: 0x0, symName: __ZN9Steinberg3Vst5AGain20canProcessSampleSizeEi, symObjAddr: 0x1650, symBinAddr: 0x6CB0, symSize: 0x10 }
  - { offset: 0xE4AF, size: 0x8, addend: 0x0, symName: __ZThn272_N9Steinberg3Vst5AGain20canProcessSampleSizeEi, symObjAddr: 0x1660, symBinAddr: 0x6CC0, symSize: 0x10 }
  - { offset: 0xE4E3, size: 0x8, addend: 0x0, symName: __ZN9Steinberg3Vst5AGain6notifyEPNS0_8IMessageE, symObjAddr: 0x1670, symBinAddr: 0x6CD0, symSize: 0xB0 }
  - { offset: 0xE5A9, size: 0x8, addend: 0x0, symName: __ZThn24_N9Steinberg3Vst5AGain6notifyEPNS0_8IMessageE, symObjAddr: 0x1720, symBinAddr: 0x6D80, symSize: 0x10 }
  - { offset: 0xE630, size: 0x8, addend: 0x0, symName: __ZN9Steinberg3Vst11AudioEffect14queryInterfaceEPKcPPv, symObjAddr: 0x1730, symBinAddr: 0x6D90, symSize: 0xF0 }
  - { offset: 0xE856, size: 0x8, addend: 0x0, symName: __ZN9Steinberg3Vst11AudioEffect6addRefEv, symObjAddr: 0x1820, symBinAddr: 0x6E80, symSize: 0x10 }
  - { offset: 0xE8D5, size: 0x8, addend: 0x0, symName: __ZN9Steinberg3Vst11AudioEffect7releaseEv, symObjAddr: 0x1830, symBinAddr: 0x6E90, symSize: 0x10 }
  - { offset: 0xE92D, size: 0x8, addend: 0x0, symName: __ZN9Steinberg7FObject6updateEPNS_8FUnknownEi, symObjAddr: 0x1840, symBinAddr: 0x6EA0, symSize: 0x10 }
  - { offset: 0xE966, size: 0x8, addend: 0x0, symName: __ZNK9Steinberg3Vst11AudioEffect3isAEv, symObjAddr: 0x1850, symBinAddr: 0x6EB0, symSize: 0x10 }
  - { offset: 0xE98B, size: 0x8, addend: 0x0, symName: __ZNK9Steinberg3Vst11AudioEffect3isAEPKc, symObjAddr: 0x1860, symBinAddr: 0x6EC0, symSize: 0x10 }
  - { offset: 0xEA82, size: 0x8, addend: 0x0, symName: __ZNK9Steinberg3Vst11AudioEffect8isTypeOfEPKcb, symObjAddr: 0x1870, symBinAddr: 0x6ED0, symSize: 0x90 }
  - { offset: 0xEC10, size: 0x8, addend: 0x0, symName: __ZN9Steinberg7FObject10updateDoneEi, symObjAddr: 0x1900, symBinAddr: 0x6F60, symSize: 0x10 }
  - { offset: 0xEC3F, size: 0x8, addend: 0x0, symName: __ZN9Steinberg7FObject15isEqualInstanceEPNS_8FUnknownE, symObjAddr: 0x1910, symBinAddr: 0x6F70, symSize: 0x10 }
  - { offset: 0xEC72, size: 0x8, addend: 0x0, symName: __ZN9Steinberg3Vst11AudioEffect17getLatencySamplesEv, symObjAddr: 0x1920, symBinAddr: 0x6F80, symSize: 0x10 }
  - { offset: 0xEC97, size: 0x8, addend: 0x0, symName: __ZN9Steinberg3Vst11AudioEffect14getTailSamplesEv, symObjAddr: 0x1930, symBinAddr: 0x6F90, symSize: 0x10 }
  - { offset: 0xECBC, size: 0x8, addend: 0x0, symName: __ZThn16_N9Steinberg3Vst11AudioEffect14queryInterfaceEPKcPPv, symObjAddr: 0x1940, symBinAddr: 0x6FA0, symSize: 0x10 }
  - { offset: 0xED04, size: 0x8, addend: 0x0, symName: __ZThn16_N9Steinberg3Vst11AudioEffect6addRefEv, symObjAddr: 0x1950, symBinAddr: 0x6FB0, symSize: 0x10 }
  - { offset: 0xED83, size: 0x8, addend: 0x0, symName: __ZThn16_N9Steinberg3Vst11AudioEffect7releaseEv, symObjAddr: 0x1960, symBinAddr: 0x6FC0, symSize: 0x10 }
  - { offset: 0xEDEE, size: 0x8, addend: 0x0, symName: __ZThn24_N9Steinberg3Vst11AudioEffect14queryInterfaceEPKcPPv, symObjAddr: 0x1970, symBinAddr: 0x6FD0, symSize: 0x10 }
  - { offset: 0xEE22, size: 0x8, addend: 0x0, symName: __ZThn24_N9Steinberg3Vst11AudioEffect6addRefEv, symObjAddr: 0x1980, symBinAddr: 0x6FE0, symSize: 0x10 }
  - { offset: 0xEE8D, size: 0x8, addend: 0x0, symName: __ZThn24_N9Steinberg3Vst11AudioEffect7releaseEv, symObjAddr: 0x1990, symBinAddr: 0x6FF0, symSize: 0x10 }
  - { offset: 0xEEF8, size: 0x8, addend: 0x0, symName: __ZThn48_N9Steinberg3Vst11AudioEffect14queryInterfaceEPKcPPv, symObjAddr: 0x19A0, symBinAddr: 0x7000, symSize: 0x10 }
  - { offset: 0xEF2C, size: 0x8, addend: 0x0, symName: __ZThn48_N9Steinberg3Vst11AudioEffect6addRefEv, symObjAddr: 0x19B0, symBinAddr: 0x7010, symSize: 0x10 }
  - { offset: 0xEF97, size: 0x8, addend: 0x0, symName: __ZThn48_N9Steinberg3Vst11AudioEffect7releaseEv, symObjAddr: 0x19C0, symBinAddr: 0x7020, symSize: 0x10 }
  - { offset: 0xF002, size: 0x8, addend: 0x0, symName: __ZThn272_N9Steinberg3Vst11AudioEffect14queryInterfaceEPKcPPv, symObjAddr: 0x19D0, symBinAddr: 0x7030, symSize: 0x20 }
  - { offset: 0xF036, size: 0x8, addend: 0x0, symName: __ZThn272_N9Steinberg3Vst11AudioEffect6addRefEv, symObjAddr: 0x19F0, symBinAddr: 0x7050, symSize: 0x20 }
  - { offset: 0xF0A1, size: 0x8, addend: 0x0, symName: __ZThn272_N9Steinberg3Vst11AudioEffect7releaseEv, symObjAddr: 0x1A10, symBinAddr: 0x7070, symSize: 0x20 }
  - { offset: 0xF10C, size: 0x8, addend: 0x0, symName: __ZThn272_N9Steinberg3Vst11AudioEffect17getLatencySamplesEv, symObjAddr: 0x1A30, symBinAddr: 0x7090, symSize: 0x10 }
  - { offset: 0xF122, size: 0x8, addend: 0x0, symName: __ZThn272_N9Steinberg3Vst11AudioEffect14getTailSamplesEv, symObjAddr: 0x1A40, symBinAddr: 0x70A0, symSize: 0x10 }
  - { offset: 0xF138, size: 0x8, addend: 0x0, symName: __ZThn280_N9Steinberg3Vst11AudioEffect14queryInterfaceEPKcPPv, symObjAddr: 0x1A50, symBinAddr: 0x70B0, symSize: 0x20 }
  - { offset: 0xF16C, size: 0x8, addend: 0x0, symName: __ZThn280_N9Steinberg3Vst11AudioEffect6addRefEv, symObjAddr: 0x1A70, symBinAddr: 0x70D0, symSize: 0x20 }
  - { offset: 0xF1D7, size: 0x8, addend: 0x0, symName: __ZThn280_N9Steinberg3Vst11AudioEffect7releaseEv, symObjAddr: 0x1A90, symBinAddr: 0x70F0, symSize: 0x20 }
  - { offset: 0xF408, size: 0x8, addend: 0x0, symName: __ZNSt3__112basic_stringIDsNS_11char_traitsIDsEENS_9allocatorIDsEEE21__grow_by_and_replaceEmmmmmmPKDs, symObjAddr: 0x1D30, symBinAddr: 0x7390, symSize: 0x170 }
  - { offset: 0xFE14, size: 0x8, addend: 0x0, symName: __ZNKSt3__112basic_stringIDsNS_11char_traitsIDsEENS_9allocatorIDsEEE20__throw_length_errorB8ne180100Ev, symObjAddr: 0x1EA0, symBinAddr: 0x7500, symSize: 0x10 }
  - { offset: 0xFE3E, size: 0x8, addend: 0x0, symName: __ZNSt3__120__throw_length_errorB8ne180100EPKc, symObjAddr: 0x1EB0, symBinAddr: 0x7510, symSize: 0x50 }
  - { offset: 0xFE49, size: 0x8, addend: 0x0, symName: __ZNSt12length_errorC1B8ne180100EPKc, symObjAddr: 0x1F00, symBinAddr: 0x7560, symSize: 0x30 }
  - { offset: 0xFED1, size: 0x8, addend: 0x0, symName: __ZNSt12out_of_rangeC1B8ne180100EPKc, symObjAddr: 0x1FD0, symBinAddr: 0x7630, symSize: 0x23 }
  - { offset: 0x412A7, size: 0x8, addend: 0x0, symName: __ZN9Steinberg3Vst13GainParameterC2Eii, symObjAddr: 0x0, symBinAddr: 0x76D0, symSize: 0x150 }
  - { offset: 0x41502, size: 0x8, addend: 0x0, symName: __ZN9Steinberg3Vst13GainParameterC1Eii, symObjAddr: 0x150, symBinAddr: 0x7820, symSize: 0x10 }
  - { offset: 0x41554, size: 0x8, addend: 0x0, symName: __ZNK9Steinberg3Vst13GainParameter8toStringEdPDs, symObjAddr: 0x160, symBinAddr: 0x7830, symSize: 0xA0 }
  - { offset: 0x41634, size: 0x8, addend: 0x0, symName: __ZNK9Steinberg3Vst13GainParameter10fromStringEPKDsRd, symObjAddr: 0x200, symBinAddr: 0x78D0, symSize: 0xA0 }
  - { offset: 0x416C7, size: 0x8, addend: 0x0, symName: __ZN9Steinberg3Vst15AGainController10initializeEPNS_8FUnknownE, symObjAddr: 0x2A0, symBinAddr: 0x7970, symSize: 0x210 }
  - { offset: 0x418DD, size: 0x8, addend: 0x0, symName: __ZThn16_N9Steinberg3Vst15AGainController10initializeEPNS_8FUnknownE, symObjAddr: 0x4B0, symBinAddr: 0x7B80, symSize: 0x10 }
  - { offset: 0x4190A, size: 0x8, addend: 0x0, symName: __ZThn48_N9Steinberg3Vst15AGainController10initializeEPNS_8FUnknownE, symObjAddr: 0x4C0, symBinAddr: 0x7B90, symSize: 0x10 }
  - { offset: 0x41936, size: 0x8, addend: 0x0, symName: __ZN9Steinberg3Vst15AGainController9terminateEv, symObjAddr: 0x4D0, symBinAddr: 0x7BA0, symSize: 0x10 }
  - { offset: 0x4196D, size: 0x8, addend: 0x0, symName: __ZThn16_N9Steinberg3Vst15AGainController9terminateEv, symObjAddr: 0x4E0, symBinAddr: 0x7BB0, symSize: 0x10 }
  - { offset: 0x419A0, size: 0x8, addend: 0x0, symName: __ZThn48_N9Steinberg3Vst15AGainController9terminateEv, symObjAddr: 0x4F0, symBinAddr: 0x7BC0, symSize: 0x10 }
  - { offset: 0x419D3, size: 0x8, addend: 0x0, symName: __ZN9Steinberg3Vst15AGainController17setComponentStateEPNS_8IBStreamE, symObjAddr: 0x500, symBinAddr: 0x7BD0, symSize: 0xD0 }
  - { offset: 0x41A65, size: 0x8, addend: 0x0, symName: __ZThn48_N9Steinberg3Vst15AGainController17setComponentStateEPNS_8IBStreamE, symObjAddr: 0x5D0, symBinAddr: 0x7CA0, symSize: 0x10 }
  - { offset: 0x41A91, size: 0x8, addend: 0x0, symName: __ZN9Steinberg3Vst15AGainController10createViewEPKc, symObjAddr: 0x5E0, symBinAddr: 0x7CB0, symSize: 0xA0 }
  - { offset: 0x41B32, size: 0x8, addend: 0x0, symName: __ZThn48_N9Steinberg3Vst15AGainController10createViewEPKc, symObjAddr: 0x680, symBinAddr: 0x7D50, symSize: 0xA0 }
  - { offset: 0x41C07, size: 0x8, addend: 0x0, symName: __ZN9Steinberg3Vst15AGainController19createSubControllerEPKcPKN6VSTGUI14IUIDescriptionEPNS4_10VST3EditorE, symObjAddr: 0x720, symBinAddr: 0x7DF0, symSize: 0x80 }
  - { offset: 0x41CF8, size: 0x8, addend: 0x0, symName: __ZN9Steinberg3Vst15AGainController22addUIMessageControllerEPNS0_24AGainUIMessageControllerIS1_EE, symObjAddr: 0x7A0, symBinAddr: 0x7E70, symSize: 0x1D0 }
  - { offset: 0x4262E, size: 0x8, addend: 0x0, symName: __ZNKSt3__16vectorIPN9Steinberg3Vst24AGainUIMessageControllerINS2_15AGainControllerEEENS_9allocatorIS6_EEE20__throw_length_errorB8ne180100Ev, symObjAddr: 0x2290, symBinAddr: 0x9920, symSize: 0x10 }
  - { offset: 0x426A6, size: 0x8, addend: 0x0, symName: __ZThn208_N9Steinberg3Vst15AGainController19createSubControllerEPKcPKN6VSTGUI14IUIDescriptionEPNS4_10VST3EditorE, symObjAddr: 0x970, symBinAddr: 0x8040, symSize: 0x80 }
  - { offset: 0x427CA, size: 0x8, addend: 0x0, symName: __ZN9Steinberg3Vst15AGainController8setStateEPNS_8IBStreamE, symObjAddr: 0x9F0, symBinAddr: 0x80C0, symSize: 0x180 }
  - { offset: 0x428DE, size: 0x8, addend: 0x0, symName: __ZN9Steinberg3Vst24AGainUIMessageControllerINS0_15AGainControllerEE14setMessageTextEPDs, symObjAddr: 0xB70, symBinAddr: 0x8240, symSize: 0xB0 }
  - { offset: 0x42E64, size: 0x8, addend: 0x0, symName: __ZN6VSTGUI10UTF8StringD1Ev, symObjAddr: 0x2250, symBinAddr: 0x98E0, symSize: 0x40 }
  - { offset: 0x43076, size: 0x8, addend: 0x0, symName: __ZThn48_N9Steinberg3Vst15AGainController8setStateEPNS_8IBStreamE, symObjAddr: 0xC20, symBinAddr: 0x82F0, symSize: 0x180 }
  - { offset: 0x43179, size: 0x8, addend: 0x0, symName: __ZN9Steinberg3Vst15AGainController8getStateEPNS_8IBStreamE, symObjAddr: 0xDA0, symBinAddr: 0x8470, symSize: 0x60 }
  - { offset: 0x431F2, size: 0x8, addend: 0x0, symName: __ZThn48_N9Steinberg3Vst15AGainController8getStateEPNS_8IBStreamE, symObjAddr: 0xE00, symBinAddr: 0x84D0, symSize: 0x60 }
  - { offset: 0x43243, size: 0x8, addend: 0x0, symName: __ZN9Steinberg3Vst15AGainController11receiveTextEPKc, symObjAddr: 0xE60, symBinAddr: 0x8530, symSize: 0x50 }
  - { offset: 0x43278, size: 0x8, addend: 0x0, symName: __ZN9Steinberg3Vst15AGainController18setParamNormalizedEjd, symObjAddr: 0xEB0, symBinAddr: 0x8580, symSize: 0x10 }
  - { offset: 0x432E8, size: 0x8, addend: 0x0, symName: __ZThn48_N9Steinberg3Vst15AGainController18setParamNormalizedEjd, symObjAddr: 0xEC0, symBinAddr: 0x8590, symSize: 0x10 }
  - { offset: 0x43329, size: 0x8, addend: 0x0, symName: __ZN9Steinberg3Vst15AGainController21getParamStringByValueEjdPDs, symObjAddr: 0xED0, symBinAddr: 0x85A0, symSize: 0x10 }
  - { offset: 0x4339A, size: 0x8, addend: 0x0, symName: __ZThn48_N9Steinberg3Vst15AGainController21getParamStringByValueEjdPDs, symObjAddr: 0xEE0, symBinAddr: 0x85B0, symSize: 0x10 }
  - { offset: 0x433E2, size: 0x8, addend: 0x0, symName: __ZN9Steinberg3Vst15AGainController21getParamValueByStringEjPDsRd, symObjAddr: 0xEF0, symBinAddr: 0x85C0, symSize: 0x10 }
  - { offset: 0x43453, size: 0x8, addend: 0x0, symName: __ZThn48_N9Steinberg3Vst15AGainController21getParamValueByStringEjPDsRd, symObjAddr: 0xF00, symBinAddr: 0x85D0, symSize: 0x10 }
  - { offset: 0x435AD, size: 0x8, addend: 0x0, symName: __ZN9Steinberg3Vst15AGainController25removeUIMessageControllerEPNS0_24AGainUIMessageControllerIS1_EE, symObjAddr: 0xF10, symBinAddr: 0x85E0, symSize: 0x60 }
  - { offset: 0x43862, size: 0x8, addend: 0x0, symName: __ZN9Steinberg3Vst15AGainController21setDefaultMessageTextEPDs, symObjAddr: 0xF70, symBinAddr: 0x8640, symSize: 0x70 }
  - { offset: 0x43895, size: 0x8, addend: 0x0, symName: __ZN9Steinberg3Vst15AGainController21getDefaultMessageTextEv, symObjAddr: 0xFE0, symBinAddr: 0x86B0, symSize: 0x10 }
  - { offset: 0x438B4, size: 0x8, addend: 0x0, symName: __ZN9Steinberg3Vst15AGainController14queryInterfaceEPKcPPv, symObjAddr: 0xFF0, symBinAddr: 0x86C0, symSize: 0x50 }
  - { offset: 0x43940, size: 0x8, addend: 0x0, symName: __ZN9Steinberg3Vst17EditControllerEx114queryInterfaceEPKcPPv, symObjAddr: 0x1040, symBinAddr: 0x8710, symSize: 0xF0 }
  - { offset: 0x43BCF, size: 0x8, addend: 0x0, symName: __ZThn16_N9Steinberg3Vst15AGainController14queryInterfaceEPKcPPv, symObjAddr: 0x1130, symBinAddr: 0x8800, symSize: 0x50 }
  - { offset: 0x43C58, size: 0x8, addend: 0x0, symName: __ZThn24_N9Steinberg3Vst15AGainController14queryInterfaceEPKcPPv, symObjAddr: 0x1180, symBinAddr: 0x8850, symSize: 0x50 }
  - { offset: 0x43CE1, size: 0x8, addend: 0x0, symName: __ZThn48_N9Steinberg3Vst15AGainController14queryInterfaceEPKcPPv, symObjAddr: 0x11D0, symBinAddr: 0x88A0, symSize: 0x50 }
  - { offset: 0x43D6A, size: 0x8, addend: 0x0, symName: __ZThn56_N9Steinberg3Vst15AGainController14queryInterfaceEPKcPPv, symObjAddr: 0x1220, symBinAddr: 0x88F0, symSize: 0x50 }
  - { offset: 0x43DF3, size: 0x8, addend: 0x0, symName: __ZThn112_N9Steinberg3Vst15AGainController14queryInterfaceEPKcPPv, symObjAddr: 0x1270, symBinAddr: 0x8940, symSize: 0x50 }
  - { offset: 0x43E7C, size: 0x8, addend: 0x0, symName: __ZThn200_N9Steinberg3Vst15AGainController14queryInterfaceEPKcPPv, symObjAddr: 0x12C0, symBinAddr: 0x8990, symSize: 0x50 }
  - { offset: 0x43F04, size: 0x8, addend: 0x0, symName: __ZN9Steinberg3Vst15AGainController27getMidiControllerAssignmentEissRj, symObjAddr: 0x1310, symBinAddr: 0x89E0, symSize: 0x20 }
  - { offset: 0x43F83, size: 0x8, addend: 0x0, symName: __ZThn200_N9Steinberg3Vst15AGainController27getMidiControllerAssignmentEissRj, symObjAddr: 0x1330, symBinAddr: 0x8A00, symSize: 0x20 }
  - { offset: 0x43FEC, size: 0x8, addend: 0x0, symName: __ZN9Steinberg3Vst15AGainController6addRefEv, symObjAddr: 0x1350, symBinAddr: 0x8A20, symSize: 0x10 }
  - { offset: 0x4406B, size: 0x8, addend: 0x0, symName: __ZN9Steinberg3Vst15AGainController7releaseEv, symObjAddr: 0x1360, symBinAddr: 0x8A30, symSize: 0x10 }
  - { offset: 0x4413B, size: 0x8, addend: 0x0, symName: __ZN9Steinberg3Vst15AGainControllerD1Ev, symObjAddr: 0x1370, symBinAddr: 0x8A40, symSize: 0x90 }
  - { offset: 0x442C7, size: 0x8, addend: 0x0, symName: __ZN9Steinberg3Vst15AGainControllerD0Ev, symObjAddr: 0x1400, symBinAddr: 0x8AD0, symSize: 0xA0 }
  - { offset: 0x44454, size: 0x8, addend: 0x0, symName: __ZNK9Steinberg3Vst17EditControllerEx13isAEv, symObjAddr: 0x14A0, symBinAddr: 0x8B70, symSize: 0x10 }
  - { offset: 0x44479, size: 0x8, addend: 0x0, symName: __ZNK9Steinberg3Vst17EditControllerEx13isAEPKc, symObjAddr: 0x14B0, symBinAddr: 0x8B80, symSize: 0x10 }
  - { offset: 0x44576, size: 0x8, addend: 0x0, symName: __ZNK9Steinberg3Vst17EditControllerEx18isTypeOfEPKcb, symObjAddr: 0x14C0, symBinAddr: 0x8B90, symSize: 0x90 }
  - { offset: 0x4470B, size: 0x8, addend: 0x0, symName: __ZN9Steinberg3Vst14EditController11setKnobModeEi, symObjAddr: 0x1570, symBinAddr: 0x8C20, symSize: 0x20 }
  - { offset: 0x44732, size: 0x8, addend: 0x0, symName: __ZN9Steinberg3Vst14EditController8openHelpEh, symObjAddr: 0x1590, symBinAddr: 0x8C40, symSize: 0x10 }
  - { offset: 0x44761, size: 0x8, addend: 0x0, symName: __ZN9Steinberg3Vst14EditController12openAboutBoxEh, symObjAddr: 0x15A0, symBinAddr: 0x8C50, symSize: 0x10 }
  - { offset: 0x44790, size: 0x8, addend: 0x0, symName: __ZN9Steinberg3Vst14EditController15editorDestroyedEPNS0_10EditorViewE, symObjAddr: 0x15B0, symBinAddr: 0x8C60, symSize: 0x10 }
  - { offset: 0x447BF, size: 0x8, addend: 0x0, symName: __ZN9Steinberg3Vst14EditController14editorAttachedEPNS0_10EditorViewE, symObjAddr: 0x15C0, symBinAddr: 0x8C70, symSize: 0x10 }
  - { offset: 0x447EE, size: 0x8, addend: 0x0, symName: __ZN9Steinberg3Vst14EditController13editorRemovedEPNS0_10EditorViewE, symObjAddr: 0x15D0, symBinAddr: 0x8C80, symSize: 0x10 }
  - { offset: 0x4481D, size: 0x8, addend: 0x0, symName: __ZN9Steinberg3Vst14EditController18getParameterObjectEj, symObjAddr: 0x15E0, symBinAddr: 0x8C90, symSize: 0x10 }
  - { offset: 0x4486A, size: 0x8, addend: 0x0, symName: __ZN9Steinberg3Vst17EditControllerEx112getUnitCountEv, symObjAddr: 0x15F0, symBinAddr: 0x8CA0, symSize: 0x20 }
  - { offset: 0x448AA, size: 0x8, addend: 0x0, symName: __ZN9Steinberg3Vst17EditControllerEx115getSelectedUnitEv, symObjAddr: 0x1610, symBinAddr: 0x8CC0, symSize: 0x10 }
  - { offset: 0x448C9, size: 0x8, addend: 0x0, symName: __ZN9Steinberg3Vst17EditControllerEx110selectUnitEi, symObjAddr: 0x1620, symBinAddr: 0x8CD0, symSize: 0x10 }
  - { offset: 0x448F0, size: 0x8, addend: 0x0, symName: __ZN9Steinberg3Vst17EditControllerEx112getUnitByBusEiiiiRi, symObjAddr: 0x1630, symBinAddr: 0x8CE0, symSize: 0x10 }
  - { offset: 0x4494C, size: 0x8, addend: 0x0, symName: __ZN9Steinberg3Vst17EditControllerEx118setUnitProgramDataEiiPNS_8IBStreamE, symObjAddr: 0x1640, symBinAddr: 0x8CF0, symSize: 0x10 }
  - { offset: 0x449A6, size: 0x8, addend: 0x0, symName: __ZThn16_N9Steinberg3Vst15AGainController6addRefEv, symObjAddr: 0x1650, symBinAddr: 0x8D00, symSize: 0x10 }
  - { offset: 0x44A25, size: 0x8, addend: 0x0, symName: __ZThn16_N9Steinberg3Vst15AGainController7releaseEv, symObjAddr: 0x1660, symBinAddr: 0x8D10, symSize: 0x10 }
  - { offset: 0x44A90, size: 0x8, addend: 0x0, symName: __ZThn24_N9Steinberg3Vst15AGainController6addRefEv, symObjAddr: 0x1670, symBinAddr: 0x8D20, symSize: 0x10 }
  - { offset: 0x44AFB, size: 0x8, addend: 0x0, symName: __ZThn24_N9Steinberg3Vst15AGainController7releaseEv, symObjAddr: 0x1680, symBinAddr: 0x8D30, symSize: 0x10 }
  - { offset: 0x44B66, size: 0x8, addend: 0x0, symName: __ZThn48_N9Steinberg3Vst15AGainController6addRefEv, symObjAddr: 0x1690, symBinAddr: 0x8D40, symSize: 0x10 }
  - { offset: 0x44BD1, size: 0x8, addend: 0x0, symName: __ZThn48_N9Steinberg3Vst15AGainController7releaseEv, symObjAddr: 0x16A0, symBinAddr: 0x8D50, symSize: 0x10 }
  - { offset: 0x44C3C, size: 0x8, addend: 0x0, symName: __ZThn56_N9Steinberg3Vst15AGainController6addRefEv, symObjAddr: 0x16B0, symBinAddr: 0x8D60, symSize: 0x10 }
  - { offset: 0x44CA7, size: 0x8, addend: 0x0, symName: __ZThn56_N9Steinberg3Vst15AGainController7releaseEv, symObjAddr: 0x16C0, symBinAddr: 0x8D70, symSize: 0x10 }
  - { offset: 0x44D31, size: 0x8, addend: 0x0, symName: __ZThn56_N9Steinberg3Vst14EditController11setKnobModeEi, symObjAddr: 0x16D0, symBinAddr: 0x8D80, symSize: 0x20 }
  - { offset: 0x44D6D, size: 0x8, addend: 0x0, symName: __ZThn56_N9Steinberg3Vst14EditController8openHelpEh, symObjAddr: 0x16F0, symBinAddr: 0x8DA0, symSize: 0x10 }
  - { offset: 0x44D83, size: 0x8, addend: 0x0, symName: __ZThn56_N9Steinberg3Vst14EditController12openAboutBoxEh, symObjAddr: 0x1700, symBinAddr: 0x8DB0, symSize: 0x10 }
  - { offset: 0x44D99, size: 0x8, addend: 0x0, symName: __ZThn112_N9Steinberg3Vst15AGainController6addRefEv, symObjAddr: 0x1710, symBinAddr: 0x8DC0, symSize: 0x10 }
  - { offset: 0x44E04, size: 0x8, addend: 0x0, symName: __ZThn112_N9Steinberg3Vst15AGainController7releaseEv, symObjAddr: 0x1720, symBinAddr: 0x8DD0, symSize: 0x10 }
  - { offset: 0x44E88, size: 0x8, addend: 0x0, symName: __ZThn112_N9Steinberg3Vst17EditControllerEx112getUnitCountEv, symObjAddr: 0x1730, symBinAddr: 0x8DE0, symSize: 0x20 }
  - { offset: 0x44EF3, size: 0x8, addend: 0x0, symName: __ZThn112_N9Steinberg3Vst17EditControllerEx115getSelectedUnitEv, symObjAddr: 0x1750, symBinAddr: 0x8E00, symSize: 0x10 }
  - { offset: 0x44F4A, size: 0x8, addend: 0x0, symName: __ZThn112_N9Steinberg3Vst17EditControllerEx110selectUnitEi, symObjAddr: 0x1760, symBinAddr: 0x8E10, symSize: 0x10 }
  - { offset: 0x44F88, size: 0x8, addend: 0x0, symName: __ZThn112_N9Steinberg3Vst17EditControllerEx112getUnitByBusEiiiiRi, symObjAddr: 0x1770, symBinAddr: 0x8E20, symSize: 0x10 }
  - { offset: 0x44F9F, size: 0x8, addend: 0x0, symName: __ZThn112_N9Steinberg3Vst17EditControllerEx118setUnitProgramDataEiiPNS_8IBStreamE, symObjAddr: 0x1780, symBinAddr: 0x8E30, symSize: 0x10 }
  - { offset: 0x44FB6, size: 0x8, addend: 0x0, symName: __ZThn200_N9Steinberg3Vst15AGainController6addRefEv, symObjAddr: 0x1790, symBinAddr: 0x8E40, symSize: 0x20 }
  - { offset: 0x45021, size: 0x8, addend: 0x0, symName: __ZThn200_N9Steinberg3Vst15AGainController7releaseEv, symObjAddr: 0x17B0, symBinAddr: 0x8E60, symSize: 0x20 }
  - { offset: 0x4508C, size: 0x8, addend: 0x0, symName: __ZThn208_N9Steinberg3Vst15AGainControllerD1Ev, symObjAddr: 0x17D0, symBinAddr: 0x8E80, symSize: 0xA0 }
  - { offset: 0x4521E, size: 0x8, addend: 0x0, symName: __ZThn208_N9Steinberg3Vst15AGainControllerD0Ev, symObjAddr: 0x1870, symBinAddr: 0x8F20, symSize: 0xA0 }
  - { offset: 0x453B0, size: 0x8, addend: 0x0, symName: __ZN6VSTGUI18VST3EditorDelegate16createCustomViewEPKcRKNS_12UIAttributesEPKNS_14IUIDescriptionEPNS_10VST3EditorE, symObjAddr: 0x1910, symBinAddr: 0x8FC0, symSize: 0x10 }
  - { offset: 0x4540D, size: 0x8, addend: 0x0, symName: __ZN6VSTGUI18VST3EditorDelegate10verifyViewEPNS_5CViewERKNS_12UIAttributesEPKNS_14IUIDescriptionEPNS_10VST3EditorE, symObjAddr: 0x1920, symBinAddr: 0x8FD0, symSize: 0x10 }
  - { offset: 0x4546B, size: 0x8, addend: 0x0, symName: __ZN6VSTGUI18VST3EditorDelegate13findParameterERKNS_6CPointERjPNS_10VST3EditorE, symObjAddr: 0x1930, symBinAddr: 0x8FE0, symSize: 0x10 }
  - { offset: 0x454BA, size: 0x8, addend: 0x0, symName: __ZN6VSTGUI18VST3EditorDelegate18isPrivateParameterEj, symObjAddr: 0x1940, symBinAddr: 0x8FF0, symSize: 0x10 }
  - { offset: 0x454ED, size: 0x8, addend: 0x0, symName: __ZN6VSTGUI18VST3EditorDelegate7didOpenEPNS_10VST3EditorE, symObjAddr: 0x1950, symBinAddr: 0x9000, symSize: 0x10 }
  - { offset: 0x45520, size: 0x8, addend: 0x0, symName: __ZN6VSTGUI18VST3EditorDelegate9willCloseEPNS_10VST3EditorE, symObjAddr: 0x1960, symBinAddr: 0x9010, symSize: 0x10 }
  - { offset: 0x45553, size: 0x8, addend: 0x0, symName: __ZN6VSTGUI18VST3EditorDelegate17createContextMenuERKNS_6CPointEPNS_10VST3EditorE, symObjAddr: 0x1970, symBinAddr: 0x9020, symSize: 0x10 }
  - { offset: 0x45594, size: 0x8, addend: 0x0, symName: __ZN6VSTGUI18VST3EditorDelegate13onZoomChangedEPNS_10VST3EditorEd, symObjAddr: 0x1980, symBinAddr: 0x9030, symSize: 0x10 }
  - { offset: 0x455EE, size: 0x8, addend: 0x0, symName: __ZN9Steinberg3Vst13GainParameterD1Ev, symObjAddr: 0x19A0, symBinAddr: 0x9040, symSize: 0x10 }
  - { offset: 0x45644, size: 0x8, addend: 0x0, symName: __ZN9Steinberg3Vst13GainParameterD0Ev, symObjAddr: 0x19B0, symBinAddr: 0x9050, symSize: 0x20 }
  - { offset: 0x456A9, size: 0x8, addend: 0x0, symName: __ZNK9Steinberg3Vst9Parameter3isAEv, symObjAddr: 0x19D0, symBinAddr: 0x9070, symSize: 0x10 }
  - { offset: 0x456CE, size: 0x8, addend: 0x0, symName: __ZNK9Steinberg3Vst9Parameter3isAEPKc, symObjAddr: 0x19E0, symBinAddr: 0x9080, symSize: 0x10 }
  - { offset: 0x45721, size: 0x8, addend: 0x0, symName: __ZNK9Steinberg3Vst9Parameter8isTypeOfEPKcb, symObjAddr: 0x19F0, symBinAddr: 0x9090, symSize: 0x50 }
  - { offset: 0x45768, size: 0x8, addend: 0x0, symName: __ZNK9Steinberg3Vst9Parameter8isTypeOfEPKcb, symObjAddr: 0x19F0, symBinAddr: 0x9090, symSize: 0x50 }
  - { offset: 0x457F5, size: 0x8, addend: 0x0, symName: __ZNK9Steinberg3Vst9Parameter7getInfoEv, symObjAddr: 0x1A40, symBinAddr: 0x90E0, symSize: 0x10 }
  - { offset: 0x4581A, size: 0x8, addend: 0x0, symName: __ZN9Steinberg3Vst9Parameter7getInfoEv, symObjAddr: 0x1A50, symBinAddr: 0x90F0, symSize: 0x10 }
  - { offset: 0x4583F, size: 0x8, addend: 0x0, symName: __ZN9Steinberg3Vst9Parameter9setUnitIDEi, symObjAddr: 0x1A60, symBinAddr: 0x9100, symSize: 0x10 }
  - { offset: 0x45872, size: 0x8, addend: 0x0, symName: __ZN9Steinberg3Vst9Parameter9getUnitIDEv, symObjAddr: 0x1A70, symBinAddr: 0x9110, symSize: 0x10 }
  - { offset: 0x45897, size: 0x8, addend: 0x0, symName: __ZNK9Steinberg3Vst9Parameter12getPrecisionEv, symObjAddr: 0x1A80, symBinAddr: 0x9120, symSize: 0x10 }
  - { offset: 0x458BC, size: 0x8, addend: 0x0, symName: __ZN9Steinberg3Vst9Parameter12setPrecisionEi, symObjAddr: 0x1A90, symBinAddr: 0x9130, symSize: 0x10 }
  - { offset: 0x45956, size: 0x8, addend: 0x0, symName: __ZN9Steinberg3Vst24AGainUIMessageControllerINS0_15AGainControllerEED1Ev, symObjAddr: 0x1AB0, symBinAddr: 0x9140, symSize: 0xD0 }
  - { offset: 0x45C72, size: 0x8, addend: 0x0, symName: __ZN9Steinberg3Vst24AGainUIMessageControllerINS0_15AGainControllerEED0Ev, symObjAddr: 0x1B80, symBinAddr: 0x9210, symSize: 0xD0 }
  - { offset: 0x45F95, size: 0x8, addend: 0x0, symName: __ZN9Steinberg3Vst24AGainUIMessageControllerINS0_15AGainControllerEE12valueChangedEPN6VSTGUI8CControlE, symObjAddr: 0x1C50, symBinAddr: 0x92E0, symSize: 0x10 }
  - { offset: 0x45FC4, size: 0x8, addend: 0x0, symName: __ZN6VSTGUI16IControlListener22controlModifierClickedEPNS_8CControlENS_12CButtonStateE, symObjAddr: 0x1C60, symBinAddr: 0x92F0, symSize: 0x10 }
  - { offset: 0x46006, size: 0x8, addend: 0x0, symName: __ZN9Steinberg3Vst24AGainUIMessageControllerINS0_15AGainControllerEE16controlBeginEditEPN6VSTGUI8CControlE, symObjAddr: 0x1C70, symBinAddr: 0x9300, symSize: 0x10 }
  - { offset: 0x460CD, size: 0x8, addend: 0x0, symName: __ZN9Steinberg3Vst24AGainUIMessageControllerINS0_15AGainControllerEE14controlEndEditEPN6VSTGUI8CControlE, symObjAddr: 0x1C80, symBinAddr: 0x9310, symSize: 0x190 }
  - { offset: 0x46304, size: 0x8, addend: 0x0, symName: __ZN6VSTGUI16IControlListener20controlTagWillChangeEPNS_8CControlE, symObjAddr: 0x1E10, symBinAddr: 0x94A0, symSize: 0x10 }
  - { offset: 0x46337, size: 0x8, addend: 0x0, symName: __ZN6VSTGUI16IControlListener19controlTagDidChangeEPNS_8CControlE, symObjAddr: 0x1E20, symBinAddr: 0x94B0, symSize: 0x10 }
  - { offset: 0x4636A, size: 0x8, addend: 0x0, symName: __ZNK6VSTGUI11IController13getTagForNameEPKci, symObjAddr: 0x1E30, symBinAddr: 0x94C0, symSize: 0x10 }
  - { offset: 0x463AC, size: 0x8, addend: 0x0, symName: __ZN6VSTGUI11IController18getControlListenerEPKc, symObjAddr: 0x1E40, symBinAddr: 0x94D0, symSize: 0x10 }
  - { offset: 0x463E1, size: 0x8, addend: 0x0, symName: __ZN6VSTGUI11IController10createViewERKNS_12UIAttributesEPKNS_14IUIDescriptionE, symObjAddr: 0x1E50, symBinAddr: 0x94E0, symSize: 0x10 }
  - { offset: 0x4643A, size: 0x8, addend: 0x0, symName: __ZN9Steinberg3Vst24AGainUIMessageControllerINS0_15AGainControllerEE10verifyViewEPN6VSTGUI5CViewERKNS4_12UIAttributesEPKNS4_14IUIDescriptionE, symObjAddr: 0x1E60, symBinAddr: 0x94F0, symSize: 0xF0 }
  - { offset: 0x468CF, size: 0x8, addend: 0x0, symName: __ZN6VSTGUI11IController19createSubControllerEPKcPKNS_14IUIDescriptionE, symObjAddr: 0x1F50, symBinAddr: 0x95E0, symSize: 0x10 }
  - { offset: 0x4690F, size: 0x8, addend: 0x0, symName: __ZN9Steinberg3Vst24AGainUIMessageControllerINS0_15AGainControllerEE14viewWillDeleteEPN6VSTGUI5CViewE, symObjAddr: 0x1F60, symBinAddr: 0x95F0, symSize: 0x60 }
  - { offset: 0x46A47, size: 0x8, addend: 0x0, symName: __ZN9Steinberg3Vst24AGainUIMessageControllerINS0_15AGainControllerEE13viewLostFocusEPN6VSTGUI5CViewE, symObjAddr: 0x1FC0, symBinAddr: 0x9650, symSize: 0xF0 }
  - { offset: 0x46D9D, size: 0x8, addend: 0x0, symName: __ZThn8_N9Steinberg3Vst24AGainUIMessageControllerINS0_15AGainControllerEED1Ev, symObjAddr: 0x20B0, symBinAddr: 0x9740, symSize: 0xD0 }
  - { offset: 0x470B4, size: 0x8, addend: 0x0, symName: __ZThn8_N9Steinberg3Vst24AGainUIMessageControllerINS0_15AGainControllerEED0Ev, symObjAddr: 0x2180, symBinAddr: 0x9810, symSize: 0x10 }
  - { offset: 0x470D9, size: 0x8, addend: 0x0, symName: __ZN6VSTGUI19ViewListenerAdapter15viewSizeChangedEPNS_5CViewERKNS_5CRectE, symObjAddr: 0x2190, symBinAddr: 0x9820, symSize: 0x10 }
  - { offset: 0x4711A, size: 0x8, addend: 0x0, symName: __ZN6VSTGUI19ViewListenerAdapter12viewAttachedEPNS_5CViewE, symObjAddr: 0x21A0, symBinAddr: 0x9830, symSize: 0x10 }
  - { offset: 0x4714D, size: 0x8, addend: 0x0, symName: __ZN6VSTGUI19ViewListenerAdapter11viewRemovedEPNS_5CViewE, symObjAddr: 0x21B0, symBinAddr: 0x9840, symSize: 0x10 }
  - { offset: 0x47180, size: 0x8, addend: 0x0, symName: __ZThn8_N9Steinberg3Vst24AGainUIMessageControllerINS0_15AGainControllerEE13viewLostFocusEPN6VSTGUI5CViewE, symObjAddr: 0x21C0, symBinAddr: 0x9850, symSize: 0x10 }
  - { offset: 0x471AD, size: 0x8, addend: 0x0, symName: __ZN6VSTGUI19ViewListenerAdapter13viewTookFocusEPNS_5CViewE, symObjAddr: 0x21D0, symBinAddr: 0x9860, symSize: 0x10 }
  - { offset: 0x471E0, size: 0x8, addend: 0x0, symName: __ZThn8_N9Steinberg3Vst24AGainUIMessageControllerINS0_15AGainControllerEE14viewWillDeleteEPN6VSTGUI5CViewE, symObjAddr: 0x21E0, symBinAddr: 0x9870, symSize: 0x60 }
  - { offset: 0x47216, size: 0x8, addend: 0x0, symName: __ZN6VSTGUI19ViewListenerAdapter18viewOnMouseEnabledEPNS_5CViewEb, symObjAddr: 0x2240, symBinAddr: 0x98D0, symSize: 0x10 }
  - { offset: 0x4919F, size: 0x8, addend: 0x0, symName: __ZN9Steinberg3VstL17AGainProcessorUIDE, symObjAddr: 0xAAF68, symBinAddr: 0x1D0968, symSize: 0x0 }
  - { offset: 0x491B8, size: 0x8, addend: 0x0, symName: __ZN9Steinberg3VstL30AGainWithSideChainProcessorUIDE, symObjAddr: 0xAAF80, symBinAddr: 0x1D0980, symSize: 0x0 }
  - { offset: 0x491D1, size: 0x8, addend: 0x0, symName: __ZN9Steinberg3VstL18AGainControllerUIDE, symObjAddr: 0xAAF98, symBinAddr: 0x1D0998, symSize: 0x0 }
  - { offset: 0x4A961, size: 0x8, addend: 0x0, symName: _GetPluginFactory, symObjAddr: 0x0, symBinAddr: 0x9930, symSize: 0x600 }
  - { offset: 0x4A987, size: 0x8, addend: 0x0, symName: __ZZ16GetPluginFactoryE11factoryInfo, symObjAddr: 0x1198, symBinAddr: 0x1D0478, symSize: 0x0 }
  - { offset: 0x4A99D, size: 0x8, addend: 0x0, symName: __ZZ16GetPluginFactoryE14componentClass, symObjAddr: 0xAAFB0, symBinAddr: 0x1D09B0, symSize: 0x0 }
  - { offset: 0x4A9B3, size: 0x8, addend: 0x0, symName: __ZZ16GetPluginFactoryE14componentClass_0, symObjAddr: 0xAB170, symBinAddr: 0x1D0B70, symSize: 0x0 }
  - { offset: 0x4A9C9, size: 0x8, addend: 0x0, symName: __ZZ16GetPluginFactoryE14componentClass_1, symObjAddr: 0xAB330, symBinAddr: 0x1D0D30, symSize: 0x0 }
  - { offset: 0x6217B, size: 0x8, addend: 0x0, symName: __ZN9Steinberg11PClassInfo2C2EPKciS2_S2_iS2_S2_S2_S2_, symObjAddr: 0x790, symBinAddr: 0xA0C0, symSize: 0x92B }
  - { offset: 0x6247A, size: 0x8, addend: 0x0, symName: __ZN9Steinberg3Vst5AGain14createInstanceEPv, symObjAddr: 0x600, symBinAddr: 0x9F30, symSize: 0x40 }
  - { offset: 0x6319E, size: 0x8, addend: 0x0, symName: __ZN9Steinberg3Vst15AGainController14createInstanceEPv, symObjAddr: 0x640, symBinAddr: 0x9F70, symSize: 0xC0 }
  - { offset: 0x63275, size: 0x8, addend: 0x0, symName: __ZN9Steinberg3Vst18AGainWithSideChain14createInstanceEPv, symObjAddr: 0x700, symBinAddr: 0xA030, symSize: 0x90 }
  - { offset: 0x651D3, size: 0x8, addend: 0x0, symName: __ZN9Steinberg3VstL17AGainProcessorUIDE, symObjAddr: 0x348B0, symBinAddr: 0x1D0EF0, symSize: 0x0 }
  - { offset: 0x651EC, size: 0x8, addend: 0x0, symName: __ZN9Steinberg3VstL30AGainWithSideChainProcessorUIDE, symObjAddr: 0x348C8, symBinAddr: 0x1D0F08, symSize: 0x0 }
  - { offset: 0x65205, size: 0x8, addend: 0x0, symName: __ZN9Steinberg3VstL18AGainControllerUIDE, symObjAddr: 0x348E0, symBinAddr: 0x1D0F20, symSize: 0x0 }
  - { offset: 0x692FE, size: 0x8, addend: 0x0, symName: __ZN9Steinberg3Vst18AGainWithSideChain10initializeEPNS_8FUnknownE, symObjAddr: 0x0, symBinAddr: 0xAA60, symSize: 0x40 }
  - { offset: 0x69364, size: 0x8, addend: 0x0, symName: __ZThn16_N9Steinberg3Vst18AGainWithSideChain10initializeEPNS_8FUnknownE, symObjAddr: 0x40, symBinAddr: 0xAAA0, symSize: 0x50 }
  - { offset: 0x693A9, size: 0x8, addend: 0x0, symName: __ZThn48_N9Steinberg3Vst18AGainWithSideChain10initializeEPNS_8FUnknownE, symObjAddr: 0x90, symBinAddr: 0xAAF0, symSize: 0x50 }
  - { offset: 0x696D4, size: 0x8, addend: 0x0, symName: __ZN9Steinberg3Vst18AGainWithSideChain7processERNS0_11ProcessDataE, symObjAddr: 0xE0, symBinAddr: 0xAB40, symSize: 0xA00 }
  - { offset: 0x69D45, size: 0x8, addend: 0x0, symName: __ZThn272_N9Steinberg3Vst18AGainWithSideChain7processERNS0_11ProcessDataE, symObjAddr: 0xAE0, symBinAddr: 0xB540, symSize: 0x20 }
  - { offset: 0x6A07E, size: 0x8, addend: 0x0, symName: __ZN9Steinberg3Vst18AGainWithSideChain18setBusArrangementsEPyiS2_i, symObjAddr: 0xB00, symBinAddr: 0xB560, symSize: 0x520 }
  - { offset: 0x6B991, size: 0x8, addend: 0x0, symName: __ZThn272_N9Steinberg3Vst18AGainWithSideChain18setBusArrangementsEPyiS2_i, symObjAddr: 0x1020, symBinAddr: 0xBA80, symSize: 0x20 }
  - { offset: 0x6B9ED, size: 0x8, addend: 0x0, symName: __ZN9Steinberg3Vst18AGainWithSideChainD1Ev, symObjAddr: 0x1160, symBinAddr: 0xBAA0, symSize: 0x10 }
  - { offset: 0x6BA43, size: 0x8, addend: 0x0, symName: __ZN9Steinberg3Vst18AGainWithSideChainD0Ev, symObjAddr: 0x1170, symBinAddr: 0xBAB0, symSize: 0x20 }
  - { offset: 0x6E10C, size: 0x8, addend: 0x0, symName: _ghInst, symObjAddr: 0x1A5C0, symBinAddr: 0x1F6710, symSize: 0x0 }
  - { offset: 0x6E137, size: 0x8, addend: 0x0, symName: _bundleRefCounter, symObjAddr: 0x1A5C8, symBinAddr: 0x1F6718, symSize: 0x0 }
  - { offset: 0x6E154, size: 0x8, addend: 0x0, symName: _moduleHandle, symObjAddr: 0x1A5D0, symBinAddr: 0x1F6720, symSize: 0x0 }
  - { offset: 0x6E16B, size: 0x8, addend: 0x0, symName: _gPath, symObjAddr: 0x1A5E0, symBinAddr: 0x1F6730, symSize: 0x0 }
  - { offset: 0x6E19D, size: 0x8, addend: 0x0, symName: _gBundleRefs, symObjAddr: 0x1ADE0, symBinAddr: 0x1F6F30, symSize: 0x0 }
  - { offset: 0x70C2D, size: 0x8, addend: 0x0, symName: __ZNSt3__16vectorIP10__CFBundleNS_9allocatorIS2_EEED1B8ne180100Ev, symObjAddr: 0x0, symBinAddr: 0xBB40, symSize: 0x20 }
  - { offset: 0x710E5, size: 0x8, addend: 0x0, symName: _bundleEntry, symObjAddr: 0x20, symBinAddr: 0xBB60, symSize: 0x240 }
  - { offset: 0x71632, size: 0x8, addend: 0x0, symName: _bundleExit, symObjAddr: 0x260, symBinAddr: 0xBDA0, symSize: 0x90 }
  - { offset: 0x716E0, size: 0x8, addend: 0x0, symName: __ZNKSt3__16vectorIP10__CFBundleNS_9allocatorIS2_EEE20__throw_length_errorB8ne180100Ev, symObjAddr: 0x2F0, symBinAddr: 0xBE30, symSize: 0x10 }
  - { offset: 0x71735, size: 0x8, addend: 0x0, symName: _bundleExit, symObjAddr: 0x260, symBinAddr: 0xBDA0, symSize: 0x90 }
  - { offset: 0x73745, size: 0x8, addend: 0x0, symName: __ZN6VSTGUI9Animation19AlphaValueAnimationC2Efb, symObjAddr: 0x0, symBinAddr: 0x3E270, symSize: 0x60 }
  - { offset: 0x785C0, size: 0x8, addend: 0x0, symName: __ZN6VSTGUI9Animation19AlphaValueAnimationC2Efb, symObjAddr: 0x0, symBinAddr: 0x3E270, symSize: 0x60 }
  - { offset: 0x78656, size: 0x8, addend: 0x0, symName: __ZN6VSTGUI9Animation19AlphaValueAnimationC1Efb, symObjAddr: 0x60, symBinAddr: 0x3E2D0, symSize: 0x30 }
  - { offset: 0x786BB, size: 0x8, addend: 0x0, symName: __ZN6VSTGUI9Animation19AlphaValueAnimation14animationStartEPNS_5CViewEPKc, symObjAddr: 0x90, symBinAddr: 0x3E300, symSize: 0x20 }
  - { offset: 0x786FE, size: 0x8, addend: 0x0, symName: __ZN6VSTGUI9Animation19AlphaValueAnimation13animationTickEPNS_5CViewEPKcf, symObjAddr: 0xB0, symBinAddr: 0x3E320, symSize: 0x30 }
  - { offset: 0x78772, size: 0x8, addend: 0x0, symName: __ZN6VSTGUI9Animation19AlphaValueAnimation17animationFinishedEPNS_5CViewEPKcb, symObjAddr: 0xE0, symBinAddr: 0x3E350, symSize: 0x30 }
  - { offset: 0x78811, size: 0x8, addend: 0x0, symName: __ZN6VSTGUI9Animation17ViewSizeAnimationC2ERKNS_5CRectEb, symObjAddr: 0x110, symBinAddr: 0x3E380, symSize: 0x70 }
  - { offset: 0x788E5, size: 0x8, addend: 0x0, symName: __ZN6VSTGUI9Animation17ViewSizeAnimationC1ERKNS_5CRectEb, symObjAddr: 0x180, symBinAddr: 0x3E3F0, symSize: 0x40 }
  - { offset: 0x78986, size: 0x8, addend: 0x0, symName: __ZN6VSTGUI9Animation17ViewSizeAnimation14animationStartEPNS_5CViewEPKc, symObjAddr: 0x1C0, symBinAddr: 0x3E430, symSize: 0x30 }
  - { offset: 0x789EF, size: 0x8, addend: 0x0, symName: __ZN6VSTGUI9Animation17ViewSizeAnimation17animationFinishedEPNS_5CViewEPKcb, symObjAddr: 0x1F0, symBinAddr: 0x3E460, symSize: 0xA0 }
  - { offset: 0x78AB0, size: 0x8, addend: 0x0, symName: __ZN6VSTGUI9Animation17ViewSizeAnimation13animationTickEPNS_5CViewEPKcf, symObjAddr: 0x290, symBinAddr: 0x3E500, symSize: 0xE0 }
  - { offset: 0x78C5B, size: 0x8, addend: 0x0, symName: __ZN6VSTGUI9Animation21ExchangeViewAnimationC2EPNS_5CViewES3_NS1_14AnimationStyleE, symObjAddr: 0x370, symBinAddr: 0x3E5E0, symSize: 0x170 }
  - { offset: 0x78F50, size: 0x8, addend: 0x0, symName: __ZN6VSTGUI9Animation21ExchangeViewAnimation4initEv, symObjAddr: 0x4E0, symBinAddr: 0x3E750, symSize: 0x2B0 }
  - { offset: 0x79639, size: 0x8, addend: 0x0, symName: __ZN6VSTGUI9Animation21ExchangeViewAnimationC1EPNS_5CViewES3_NS1_14AnimationStyleE, symObjAddr: 0x790, symBinAddr: 0x3EA00, symSize: 0x150 }
  - { offset: 0x798FA, size: 0x8, addend: 0x0, symName: __ZN6VSTGUI9Animation21ExchangeViewAnimationD2Ev, symObjAddr: 0x8E0, symBinAddr: 0x3EB50, symSize: 0x60 }
  - { offset: 0x799BD, size: 0x8, addend: 0x0, symName: __ZN6VSTGUI9Animation21ExchangeViewAnimationD1Ev, symObjAddr: 0x940, symBinAddr: 0x3EBB0, symSize: 0x60 }
  - { offset: 0x79A86, size: 0x8, addend: 0x0, symName: __ZThn8_N6VSTGUI9Animation21ExchangeViewAnimationD1Ev, symObjAddr: 0x9A0, symBinAddr: 0x3EC10, symSize: 0x60 }
  - { offset: 0x79B3F, size: 0x8, addend: 0x0, symName: __ZN6VSTGUI9Animation21ExchangeViewAnimationD0Ev, symObjAddr: 0xA00, symBinAddr: 0x3EC70, symSize: 0x60 }
  - { offset: 0x79C1F, size: 0x8, addend: 0x0, symName: __ZThn8_N6VSTGUI9Animation21ExchangeViewAnimationD0Ev, symObjAddr: 0xA60, symBinAddr: 0x3ECD0, symSize: 0x60 }
  - { offset: 0x79CDD, size: 0x8, addend: 0x0, symName: __ZN6VSTGUI9Animation21ExchangeViewAnimation14updateViewSizeEPNS_5CViewERKNS_5CRectE, symObjAddr: 0xAC0, symBinAddr: 0x3ED30, symSize: 0x50 }
  - { offset: 0x79DA5, size: 0x8, addend: 0x0, symName: __ZN6VSTGUI9Animation21ExchangeViewAnimation16doPushInFromLeftEf, symObjAddr: 0xB10, symBinAddr: 0x3ED80, symSize: 0xB0 }
  - { offset: 0x79EEA, size: 0x8, addend: 0x0, symName: __ZN6VSTGUI9Animation21ExchangeViewAnimation17doPushInFromRightEf, symObjAddr: 0xBC0, symBinAddr: 0x3EE30, symSize: 0xA0 }
  - { offset: 0x7A053, size: 0x8, addend: 0x0, symName: __ZN6VSTGUI9Animation21ExchangeViewAnimation15doPushInFromTopEf, symObjAddr: 0xC60, symBinAddr: 0x3EED0, symSize: 0xB0 }
  - { offset: 0x7A198, size: 0x8, addend: 0x0, symName: __ZN6VSTGUI9Animation21ExchangeViewAnimation18doPushInFromBottomEf, symObjAddr: 0xD10, symBinAddr: 0x3EF80, symSize: 0xA0 }
  - { offset: 0x7A315, size: 0x8, addend: 0x0, symName: __ZN6VSTGUI9Animation21ExchangeViewAnimation19doPushInOutFromLeftEf, symObjAddr: 0xDB0, symBinAddr: 0x3F020, symSize: 0x130 }
  - { offset: 0x7A580, size: 0x8, addend: 0x0, symName: __ZN6VSTGUI9Animation21ExchangeViewAnimation20doPushInOutFromRightEf, symObjAddr: 0xEE0, symBinAddr: 0x3F150, symSize: 0x130 }
  - { offset: 0x7A813, size: 0x8, addend: 0x0, symName: __ZN6VSTGUI9Animation21ExchangeViewAnimation11doAlphaFadeEf, symObjAddr: 0x1010, symBinAddr: 0x3F280, symSize: 0x50 }
  - { offset: 0x7A89B, size: 0x8, addend: 0x0, symName: __ZN6VSTGUI9Animation21ExchangeViewAnimation14animationStartEPNS_5CViewEPKc, symObjAddr: 0x1060, symBinAddr: 0x3F2D0, symSize: 0x10 }
  - { offset: 0x7A905, size: 0x8, addend: 0x0, symName: __ZN6VSTGUI9Animation21ExchangeViewAnimation13animationTickEPNS_5CViewEPKcf, symObjAddr: 0x1070, symBinAddr: 0x3F2E0, symSize: 0x3D0 }
  - { offset: 0x7B0CD, size: 0x8, addend: 0x0, symName: __ZN6VSTGUI9Animation21ExchangeViewAnimation17animationFinishedEPNS_5CViewEPKcb, symObjAddr: 0x1440, symBinAddr: 0x3F6B0, symSize: 0x60 }
  - { offset: 0x7B1A8, size: 0x8, addend: 0x0, symName: __ZN6VSTGUI9Animation21ControlValueAnimationC1Efb, symObjAddr: 0x1500, symBinAddr: 0x3F710, symSize: 0x30 }
  - { offset: 0x7B212, size: 0x8, addend: 0x0, symName: __ZN6VSTGUI9Animation21ControlValueAnimation14animationStartEPNS_5CViewEPKc, symObjAddr: 0x1530, symBinAddr: 0x3F740, symSize: 0x50 }
  - { offset: 0x7B276, size: 0x8, addend: 0x0, symName: __ZN6VSTGUI9Animation21ControlValueAnimation13animationTickEPNS_5CViewEPKcf, symObjAddr: 0x1580, symBinAddr: 0x3F790, symSize: 0x90 }
  - { offset: 0x7B32E, size: 0x8, addend: 0x0, symName: __ZN6VSTGUI9Animation21ControlValueAnimation17animationFinishedEPNS_5CViewEPKcb, symObjAddr: 0x1610, symBinAddr: 0x3F820, symSize: 0x60 }
  - { offset: 0x7B3A3, size: 0x8, addend: 0x0, symName: __ZN6VSTGUI9Animation19AlphaValueAnimationD1Ev, symObjAddr: 0x16F0, symBinAddr: 0x3F880, symSize: 0x10 }
  - { offset: 0x7B3CD, size: 0x8, addend: 0x0, symName: __ZN6VSTGUI9Animation19AlphaValueAnimationD0Ev, symObjAddr: 0x1700, symBinAddr: 0x3F890, symSize: 0x10 }
  - { offset: 0x7B3ED, size: 0x8, addend: 0x0, symName: __ZThn8_N6VSTGUI9Animation19AlphaValueAnimationD1Ev, symObjAddr: 0x1710, symBinAddr: 0x3F8A0, symSize: 0x10 }
  - { offset: 0x7B422, size: 0x8, addend: 0x0, symName: __ZThn8_N6VSTGUI9Animation19AlphaValueAnimationD0Ev, symObjAddr: 0x1720, symBinAddr: 0x3F8B0, symSize: 0x10 }
  - { offset: 0x7B455, size: 0x8, addend: 0x0, symName: __ZN6VSTGUI9Animation17ViewSizeAnimationD1Ev, symObjAddr: 0x1730, symBinAddr: 0x3F8C0, symSize: 0x10 }
  - { offset: 0x7B47F, size: 0x8, addend: 0x0, symName: __ZN6VSTGUI9Animation17ViewSizeAnimationD0Ev, symObjAddr: 0x1740, symBinAddr: 0x3F8D0, symSize: 0x10 }
  - { offset: 0x7B49F, size: 0x8, addend: 0x0, symName: __ZThn8_N6VSTGUI9Animation17ViewSizeAnimationD1Ev, symObjAddr: 0x1750, symBinAddr: 0x3F8E0, symSize: 0x10 }
  - { offset: 0x7B4D4, size: 0x8, addend: 0x0, symName: __ZThn8_N6VSTGUI9Animation17ViewSizeAnimationD0Ev, symObjAddr: 0x1760, symBinAddr: 0x3F8F0, symSize: 0x10 }
  - { offset: 0x7B507, size: 0x8, addend: 0x0, symName: __ZN6VSTGUI9Animation21ControlValueAnimationD1Ev, symObjAddr: 0x1770, symBinAddr: 0x3F900, symSize: 0x10 }
  - { offset: 0x7B531, size: 0x8, addend: 0x0, symName: __ZN6VSTGUI9Animation21ControlValueAnimationD0Ev, symObjAddr: 0x1780, symBinAddr: 0x3F910, symSize: 0x10 }
  - { offset: 0x7B551, size: 0x8, addend: 0x0, symName: __ZThn8_N6VSTGUI9Animation21ControlValueAnimationD1Ev, symObjAddr: 0x1790, symBinAddr: 0x3F920, symSize: 0x10 }
  - { offset: 0x7B586, size: 0x8, addend: 0x0, symName: __ZThn8_N6VSTGUI9Animation21ControlValueAnimationD0Ev, symObjAddr: 0x17A0, symBinAddr: 0x3F930, symSize: 0x10 }
  - { offset: 0x7B5B9, size: 0x8, addend: 0x0, symName: __ZN6VSTGUI9Animation16IAnimationTargetD1Ev, symObjAddr: 0x17B0, symBinAddr: 0x178B90, symSize: 0x10 }
  - { offset: 0x7B5E2, size: 0x8, addend: 0x0, symName: __ZN6VSTGUI9Animation16IAnimationTargetD0Ev, symObjAddr: 0x17C0, symBinAddr: 0x178BA0, symSize: 0x10 }
  - { offset: 0x7D51A, size: 0x8, addend: 0x0, symName: __ZN6VSTGUI9Animation6Detail5Timer9gInstanceE, symObjAddr: 0x85D18, symBinAddr: 0x1F7660, symSize: 0x0 }
  - { offset: 0x7D7EF, size: 0x8, addend: 0x0, symName: __ZN6VSTGUI9Animation21kMsgAnimationFinishedE, symObjAddr: 0x3540, symBinAddr: 0x1D0660, symSize: 0x0 }
  - { offset: 0x7E9F1, size: 0x8, addend: 0x0, symName: __ZN6VSTGUI9makeOwnedINS_9Animation6Detail9AnimationEJRPNS_5CViewERPKcRPNS1_16IAnimationTargetERPNS1_15ITimingFunctionENSt3__18functionIFvS5_S8_SB_EEERbEEENS_13SharedPointerIT_EEDpOT0_, symObjAddr: 0xA40, symBinAddr: 0x40370, symSize: 0x200 }
  - { offset: 0x8C445, size: 0x8, addend: 0x0, symName: __ZN6VSTGUI9Animation6Detail5TimerC1Ev, symObjAddr: 0x15E0, symBinAddr: 0x40CA0, symSize: 0x140 }
  - { offset: 0x8CBCB, size: 0x8, addend: 0x0, symName: __ZN6VSTGUI9Animation8Animator12addAnimationEPNS_5CViewEPKcPNS0_16IAnimationTargetEPNS0_15ITimingFunctionEPNS_11CBaseObjectE, symObjAddr: 0xC40, symBinAddr: 0x40570, symSize: 0x240 }
  - { offset: 0x8D730, size: 0x8, addend: 0x0, symName: __ZN6VSTGUI9Animation6Detail9AnimationC2EPNS_5CViewERKNSt3__112basic_stringIcNS5_11char_traitsIcEENS5_9allocatorIcEEEEPNS0_16IAnimationTargetEPNS0_15ITimingFunctionEONS5_8functionIFvS4_PKcSF_EEEb, symObjAddr: 0x0, symBinAddr: 0x3F940, symSize: 0x110 }
  - { offset: 0x8DBC4, size: 0x8, addend: 0x0, symName: __ZN6VSTGUI9Animation6Detail9AnimationC1EPNS_5CViewERKNSt3__112basic_stringIcNS5_11char_traitsIcEENS5_9allocatorIcEEEEPNS0_16IAnimationTargetEPNS0_15ITimingFunctionEONS5_8functionIFvS4_PKcSF_EEEb, symObjAddr: 0x110, symBinAddr: 0x3FA50, symSize: 0x100 }
  - { offset: 0x8E020, size: 0x8, addend: 0x0, symName: __ZN6VSTGUI9Animation6Detail9AnimationD2Ev, symObjAddr: 0x210, symBinAddr: 0x3FB50, symSize: 0x160 }
  - { offset: 0x8E3F5, size: 0x8, addend: 0x0, symName: __ZN6VSTGUI9Animation6Detail9AnimationD1Ev, symObjAddr: 0x380, symBinAddr: 0x3FCB0, symSize: 0x20 }
  - { offset: 0x8E445, size: 0x8, addend: 0x0, symName: __ZN6VSTGUI9Animation6Detail9AnimationD0Ev, symObjAddr: 0x3A0, symBinAddr: 0x3FCD0, symSize: 0x30 }
  - { offset: 0x8E6BB, size: 0x8, addend: 0x0, symName: __ZN6VSTGUI9Animation8AnimatorC2Ev, symObjAddr: 0x3D0, symBinAddr: 0x3FD00, symSize: 0x80 }
  - { offset: 0x8E8E4, size: 0x8, addend: 0x0, symName: __ZN6VSTGUI9Animation8AnimatorC1Ev, symObjAddr: 0x450, symBinAddr: 0x3FD80, symSize: 0x60 }
  - { offset: 0x8ED70, size: 0x8, addend: 0x0, symName: __ZN6VSTGUI9Animation8AnimatorD2Ev, symObjAddr: 0x4B0, symBinAddr: 0x3FDE0, symSize: 0xC0 }
  - { offset: 0x8F365, size: 0x8, addend: 0x0, symName: __ZNKSt3__114default_deleteIN6VSTGUI9Animation8Animator4ImplEEclB8ne180100EPS4_, symObjAddr: 0x1C90, symBinAddr: 0x411F0, symSize: 0xD0 }
  - { offset: 0x8F70B, size: 0x8, addend: 0x0, symName: __ZN6VSTGUI9Animation8AnimatorD1Ev, symObjAddr: 0x570, symBinAddr: 0x3FEA0, symSize: 0x20 }
  - { offset: 0x8F75D, size: 0x8, addend: 0x0, symName: __ZN6VSTGUI9Animation8AnimatorD0Ev, symObjAddr: 0x590, symBinAddr: 0x3FEC0, symSize: 0x30 }
  - { offset: 0x8F85B, size: 0x8, addend: 0x0, symName: __ZN6VSTGUI9Animation8Animator12addAnimationEPNS_5CViewEPKcPNS0_16IAnimationTargetEPNS0_15ITimingFunctionENSt3__18functionIFvS3_S5_S7_EEEb, symObjAddr: 0x5C0, symBinAddr: 0x3FEF0, symSize: 0x140 }
  - { offset: 0x8FC26, size: 0x8, addend: 0x0, symName: __ZN6VSTGUI9Animation8Animator15removeAnimationEPNS_5CViewEPKc, symObjAddr: 0x700, symBinAddr: 0x40030, symSize: 0x270 }
  - { offset: 0x903A4, size: 0x8, addend: 0x0, symName: __ZN6VSTGUI12DispatchListINS_13SharedPointerINS_9Animation6Detail9AnimationEEEE3addEOS5_, symObjAddr: 0x970, symBinAddr: 0x402A0, symSize: 0xD0 }
  - { offset: 0x90D08, size: 0x8, addend: 0x0, symName: __ZN6VSTGUI12DispatchListINS_13SharedPointerINS_9Animation6Detail9AnimationEEEE11postForEachEv, symObjAddr: 0x2550, symBinAddr: 0x41AA0, symSize: 0x2F0 }
  - { offset: 0x9183D, size: 0x8, addend: 0x0, symName: __ZNKSt3__112basic_stringIcNS_11char_traitsIcEENS_9allocatorIcEEE20__throw_out_of_rangeB8ne180100Ev, symObjAddr: 0x2840, symBinAddr: 0x41D90, symSize: 0x10 }
  - { offset: 0x91BAC, size: 0x8, addend: 0x0, symName: __ZNSt3__16vectorIN6VSTGUI13SharedPointerINS1_9Animation6Detail9AnimationEEENS_9allocatorIS6_EEE24__emplace_back_slow_pathIJS6_EEEPS6_DpOT_, symObjAddr: 0x1DE0, symBinAddr: 0x41340, symSize: 0x200 }
  - { offset: 0x920E7, size: 0x8, addend: 0x0, symName: __ZNSt3__16vectorINS_4pairIbN6VSTGUI13SharedPointerINS2_9Animation6Detail9AnimationEEEEENS_9allocatorIS8_EEE24__emplace_back_slow_pathIJS8_EEEPS8_DpOT_, symObjAddr: 0x1FF0, symBinAddr: 0x41550, symSize: 0x150 }
  - { offset: 0x92FFE, size: 0x8, addend: 0x0, symName: __ZNSt3__110__function12__value_funcIFvPN6VSTGUI5CViewEPKcPNS2_9Animation16IAnimationTargetEEE4swapB8ne180100ERSB_, symObjAddr: 0x2410, symBinAddr: 0x41960, symSize: 0x140 }
  - { offset: 0x93131, size: 0x8, addend: 0x0, symName: __ZN6VSTGUI9Animation8Animator12addAnimationEPNS_5CViewEPKcPNS0_16IAnimationTargetEPNS0_15ITimingFunctionEPNS_11CBaseObjectE.cold.1, symObjAddr: 0x28D0, symBinAddr: 0x178BB0, symSize: 0x27 }
  - { offset: 0x931A5, size: 0x8, addend: 0x0, symName: __ZN6VSTGUI9Animation8Animator16removeAnimationsEPNS_5CViewE, symObjAddr: 0xE80, symBinAddr: 0x407B0, symSize: 0x1C0 }
  - { offset: 0x9388E, size: 0x8, addend: 0x0, symName: __ZN6VSTGUI9Animation8Animator7onTimerEv, symObjAddr: 0x1040, symBinAddr: 0x40970, symSize: 0x330 }
  - { offset: 0x94C85, size: 0x8, addend: 0x0, symName: __ZNSt3__14listIPN6VSTGUI9Animation8AnimatorENS_9allocatorIS4_EEED1Ev, symObjAddr: 0x1720, symBinAddr: 0x40DE0, symSize: 0x60 }
  - { offset: 0x94E8B, size: 0x8, addend: 0x0, symName: __ZN6VSTGUI9Animation6Detail5TimerD1Ev, symObjAddr: 0x1780, symBinAddr: 0x40E40, symSize: 0x20 }
  - { offset: 0x94EC1, size: 0x8, addend: 0x0, symName: __ZN6VSTGUI9Animation6Detail5TimerD2Ev, symObjAddr: 0x1A70, symBinAddr: 0x410F0, symSize: 0x100 }
  - { offset: 0x9530B, size: 0x8, addend: 0x0, symName: __ZN6VSTGUI9Animation6Detail5TimerD0Ev, symObjAddr: 0x17A0, symBinAddr: 0x40E60, symSize: 0x30 }
  - { offset: 0x95367, size: 0x8, addend: 0x0, symName: __ZNSt3__110__function6__funcIZN6VSTGUI9Animation6Detail5TimerC1EvEUlPNS2_12CVSTGUITimerEE_NS_9allocatorIS8_EEFvS7_EED1Ev, symObjAddr: 0x17D0, symBinAddr: 0x40E90, symSize: 0x10 }
  - { offset: 0x95392, size: 0x8, addend: 0x0, symName: __ZNSt3__110__function6__funcIZN6VSTGUI9Animation6Detail5TimerC1EvEUlPNS2_12CVSTGUITimerEE_NS_9allocatorIS8_EEFvS7_EED0Ev, symObjAddr: 0x17E0, symBinAddr: 0x40EA0, symSize: 0x10 }
  - { offset: 0x9558D, size: 0x8, addend: 0x0, symName: __ZNKSt3__110__function6__funcIZN6VSTGUI9Animation6Detail5TimerC1EvEUlPNS2_12CVSTGUITimerEE_NS_9allocatorIS8_EEFvS7_EE7__cloneEv, symObjAddr: 0x17F0, symBinAddr: 0x40EB0, symSize: 0x30 }
  - { offset: 0x958B1, size: 0x8, addend: 0x0, symName: __ZNKSt3__110__function6__funcIZN6VSTGUI9Animation6Detail5TimerC1EvEUlPNS2_12CVSTGUITimerEE_NS_9allocatorIS8_EEFvS7_EE7__cloneEPNS0_6__baseISB_EE, symObjAddr: 0x1820, symBinAddr: 0x40EE0, symSize: 0x20 }
  - { offset: 0x95A30, size: 0x8, addend: 0x0, symName: __ZNSt3__110__function6__funcIZN6VSTGUI9Animation6Detail5TimerC1EvEUlPNS2_12CVSTGUITimerEE_NS_9allocatorIS8_EEFvS7_EE7destroyEv, symObjAddr: 0x1840, symBinAddr: 0x40F00, symSize: 0x10 }
  - { offset: 0x95A81, size: 0x8, addend: 0x0, symName: __ZNSt3__110__function6__funcIZN6VSTGUI9Animation6Detail5TimerC1EvEUlPNS2_12CVSTGUITimerEE_NS_9allocatorIS8_EEFvS7_EE18destroy_deallocateEv, symObjAddr: 0x1850, symBinAddr: 0x40F10, symSize: 0x10 }
  - { offset: 0x95BCD, size: 0x8, addend: 0x0, symName: __ZNSt3__110__function6__funcIZN6VSTGUI9Animation6Detail5TimerC1EvEUlPNS2_12CVSTGUITimerEE_NS_9allocatorIS8_EEFvS7_EEclEOS7_, symObjAddr: 0x1860, symBinAddr: 0x40F20, symSize: 0x10 }
  - { offset: 0x95C6C, size: 0x8, addend: 0x0, symName: __ZN6VSTGUI9Animation6Detail5Timer7onTimerEv, symObjAddr: 0x18E0, symBinAddr: 0x40F60, symSize: 0x190 }
  - { offset: 0x9629A, size: 0x8, addend: 0x0, symName: __ZNKSt3__110__function6__funcIZN6VSTGUI9Animation6Detail5TimerC1EvEUlPNS2_12CVSTGUITimerEE_NS_9allocatorIS8_EEFvS7_EE6targetERKSt9type_info, symObjAddr: 0x1870, symBinAddr: 0x40F30, symSize: 0x20 }
  - { offset: 0x9630E, size: 0x8, addend: 0x0, symName: __ZNKSt3__110__function6__funcIZN6VSTGUI9Animation6Detail5TimerC1EvEUlPNS2_12CVSTGUITimerEE_NS_9allocatorIS8_EEFvS7_EE11target_typeEv, symObjAddr: 0x1890, symBinAddr: 0x40F50, symSize: 0x10 }
  - { offset: 0x966C4, size: 0x8, addend: 0x0, symName: __ZNSt3__16vectorIN6VSTGUI13SharedPointerINS1_9Animation6Detail9AnimationEEENS_9allocatorIS6_EEED1B8ne180100Ev, symObjAddr: 0x1D60, symBinAddr: 0x412C0, symSize: 0x80 }
  - { offset: 0x96A5F, size: 0x8, addend: 0x0, symName: __ZNKSt3__16vectorIN6VSTGUI13SharedPointerINS1_9Animation6Detail9AnimationEEENS_9allocatorIS6_EEE20__throw_length_errorB8ne180100Ev, symObjAddr: 0x1FE0, symBinAddr: 0x41540, symSize: 0x10 }
  - { offset: 0x96A89, size: 0x8, addend: 0x0, symName: __ZNSt3__16vectorINS_4pairIbN6VSTGUI13SharedPointerINS2_9Animation6Detail9AnimationEEEEENS_9allocatorIS8_EEE24__emplace_back_slow_pathIJS8_EEEPS8_DpOT_, symObjAddr: 0x1FF0, symBinAddr: 0x41550, symSize: 0x150 }
  - { offset: 0x96C98, size: 0x8, addend: 0x0, symName: __ZNKSt3__16vectorINS_4pairIbN6VSTGUI13SharedPointerINS2_9Animation6Detail9AnimationEEEEENS_9allocatorIS8_EEE20__throw_length_errorB8ne180100Ev, symObjAddr: 0x2140, symBinAddr: 0x416A0, symSize: 0x10 }
  - { offset: 0x96CC2, size: 0x8, addend: 0x0, symName: '__ZNSt3__110__function6__funcIZN6VSTGUI9Animation8Animator12addAnimationEPNS2_5CViewEPKcPNS3_16IAnimationTargetEPNS3_15ITimingFunctionEPNS2_11CBaseObjectEE3$_0NS_9allocatorISF_EEFvS6_S8_SA_EED1Ev', symObjAddr: 0x2150, symBinAddr: 0x416B0, symSize: 0x30 }
  - { offset: 0x96DA0, size: 0x8, addend: 0x0, symName: '__ZNSt3__110__function6__funcIZN6VSTGUI9Animation8Animator12addAnimationEPNS2_5CViewEPKcPNS3_16IAnimationTargetEPNS3_15ITimingFunctionEPNS2_11CBaseObjectEE3$_0NS_9allocatorISF_EEFvS6_S8_SA_EED1Ev', symObjAddr: 0x2150, symBinAddr: 0x416B0, symSize: 0x30 }
  - { offset: 0x96E7F, size: 0x8, addend: 0x0, symName: '__ZNSt3__110__function6__funcIZN6VSTGUI9Animation8Animator12addAnimationEPNS2_5CViewEPKcPNS3_16IAnimationTargetEPNS3_15ITimingFunctionEPNS2_11CBaseObjectEE3$_0NS_9allocatorISF_EEFvS6_S8_SA_EED0Ev', symObjAddr: 0x2180, symBinAddr: 0x416E0, symSize: 0x40 }
  - { offset: 0x97178, size: 0x8, addend: 0x0, symName: '__ZNKSt3__110__function6__funcIZN6VSTGUI9Animation8Animator12addAnimationEPNS2_5CViewEPKcPNS3_16IAnimationTargetEPNS3_15ITimingFunctionEPNS2_11CBaseObjectEE3$_0NS_9allocatorISF_EEFvS6_S8_SA_EE7__cloneEv', symObjAddr: 0x21C0, symBinAddr: 0x41720, symSize: 0x50 }
  - { offset: 0x97498, size: 0x8, addend: 0x0, symName: '__ZNKSt3__110__function6__funcIZN6VSTGUI9Animation8Animator12addAnimationEPNS2_5CViewEPKcPNS3_16IAnimationTargetEPNS3_15ITimingFunctionEPNS2_11CBaseObjectEE3$_0NS_9allocatorISF_EEFvS6_S8_SA_EE7__cloneEPNS0_6__baseISI_EE', symObjAddr: 0x2210, symBinAddr: 0x41770, symSize: 0x30 }
  - { offset: 0x975F5, size: 0x8, addend: 0x0, symName: '__ZNSt3__110__function6__funcIZN6VSTGUI9Animation8Animator12addAnimationEPNS2_5CViewEPKcPNS3_16IAnimationTargetEPNS3_15ITimingFunctionEPNS2_11CBaseObjectEE3$_0NS_9allocatorISF_EEFvS6_S8_SA_EE7destroyEv', symObjAddr: 0x2240, symBinAddr: 0x417A0, symSize: 0x20 }
  - { offset: 0x976C7, size: 0x8, addend: 0x0, symName: '__ZNSt3__110__function6__funcIZN6VSTGUI9Animation8Animator12addAnimationEPNS2_5CViewEPKcPNS3_16IAnimationTargetEPNS3_15ITimingFunctionEPNS2_11CBaseObjectEE3$_0NS_9allocatorISF_EEFvS6_S8_SA_EE18destroy_deallocateEv', symObjAddr: 0x2260, symBinAddr: 0x417C0, symSize: 0x30 }
  - { offset: 0x9798A, size: 0x8, addend: 0x0, symName: '__ZNSt3__110__function6__funcIZN6VSTGUI9Animation8Animator12addAnimationEPNS2_5CViewEPKcPNS3_16IAnimationTargetEPNS3_15ITimingFunctionEPNS2_11CBaseObjectEE3$_0NS_9allocatorISF_EEFvS6_S8_SA_EEclEOS6_OS8_OSA_', symObjAddr: 0x2290, symBinAddr: 0x417F0, symSize: 0x110 }
  - { offset: 0x9808E, size: 0x8, addend: 0x0, symName: '__ZNKSt3__110__function6__funcIZN6VSTGUI9Animation8Animator12addAnimationEPNS2_5CViewEPKcPNS3_16IAnimationTargetEPNS3_15ITimingFunctionEPNS2_11CBaseObjectEE3$_0NS_9allocatorISF_EEFvS6_S8_SA_EE6targetERKSt9type_info', symObjAddr: 0x23A0, symBinAddr: 0x41900, symSize: 0x20 }
  - { offset: 0x98102, size: 0x8, addend: 0x0, symName: '__ZNKSt3__110__function6__funcIZN6VSTGUI9Animation8Animator12addAnimationEPNS2_5CViewEPKcPNS3_16IAnimationTargetEPNS3_15ITimingFunctionEPNS2_11CBaseObjectEE3$_0NS_9allocatorISF_EEFvS6_S8_SA_EE11target_typeEv', symObjAddr: 0x23C0, symBinAddr: 0x41920, symSize: 0x10 }
  - { offset: 0x98126, size: 0x8, addend: 0x0, symName: __ZN6VSTGUI9Animation15FinishedMessageD1Ev, symObjAddr: 0x23D0, symBinAddr: 0x41930, symSize: 0x10 }
  - { offset: 0x98151, size: 0x8, addend: 0x0, symName: __ZN6VSTGUI9Animation15FinishedMessageD0Ev, symObjAddr: 0x23F0, symBinAddr: 0x41940, symSize: 0x10 }
  - { offset: 0x9817C, size: 0x8, addend: 0x0, symName: __ZNK6VSTGUI9Animation15FinishedMessage7newCopyEv, symObjAddr: 0x2400, symBinAddr: 0x41950, symSize: 0x10 }
  - { offset: 0x9E6E0, size: 0x8, addend: 0x0, symName: __ZN6VSTGUI9Animation20LinearTimingFunctionC2Ej, symObjAddr: 0x0, symBinAddr: 0x41DA0, symSize: 0x20 }
  - { offset: 0x9E754, size: 0x8, addend: 0x0, symName: __ZN6VSTGUI9Animation20LinearTimingFunction11getPositionEj, symObjAddr: 0x40, symBinAddr: 0x41DC0, symSize: 0x30 }
  - { offset: 0x9E7AB, size: 0x8, addend: 0x0, symName: __ZN6VSTGUI9Animation19PowerTimingFunctionC2Ejf, symObjAddr: 0x70, symBinAddr: 0x41DF0, symSize: 0x20 }
  - { offset: 0x9E831, size: 0x8, addend: 0x0, symName: __ZN6VSTGUI9Animation19PowerTimingFunction11getPositionEj, symObjAddr: 0xB0, symBinAddr: 0x41E10, symSize: 0x50 }
  - { offset: 0x9EE95, size: 0x8, addend: 0x0, symName: __ZN6VSTGUI9Animation27InterpolationTimingFunctionC2Ejff, symObjAddr: 0x100, symBinAddr: 0x41E60, symSize: 0x150 }
  - { offset: 0x9F6AA, size: 0x8, addend: 0x0, symName: __ZN6VSTGUI9Animation27InterpolationTimingFunction8addPointEff, symObjAddr: 0x250, symBinAddr: 0x41FB0, symSize: 0xC0 }
  - { offset: 0x9F9BC, size: 0x8, addend: 0x0, symName: __ZN6VSTGUI9Animation27InterpolationTimingFunctionC1Ejff, symObjAddr: 0x310, symBinAddr: 0x42070, symSize: 0x10 }
  - { offset: 0x9FE14, size: 0x8, addend: 0x0, symName: __ZN6VSTGUI9Animation27InterpolationTimingFunction11getPositionEj, symObjAddr: 0x320, symBinAddr: 0x42080, symSize: 0x1F0 }
  - { offset: 0xA041A, size: 0x8, addend: 0x0, symName: __ZN6VSTGUI9Animation25CubicBezierTimingFunctionC2EjNS_6CPointES2_, symObjAddr: 0x510, symBinAddr: 0x42270, symSize: 0x30 }
  - { offset: 0xA04F9, size: 0x8, addend: 0x0, symName: __ZN6VSTGUI9Animation25CubicBezierTimingFunction4lerpENS_6CPointES2_f, symObjAddr: 0x570, symBinAddr: 0x422A0, symSize: 0x40 }
  - { offset: 0xA0589, size: 0x8, addend: 0x0, symName: __ZN6VSTGUI9Animation25CubicBezierTimingFunction11getPositionEj, symObjAddr: 0x5B0, symBinAddr: 0x422E0, symSize: 0x80 }
  - { offset: 0xA073E, size: 0x8, addend: 0x0, symName: __ZN6VSTGUI9Animation25CubicBezierTimingFunction4easyEj, symObjAddr: 0x630, symBinAddr: 0x42360, symSize: 0x30 }
  - { offset: 0xA07F0, size: 0x8, addend: 0x0, symName: __ZN6VSTGUI9Animation25CubicBezierTimingFunction6easyInEj, symObjAddr: 0x660, symBinAddr: 0x42390, symSize: 0x30 }
  - { offset: 0xA08A2, size: 0x8, addend: 0x0, symName: __ZN6VSTGUI9Animation25CubicBezierTimingFunction7easyOutEj, symObjAddr: 0x690, symBinAddr: 0x423C0, symSize: 0x30 }
  - { offset: 0xA0954, size: 0x8, addend: 0x0, symName: __ZN6VSTGUI9Animation25CubicBezierTimingFunction9easyInOutEj, symObjAddr: 0x6C0, symBinAddr: 0x423F0, symSize: 0x30 }
  - { offset: 0xA0A0A, size: 0x8, addend: 0x0, symName: __ZN6VSTGUI9Animation20RepeatTimingFunctionC2EPNS0_18TimingFunctionBaseEib, symObjAddr: 0x6F0, symBinAddr: 0x42420, symSize: 0x30 }
  - { offset: 0xA0A7E, size: 0x8, addend: 0x0, symName: __ZN6VSTGUI9Animation20RepeatTimingFunctionD2Ev, symObjAddr: 0x750, symBinAddr: 0x42450, symSize: 0x70 }
  - { offset: 0xA0AED, size: 0x8, addend: 0x0, symName: __ZN6VSTGUI9Animation20RepeatTimingFunctionD1Ev, symObjAddr: 0x7D0, symBinAddr: 0x424C0, symSize: 0x70 }
  - { offset: 0xA0B67, size: 0x8, addend: 0x0, symName: __ZN6VSTGUI9Animation20RepeatTimingFunctionD0Ev, symObjAddr: 0x840, symBinAddr: 0x42530, symSize: 0x70 }
  - { offset: 0xA0BEF, size: 0x8, addend: 0x0, symName: __ZN6VSTGUI9Animation20RepeatTimingFunction11getPositionEj, symObjAddr: 0x8B0, symBinAddr: 0x425A0, symSize: 0x40 }
  - { offset: 0xA0C42, size: 0x8, addend: 0x0, symName: __ZN6VSTGUI9Animation20RepeatTimingFunction6isDoneEj, symObjAddr: 0x8F0, symBinAddr: 0x425E0, symSize: 0x50 }
  - { offset: 0xA0C86, size: 0x8, addend: 0x0, symName: __ZN6VSTGUI9Animation20LinearTimingFunctionD1Ev, symObjAddr: 0x940, symBinAddr: 0x42630, symSize: 0x10 }
  - { offset: 0xA0CB1, size: 0x8, addend: 0x0, symName: __ZN6VSTGUI9Animation20LinearTimingFunctionD0Ev, symObjAddr: 0x950, symBinAddr: 0x42640, symSize: 0x10 }
  - { offset: 0xA0CDC, size: 0x8, addend: 0x0, symName: __ZN6VSTGUI9Animation18TimingFunctionBase6isDoneEj, symObjAddr: 0x960, symBinAddr: 0x42650, symSize: 0x10 }
  - { offset: 0xA0D0F, size: 0x8, addend: 0x0, symName: __ZN6VSTGUI9Animation19PowerTimingFunctionD1Ev, symObjAddr: 0x970, symBinAddr: 0x42660, symSize: 0x10 }
  - { offset: 0xA0D3A, size: 0x8, addend: 0x0, symName: __ZN6VSTGUI9Animation19PowerTimingFunctionD0Ev, symObjAddr: 0x980, symBinAddr: 0x42670, symSize: 0x10 }
  - { offset: 0xA0D7E, size: 0x8, addend: 0x0, symName: __ZN6VSTGUI9Animation27InterpolationTimingFunctionD1Ev, symObjAddr: 0x990, symBinAddr: 0x42680, symSize: 0x20 }
  - { offset: 0xA0E5B, size: 0x8, addend: 0x0, symName: __ZN6VSTGUI9Animation27InterpolationTimingFunctionD0Ev, symObjAddr: 0x9B0, symBinAddr: 0x426A0, symSize: 0x30 }
  - { offset: 0xA0F62, size: 0x8, addend: 0x0, symName: __ZN6VSTGUI9Animation25CubicBezierTimingFunctionD1Ev, symObjAddr: 0x9E0, symBinAddr: 0x426D0, symSize: 0x10 }
  - { offset: 0xA0F8D, size: 0x8, addend: 0x0, symName: __ZN6VSTGUI9Animation25CubicBezierTimingFunctionD0Ev, symObjAddr: 0x9F0, symBinAddr: 0x426E0, symSize: 0x10 }
  - { offset: 0xAA56C, size: 0x8, addend: 0x0, symName: __ZN6VSTGUI7CBitmapC2Ev, symObjAddr: 0x0, symBinAddr: 0x426F0, symSize: 0x50 }
  - { offset: 0xAA744, size: 0x8, addend: 0x0, symName: __ZN6VSTGUI7CBitmapC1Ev, symObjAddr: 0x50, symBinAddr: 0x42740, symSize: 0x30 }
  - { offset: 0xAAAAD, size: 0x8, addend: 0x0, symName: __ZN6VSTGUI7CBitmapC2ERKNS_20CResourceDescriptionE, symObjAddr: 0x80, symBinAddr: 0x42770, symSize: 0x110 }
  - { offset: 0xAAEA7, size: 0x8, addend: 0x0, symName: __ZNSt3__16vectorIN6VSTGUI13SharedPointerINS1_15IPlatformBitmapEEENS_9allocatorIS4_EEE24__emplace_back_slow_pathIJRS4_EEEPS4_DpOT_, symObjAddr: 0x2080, symBinAddr: 0x44740, symSize: 0x240 }
  - { offset: 0xAB39E, size: 0x8, addend: 0x0, symName: __ZNSt3__16vectorIN6VSTGUI13SharedPointerINS1_15IPlatformBitmapEEENS_9allocatorIS4_EEED1B8ne180100Ev, symObjAddr: 0x190, symBinAddr: 0x42880, symSize: 0x80 }
  - { offset: 0xAB632, size: 0x8, addend: 0x0, symName: __ZN6VSTGUI7CBitmapC1ERKNS_20CResourceDescriptionE, symObjAddr: 0x210, symBinAddr: 0x42900, symSize: 0xF0 }
  - { offset: 0xABA0D, size: 0x8, addend: 0x0, symName: __ZN6VSTGUI7CBitmapC2Edd, symObjAddr: 0x300, symBinAddr: 0x429F0, symSize: 0x120 }
  - { offset: 0xABE47, size: 0x8, addend: 0x0, symName: __ZN6VSTGUI7CBitmapC1Edd, symObjAddr: 0x420, symBinAddr: 0x42B10, symSize: 0x110 }
  - { offset: 0xAC280, size: 0x8, addend: 0x0, symName: __ZN6VSTGUI7CBitmapC2ENS_6CPointEd, symObjAddr: 0x530, symBinAddr: 0x42C20, symSize: 0x140 }
  - { offset: 0xAC68C, size: 0x8, addend: 0x0, symName: __ZN6VSTGUI7CBitmapC1ENS_6CPointEd, symObjAddr: 0x670, symBinAddr: 0x42D60, symSize: 0x130 }
  - { offset: 0xACABA, size: 0x8, addend: 0x0, symName: __ZN6VSTGUI7CBitmapC2ERKNS_13SharedPointerINS_15IPlatformBitmapEEE, symObjAddr: 0x7A0, symBinAddr: 0x42E90, symSize: 0x80 }
  - { offset: 0xACCE8, size: 0x8, addend: 0x0, symName: __ZNSt3__16vectorIN6VSTGUI13SharedPointerINS1_15IPlatformBitmapEEENS_9allocatorIS4_EEE24__emplace_back_slow_pathIJRKS4_EEEPS4_DpOT_, symObjAddr: 0x2390, symBinAddr: 0x44990, symSize: 0x238 }
  - { offset: 0xAD1E0, size: 0x8, addend: 0x0, symName: __ZN6VSTGUI7CBitmapC1ERKNS_13SharedPointerINS_15IPlatformBitmapEEE, symObjAddr: 0x820, symBinAddr: 0x42F10, symSize: 0x60 }
  - { offset: 0xAD488, size: 0x8, addend: 0x0, symName: __ZN6VSTGUI7CBitmap4drawEPNS_12CDrawContextERKNS_5CRectERKNS_6CPointEf, symObjAddr: 0x880, symBinAddr: 0x42F70, symSize: 0x1C0 }
  - { offset: 0xAD886, size: 0x8, addend: 0x0, symName: __ZNK6VSTGUI7CBitmap8getWidthEv, symObjAddr: 0xA40, symBinAddr: 0x43130, symSize: 0x90 }
  - { offset: 0xADA2E, size: 0x8, addend: 0x0, symName: __ZNK6VSTGUI7CBitmap17getPlatformBitmapEv, symObjAddr: 0xAD0, symBinAddr: 0x431C0, symSize: 0x40 }
  - { offset: 0xADB13, size: 0x8, addend: 0x0, symName: __ZNK6VSTGUI7CBitmap9getHeightEv, symObjAddr: 0xB10, symBinAddr: 0x43200, symSize: 0xA0 }
  - { offset: 0xADC56, size: 0x8, addend: 0x0, symName: __ZNK6VSTGUI7CBitmap7getSizeEv, symObjAddr: 0xBB0, symBinAddr: 0x432A0, symSize: 0xB0 }
  - { offset: 0xADEC1, size: 0x8, addend: 0x0, symName: __ZN6VSTGUI7CBitmap17setPlatformBitmapERKNS_13SharedPointerINS_15IPlatformBitmapEEE, symObjAddr: 0xC60, symBinAddr: 0x43350, symSize: 0x90 }
  - { offset: 0xAE0CF, size: 0x8, addend: 0x0, symName: __ZN6VSTGUI7CBitmap9addBitmapERKNS_13SharedPointerINS_15IPlatformBitmapEEE, symObjAddr: 0xCF0, symBinAddr: 0x433E0, symSize: 0x170 }
  - { offset: 0xAE434, size: 0x8, addend: 0x0, symName: __ZNK6VSTGUI7CBitmap35getBestPlatformBitmapForScaleFactorEd, symObjAddr: 0xE60, symBinAddr: 0x43550, symSize: 0x1B0 }
  - { offset: 0xAE793, size: 0x8, addend: 0x0, symName: __ZN6VSTGUI17CMultiFrameBitmapC2ERKNS_20CResourceDescriptionENS_28CMultiFrameBitmapDescriptionE, symObjAddr: 0x1010, symBinAddr: 0x43700, symSize: 0x40 }
  - { offset: 0xAE827, size: 0x8, addend: 0x0, symName: __ZN6VSTGUI17CMultiFrameBitmapC1ERKNS_20CResourceDescriptionENS_28CMultiFrameBitmapDescriptionE, symObjAddr: 0x1050, symBinAddr: 0x43740, symSize: 0x50 }
  - { offset: 0xAE8AA, size: 0x8, addend: 0x0, symName: __ZN6VSTGUI17CMultiFrameBitmap17setMultiFrameDescENS_28CMultiFrameBitmapDescriptionE, symObjAddr: 0x10A0, symBinAddr: 0x43790, symSize: 0xA0 }
  - { offset: 0xAE90B, size: 0x8, addend: 0x0, symName: __ZNK6VSTGUI17CMultiFrameBitmap17getMultiFrameDescEv, symObjAddr: 0x1140, symBinAddr: 0x43830, symSize: 0x20 }
  - { offset: 0xAE931, size: 0x8, addend: 0x0, symName: __ZNK6VSTGUI17CMultiFrameBitmap12getFrameSizeEv, symObjAddr: 0x1160, symBinAddr: 0x43850, symSize: 0x10 }
  - { offset: 0xAE950, size: 0x8, addend: 0x0, symName: __ZNK6VSTGUI17CMultiFrameBitmap12getNumFramesEv, symObjAddr: 0x1170, symBinAddr: 0x43860, symSize: 0x10 }
  - { offset: 0xAE96F, size: 0x8, addend: 0x0, symName: __ZNK6VSTGUI17CMultiFrameBitmap18getNumFramesPerRowEv, symObjAddr: 0x1180, symBinAddr: 0x43870, symSize: 0x10 }
  - { offset: 0xAE9D8, size: 0x8, addend: 0x0, symName: __ZNK6VSTGUI17CMultiFrameBitmap13calcFrameRectEj, symObjAddr: 0x1190, symBinAddr: 0x43880, symSize: 0x90 }
  - { offset: 0xAEB8A, size: 0x8, addend: 0x0, symName: __ZN6VSTGUI17CMultiFrameBitmap9drawFrameEPNS_12CDrawContextEtNS_6CPointE, symObjAddr: 0x1220, symBinAddr: 0x43910, symSize: 0xC0 }
  - { offset: 0xAED68, size: 0x8, addend: 0x0, symName: __ZNK6VSTGUI17CMultiFrameBitmap27normalizedValueToFrameIndexEf, symObjAddr: 0x12E0, symBinAddr: 0x439D0, symSize: 0x70 }
  - { offset: 0xAEDF1, size: 0x8, addend: 0x0, symName: __ZNK6VSTGUI17CMultiFrameBitmap27frameIndexToNormalizedValueEt, symObjAddr: 0x1350, symBinAddr: 0x43A40, symSize: 0x50 }
  - { offset: 0xAEE86, size: 0x8, addend: 0x0, symName: __ZN6VSTGUI20CNinePartTiledBitmapC2ERKNS_20CResourceDescriptionERKNS_25CNinePartTiledDescriptionE, symObjAddr: 0x13A0, symBinAddr: 0x43A90, symSize: 0x50 }
  - { offset: 0xAEF00, size: 0x8, addend: 0x0, symName: __ZN6VSTGUI20CNinePartTiledBitmapC1ERKNS_20CResourceDescriptionERKNS_25CNinePartTiledDescriptionE, symObjAddr: 0x13F0, symBinAddr: 0x43AE0, symSize: 0x50 }
  - { offset: 0xAEFD1, size: 0x8, addend: 0x0, symName: __ZN6VSTGUI20CNinePartTiledBitmapC2ERKNS_13SharedPointerINS_15IPlatformBitmapEEERKNS_25CNinePartTiledDescriptionE, symObjAddr: 0x1440, symBinAddr: 0x43B30, symSize: 0xF0 }
  - { offset: 0xAF3C5, size: 0x8, addend: 0x0, symName: __ZN6VSTGUI20CNinePartTiledBitmapC1ERKNS_13SharedPointerINS_15IPlatformBitmapEEERKNS_25CNinePartTiledDescriptionE, symObjAddr: 0x1530, symBinAddr: 0x43C20, symSize: 0xC0 }
  - { offset: 0xAF799, size: 0x8, addend: 0x0, symName: __ZN6VSTGUI20CNinePartTiledBitmap4drawEPNS_12CDrawContextERKNS_5CRectERKNS_6CPointEf, symObjAddr: 0x15F0, symBinAddr: 0x43CE0, symSize: 0x20 }
  - { offset: 0xAF881, size: 0x8, addend: 0x0, symName: __ZN6VSTGUI18CBitmapPixelAccessC2Ev, symObjAddr: 0x1610, symBinAddr: 0x43D00, symSize: 0x50 }
  - { offset: 0xAFA6B, size: 0x8, addend: 0x0, symName: __ZN6VSTGUI18CBitmapPixelAccess4initEPNS_7CBitmapEPNS_26IPlatformBitmapPixelAccessE, symObjAddr: 0x1660, symBinAddr: 0x43D50, symSize: 0x110 }
  - { offset: 0xAFD72, size: 0x8, addend: 0x0, symName: __ZN6VSTGUI18CBitmapPixelAccess6createEPNS_7CBitmapEb, symObjAddr: 0x1770, symBinAddr: 0x43E60, symSize: 0x250 }
  - { offset: 0xB078A, size: 0x8, addend: 0x0, symName: __ZN6VSTGUI16ReferenceCountedINSt3__16atomicIiEEE6forgetEv, symObjAddr: 0x19C0, symBinAddr: 0x440B0, symSize: 0x30 }
  - { offset: 0xB0885, size: 0x8, addend: 0x0, symName: __ZN6VSTGUI16ReferenceCountedINSt3__16atomicIiEEE8rememberEv, symObjAddr: 0x19F0, symBinAddr: 0x440E0, symSize: 0x10 }
  - { offset: 0xB0926, size: 0x8, addend: 0x0, symName: __ZN6VSTGUI16ReferenceCountedINSt3__16atomicIiEEED1Ev, symObjAddr: 0x1A00, symBinAddr: 0x440F0, symSize: 0x10 }
  - { offset: 0xB094F, size: 0x8, addend: 0x0, symName: __ZN6VSTGUI16ReferenceCountedINSt3__16atomicIiEEED0Ev, symObjAddr: 0x1A10, symBinAddr: 0x44100, symSize: 0x10 }
  - { offset: 0xB09BA, size: 0x8, addend: 0x0, symName: __ZNK6VSTGUI16ReferenceCountedINSt3__16atomicIiEEE14getNbReferenceEv, symObjAddr: 0x1A20, symBinAddr: 0x44110, symSize: 0x10 }
  - { offset: 0xB0A49, size: 0x8, addend: 0x0, symName: __ZN6VSTGUI16ReferenceCountedINSt3__16atomicIiEEE12beforeDeleteEv, symObjAddr: 0x1A30, symBinAddr: 0x44120, symSize: 0x10 }
  - { offset: 0xB0A8F, size: 0x8, addend: 0x0, symName: __ZN6VSTGUI7CBitmapD1Ev, symObjAddr: 0x1A40, symBinAddr: 0x44130, symSize: 0x80 }
  - { offset: 0xB0C54, size: 0x8, addend: 0x0, symName: __ZN6VSTGUI7CBitmapD0Ev, symObjAddr: 0x1AC0, symBinAddr: 0x441B0, symSize: 0x70 }
  - { offset: 0xB0E47, size: 0x8, addend: 0x0, symName: __ZN6VSTGUI17CMultiFrameBitmapD1Ev, symObjAddr: 0x1B30, symBinAddr: 0x44220, symSize: 0x80 }
  - { offset: 0xB1024, size: 0x8, addend: 0x0, symName: __ZN6VSTGUI17CMultiFrameBitmapD0Ev, symObjAddr: 0x1BB0, symBinAddr: 0x442A0, symSize: 0x70 }
  - { offset: 0xB122F, size: 0x8, addend: 0x0, symName: __ZN6VSTGUI20CNinePartTiledBitmapD1Ev, symObjAddr: 0x1C20, symBinAddr: 0x44310, symSize: 0x80 }
  - { offset: 0xB140D, size: 0x8, addend: 0x0, symName: __ZN6VSTGUI20CNinePartTiledBitmapD0Ev, symObjAddr: 0x1CA0, symBinAddr: 0x44390, symSize: 0x70 }
  - { offset: 0xB15F3, size: 0x8, addend: 0x0, symName: __ZN6VSTGUI18CBitmapPixelAccessD1Ev, symObjAddr: 0x1D10, symBinAddr: 0x178BE0, symSize: 0x10 }
  - { offset: 0xB161C, size: 0x8, addend: 0x0, symName: __ZN6VSTGUI18CBitmapPixelAccessD0Ev, symObjAddr: 0x1D20, symBinAddr: 0x178BF0, symSize: 0x10 }
  - { offset: 0xB168B, size: 0x8, addend: 0x0, symName: __ZN6VSTGUI23CBitmapPixelAccessOrderILi1ELi2ELi3ELi0EED1Ev, symObjAddr: 0x1D30, symBinAddr: 0x44400, symSize: 0x30 }
  - { offset: 0xB1735, size: 0x8, addend: 0x0, symName: __ZN6VSTGUI23CBitmapPixelAccessOrderILi1ELi2ELi3ELi0EED0Ev, symObjAddr: 0x1D60, symBinAddr: 0x44430, symSize: 0x40 }
  - { offset: 0xB17E7, size: 0x8, addend: 0x0, symName: __ZNK6VSTGUI23CBitmapPixelAccessOrderILi1ELi2ELi3ELi0EE8getColorERNS_6CColorE, symObjAddr: 0x1DA0, symBinAddr: 0x44470, symSize: 0x30 }
  - { offset: 0xB181B, size: 0x8, addend: 0x0, symName: __ZN6VSTGUI23CBitmapPixelAccessOrderILi1ELi2ELi3ELi0EE8setColorERKNS_6CColorE, symObjAddr: 0x1DD0, symBinAddr: 0x444A0, symSize: 0x30 }
  - { offset: 0xB1873, size: 0x8, addend: 0x0, symName: __ZN6VSTGUI23CBitmapPixelAccessOrderILi0ELi1ELi2ELi3EED1Ev, symObjAddr: 0x1E00, symBinAddr: 0x444D0, symSize: 0x30 }
  - { offset: 0xB191D, size: 0x8, addend: 0x0, symName: __ZN6VSTGUI23CBitmapPixelAccessOrderILi0ELi1ELi2ELi3EED0Ev, symObjAddr: 0x1E30, symBinAddr: 0x44500, symSize: 0x40 }
  - { offset: 0xB19CF, size: 0x8, addend: 0x0, symName: __ZNK6VSTGUI23CBitmapPixelAccessOrderILi0ELi1ELi2ELi3EE8getColorERNS_6CColorE, symObjAddr: 0x1E70, symBinAddr: 0x44540, symSize: 0x30 }
  - { offset: 0xB1A03, size: 0x8, addend: 0x0, symName: __ZN6VSTGUI23CBitmapPixelAccessOrderILi0ELi1ELi2ELi3EE8setColorERKNS_6CColorE, symObjAddr: 0x1EA0, symBinAddr: 0x44570, symSize: 0x30 }
  - { offset: 0xB1A5B, size: 0x8, addend: 0x0, symName: __ZN6VSTGUI23CBitmapPixelAccessOrderILi3ELi2ELi1ELi0EED1Ev, symObjAddr: 0x1ED0, symBinAddr: 0x445A0, symSize: 0x30 }
  - { offset: 0xB1B05, size: 0x8, addend: 0x0, symName: __ZN6VSTGUI23CBitmapPixelAccessOrderILi3ELi2ELi1ELi0EED0Ev, symObjAddr: 0x1F00, symBinAddr: 0x445D0, symSize: 0x40 }
  - { offset: 0xB1BB7, size: 0x8, addend: 0x0, symName: __ZNK6VSTGUI23CBitmapPixelAccessOrderILi3ELi2ELi1ELi0EE8getColorERNS_6CColorE, symObjAddr: 0x1F40, symBinAddr: 0x44610, symSize: 0x30 }
  - { offset: 0xB1BEB, size: 0x8, addend: 0x0, symName: __ZN6VSTGUI23CBitmapPixelAccessOrderILi3ELi2ELi1ELi0EE8setColorERKNS_6CColorE, symObjAddr: 0x1F70, symBinAddr: 0x44640, symSize: 0x30 }
  - { offset: 0xB1C43, size: 0x8, addend: 0x0, symName: __ZN6VSTGUI23CBitmapPixelAccessOrderILi2ELi1ELi0ELi3EED1Ev, symObjAddr: 0x1FA0, symBinAddr: 0x44670, symSize: 0x30 }
  - { offset: 0xB1CED, size: 0x8, addend: 0x0, symName: __ZN6VSTGUI23CBitmapPixelAccessOrderILi2ELi1ELi0ELi3EED0Ev, symObjAddr: 0x1FD0, symBinAddr: 0x446A0, symSize: 0x40 }
  - { offset: 0xB1D9F, size: 0x8, addend: 0x0, symName: __ZNK6VSTGUI23CBitmapPixelAccessOrderILi2ELi1ELi0ELi3EE8getColorERNS_6CColorE, symObjAddr: 0x2010, symBinAddr: 0x446E0, symSize: 0x30 }
  - { offset: 0xB1DD3, size: 0x8, addend: 0x0, symName: __ZN6VSTGUI23CBitmapPixelAccessOrderILi2ELi1ELi0ELi3EE8setColorERKNS_6CColorE, symObjAddr: 0x2040, symBinAddr: 0x44710, symSize: 0x30 }
  - { offset: 0xB210F, size: 0x8, addend: 0x0, symName: __ZNKSt3__16vectorIN6VSTGUI13SharedPointerINS1_15IPlatformBitmapEEENS_9allocatorIS4_EEE20__throw_length_errorB8ne180100Ev, symObjAddr: 0x22C0, symBinAddr: 0x44980, symSize: 0x10 }
  - { offset: 0xBF3CC, size: 0x8, addend: 0x0, symName: __ZN6VSTGUI12BitmapFilter7Factory11getInstanceEv, symObjAddr: 0x7C0, symBinAddr: 0x45170, symSize: 0x120 }
  - { offset: 0xBF3EE, size: 0x8, addend: 0x0, symName: __ZZN6VSTGUI12BitmapFilter7Factory11getInstanceEvE9gInstance, symObjAddr: 0x9B988, symBinAddr: 0x1D2098, symSize: 0x0 }
  - { offset: 0xBF404, size: 0x8, addend: 0x0, symName: __ZZN6VSTGUI12BitmapFilter7Factory11getInstanceEvE11initialized, symObjAddr: 0x9B9A8, symBinAddr: 0x1D20B8, symSize: 0x0 }
  - { offset: 0xBFA1A, size: 0x8, addend: 0x0, symName: __ZNK6VSTGUI12BitmapFilter10FilterBase11getPropertyEPKc, symObjAddr: 0x11D0, symBinAddr: 0x45B80, symSize: 0x160 }
  - { offset: 0xBFA42, size: 0x8, addend: 0x0, symName: __ZZNK6VSTGUI12BitmapFilter10FilterBase11getPropertyEPKcE8notFound, symObjAddr: 0x9B9B0, symBinAddr: 0x1D20C0, symSize: 0x0 }
  - { offset: 0xC030B, size: 0x8, addend: 0x0, symName: __ZN6VSTGUI12BitmapFilter8PropertyC2ENS1_4TypeE, symObjAddr: 0x0, symBinAddr: 0x44BD0, symSize: 0x10 }
  - { offset: 0xC0383, size: 0x8, addend: 0x0, symName: __ZN6VSTGUI12BitmapFilter8PropertyC2Ei, symObjAddr: 0x20, symBinAddr: 0x44BE0, symSize: 0x30 }
  - { offset: 0xC043B, size: 0x8, addend: 0x0, symName: __ZN6VSTGUI12BitmapFilter8PropertyC2Ed, symObjAddr: 0x80, symBinAddr: 0x44C10, symSize: 0x40 }
  - { offset: 0xC04B9, size: 0x8, addend: 0x0, symName: __ZN6VSTGUI12BitmapFilter8PropertyC2EPNS_10IReferenceE, symObjAddr: 0x100, symBinAddr: 0x44C50, symSize: 0x20 }
  - { offset: 0xC0542, size: 0x8, addend: 0x0, symName: __ZN6VSTGUI12BitmapFilter8PropertyC2ERKNS_5CRectE, symObjAddr: 0x140, symBinAddr: 0x44C70, symSize: 0x50 }
  - { offset: 0xC05F1, size: 0x8, addend: 0x0, symName: __ZN6VSTGUI12BitmapFilter8PropertyC2ERKNS_6CPointE, symObjAddr: 0x1E0, symBinAddr: 0x44CC0, symSize: 0x40 }
  - { offset: 0xC06DF, size: 0x8, addend: 0x0, symName: __ZN6VSTGUI12BitmapFilter8PropertyC2ERKNS_6CColorE, symObjAddr: 0x260, symBinAddr: 0x44D00, symSize: 0x30 }
  - { offset: 0xC07BD, size: 0x8, addend: 0x0, symName: __ZN6VSTGUI12BitmapFilter8PropertyC2ERKNS_18CGraphicsTransformE, symObjAddr: 0x2C0, symBinAddr: 0x44D30, symSize: 0x60 }
  - { offset: 0xC0844, size: 0x8, addend: 0x0, symName: __ZN6VSTGUI12BitmapFilter8PropertyC2ERKS1_, symObjAddr: 0x380, symBinAddr: 0x44D90, symSize: 0x20 }
  - { offset: 0xC0888, size: 0x8, addend: 0x0, symName: __ZN6VSTGUI12BitmapFilter8PropertyaSERKS1_, symObjAddr: 0x3A0, symBinAddr: 0x44DB0, symSize: 0x110 }
  - { offset: 0xC0993, size: 0x8, addend: 0x0, symName: __ZN6VSTGUI12BitmapFilter8PropertyD2Ev, symObjAddr: 0x4D0, symBinAddr: 0x44EC0, symSize: 0x30 }
  - { offset: 0xC09CE, size: 0x8, addend: 0x0, symName: __ZNK6VSTGUI12BitmapFilter8Property9getObjectEv, symObjAddr: 0x500, symBinAddr: 0x44EF0, symSize: 0x40 }
  - { offset: 0xC0A1C, size: 0x8, addend: 0x0, symName: __ZN6VSTGUI12BitmapFilter8PropertyD1Ev, symObjAddr: 0x550, symBinAddr: 0x44F30, symSize: 0x30 }
  - { offset: 0xC0A90, size: 0x8, addend: 0x0, symName: __ZN6VSTGUI12BitmapFilter8PropertyC2EOS1_, symObjAddr: 0x580, symBinAddr: 0x44F60, symSize: 0x30 }
  - { offset: 0xC0AD9, size: 0x8, addend: 0x0, symName: __ZN6VSTGUI12BitmapFilter8PropertyaSEOS1_, symObjAddr: 0x5B0, symBinAddr: 0x44F90, symSize: 0x60 }
  - { offset: 0xC0B42, size: 0x8, addend: 0x0, symName: __ZNK6VSTGUI12BitmapFilter8Property10getIntegerEv, symObjAddr: 0x640, symBinAddr: 0x44FF0, symSize: 0x40 }
  - { offset: 0xC0B77, size: 0x8, addend: 0x0, symName: __ZNK6VSTGUI12BitmapFilter8Property8getFloatEv, symObjAddr: 0x680, symBinAddr: 0x45030, symSize: 0x40 }
  - { offset: 0xC0BB2, size: 0x8, addend: 0x0, symName: __ZNK6VSTGUI12BitmapFilter8Property7getRectEv, symObjAddr: 0x6C0, symBinAddr: 0x45070, symSize: 0x40 }
  - { offset: 0xC0BE7, size: 0x8, addend: 0x0, symName: __ZNK6VSTGUI12BitmapFilter8Property8getPointEv, symObjAddr: 0x700, symBinAddr: 0x450B0, symSize: 0x40 }
  - { offset: 0xC0C22, size: 0x8, addend: 0x0, symName: __ZNK6VSTGUI12BitmapFilter8Property8getColorEv, symObjAddr: 0x740, symBinAddr: 0x450F0, symSize: 0x40 }
  - { offset: 0xC0C57, size: 0x8, addend: 0x0, symName: __ZNK6VSTGUI12BitmapFilter8Property12getTransformEv, symObjAddr: 0x780, symBinAddr: 0x45130, symSize: 0x40 }
  - { offset: 0xC0E0B, size: 0x8, addend: 0x0, symName: __ZN6VSTGUI12BitmapFilter7Factory14registerFilterEPKcPFPNS0_7IFilterES3_E, symObjAddr: 0xA70, symBinAddr: 0x45420, symSize: 0x110 }
  - { offset: 0xC170D, size: 0x8, addend: 0x0, symName: __ZN6VSTGUI12BitmapFilter7FactoryD1Ev, symObjAddr: 0x8E0, symBinAddr: 0x45290, symSize: 0x10 }
  - { offset: 0xC17FE, size: 0x8, addend: 0x0, symName: __ZNSt3__16__treeINS_12__value_typeINS_12basic_stringIcNS_11char_traitsIcEENS_9allocatorIcEEEEPFPN6VSTGUI12BitmapFilter7IFilterEPKcEEENS_19__map_value_compareIS7_SG_NS_4lessIS7_EELb1EEENS5_ISG_EEE7destroyEPNS_11__tree_nodeISG_PvEE, symObjAddr: 0x16D0, symBinAddr: 0x45FC0, symSize: 0x50 }
  - { offset: 0xC1AEB, size: 0x8, addend: 0x0, symName: __ZNK6VSTGUI12BitmapFilter7Factory13getNumFiltersEv, symObjAddr: 0x8F0, symBinAddr: 0x452A0, symSize: 0x10 }
  - { offset: 0xC1C4B, size: 0x8, addend: 0x0, symName: __ZNK6VSTGUI12BitmapFilter7Factory13getFilterNameEj, symObjAddr: 0x900, symBinAddr: 0x452B0, symSize: 0x70 }
  - { offset: 0xC21D5, size: 0x8, addend: 0x0, symName: __ZNK6VSTGUI12BitmapFilter7Factory12createFilterEPKc, symObjAddr: 0x970, symBinAddr: 0x45320, symSize: 0x100 }
  - { offset: 0xC2F29, size: 0x8, addend: 0x0, symName: __ZNSt3__16__treeINS_12__value_typeINS_12basic_stringIcNS_11char_traitsIcEENS_9allocatorIcEEEEPFPN6VSTGUI12BitmapFilter7IFilterEPKcEEENS_19__map_value_compareIS7_SG_NS_4lessIS7_EELb1EEENS5_ISG_EEE21__emplace_unique_implIJRSD_RSF_EEENS_4pairINS_15__tree_iteratorISG_PNS_11__tree_nodeISG_PvEElEEbEEDpOT_, symObjAddr: 0x68C0, symBinAddr: 0x4AEC0, symSize: 0x1A0 }
  - { offset: 0xC379C, size: 0x8, addend: 0x0, symName: __ZN6VSTGUI12BitmapFilter7Factory16unregisterFilterEPKcPFPNS0_7IFilterES3_E, symObjAddr: 0xB80, symBinAddr: 0x45530, symSize: 0x150 }
  - { offset: 0xC440A, size: 0x8, addend: 0x0, symName: __ZN6VSTGUI12BitmapFilter10FilterBaseC2EPKc, symObjAddr: 0xCD0, symBinAddr: 0x45680, symSize: 0x100 }
  - { offset: 0xC4990, size: 0x8, addend: 0x0, symName: __ZNK6VSTGUI12BitmapFilter10FilterBase14getDescriptionEv, symObjAddr: 0xDD0, symBinAddr: 0x45780, symSize: 0x20 }
  - { offset: 0xC49A2, size: 0x8, addend: 0x0, symName: __ZNK6VSTGUI12BitmapFilter10FilterBase14getDescriptionEv, symObjAddr: 0xDD0, symBinAddr: 0x45780, symSize: 0x20 }
  - { offset: 0xC4AFD, size: 0x8, addend: 0x0, symName: __ZN6VSTGUI12BitmapFilter10FilterBase11setPropertyEPKcRKNS0_8PropertyE, symObjAddr: 0xDF0, symBinAddr: 0x457A0, symSize: 0x1D0 }
  - { offset: 0xC5B1D, size: 0x8, addend: 0x0, symName: __ZNSt3__16__treeINS_12__value_typeINS_12basic_stringIcNS_11char_traitsIcEENS_9allocatorIcEEEEN6VSTGUI12BitmapFilter8PropertyEEENS_19__map_value_compareIS7_SB_NS_4lessIS7_EELb1EEENS5_ISB_EEE25__emplace_unique_key_argsIS7_JRKNS_21piecewise_construct_tENS_5tupleIJOS7_EEENSM_IJEEEEEENS_4pairINS_15__tree_iteratorISB_PNS_11__tree_nodeISB_PvEElEEbEERKT_DpOT0_, symObjAddr: 0x71E0, symBinAddr: 0x4B1B0, symSize: 0x1A0 }
  - { offset: 0xC6124, size: 0x8, addend: 0x0, symName: __ZN6VSTGUI12BitmapFilter10FilterBase11setPropertyEPKcONS0_8PropertyE, symObjAddr: 0xFC0, symBinAddr: 0x45970, symSize: 0x210 }
  - { offset: 0xC71FA, size: 0x8, addend: 0x0, symName: __ZNK6VSTGUI12BitmapFilter10FilterBase16getNumPropertiesEv, symObjAddr: 0x1330, symBinAddr: 0x45CE0, symSize: 0x10 }
  - { offset: 0xC729C, size: 0x8, addend: 0x0, symName: __ZNK6VSTGUI12BitmapFilter10FilterBase15getPropertyNameEj, symObjAddr: 0x1340, symBinAddr: 0x45CF0, symSize: 0x70 }
  - { offset: 0xC7518, size: 0x8, addend: 0x0, symName: __ZNK6VSTGUI12BitmapFilter10FilterBase15getPropertyTypeEj, symObjAddr: 0x13B0, symBinAddr: 0x45D60, symSize: 0x70 }
  - { offset: 0xC770C, size: 0x8, addend: 0x0, symName: __ZNK6VSTGUI12BitmapFilter10FilterBase15getPropertyTypeEPKc, symObjAddr: 0x1420, symBinAddr: 0x45DD0, symSize: 0x100 }
  - { offset: 0xC7F5D, size: 0x8, addend: 0x0, symName: __ZN6VSTGUI12BitmapFilter10FilterBase16registerPropertyEPKcRKNS0_8PropertyE, symObjAddr: 0x1520, symBinAddr: 0x45ED0, symSize: 0x30 }
  - { offset: 0xC8010, size: 0x8, addend: 0x0, symName: __ZNSt3__16__treeINS_12__value_typeINS_12basic_stringIcNS_11char_traitsIcEENS_9allocatorIcEEEEN6VSTGUI12BitmapFilter8PropertyEEENS_19__map_value_compareIS7_SB_NS_4lessIS7_EELb1EEENS5_ISB_EEE21__emplace_unique_implIJRPKcRKSA_EEENS_4pairINS_15__tree_iteratorISB_PNS_11__tree_nodeISB_PvEElEEbEEDpOT_, symObjAddr: 0x7510, symBinAddr: 0x4B3C0, symSize: 0x1E0 }
  - { offset: 0xC898A, size: 0x8, addend: 0x0, symName: __ZNK6VSTGUI12BitmapFilter10FilterBase14getInputBitmapEv, symObjAddr: 0x1550, symBinAddr: 0x45F00, symSize: 0xC0 }
  - { offset: 0xC8EC1, size: 0x8, addend: 0x0, symName: __ZN6VSTGUI12BitmapFilter7IFilterD1Ev, symObjAddr: 0x1650, symBinAddr: 0x178C00, symSize: 0x10 }
  - { offset: 0xC8EEC, size: 0x8, addend: 0x0, symName: __ZN6VSTGUI12BitmapFilter7IFilterD0Ev, symObjAddr: 0x1660, symBinAddr: 0x178C10, symSize: 0x10 }
  - { offset: 0xC8F17, size: 0x8, addend: 0x0, symName: __ZN6VSTGUI12BitmapFilter10FilterBaseD1Ev, symObjAddr: 0x16B0, symBinAddr: 0x178C20, symSize: 0x10 }
  - { offset: 0xC8F42, size: 0x8, addend: 0x0, symName: __ZN6VSTGUI12BitmapFilter10FilterBaseD0Ev, symObjAddr: 0x16C0, symBinAddr: 0x178C30, symSize: 0x10 }
  - { offset: 0xC8FCC, size: 0x8, addend: 0x0, symName: __ZN6VSTGUI12BitmapFilter8Standard7BoxBlur14CreateFunctionEPKc, symObjAddr: 0x1720, symBinAddr: 0x46010, symSize: 0x40 }
  - { offset: 0xC9000, size: 0x8, addend: 0x0, symName: __ZN6VSTGUI12BitmapFilter8Standard7BoxBlurC1Ev, symObjAddr: 0x1900, symBinAddr: 0x461F0, symSize: 0x2E0 }
  - { offset: 0xC97F8, size: 0x8, addend: 0x0, symName: __ZN6VSTGUI12BitmapFilter8Standard8SetColor14CreateFunctionEPKc, symObjAddr: 0x1760, symBinAddr: 0x46050, symSize: 0x40 }
  - { offset: 0xC982C, size: 0x8, addend: 0x0, symName: __ZN6VSTGUI12BitmapFilter8Standard8SetColorC1Ev, symObjAddr: 0x5020, symBinAddr: 0x49910, symSize: 0x140 }
  - { offset: 0xC9C10, size: 0x8, addend: 0x0, symName: __ZN6VSTGUI12BitmapFilter8Standard9Grayscale14CreateFunctionEPKc, symObjAddr: 0x17A0, symBinAddr: 0x46090, symSize: 0x60 }
  - { offset: 0xC9C86, size: 0x8, addend: 0x0, symName: __ZN6VSTGUI12BitmapFilter8Standard12SimpleFilterIPFvRNS_6CColorEPNS0_10FilterBaseEEEC2EPKcS8_, symObjAddr: 0x5190, symBinAddr: 0x49A80, symSize: 0xC0 }
  - { offset: 0xC9E76, size: 0x8, addend: 0x0, symName: __ZN6VSTGUI12BitmapFilter8Standard12ReplaceColor14CreateFunctionEPKc, symObjAddr: 0x1800, symBinAddr: 0x460F0, symSize: 0x40 }
  - { offset: 0xC9EAA, size: 0x8, addend: 0x0, symName: __ZN6VSTGUI12BitmapFilter8Standard12ReplaceColorC1Ev, symObjAddr: 0x5890, symBinAddr: 0x4A180, symSize: 0x140 }
  - { offset: 0xCA267, size: 0x8, addend: 0x0, symName: __ZN6VSTGUI12BitmapFilter8Standard14ScaleBiliniear14CreateFunctionEPKc, symObjAddr: 0x1840, symBinAddr: 0x46130, symSize: 0x60 }
  - { offset: 0xCA2DD, size: 0x8, addend: 0x0, symName: __ZN6VSTGUI12BitmapFilter8Standard9ScaleBaseC2EPKc, symObjAddr: 0x5AF0, symBinAddr: 0x4A3E0, symSize: 0x120 }
  - { offset: 0xCA650, size: 0x8, addend: 0x0, symName: __ZN6VSTGUI12BitmapFilter8Standard11ScaleLinear14CreateFunctionEPKc, symObjAddr: 0x18A0, symBinAddr: 0x46190, symSize: 0x60 }
  - { offset: 0xCA81A, size: 0x8, addend: 0x0, symName: __ZN6VSTGUI12BitmapFilter10FilterBaseD2Ev, symObjAddr: 0x1BE0, symBinAddr: 0x464D0, symSize: 0x50 }
  - { offset: 0xCAA63, size: 0x8, addend: 0x0, symName: __ZNSt3__16__treeINS_12__value_typeINS_12basic_stringIcNS_11char_traitsIcEENS_9allocatorIcEEEEN6VSTGUI12BitmapFilter8PropertyEEENS_19__map_value_compareIS7_SB_NS_4lessIS7_EELb1EEENS5_ISB_EEE7destroyEPNS_11__tree_nodeISB_PvEE, symObjAddr: 0x1FD0, symBinAddr: 0x468C0, symSize: 0x70 }
  - { offset: 0xCAD53, size: 0x8, addend: 0x0, symName: __ZN6VSTGUI12BitmapFilter8Standard7BoxBlurD1Ev, symObjAddr: 0x1C30, symBinAddr: 0x46520, symSize: 0x20 }
  - { offset: 0xCAD89, size: 0x8, addend: 0x0, symName: __ZN6VSTGUI12BitmapFilter8Standard7BoxBlurD2Ev, symObjAddr: 0x2040, symBinAddr: 0x46930, symSize: 0x130 }
  - { offset: 0xCB2BF, size: 0x8, addend: 0x0, symName: __ZN6VSTGUI12BitmapFilter8Standard7BoxBlurD0Ev, symObjAddr: 0x1C50, symBinAddr: 0x46540, symSize: 0x30 }
  - { offset: 0xCB458, size: 0x8, addend: 0x0, symName: __ZN6VSTGUI12BitmapFilter8Standard7BoxBlur3runEb, symObjAddr: 0x1C80, symBinAddr: 0x46570, symSize: 0x350 }
  - { offset: 0xCBAAB, size: 0x8, addend: 0x0, symName: __ZN6VSTGUI12BitmapFilter8Standard7BoxBlur3runERNS_18CBitmapPixelAccessES4_jb, symObjAddr: 0x2170, symBinAddr: 0x46A60, symSize: 0x130 }
  - { offset: 0xCBDAA, size: 0x8, addend: 0x0, symName: __ZN6VSTGUI12BitmapFilter8Standard7BoxBlur4algoILb1ELb0ELb0ELb0EEEvPhS4_iii, symObjAddr: 0x22A0, symBinAddr: 0x46B90, symSize: 0xB80 }
  - { offset: 0xCC9EE, size: 0x8, addend: 0x0, symName: __ZN6VSTGUI12BitmapFilter8Standard7BoxBlur4algoILb1ELb1ELb1ELb1EEEvPhS4_iii, symObjAddr: 0x39B0, symBinAddr: 0x482A0, symSize: 0x1670 }
  - { offset: 0xCE045, size: 0x8, addend: 0x0, symName: __ZN6VSTGUI12BitmapFilter8Standard7BoxBlur4algoILb0ELb0ELb0ELb1EEEvPhS4_iii, symObjAddr: 0x2E20, symBinAddr: 0x47710, symSize: 0xB90 }
  - { offset: 0xCEDBE, size: 0x8, addend: 0x0, symName: __ZN6VSTGUI12BitmapFilter8Standard12SimpleFilterIPFvRNS_6CColorEPNS0_10FilterBaseEEED2Ev, symObjAddr: 0x5250, symBinAddr: 0x49B40, symSize: 0x50 }
  - { offset: 0xCEFCB, size: 0x8, addend: 0x0, symName: __ZN6VSTGUI12BitmapFilter8Standard8SetColor15processSetColorERNS_6CColorEPNS0_10FilterBaseE, symObjAddr: 0x5160, symBinAddr: 0x49A50, symSize: 0x30 }
  - { offset: 0xCF05F, size: 0x8, addend: 0x0, symName: __ZN6VSTGUI12BitmapFilter8Standard12SimpleFilterIPFvRNS_6CColorEPNS0_10FilterBaseEEED1Ev, symObjAddr: 0x52A0, symBinAddr: 0x49B90, symSize: 0x40 }
  - { offset: 0xCF26F, size: 0x8, addend: 0x0, symName: __ZN6VSTGUI12BitmapFilter8Standard12SimpleFilterIPFvRNS_6CColorEPNS0_10FilterBaseEEED0Ev, symObjAddr: 0x52E0, symBinAddr: 0x49BD0, symSize: 0x40 }
  - { offset: 0xCF5A6, size: 0x8, addend: 0x0, symName: __ZN6VSTGUI12BitmapFilter8Standard12SimpleFilterIPFvRNS_6CColorEPNS0_10FilterBaseEEE3runEb, symObjAddr: 0x5320, symBinAddr: 0x49C10, symSize: 0x220 }
  - { offset: 0xCFA24, size: 0x8, addend: 0x0, symName: __ZN6VSTGUI12BitmapFilter8Standard12SimpleFilterIPFvRNS_6CColorEPNS0_10FilterBaseEEE3runERNS_18CBitmapPixelAccessESB_, symObjAddr: 0x5640, symBinAddr: 0x49F30, symSize: 0x180 }
  - { offset: 0xCFC0F, size: 0x8, addend: 0x0, symName: __ZN6VSTGUI12BitmapFilter8Standard8SetColorD1Ev, symObjAddr: 0x5540, symBinAddr: 0x49E30, symSize: 0x40 }
  - { offset: 0xCFE37, size: 0x8, addend: 0x0, symName: __ZN6VSTGUI12BitmapFilter8Standard8SetColorD0Ev, symObjAddr: 0x5580, symBinAddr: 0x49E70, symSize: 0x40 }
  - { offset: 0xD00B1, size: 0x8, addend: 0x0, symName: __ZN6VSTGUI12BitmapFilter8Standard8SetColor3runEb, symObjAddr: 0x55C0, symBinAddr: 0x49EB0, symSize: 0x80 }
  - { offset: 0xD01FD, size: 0x8, addend: 0x0, symName: __ZN6VSTGUI12BitmapFilter8Standard9Grayscale16processGrayscaleERNS_6CColorEPNS0_10FilterBaseE, symObjAddr: 0x57C0, symBinAddr: 0x4A0B0, symSize: 0x50 }
  - { offset: 0xD0272, size: 0x8, addend: 0x0, symName: __ZN6VSTGUI12BitmapFilter8Standard9GrayscaleD1Ev, symObjAddr: 0x5810, symBinAddr: 0x4A100, symSize: 0x40 }
  - { offset: 0xD049A, size: 0x8, addend: 0x0, symName: __ZN6VSTGUI12BitmapFilter8Standard9GrayscaleD0Ev, symObjAddr: 0x5850, symBinAddr: 0x4A140, symSize: 0x40 }
  - { offset: 0xD071C, size: 0x8, addend: 0x0, symName: __ZN6VSTGUI12BitmapFilter8Standard12ReplaceColor14processReplaceERNS_6CColorEPNS0_10FilterBaseE, symObjAddr: 0x59D0, symBinAddr: 0x4A2C0, symSize: 0x30 }
  - { offset: 0xD07D2, size: 0x8, addend: 0x0, symName: __ZN6VSTGUI12BitmapFilter8Standard12ReplaceColorD1Ev, symObjAddr: 0x5A00, symBinAddr: 0x4A2F0, symSize: 0x40 }
  - { offset: 0xD09FA, size: 0x8, addend: 0x0, symName: __ZN6VSTGUI12BitmapFilter8Standard12ReplaceColorD0Ev, symObjAddr: 0x5A40, symBinAddr: 0x4A330, symSize: 0x40 }
  - { offset: 0xD0C5D, size: 0x8, addend: 0x0, symName: __ZN6VSTGUI12BitmapFilter8Standard12ReplaceColor3runEb, symObjAddr: 0x5A80, symBinAddr: 0x4A370, symSize: 0x70 }
  - { offset: 0xD0D97, size: 0x8, addend: 0x0, symName: __ZN6VSTGUI12BitmapFilter8Standard9ScaleBaseD1Ev, symObjAddr: 0x5C10, symBinAddr: 0x178C40, symSize: 0x10 }
  - { offset: 0xD0DC3, size: 0x8, addend: 0x0, symName: __ZN6VSTGUI12BitmapFilter8Standard9ScaleBaseD0Ev, symObjAddr: 0x5C20, symBinAddr: 0x178C50, symSize: 0x10 }
  - { offset: 0xD0E4E, size: 0x8, addend: 0x0, symName: __ZN6VSTGUI12BitmapFilter8Standard9ScaleBase3runEb, symObjAddr: 0x5C30, symBinAddr: 0x4A500, symSize: 0x210 }
  - { offset: 0xD1247, size: 0x8, addend: 0x0, symName: __ZN6VSTGUI12BitmapFilter8Standard14ScaleBiliniearD1Ev, symObjAddr: 0x5E40, symBinAddr: 0x4A710, symSize: 0x40 }
  - { offset: 0xD146F, size: 0x8, addend: 0x0, symName: __ZN6VSTGUI12BitmapFilter8Standard14ScaleBiliniearD0Ev, symObjAddr: 0x5E80, symBinAddr: 0x4A750, symSize: 0x40 }
  - { offset: 0xD16E6, size: 0x8, addend: 0x0, symName: __ZN6VSTGUI12BitmapFilter8Standard14ScaleBiliniear7processERNS_18CBitmapPixelAccessES4_, symObjAddr: 0x5EC0, symBinAddr: 0x4A790, symSize: 0x3F0 }
  - { offset: 0xD1AFC, size: 0x8, addend: 0x0, symName: __ZN6VSTGUI12BitmapFilter8Standard11ScaleLinearD1Ev, symObjAddr: 0x62B0, symBinAddr: 0x4AB80, symSize: 0x40 }
  - { offset: 0xD1D24, size: 0x8, addend: 0x0, symName: __ZN6VSTGUI12BitmapFilter8Standard11ScaleLinearD0Ev, symObjAddr: 0x62F0, symBinAddr: 0x4ABC0, symSize: 0x40 }
  - { offset: 0xD1F87, size: 0x8, addend: 0x0, symName: __ZN6VSTGUI12BitmapFilter8Standard11ScaleLinear7processERNS_18CBitmapPixelAccessES4_, symObjAddr: 0x6330, symBinAddr: 0x4AC00, symSize: 0x2C0 }
  - { offset: 0xD2709, size: 0x8, addend: 0x0, symName: __ZNSt3__16__treeINS_12__value_typeINS_12basic_stringIcNS_11char_traitsIcEENS_9allocatorIcEEEEPFPN6VSTGUI12BitmapFilter7IFilterEPKcEEENS_19__map_value_compareIS7_SG_NS_4lessIS7_EELb1EEENS5_ISG_EEE16__construct_nodeIJRSD_RSF_EEENS_10unique_ptrINS_11__tree_nodeISG_PvEENS_22__tree_node_destructorINS5_IST_EEEEEEDpOT_, symObjAddr: 0x6A60, symBinAddr: 0x4B060, symSize: 0x110 }
  - { offset: 0xD3072, size: 0x8, addend: 0x0, symName: __ZNSt3__110unique_ptrINS_11__tree_nodeINS_12__value_typeINS_12basic_stringIcNS_11char_traitsIcEENS_9allocatorIcEEEEPFPN6VSTGUI12BitmapFilter7IFilterEPKcEEEPvEENS_22__tree_node_destructorINS6_ISJ_EEEEED1B8ne180100Ev, symObjAddr: 0x6B70, symBinAddr: 0x4B170, symSize: 0x40 }
  - { offset: 0xD381B, size: 0x8, addend: 0x0, symName: __ZNSt3__110unique_ptrINS_11__tree_nodeINS_12__value_typeINS_12basic_stringIcNS_11char_traitsIcEENS_9allocatorIcEEEEN6VSTGUI12BitmapFilter8PropertyEEEPvEENS_22__tree_node_destructorINS6_ISE_EEEEED1B8ne180100Ev, symObjAddr: 0x7380, symBinAddr: 0x4B350, symSize: 0x70 }
  - { offset: 0xD3EC3, size: 0x8, addend: 0x0, symName: __ZNSt3__14pairIKNS_12basic_stringIcNS_11char_traitsIcEENS_9allocatorIcEEEEN6VSTGUI12BitmapFilter8PropertyEEC2B8ne180100IRPKcRKSA_Li0EEEOT_OT0_, symObjAddr: 0x76F0, symBinAddr: 0x4B5A0, symSize: 0xE0 }
  - { offset: 0xD99AD, size: 0x8, addend: 0x0, symName: __ZNSt3__124__put_character_sequenceB8ne180100IcNS_11char_traitsIcEEEERNS_13basic_ostreamIT_T0_EES7_PKS4_m, symObjAddr: 0x16F0, symBinAddr: 0x4CCD0, symSize: 0x150 }
  - { offset: 0xDB5FF, size: 0x8, addend: 0x0, symName: __ZNSt3__116__pad_and_outputB8ne180100IcNS_11char_traitsIcEEEENS_19ostreambuf_iteratorIT_T0_EES6_PKS4_S8_S8_RNS_8ios_baseES4_, symObjAddr: 0x1840, symBinAddr: 0x4CE20, symSize: 0x160 }
  - { offset: 0xDD5DD, size: 0x8, addend: 0x0, symName: __ZNK6VSTGUI6CColor12getLightnessEv, symObjAddr: 0x0, symBinAddr: 0x4B680, symSize: 0x50 }
  - { offset: 0xDD6B8, size: 0x8, addend: 0x0, symName: __ZNK6VSTGUI6CColor5toHSLERdS1_S1_, symObjAddr: 0x50, symBinAddr: 0x4B6D0, symSize: 0x170 }
  - { offset: 0xDD8AC, size: 0x8, addend: 0x0, symName: __ZN6VSTGUI6CColor7fromHSLEddd, symObjAddr: 0x1C0, symBinAddr: 0x4B840, symSize: 0x340 }
  - { offset: 0xDDC10, size: 0x8, addend: 0x0, symName: __ZNK6VSTGUI6CColor5toHSVERdS1_S1_, symObjAddr: 0x500, symBinAddr: 0x4BB80, symSize: 0x180 }
  - { offset: 0xDDD55, size: 0x8, addend: 0x0, symName: __ZN6VSTGUI6CColor7fromHSVEddd, symObjAddr: 0x680, symBinAddr: 0x4BD00, symSize: 0x2F0 }
  - { offset: 0xDE096, size: 0x8, addend: 0x0, symName: __ZN6VSTGUI6CColor21isColorRepresentationEPKc, symObjAddr: 0x970, symBinAddr: 0x4BFF0, symSize: 0x30 }
  - { offset: 0xDE26D, size: 0x8, addend: 0x0, symName: __ZN6VSTGUI6CColor10fromStringEPKc, symObjAddr: 0x9A0, symBinAddr: 0x4C020, symSize: 0x100 }
  - { offset: 0xDF37B, size: 0x8, addend: 0x0, symName: __ZNK6VSTGUI6CColor8toStringEv, symObjAddr: 0xAA0, symBinAddr: 0x4C120, symSize: 0x460 }
  - { offset: 0xDFED8, size: 0x8, addend: 0x0, symName: __ZNKSt3__115basic_stringbufIcNS_11char_traitsIcEENS_9allocatorIcEEE3strEv, symObjAddr: 0x19A0, symBinAddr: 0x4CF80, symSize: 0x2C0 }
  - { offset: 0xE0634, size: 0x8, addend: 0x0, symName: __ZNSt3__118basic_stringstreamIcNS_11char_traitsIcEENS_9allocatorIcEEED1Ev, symObjAddr: 0xF00, symBinAddr: 0x4C580, symSize: 0x90 }
  - { offset: 0xE07C8, size: 0x8, addend: 0x0, symName: __ZThn16_NSt3__118basic_stringstreamIcNS_11char_traitsIcEENS_9allocatorIcEEED1Ev, symObjAddr: 0xF90, symBinAddr: 0x4C610, symSize: 0x80 }
  - { offset: 0xE0961, size: 0x8, addend: 0x0, symName: __ZTv0_n24_NSt3__118basic_stringstreamIcNS_11char_traitsIcEENS_9allocatorIcEEED1Ev, symObjAddr: 0x1010, symBinAddr: 0x4C690, symSize: 0xA0 }
  - { offset: 0xE0B07, size: 0x8, addend: 0x0, symName: __ZNSt3__118basic_stringstreamIcNS_11char_traitsIcEENS_9allocatorIcEEED0Ev, symObjAddr: 0x10B0, symBinAddr: 0x4C730, symSize: 0x90 }
  - { offset: 0xE0CD1, size: 0x8, addend: 0x0, symName: __ZThn16_NSt3__118basic_stringstreamIcNS_11char_traitsIcEENS_9allocatorIcEEED0Ev, symObjAddr: 0x1140, symBinAddr: 0x4C7C0, symSize: 0x90 }
  - { offset: 0xE0E86, size: 0x8, addend: 0x0, symName: __ZTv0_n24_NSt3__118basic_stringstreamIcNS_11char_traitsIcEENS_9allocatorIcEEED0Ev, symObjAddr: 0x11D0, symBinAddr: 0x4C850, symSize: 0xB0 }
  - { offset: 0xE1048, size: 0x8, addend: 0x0, symName: __ZNSt3__115basic_stringbufIcNS_11char_traitsIcEENS_9allocatorIcEEED1Ev, symObjAddr: 0x1280, symBinAddr: 0x4C900, symSize: 0x40 }
  - { offset: 0xE11A6, size: 0x8, addend: 0x0, symName: __ZNSt3__115basic_stringbufIcNS_11char_traitsIcEENS_9allocatorIcEEED0Ev, symObjAddr: 0x12C0, symBinAddr: 0x4C940, symSize: 0x40 }
  - { offset: 0xE141F, size: 0x8, addend: 0x0, symName: __ZNSt3__115basic_stringbufIcNS_11char_traitsIcEENS_9allocatorIcEEE7seekoffExNS_8ios_base7seekdirEj, symObjAddr: 0x1300, symBinAddr: 0x4C980, symSize: 0x120 }
  - { offset: 0xE15F6, size: 0x8, addend: 0x0, symName: __ZNSt3__115basic_stringbufIcNS_11char_traitsIcEENS_9allocatorIcEEE7seekposENS_4fposI11__mbstate_tEEj, symObjAddr: 0x1420, symBinAddr: 0x4CAA0, symSize: 0x30 }
  - { offset: 0xE1697, size: 0x8, addend: 0x0, symName: __ZNSt3__115basic_stringbufIcNS_11char_traitsIcEENS_9allocatorIcEEE9underflowEv, symObjAddr: 0x1450, symBinAddr: 0x4CAD0, symSize: 0x50 }
  - { offset: 0xE175B, size: 0x8, addend: 0x0, symName: __ZNSt3__115basic_stringbufIcNS_11char_traitsIcEENS_9allocatorIcEEE9pbackfailEi, symObjAddr: 0x14A0, symBinAddr: 0x4CB20, symSize: 0x60 }
  - { offset: 0xE19B6, size: 0x8, addend: 0x0, symName: __ZNSt3__115basic_stringbufIcNS_11char_traitsIcEENS_9allocatorIcEEE8overflowEi, symObjAddr: 0x1500, symBinAddr: 0x4CB80, symSize: 0x150 }
  - { offset: 0xF7A53, size: 0x8, addend: 0x0, symName: __ZN6VSTGUI12CDataBrowserC2ERKNS_5CRectEPNS_20IDataBrowserDelegateEidPNS_7CBitmapE, symObjAddr: 0x0, symBinAddr: 0x4D240, symSize: 0x1D0 }
  - { offset: 0xF7DEE, size: 0x8, addend: 0x0, symName: __ZN6VSTGUI16CDataBrowserViewC1ERKNS_5CRectEPNS_20IDataBrowserDelegateEPNS_12CDataBrowserE, symObjAddr: 0x1D0, symBinAddr: 0x4D410, symSize: 0xA0 }
  - { offset: 0xF7E60, size: 0x8, addend: 0x0, symName: __ZN6VSTGUI12CDataBrowserC1ERKNS_5CRectEPNS_20IDataBrowserDelegateEidPNS_7CBitmapE, symObjAddr: 0x270, symBinAddr: 0x4D4B0, symSize: 0x1D0 }
  - { offset: 0xF81F2, size: 0x8, addend: 0x0, symName: __ZN6VSTGUI12CDataBrowserD2Ev, symObjAddr: 0x440, symBinAddr: 0x4D680, symSize: 0xA0 }
  - { offset: 0xF83C9, size: 0x8, addend: 0x0, symName: __ZN6VSTGUI12CDataBrowserD1Ev, symObjAddr: 0x4F0, symBinAddr: 0x4D720, symSize: 0xA0 }
  - { offset: 0xF8597, size: 0x8, addend: 0x0, symName: __ZThn32_N6VSTGUI12CDataBrowserD1Ev, symObjAddr: 0x590, symBinAddr: 0x4D7C0, symSize: 0xA0 }
  - { offset: 0xF873B, size: 0x8, addend: 0x0, symName: __ZThn40_N6VSTGUI12CDataBrowserD1Ev, symObjAddr: 0x630, symBinAddr: 0x4D860, symSize: 0x90 }
  - { offset: 0xF88DE, size: 0x8, addend: 0x0, symName: __ZN6VSTGUI12CDataBrowserD0Ev, symObjAddr: 0x6C0, symBinAddr: 0x4D8F0, symSize: 0xA0 }
  - { offset: 0xF8AB2, size: 0x8, addend: 0x0, symName: __ZThn32_N6VSTGUI12CDataBrowserD0Ev, symObjAddr: 0x760, symBinAddr: 0x4D990, symSize: 0xA0 }
  - { offset: 0xF8C6B, size: 0x8, addend: 0x0, symName: __ZThn40_N6VSTGUI12CDataBrowserD0Ev, symObjAddr: 0x800, symBinAddr: 0x4DA30, symSize: 0xA0 }
  - { offset: 0xF8E24, size: 0x8, addend: 0x0, symName: __ZN6VSTGUI12CDataBrowser16setAutosizeFlagsEi, symObjAddr: 0x8A0, symBinAddr: 0x4DAD0, symSize: 0x10 }
  - { offset: 0xF8E7F, size: 0x8, addend: 0x0, symName: __ZN6VSTGUI12CDataBrowser11setViewSizeERKNS_5CRectEb, symObjAddr: 0x8B0, symBinAddr: 0x4DAE0, symSize: 0x90 }
  - { offset: 0xF8EFB, size: 0x8, addend: 0x0, symName: __ZN6VSTGUI12CDataBrowser13setWantsFocusEb, symObjAddr: 0x940, symBinAddr: 0x4DB70, symSize: 0x30 }
  - { offset: 0xF8F3F, size: 0x8, addend: 0x0, symName: __ZNK6VSTGUI12CDataBrowser10wantsFocusEv, symObjAddr: 0x970, symBinAddr: 0x4DBA0, symSize: 0x20 }
  - { offset: 0xF8F74, size: 0x8, addend: 0x0, symName: __ZN6VSTGUI12CDataBrowser8attachedEPNS_5CViewE, symObjAddr: 0x990, symBinAddr: 0x4DBC0, symSize: 0x40 }
  - { offset: 0xF8FF9, size: 0x8, addend: 0x0, symName: __ZN6VSTGUI12CDataBrowser7removedEPNS_5CViewE, symObjAddr: 0x9D0, symBinAddr: 0x4DC00, symSize: 0x40 }
  - { offset: 0xF905F, size: 0x8, addend: 0x0, symName: __ZN6VSTGUI12CDataBrowser15onKeyboardEventERNS_13KeyboardEventE, symObjAddr: 0xA10, symBinAddr: 0x4DC40, symSize: 0x20 }
  - { offset: 0xF90A2, size: 0x8, addend: 0x0, symName: __ZN6VSTGUI12CDataBrowser11onMouseDownERNS_6CPointERKNS_12CButtonStateE, symObjAddr: 0xA30, symBinAddr: 0x4DC60, symSize: 0x70 }
  - { offset: 0xF9233, size: 0x8, addend: 0x0, symName: __ZN6VSTGUI12CDataBrowser12valueChangedEPNS_8CControlE, symObjAddr: 0xAA0, symBinAddr: 0x4DCD0, symSize: 0x1D0 }
  - { offset: 0xF94AD, size: 0x8, addend: 0x0, symName: __ZN6VSTGUI16CDataBrowserView7getCellERKNS_6CPointERNS_12CDataBrowser4CellE, symObjAddr: 0xC70, symBinAddr: 0x4DEA0, symSize: 0x1C0 }
  - { offset: 0xF96F3, size: 0x8, addend: 0x0, symName: __ZThn32_N6VSTGUI12CDataBrowser12valueChangedEPNS_8CControlE, symObjAddr: 0xE30, symBinAddr: 0x4E060, symSize: 0x10 }
  - { offset: 0xF9720, size: 0x8, addend: 0x0, symName: __ZN6VSTGUI12CDataBrowser19recalculateSubViewsEv, symObjAddr: 0xE40, symBinAddr: 0x4E070, symSize: 0x10 }
  - { offset: 0xF99DA, size: 0x8, addend: 0x0, symName: __ZN6VSTGUI12CDataBrowser17recalculateLayoutEb, symObjAddr: 0xE50, symBinAddr: 0x4E080, symSize: 0x790 }
  - { offset: 0xFA55D, size: 0x8, addend: 0x0, symName: __ZN6VSTGUI18CDataBrowserHeaderC1ERKNS_5CRectEPNS_20IDataBrowserDelegateEPNS_12CDataBrowserE, symObjAddr: 0x15E0, symBinAddr: 0x4E810, symSize: 0x90 }
  - { offset: 0xFA5B7, size: 0x8, addend: 0x0, symName: __ZN6VSTGUI12CDataBrowser17validateSelectionEv, symObjAddr: 0x1670, symBinAddr: 0x4E8A0, symSize: 0xA0 }
  - { offset: 0xFA85C, size: 0x8, addend: 0x0, symName: __ZN6VSTGUI12CDataBrowser10invalidateERKNS0_4CellE, symObjAddr: 0x1710, symBinAddr: 0x4E940, symSize: 0x40 }
  - { offset: 0xFA8FD, size: 0x8, addend: 0x0, symName: __ZN6VSTGUI12CDataBrowser13invalidateRowEi, symObjAddr: 0x1750, symBinAddr: 0x4E980, symSize: 0x40 }
  - { offset: 0xFA994, size: 0x8, addend: 0x0, symName: __ZN6VSTGUI16CDataBrowserView12getRowBoundsEi, symObjAddr: 0x1810, symBinAddr: 0x4EA40, symSize: 0x120 }
  - { offset: 0xFAB0F, size: 0x8, addend: 0x0, symName: __ZN6VSTGUI16CDataBrowserView13invalidateRowEi, symObjAddr: 0x1790, symBinAddr: 0x4E9C0, symSize: 0x40 }
  - { offset: 0xFAB75, size: 0x8, addend: 0x0, symName: __ZN6VSTGUI12CDataBrowser14makeRowVisibleEi, symObjAddr: 0x17D0, symBinAddr: 0x4EA00, symSize: 0x40 }
  - { offset: 0xFAEEB, size: 0x8, addend: 0x0, symName: __ZN6VSTGUI12CDataBrowser14setSelectedRowEib, symObjAddr: 0x1930, symBinAddr: 0x4EB60, symSize: 0x220 }
  - { offset: 0xFB7A4, size: 0x8, addend: 0x0, symName: __ZNK6VSTGUI12CDataBrowser14getSelectedRowEv, symObjAddr: 0x1B50, symBinAddr: 0x4ED80, symSize: 0x20 }
  - { offset: 0xFB8B5, size: 0x8, addend: 0x0, symName: __ZN6VSTGUI12CDataBrowser9selectRowEi, symObjAddr: 0x1B70, symBinAddr: 0x4EDA0, symSize: 0x2A0 }
  - { offset: 0xFBF26, size: 0x8, addend: 0x0, symName: __ZNKSt3__16vectorIiNS_9allocatorIiEEE20__throw_length_errorB8ne180100Ev, symObjAddr: 0x44F0, symBinAddr: 0x515B0, symSize: 0x10 }
  - { offset: 0xFBF5B, size: 0x8, addend: 0x0, symName: __ZN6VSTGUI12CDataBrowser11unselectRowEi, symObjAddr: 0x1E10, symBinAddr: 0x4F040, symSize: 0xF0 }
  - { offset: 0xFC34B, size: 0x8, addend: 0x0, symName: __ZN6VSTGUI12CDataBrowser11unselectAllEv, symObjAddr: 0x1F00, symBinAddr: 0x4F130, symSize: 0xA0 }
  - { offset: 0xFC509, size: 0x8, addend: 0x0, symName: __ZN6VSTGUI12CDataBrowser13getCellBoundsERKNS0_4CellE, symObjAddr: 0x1FA0, symBinAddr: 0x4F1D0, symSize: 0x190 }
  - { offset: 0xFC76D, size: 0x8, addend: 0x0, symName: __ZNK6VSTGUI12CDataBrowser9getCellAtERKNS_6CPointE, symObjAddr: 0x2130, symBinAddr: 0x4F360, symSize: 0xD0 }
  - { offset: 0xFC8A5, size: 0x8, addend: 0x0, symName: __ZN6VSTGUI12CDataBrowser13beginTextEditERKNS0_4CellEPKc, symObjAddr: 0x2200, symBinAddr: 0x4F430, symSize: 0x110 }
  - { offset: 0xFCABC, size: 0x8, addend: 0x0, symName: __ZN6VSTGUI12CDataBrowser6notifyEPNS_11CBaseObjectEPKc, symObjAddr: 0x2310, symBinAddr: 0x4F540, symSize: 0x120 }
  - { offset: 0xFCCA1, size: 0x8, addend: 0x0, symName: __ZN6VSTGUI18CDataBrowserHeaderC2ERKNS_5CRectEPNS_20IDataBrowserDelegateEPNS_12CDataBrowserE, symObjAddr: 0x2430, symBinAddr: 0x4F660, symSize: 0x90 }
  - { offset: 0xFCD26, size: 0x8, addend: 0x0, symName: __ZN6VSTGUI18CDataBrowserHeader4drawEPNS_12CDrawContextE, symObjAddr: 0x24C0, symBinAddr: 0x4F6F0, symSize: 0x30 }
  - { offset: 0xFCDA3, size: 0x8, addend: 0x0, symName: __ZN6VSTGUI18CDataBrowserHeader8drawRectEPNS_12CDrawContextERKNS_5CRectE, symObjAddr: 0x24F0, symBinAddr: 0x4F720, symSize: 0x1C0 }
  - { offset: 0xFD097, size: 0x8, addend: 0x0, symName: __ZN6VSTGUI18CDataBrowserHeader16getColumnAtPointERNS_6CPointE, symObjAddr: 0x26B0, symBinAddr: 0x4F8E0, symSize: 0x140 }
  - { offset: 0xFD209, size: 0x8, addend: 0x0, symName: __ZN6VSTGUI18CDataBrowserHeader11onMouseDownERNS_6CPointERKNS_12CButtonStateE, symObjAddr: 0x27F0, symBinAddr: 0x4FA20, symSize: 0xC0 }
  - { offset: 0xFD2D4, size: 0x8, addend: 0x0, symName: __ZN6VSTGUI18CDataBrowserHeader12onMouseMovedERNS_6CPointERKNS_12CButtonStateE, symObjAddr: 0x28B0, symBinAddr: 0x4FAE0, symSize: 0x160 }
  - { offset: 0xFD432, size: 0x8, addend: 0x0, symName: __ZN6VSTGUI18CDataBrowserHeader13onMouseExitedERNS_6CPointERKNS_12CButtonStateE, symObjAddr: 0x2A10, symBinAddr: 0x4FC40, symSize: 0x20 }
  - { offset: 0xFD473, size: 0x8, addend: 0x0, symName: __ZN6VSTGUI18CDataBrowserHeader9onMouseUpERNS_6CPointERKNS_12CButtonStateE, symObjAddr: 0x2A30, symBinAddr: 0x4FC60, symSize: 0x20 }
  - { offset: 0xFD4F6, size: 0x8, addend: 0x0, symName: __ZN6VSTGUI16CDataBrowserViewC2ERKNS_5CRectEPNS_20IDataBrowserDelegateEPNS_12CDataBrowserE, symObjAddr: 0x2A50, symBinAddr: 0x4FC80, symSize: 0xC0 }
  - { offset: 0xFD5DB, size: 0x8, addend: 0x0, symName: __ZN6VSTGUI16CDataBrowserView4drawEPNS_12CDrawContextE, symObjAddr: 0x2B10, symBinAddr: 0x4FD40, symSize: 0x30 }
  - { offset: 0xFDE92, size: 0x8, addend: 0x0, symName: __ZN6VSTGUI16CDataBrowserView8drawRectEPNS_12CDrawContextERKNS_5CRectE, symObjAddr: 0x2B40, symBinAddr: 0x4FD70, symSize: 0x950 }
  - { offset: 0xFF13C, size: 0x8, addend: 0x0, symName: __ZNKSt3__16vectorINS_4pairIN6VSTGUI6CPointES3_EENS_9allocatorIS4_EEE20__throw_length_errorB8ne180100Ev, symObjAddr: 0x45C0, symBinAddr: 0x515C0, symSize: 0x10 }
  - { offset: 0xFF18F, size: 0x8, addend: 0x0, symName: __ZN6VSTGUI16CDataBrowserView11onMouseDownERNS_6CPointERKNS_12CButtonStateE, symObjAddr: 0x3490, symBinAddr: 0x506C0, symSize: 0x1E0 }
  - { offset: 0xFF583, size: 0x8, addend: 0x0, symName: __ZN6VSTGUI16CDataBrowserView12onMouseMovedERNS_6CPointERKNS_12CButtonStateE, symObjAddr: 0x3670, symBinAddr: 0x508A0, symSize: 0x60 }
  - { offset: 0xFF64A, size: 0x8, addend: 0x0, symName: __ZN6VSTGUI16CDataBrowserView9onMouseUpERNS_6CPointERKNS_12CButtonStateE, symObjAddr: 0x36D0, symBinAddr: 0x50900, symSize: 0x60 }
  - { offset: 0xFF711, size: 0x8, addend: 0x0, symName: __ZN6VSTGUI16CDataBrowserView13onMouseExitedERNS_6CPointERKNS_12CButtonStateE, symObjAddr: 0x3730, symBinAddr: 0x50960, symSize: 0x30 }
  - { offset: 0xFF77E, size: 0x8, addend: 0x0, symName: __ZN6VSTGUI16CDataBrowserView6onDropENS_13DragEventDataE, symObjAddr: 0x3760, symBinAddr: 0x50990, symSize: 0x80 }
  - { offset: 0xFF8A5, size: 0x8, addend: 0x0, symName: __ZThn32_N6VSTGUI16CDataBrowserView6onDropENS_13DragEventDataE, symObjAddr: 0x37E0, symBinAddr: 0x50A10, symSize: 0x90 }
  - { offset: 0xFF98F, size: 0x8, addend: 0x0, symName: __ZN6VSTGUI16CDataBrowserView11onDragEnterENS_13DragEventDataE, symObjAddr: 0x3870, symBinAddr: 0x50AA0, symSize: 0xD0 }
  - { offset: 0xFFB34, size: 0x8, addend: 0x0, symName: __ZThn32_N6VSTGUI16CDataBrowserView11onDragEnterENS_13DragEventDataE, symObjAddr: 0x3940, symBinAddr: 0x50B70, symSize: 0xF0 }
  - { offset: 0xFFC9B, size: 0x8, addend: 0x0, symName: __ZN6VSTGUI16CDataBrowserView11onDragLeaveENS_13DragEventDataE, symObjAddr: 0x3A30, symBinAddr: 0x50C60, symSize: 0xB0 }
  - { offset: 0xFFDAC, size: 0x8, addend: 0x0, symName: __ZThn32_N6VSTGUI16CDataBrowserView11onDragLeaveENS_13DragEventDataE, symObjAddr: 0x3AE0, symBinAddr: 0x50D10, symSize: 0xB0 }
  - { offset: 0xFFE97, size: 0x8, addend: 0x0, symName: __ZN6VSTGUI16CDataBrowserView10onDragMoveENS_13DragEventDataE, symObjAddr: 0x3B90, symBinAddr: 0x50DC0, symSize: 0x150 }
  - { offset: 0x1000BA, size: 0x8, addend: 0x0, symName: __ZThn32_N6VSTGUI16CDataBrowserView10onDragMoveENS_13DragEventDataE, symObjAddr: 0x3CE0, symBinAddr: 0x50F10, symSize: 0x10 }
  - { offset: 0x100118, size: 0x8, addend: 0x0, symName: __ZN6VSTGUI16CDataBrowserView15onKeyboardEventERNS_13KeyboardEventE, symObjAddr: 0x3CF0, symBinAddr: 0x50F20, symSize: 0x1B0 }
  - { offset: 0x1003A8, size: 0x8, addend: 0x0, symName: __ZN6VSTGUI16CDataBrowserView14drawFocusOnTopEv, symObjAddr: 0x3EA0, symBinAddr: 0x510D0, symSize: 0x10 }
  - { offset: 0x1003CC, size: 0x8, addend: 0x0, symName: __ZThn24_N6VSTGUI16CDataBrowserView14drawFocusOnTopEv, symObjAddr: 0x3EB0, symBinAddr: 0x510E0, symSize: 0x10 }
  - { offset: 0x10040E, size: 0x8, addend: 0x0, symName: __ZN6VSTGUI16CDataBrowserView12getFocusPathERNS_13CGraphicsPathE, symObjAddr: 0x3EC0, symBinAddr: 0x510F0, symSize: 0x80 }
  - { offset: 0x1004D0, size: 0x8, addend: 0x0, symName: __ZThn24_N6VSTGUI16CDataBrowserView12getFocusPathERNS_13CGraphicsPathE, symObjAddr: 0x3F40, symBinAddr: 0x51170, symSize: 0x80 }
  - { offset: 0x100562, size: 0x8, addend: 0x0, symName: __ZN6VSTGUI11CScrollViewD1Ev, symObjAddr: 0x4000, symBinAddr: 0x511F0, symSize: 0x20 }
  - { offset: 0x1005C0, size: 0x8, addend: 0x0, symName: __ZN6VSTGUI11CScrollViewD0Ev, symObjAddr: 0x4020, symBinAddr: 0x51210, symSize: 0x30 }
  - { offset: 0x10062C, size: 0x8, addend: 0x0, symName: __ZNK6VSTGUI11CScrollView7newCopyEv, symObjAddr: 0x4060, symBinAddr: 0x51240, symSize: 0x40 }
  - { offset: 0x100674, size: 0x8, addend: 0x0, symName: __ZNK6VSTGUI5CView11checkUpdateERKNS_5CRectE, symObjAddr: 0x40A0, symBinAddr: 0x51280, symSize: 0x50 }
  - { offset: 0x1006CA, size: 0x8, addend: 0x0, symName: __ZN6VSTGUI5CView14onMouseEnteredERNS_6CPointERKNS_12CButtonStateE, symObjAddr: 0x40F0, symBinAddr: 0x512D0, symSize: 0x10 }
  - { offset: 0x10070B, size: 0x8, addend: 0x0, symName: __ZN6VSTGUI5CView13onMouseExitedERNS_6CPointERKNS_12CButtonStateE, symObjAddr: 0x4100, symBinAddr: 0x512E0, symSize: 0x10 }
  - { offset: 0x10074C, size: 0x8, addend: 0x0, symName: __ZN6VSTGUI5CView7onWheelERKNS_6CPointERKfRKNS_12CButtonStateE, symObjAddr: 0x4110, symBinAddr: 0x512F0, symSize: 0x10 }
  - { offset: 0x10079B, size: 0x8, addend: 0x0, symName: __ZNK6VSTGUI5CView10wantsFocusEv, symObjAddr: 0x4120, symBinAddr: 0x51300, symSize: 0x10 }
  - { offset: 0x1007C0, size: 0x8, addend: 0x0, symName: __ZN6VSTGUI5CView6onIdleEv, symObjAddr: 0x4130, symBinAddr: 0x51310, symSize: 0x10 }
  - { offset: 0x1007E5, size: 0x8, addend: 0x0, symName: __ZNK6VSTGUI5CView40wantsWindowActiveStateChangeNotificationEv, symObjAddr: 0x4140, symBinAddr: 0x51320, symSize: 0x10 }
  - { offset: 0x10080A, size: 0x8, addend: 0x0, symName: __ZN6VSTGUI5CView16onWindowActivateEb, symObjAddr: 0x4150, symBinAddr: 0x51330, symSize: 0x10 }
  - { offset: 0x10084A, size: 0x8, addend: 0x0, symName: __ZN6VSTGUI14CViewContainer15asViewContainerEv, symObjAddr: 0x4160, symBinAddr: 0x51340, symSize: 0x10 }
  - { offset: 0x100871, size: 0x8, addend: 0x0, symName: __ZNK6VSTGUI14CViewContainer15asViewContainerEv, symObjAddr: 0x4170, symBinAddr: 0x51350, symSize: 0x10 }
  - { offset: 0x100898, size: 0x8, addend: 0x0, symName: __ZNK6VSTGUI14CViewContainer7newCopyEv, symObjAddr: 0x4180, symBinAddr: 0x51360, symSize: 0x40 }
  - { offset: 0x1008BF, size: 0x8, addend: 0x0, symName: __ZNK6VSTGUI5CView7newCopyEv, symObjAddr: 0x41C0, symBinAddr: 0x513A0, symSize: 0x40 }
  - { offset: 0x1008E6, size: 0x8, addend: 0x0, symName: __ZN6VSTGUI5CView8drawRectEPNS_12CDrawContextERKNS_5CRectE, symObjAddr: 0x4200, symBinAddr: 0x513E0, symSize: 0x10 }
  - { offset: 0x100942, size: 0x8, addend: 0x0, symName: __ZNK6VSTGUI5CView7isDirtyEv, symObjAddr: 0x4210, symBinAddr: 0x513F0, symSize: 0x10 }
  - { offset: 0x100967, size: 0x8, addend: 0x0, symName: __ZN6VSTGUI5CView7invalidEv, symObjAddr: 0x4220, symBinAddr: 0x51400, symSize: 0x30 }
  - { offset: 0x1009B2, size: 0x8, addend: 0x0, symName: __ZN6VSTGUI5CView17parentSizeChangedEv, symObjAddr: 0x4250, symBinAddr: 0x51430, symSize: 0x10 }
  - { offset: 0x1009D7, size: 0x8, addend: 0x0, symName: __ZN6VSTGUI5CView9sizeToFitEv, symObjAddr: 0x4260, symBinAddr: 0x51440, symSize: 0x10 }
  - { offset: 0x1009FC, size: 0x8, addend: 0x0, symName: __ZN6VSTGUI5CView15asViewContainerEv, symObjAddr: 0x4270, symBinAddr: 0x51450, symSize: 0x10 }
  - { offset: 0x100A21, size: 0x8, addend: 0x0, symName: __ZNK6VSTGUI5CView15asViewContainerEv, symObjAddr: 0x4280, symBinAddr: 0x51460, symSize: 0x10 }
  - { offset: 0x100A46, size: 0x8, addend: 0x0, symName: __ZN6VSTGUI19ViewListenerAdapter13viewLostFocusEPNS_5CViewE, symObjAddr: 0x4370, symBinAddr: 0x51470, symSize: 0x10 }
  - { offset: 0x100A9B, size: 0x8, addend: 0x0, symName: __ZN6VSTGUI18CDataBrowserHeaderD1Ev, symObjAddr: 0x43A0, symBinAddr: 0x51480, symSize: 0x20 }
  - { offset: 0x100AF1, size: 0x8, addend: 0x0, symName: __ZN6VSTGUI18CDataBrowserHeaderD0Ev, symObjAddr: 0x43C0, symBinAddr: 0x514A0, symSize: 0x30 }
  - { offset: 0x100B78, size: 0x8, addend: 0x0, symName: __ZN6VSTGUI16CDataBrowserViewD1Ev, symObjAddr: 0x43F0, symBinAddr: 0x514D0, symSize: 0x20 }
  - { offset: 0x100BCD, size: 0x8, addend: 0x0, symName: __ZN6VSTGUI16CDataBrowserViewD0Ev, symObjAddr: 0x4410, symBinAddr: 0x514F0, symSize: 0x30 }
  - { offset: 0x100C92, size: 0x8, addend: 0x0, symName: __ZN6VSTGUI16CDataBrowserView13getDropTargetEv, symObjAddr: 0x4440, symBinAddr: 0x51520, symSize: 0x40 }
  - { offset: 0x100D18, size: 0x8, addend: 0x0, symName: __ZThn24_N6VSTGUI16CDataBrowserViewD1Ev, symObjAddr: 0x4480, symBinAddr: 0x51560, symSize: 0x20 }
  - { offset: 0x100D81, size: 0x8, addend: 0x0, symName: __ZThn24_N6VSTGUI16CDataBrowserViewD0Ev, symObjAddr: 0x44A0, symBinAddr: 0x51580, symSize: 0x30 }
  - { offset: 0x100DEE, size: 0x8, addend: 0x0, symName: __ZN6VSTGUI13IFocusDrawingD1Ev, symObjAddr: 0x44D0, symBinAddr: 0x178C60, symSize: 0x10 }
  - { offset: 0x100E17, size: 0x8, addend: 0x0, symName: __ZN6VSTGUI13IFocusDrawingD0Ev, symObjAddr: 0x44E0, symBinAddr: 0x178C70, symSize: 0x10 }
  - { offset: 0x110E44, size: 0x8, addend: 0x0, symName: __ZN6VSTGUI12CDrawContext9TransformC2ERS0_RKNS_18CGraphicsTransformE, symObjAddr: 0x0, symBinAddr: 0x515D0, symSize: 0x80 }
  - { offset: 0x110EBC, size: 0x8, addend: 0x0, symName: __ZN6VSTGUI12CDrawContext13pushTransformERKNS_18CGraphicsTransformE, symObjAddr: 0x80, symBinAddr: 0x51650, symSize: 0x1C0 }
  - { offset: 0x111466, size: 0x8, addend: 0x0, symName: __ZNSt3__15dequeIN6VSTGUI18CGraphicsTransformENS_9allocatorIS2_EEE19__add_back_capacityEv, symObjAddr: 0x3970, symBinAddr: 0x54EB0, symSize: 0x720 }
  - { offset: 0x11282D, size: 0x8, addend: 0x0, symName: __ZN6VSTGUI12CDrawContext9TransformC1ERS0_RKNS_18CGraphicsTransformE, symObjAddr: 0x240, symBinAddr: 0x51810, symSize: 0x80 }
  - { offset: 0x1128E5, size: 0x8, addend: 0x0, symName: __ZN6VSTGUI12CDrawContext9TransformD2Ev, symObjAddr: 0x2C0, symBinAddr: 0x51890, symSize: 0x50 }
  - { offset: 0x112951, size: 0x8, addend: 0x0, symName: __ZN6VSTGUI12CDrawContext12popTransformEv, symObjAddr: 0x320, symBinAddr: 0x518E0, symSize: 0x110 }
  - { offset: 0x112E8C, size: 0x8, addend: 0x0, symName: __ZN6VSTGUI12CDrawContext9TransformD1Ev, symObjAddr: 0x430, symBinAddr: 0x519F0, symSize: 0x50 }
  - { offset: 0x113147, size: 0x8, addend: 0x0, symName: __ZN6VSTGUI12CDrawContext4Impl5StateC2ERKS2_, symObjAddr: 0x480, symBinAddr: 0x51A40, symSize: 0xB0 }
  - { offset: 0x11345F, size: 0x8, addend: 0x0, symName: __ZN6VSTGUI12CDrawContext4Impl5StateaSERKS2_, symObjAddr: 0x530, symBinAddr: 0x51AF0, symSize: 0xB0 }
  - { offset: 0x1135CD, size: 0x8, addend: 0x0, symName: __ZN6VSTGUI12CDrawContext4Impl5StateC1ERKS2_, symObjAddr: 0x5E0, symBinAddr: 0x51BA0, symSize: 0x10 }
  - { offset: 0x113610, size: 0x8, addend: 0x0, symName: __ZN6VSTGUI12CDrawContext4Impl5StateC2EOS2_, symObjAddr: 0x5F0, symBinAddr: 0x51BB0, symSize: 0x90 }
  - { offset: 0x113747, size: 0x8, addend: 0x0, symName: __ZN6VSTGUI12CDrawContext4Impl5StateaSEOS2_, symObjAddr: 0x680, symBinAddr: 0x51C40, symSize: 0xA0 }
  - { offset: 0x113867, size: 0x8, addend: 0x0, symName: __ZN6VSTGUI12CDrawContext4Impl5StateC1EOS2_, symObjAddr: 0x720, symBinAddr: 0x51CE0, symSize: 0x90 }
  - { offset: 0x113E74, size: 0x8, addend: 0x0, symName: __ZN6VSTGUI12CDrawContextC2ERKNS_5CRectE, symObjAddr: 0x7B0, symBinAddr: 0x51D70, symSize: 0x250 }
  - { offset: 0x1144F1, size: 0x8, addend: 0x0, symName: __ZN6VSTGUI12CDrawContext4ImplD2Ev, symObjAddr: 0x3640, symBinAddr: 0x54B80, symSize: 0xF0 }
  - { offset: 0x114B06, size: 0x8, addend: 0x0, symName: __ZNSt3__110unique_ptrIN6VSTGUI12CDrawContext4ImplENS_14default_deleteIS3_EEED1B8ne180100Ev, symObjAddr: 0xA00, symBinAddr: 0x51FC0, symSize: 0x40 }
  - { offset: 0x114BDD, size: 0x8, addend: 0x0, symName: __ZN6VSTGUI12CDrawContextC1ERKNS_5CRectE, symObjAddr: 0xA40, symBinAddr: 0x52000, symSize: 0x230 }
  - { offset: 0x11536D, size: 0x8, addend: 0x0, symName: __ZN6VSTGUI12CDrawContextC2ENSt3__110shared_ptrINS_30IPlatformGraphicsDeviceContextEEERKNS_5CRectEd, symObjAddr: 0xC70, symBinAddr: 0x52230, symSize: 0xC0 }
  - { offset: 0x115606, size: 0x8, addend: 0x0, symName: __ZN6VSTGUI12CDrawContext11setClipRectERKNS_5CRectE, symObjAddr: 0xD30, symBinAddr: 0x522F0, symSize: 0x150 }
  - { offset: 0x11582F, size: 0x8, addend: 0x0, symName: __ZN6VSTGUI12CDrawContextD2Ev, symObjAddr: 0xE80, symBinAddr: 0x52440, symSize: 0xA0 }
  - { offset: 0x115CEA, size: 0x8, addend: 0x0, symName: __ZN6VSTGUI12CDrawContextC1ENSt3__110shared_ptrINS_30IPlatformGraphicsDeviceContextEEERKNS_5CRectEd, symObjAddr: 0xF20, symBinAddr: 0x524E0, symSize: 0xB0 }
  - { offset: 0x115F83, size: 0x8, addend: 0x0, symName: __ZN6VSTGUI12CDrawContextD1Ev, symObjAddr: 0xFD0, symBinAddr: 0x52590, symSize: 0x20 }
  - { offset: 0x115FB9, size: 0x8, addend: 0x0, symName: __ZN6VSTGUI12CDrawContextD0Ev, symObjAddr: 0xFF0, symBinAddr: 0x525B0, symSize: 0x30 }
  - { offset: 0x116017, size: 0x8, addend: 0x0, symName: __ZNK6VSTGUI12CDrawContext24getPlatformDeviceContextEv, symObjAddr: 0x1020, symBinAddr: 0x525E0, symSize: 0x10 }
  - { offset: 0x11603D, size: 0x8, addend: 0x0, symName: __ZNK6VSTGUI12CDrawContext14getSurfaceRectEv, symObjAddr: 0x1030, symBinAddr: 0x525F0, symSize: 0x10 }
  - { offset: 0x11607A, size: 0x8, addend: 0x0, symName: __ZNK6VSTGUI12CDrawContext14getScaleFactorEv, symObjAddr: 0x1040, symBinAddr: 0x52600, symSize: 0x10 }
  - { offset: 0x116188, size: 0x8, addend: 0x0, symName: __ZN6VSTGUI12CDrawContext4initEv, symObjAddr: 0x1050, symBinAddr: 0x52610, symSize: 0x160 }
  - { offset: 0x11658C, size: 0x8, addend: 0x0, symName: __ZN6VSTGUI12CDrawContext7setFontEPNS_9CFontDescERKdRKi, symObjAddr: 0x12F0, symBinAddr: 0x528B0, symSize: 0x120 }
  - { offset: 0x116727, size: 0x8, addend: 0x0, symName: __ZN6VSTGUI12CDrawContext13setFrameColorERKNS_6CColorE, symObjAddr: 0x11B0, symBinAddr: 0x52770, symSize: 0x50 }
  - { offset: 0x11684E, size: 0x8, addend: 0x0, symName: __ZN6VSTGUI12CDrawContext12setLineStyleERKNS_10CLineStyleE, symObjAddr: 0x1200, symBinAddr: 0x527C0, symSize: 0x40 }
  - { offset: 0x1168FC, size: 0x8, addend: 0x0, symName: __ZN6VSTGUI12CDrawContext12setLineWidthEd, symObjAddr: 0x1240, symBinAddr: 0x52800, symSize: 0x50 }
  - { offset: 0x1169AC, size: 0x8, addend: 0x0, symName: __ZN6VSTGUI12CDrawContext12setFillColorERKNS_6CColorE, symObjAddr: 0x1290, symBinAddr: 0x52850, symSize: 0x50 }
  - { offset: 0x116AD3, size: 0x8, addend: 0x0, symName: __ZN6VSTGUI12CDrawContext12setFontColorERKNS_6CColorE, symObjAddr: 0x12E0, symBinAddr: 0x528A0, symSize: 0x10 }
  - { offset: 0x116B5A, size: 0x8, addend: 0x0, symName: __ZN6VSTGUI12CDrawContext11setDrawModeENS_9CDrawModeE, symObjAddr: 0x1410, symBinAddr: 0x529D0, symSize: 0x40 }
  - { offset: 0x116DB2, size: 0x8, addend: 0x0, symName: __ZN6VSTGUI12CDrawContext15saveGlobalStateEv, symObjAddr: 0x1450, symBinAddr: 0x52A10, symSize: 0xF0 }
  - { offset: 0x117035, size: 0x8, addend: 0x0, symName: __ZNSt3__15dequeIN6VSTGUI12CDrawContext4Impl5StateENS_9allocatorIS4_EEE19__add_back_capacityEv, symObjAddr: 0x4480, symBinAddr: 0x555D0, symSize: 0x720 }
  - { offset: 0x11843E, size: 0x8, addend: 0x0, symName: __ZN6VSTGUI12CDrawContext18restoreGlobalStateEv, symObjAddr: 0x1540, symBinAddr: 0x52B00, symSize: 0xB0 }
  - { offset: 0x1185DD, size: 0x8, addend: 0x0, symName: __ZNSt3__15dequeIN6VSTGUI12CDrawContext4Impl5StateENS_9allocatorIS4_EEE8pop_backEv, symObjAddr: 0x4F50, symBinAddr: 0x55CF0, symSize: 0xD8 }
  - { offset: 0x118A2B, size: 0x8, addend: 0x0, symName: __ZN6VSTGUI12CDrawContext29setBitmapInterpolationQualityENS_26BitmapInterpolationQualityE, symObjAddr: 0x15F0, symBinAddr: 0x52BB0, symSize: 0x10 }
  - { offset: 0x118A7D, size: 0x8, addend: 0x0, symName: __ZNK6VSTGUI12CDrawContext29getBitmapInterpolationQualityEv, symObjAddr: 0x1600, symBinAddr: 0x52BC0, symSize: 0x10 }
  - { offset: 0x118ABB, size: 0x8, addend: 0x0, symName: __ZNK6VSTGUI12CDrawContext12getLineStyleEv, symObjAddr: 0x1610, symBinAddr: 0x52BD0, symSize: 0x10 }
  - { offset: 0x118B00, size: 0x8, addend: 0x0, symName: __ZNK6VSTGUI12CDrawContext12getLineWidthEv, symObjAddr: 0x1620, symBinAddr: 0x52BE0, symSize: 0x10 }
  - { offset: 0x118B45, size: 0x8, addend: 0x0, symName: __ZNK6VSTGUI12CDrawContext11getDrawModeEv, symObjAddr: 0x1630, symBinAddr: 0x52BF0, symSize: 0x10 }
  - { offset: 0x118BB4, size: 0x8, addend: 0x0, symName: __ZNK6VSTGUI12CDrawContext11getClipRectERNS_5CRectE, symObjAddr: 0x1640, symBinAddr: 0x52C00, symSize: 0x180 }
  - { offset: 0x118DA5, size: 0x8, addend: 0x0, symName: __ZNK6VSTGUI12CDrawContext19getCurrentTransformEv, symObjAddr: 0x17C0, symBinAddr: 0x52D80, symSize: 0x50 }
  - { offset: 0x118E6E, size: 0x8, addend: 0x0, symName: __ZNK6VSTGUI12CDrawContext19getAbsoluteClipRectEv, symObjAddr: 0x1810, symBinAddr: 0x52DD0, symSize: 0x10 }
  - { offset: 0x118ECA, size: 0x8, addend: 0x0, symName: __ZN6VSTGUI12CDrawContext13resetClipRectEv, symObjAddr: 0x1820, symBinAddr: 0x52DE0, symSize: 0x60 }
  - { offset: 0x118F86, size: 0x8, addend: 0x0, symName: __ZNK6VSTGUI12CDrawContext12getFillColorEv, symObjAddr: 0x1880, symBinAddr: 0x52E40, symSize: 0x20 }
  - { offset: 0x11901A, size: 0x8, addend: 0x0, symName: __ZNK6VSTGUI12CDrawContext13getFrameColorEv, symObjAddr: 0x18A0, symBinAddr: 0x52E60, symSize: 0x20 }
  - { offset: 0x1190AE, size: 0x8, addend: 0x0, symName: __ZNK6VSTGUI12CDrawContext12getFontColorEv, symObjAddr: 0x18C0, symBinAddr: 0x52E80, symSize: 0x20 }
  - { offset: 0x119156, size: 0x8, addend: 0x0, symName: __ZNK6VSTGUI12CDrawContext7getFontEv, symObjAddr: 0x18E0, symBinAddr: 0x52EA0, symSize: 0x10 }
  - { offset: 0x1191BE, size: 0x8, addend: 0x0, symName: __ZN6VSTGUI12CDrawContext14setGlobalAlphaEf, symObjAddr: 0x18F0, symBinAddr: 0x52EB0, symSize: 0x50 }
  - { offset: 0x11927D, size: 0x8, addend: 0x0, symName: __ZNK6VSTGUI12CDrawContext14getGlobalAlphaEv, symObjAddr: 0x1940, symBinAddr: 0x52F00, symSize: 0x20 }
  - { offset: 0x1192C4, size: 0x8, addend: 0x0, symName: __ZN6VSTGUI12CDrawContext13getDrawStringEPKc, symObjAddr: 0x1960, symBinAddr: 0x52F20, symSize: 0x70 }
  - { offset: 0x11933A, size: 0x8, addend: 0x0, symName: __ZN6VSTGUI12CDrawContext15clearDrawStringEv, symObjAddr: 0x19D0, symBinAddr: 0x52F90, symSize: 0x20 }
  - { offset: 0x11937B, size: 0x8, addend: 0x0, symName: __ZN6VSTGUI12CDrawContext14getStringWidthEPNS_15IPlatformStringE, symObjAddr: 0x19F0, symBinAddr: 0x52FB0, symSize: 0x60 }
  - { offset: 0x11949A, size: 0x8, addend: 0x0, symName: __ZN6VSTGUI12CDrawContext10drawStringEPNS_15IPlatformStringERKNS_5CRectENS_13CHoriTxtAlignEb, symObjAddr: 0x1A50, symBinAddr: 0x53010, symSize: 0x1F0 }
  - { offset: 0x11979C, size: 0x8, addend: 0x0, symName: __ZN6VSTGUI12CDrawContext10drawStringEPNS_15IPlatformStringERKNS_6CPointEb, symObjAddr: 0x1C40, symBinAddr: 0x53200, symSize: 0x70 }
  - { offset: 0x1198B8, size: 0x8, addend: 0x0, symName: __ZN6VSTGUI12CDrawContext14getStringWidthEPKc, symObjAddr: 0x1CB0, symBinAddr: 0x53270, symSize: 0xC0 }
  - { offset: 0x119A20, size: 0x8, addend: 0x0, symName: __ZN6VSTGUI12CDrawContext10drawStringEPKcRKNS_6CPointEb, symObjAddr: 0x1D70, symBinAddr: 0x53330, symSize: 0xE0 }
  - { offset: 0x119B89, size: 0x8, addend: 0x0, symName: __ZN6VSTGUI12CDrawContext10drawStringEPKcRKNS_5CRectENS_13CHoriTxtAlignEb, symObjAddr: 0x1E50, symBinAddr: 0x53410, symSize: 0xC0 }
  - { offset: 0x119E07, size: 0x8, addend: 0x0, symName: __ZN6VSTGUI12CDrawContext18fillRectWithBitmapEPNS_7CBitmapERKNS_5CRectES5_f, symObjAddr: 0x1F10, symBinAddr: 0x534D0, symSize: 0x580 }
  - { offset: 0x11A56C, size: 0x8, addend: 0x0, symName: __ZN6VSTGUI12CDrawContext10drawBitmapEPNS_7CBitmapERKNS_5CRectERKNS_6CPointEf, symObjAddr: 0x2490, symBinAddr: 0x53A50, symSize: 0x160 }
  - { offset: 0x11A840, size: 0x8, addend: 0x0, symName: __ZN6VSTGUI12CDrawContext23drawBitmapNinePartTiledEPNS_7CBitmapERKNS_5CRectERKNS_25CNinePartTiledDescriptionEf, symObjAddr: 0x25F0, symBinAddr: 0x53BB0, symSize: 0x5F0 }
  - { offset: 0x11AF8D, size: 0x8, addend: 0x0, symName: __ZN6VSTGUI12CDrawContext27createRoundRectGraphicsPathERKNS_5CRectEd, symObjAddr: 0x2BE0, symBinAddr: 0x541A0, symSize: 0x40 }
  - { offset: 0x11B005, size: 0x8, addend: 0x0, symName: __ZN6VSTGUI12CDrawContext18createGraphicsPathEv, symObjAddr: 0x2C20, symBinAddr: 0x541E0, symSize: 0xF0 }
  - { offset: 0x11B503, size: 0x8, addend: 0x0, symName: __ZNSt3__110shared_ptrIN6VSTGUI28IPlatformGraphicsPathFactoryEED1B8ne180100Ev, symObjAddr: 0x33C0, symBinAddr: 0x54980, symSize: 0x40 }
  - { offset: 0x11B59C, size: 0x8, addend: 0x0, symName: __ZNK6VSTGUI12CDrawContext15getHairlineSizeEv, symObjAddr: 0x2D10, symBinAddr: 0x542D0, symSize: 0x70 }
  - { offset: 0x11B6A4, size: 0x8, addend: 0x0, symName: __ZN6VSTGUI12CDrawContext8drawLineERKNSt3__14pairINS_6CPointES3_EE, symObjAddr: 0x2D80, symBinAddr: 0x54340, symSize: 0x40 }
  - { offset: 0x11B74D, size: 0x8, addend: 0x0, symName: __ZN6VSTGUI12CDrawContext9drawLinesERKNSt3__16vectorINS1_4pairINS_6CPointES4_EENS1_9allocatorIS5_EEEE, symObjAddr: 0x2DC0, symBinAddr: 0x54380, symSize: 0x20 }
  - { offset: 0x11B7F4, size: 0x8, addend: 0x0, symName: __ZN6VSTGUI12CDrawContext11drawPolygonERKNSt3__16vectorINS_6CPointENS1_9allocatorIS3_EEEENS_10CDrawStyleE, symObjAddr: 0x2DE0, symBinAddr: 0x543A0, symSize: 0x30 }
  - { offset: 0x11B8C9, size: 0x8, addend: 0x0, symName: __ZN6VSTGUI12CDrawContext8drawRectERKNS_5CRectENS_10CDrawStyleE, symObjAddr: 0x2E10, symBinAddr: 0x543D0, symSize: 0x40 }
  - { offset: 0x11B989, size: 0x8, addend: 0x0, symName: __ZN6VSTGUI12CDrawContext7drawArcERKNS_5CRectEffNS_10CDrawStyleE, symObjAddr: 0x2E50, symBinAddr: 0x54410, symSize: 0x50 }
  - { offset: 0x11BA83, size: 0x8, addend: 0x0, symName: __ZN6VSTGUI12CDrawContext11drawEllipseERKNS_5CRectENS_10CDrawStyleE, symObjAddr: 0x2EA0, symBinAddr: 0x54460, symSize: 0x40 }
  - { offset: 0x11BBE5, size: 0x8, addend: 0x0, symName: __ZN6VSTGUI12CDrawContext9drawPointERKNS_6CPointERKNS_6CColorE, symObjAddr: 0x2EE0, symBinAddr: 0x544A0, symSize: 0x290 }
  - { offset: 0x11C325, size: 0x8, addend: 0x0, symName: __ZN6VSTGUI12CDrawContext9clearRectERKNS_5CRectE, symObjAddr: 0x3170, symBinAddr: 0x54730, symSize: 0x40 }
  - { offset: 0x11C3E7, size: 0x8, addend: 0x0, symName: __ZN6VSTGUI12CDrawContext16drawGraphicsPathEPNS_13CGraphicsPathENS0_12PathDrawModeEPNS_18CGraphicsTransformE, symObjAddr: 0x31B0, symBinAddr: 0x54770, symSize: 0x80 }
  - { offset: 0x11C540, size: 0x8, addend: 0x0, symName: __ZN6VSTGUI12CDrawContext18fillLinearGradientEPNS_13CGraphicsPathERKNS_9CGradientERKNS_6CPointES8_bPNS_18CGraphicsTransformE, symObjAddr: 0x3230, symBinAddr: 0x547F0, symSize: 0xC0 }
  - { offset: 0x11C6DB, size: 0x8, addend: 0x0, symName: __ZN6VSTGUI12CDrawContext18fillRadialGradientEPNS_13CGraphicsPathERKNS_9CGradientERKNS_6CPointEdS8_bPNS_18CGraphicsTransformE, symObjAddr: 0x32F0, symBinAddr: 0x548B0, symSize: 0xD0 }
  - { offset: 0x11C8B4, size: 0x8, addend: 0x0, symName: __ZN6VSTGUI12CDrawContext14createTextPathEPNS_9CFontDescEPKc, symObjAddr: 0x3400, symBinAddr: 0x549C0, symSize: 0x180 }
  - { offset: 0x11CCC9, size: 0x8, addend: 0x0, symName: __ZN6VSTGUI12CDrawContext9beginDrawEv, symObjAddr: 0x3580, symBinAddr: 0x54B40, symSize: 0x20 }
  - { offset: 0x11CD61, size: 0x8, addend: 0x0, symName: __ZN6VSTGUI12CDrawContext7endDrawEv, symObjAddr: 0x35A0, symBinAddr: 0x54B60, symSize: 0x20 }
  - { offset: 0x11D052, size: 0x8, addend: 0x0, symName: __ZNSt3__15dequeIN6VSTGUI18CGraphicsTransformENS_9allocatorIS2_EEED2B8ne180100Ev, symObjAddr: 0x3730, symBinAddr: 0x54C70, symSize: 0xD0 }
  - { offset: 0x11D465, size: 0x8, addend: 0x0, symName: __ZNSt3__15dequeIN6VSTGUI12CDrawContext4Impl5StateENS_9allocatorIS4_EEE5clearEv, symObjAddr: 0x3800, symBinAddr: 0x54D40, symSize: 0x170 }
  - { offset: 0x1255B4, size: 0x8, addend: 0x0, symName: __ZN6VSTGUI12CDrawMethods19createTruncatedTextENS0_16TextTruncateModeERKNS_10UTF8StringEPNS_9CFontDescEdRKNS_6CPointEj, symObjAddr: 0x0, symBinAddr: 0x55DD0, symSize: 0x5B0 }
  - { offset: 0x126627, size: 0x8, addend: 0x0, symName: __ZN6VSTGUI12CDrawMethods15drawIconAndTextEPNS_12CDrawContextEPNS_7CBitmapENS0_12IconPositionENS_13CHoriTxtAlignEdNS_5CRectERKNS_10UTF8StringEPNS_9CFontDescENS_6CColorENS0_16TextTruncateModeE, symObjAddr: 0x630, symBinAddr: 0x563C0, symSize: 0x520 }
  - { offset: 0x128972, size: 0x8, addend: 0x0, symName: __ZNSt3__110shared_ptrIN6VSTGUI30IPlatformGraphicsDeviceContextEED1B8ne180100Ev, symObjAddr: 0x5B0, symBinAddr: 0x56380, symSize: 0x40 }
  - { offset: 0x12ABDA, size: 0x8, addend: 0x0, symName: __ZN6VSTGUIL25PlatformAllFilesExtensionE, symObjAddr: 0x8A558, symBinAddr: 0x1D20D8, symSize: 0x0 }
  - { offset: 0x12B01A, size: 0x8, addend: 0x0, symName: __ZN6VSTGUIL23PlatformNoFileExtensionE, symObjAddr: 0x8A5E0, symBinAddr: 0x1D2160, symSize: 0x0 }
  - { offset: 0x12D72E, size: 0x8, addend: 0x0, symName: __ZN6VSTGUI16CNewFileSelector17kSelectEndMessageE, symObjAddr: 0x3320, symBinAddr: 0x1D0690, symSize: 0x0 }
  - { offset: 0x139DEA, size: 0x8, addend: 0x0, symName: __ZN6VSTGUI16CNewFileSelector20getAllFilesExtensionEv, symObjAddr: 0x8E0, symBinAddr: 0x57150, symSize: 0x90 }
  - { offset: 0x139E0C, size: 0x8, addend: 0x0, symName: __ZZN6VSTGUI16CNewFileSelector20getAllFilesExtensionEvE17allFilesExtension, symObjAddr: 0x8A668, symBinAddr: 0x1D21E8, symSize: 0x0 }
  - { offset: 0x139E2F, size: 0x8, addend: 0x0, symName: __ZN6VSTGUI16CNewFileSelector3runEPNS_11CBaseObjectE, symObjAddr: 0xC40, symBinAddr: 0x574B0, symSize: 0xF0 }
  - { offset: 0x13A481, size: 0x8, addend: 0x0, symName: __ZN6VSTGUI16CNewFileSelector3runEONSt3__18functionIFvPS0_EEE, symObjAddr: 0xD30, symBinAddr: 0x575A0, symSize: 0x2B0 }
  - { offset: 0x13B04E, size: 0x8, addend: 0x0, symName: __ZN6VSTGUI16CNewFileSelector8runModalEv, symObjAddr: 0x1010, symBinAddr: 0x57870, symSize: 0xC0 }
  - { offset: 0x13B5C4, size: 0x8, addend: 0x0, symName: __ZN6VSTGUI21PlatformFileExtensionD1Ev, symObjAddr: 0x0, symBinAddr: 0x568E0, symSize: 0x10 }
  - { offset: 0x13B5FA, size: 0x8, addend: 0x0, symName: __ZN6VSTGUI21PlatformFileExtensionD2Ev, symObjAddr: 0x1670, symBinAddr: 0x57DD0, symSize: 0xB0 }
  - { offset: 0x13BE14, size: 0x8, addend: 0x0, symName: __ZN6VSTGUI14CFileExtensionC2Ev, symObjAddr: 0x10, symBinAddr: 0x568F0, symSize: 0xC0 }
  - { offset: 0x13BFDE, size: 0x8, addend: 0x0, symName: __ZN6VSTGUI14CFileExtension4ImplC2Ev, symObjAddr: 0x1720, symBinAddr: 0x57E80, symSize: 0xD0 }
  - { offset: 0x13C3C8, size: 0x8, addend: 0x0, symName: __ZNSt3__110unique_ptrIN6VSTGUI14CFileExtension4ImplENS_14default_deleteIS3_EEED1B8ne180100Ev, symObjAddr: 0xD0, symBinAddr: 0x569B0, symSize: 0x40 }
  - { offset: 0x13C4F3, size: 0x8, addend: 0x0, symName: __ZN6VSTGUI14CFileExtensionC1Ev, symObjAddr: 0x110, symBinAddr: 0x569F0, symSize: 0xD0 }
  - { offset: 0x13C7E9, size: 0x8, addend: 0x0, symName: __ZN6VSTGUI14CFileExtensionC2ERKNS_10UTF8StringES3_S3_iS3_, symObjAddr: 0x1E0, symBinAddr: 0x56AC0, symSize: 0x120 }
  - { offset: 0x13CB8A, size: 0x8, addend: 0x0, symName: __ZN6VSTGUI14CFileExtension4initERKNS_10UTF8StringES3_S3_S3_, symObjAddr: 0x300, symBinAddr: 0x56BE0, symSize: 0x60 }
  - { offset: 0x13CC5C, size: 0x8, addend: 0x0, symName: __ZN6VSTGUI14CFileExtensionC1ERKNS_10UTF8StringES3_S3_iS3_, symObjAddr: 0x3A0, symBinAddr: 0x56C40, symSize: 0x90 }
  - { offset: 0x13CDB0, size: 0x8, addend: 0x0, symName: __ZN6VSTGUI14CFileExtensionD1Ev, symObjAddr: 0x430, symBinAddr: 0x56CD0, symSize: 0x40 }
  - { offset: 0x13CF41, size: 0x8, addend: 0x0, symName: __ZN6VSTGUI14CFileExtensionC2ERKS0_, symObjAddr: 0x470, symBinAddr: 0x56D10, symSize: 0x110 }
  - { offset: 0x13D1C5, size: 0x8, addend: 0x0, symName: __ZN6VSTGUI14CFileExtensionC1ERKS0_, symObjAddr: 0x580, symBinAddr: 0x56E20, symSize: 0x80 }
  - { offset: 0x13D308, size: 0x8, addend: 0x0, symName: __ZN6VSTGUI14CFileExtensionC2EOS0_, symObjAddr: 0x600, symBinAddr: 0x56EA0, symSize: 0x20 }
  - { offset: 0x13D474, size: 0x8, addend: 0x0, symName: __ZN6VSTGUI14CFileExtensionaSEOS0_, symObjAddr: 0x620, symBinAddr: 0x56EC0, symSize: 0x20 }
  - { offset: 0x13D55B, size: 0x8, addend: 0x0, symName: __ZNK6VSTGUI14CFileExtensioneqERKS0_, symObjAddr: 0x660, symBinAddr: 0x56EE0, symSize: 0x90 }
  - { offset: 0x13D682, size: 0x8, addend: 0x0, symName: __ZNK6VSTGUI14CFileExtension14getDescriptionEv, symObjAddr: 0x6F0, symBinAddr: 0x56F70, symSize: 0x10 }
  - { offset: 0x13D6C5, size: 0x8, addend: 0x0, symName: __ZNK6VSTGUI14CFileExtension12getExtensionEv, symObjAddr: 0x700, symBinAddr: 0x56F80, symSize: 0x10 }
  - { offset: 0x13D708, size: 0x8, addend: 0x0, symName: __ZNK6VSTGUI14CFileExtension11getMimeTypeEv, symObjAddr: 0x710, symBinAddr: 0x56F90, symSize: 0x10 }
  - { offset: 0x13D74B, size: 0x8, addend: 0x0, symName: __ZNK6VSTGUI14CFileExtension6getUTIEv, symObjAddr: 0x720, symBinAddr: 0x56FA0, symSize: 0x10 }
  - { offset: 0x13D78E, size: 0x8, addend: 0x0, symName: __ZNK6VSTGUI14CFileExtension10getMacTypeEv, symObjAddr: 0x730, symBinAddr: 0x56FB0, symSize: 0x10 }
  - { offset: 0x13D7D1, size: 0x8, addend: 0x0, symName: __ZN6VSTGUI14CFileExtensionC2ERKNS_21PlatformFileExtensionE, symObjAddr: 0x740, symBinAddr: 0x56FC0, symSize: 0x110 }
  - { offset: 0x13DA63, size: 0x8, addend: 0x0, symName: __ZN6VSTGUI14CFileExtensionC1ERKNS_21PlatformFileExtensionE, symObjAddr: 0x850, symBinAddr: 0x570D0, symSize: 0x80 }
  - { offset: 0x13DE49, size: 0x8, addend: 0x0, symName: __ZN6VSTGUI16CNewFileSelectorC2EONSt3__110shared_ptrINS_21IPlatformFileSelectorEEEPNS_6CFrameE, symObjAddr: 0x970, symBinAddr: 0x571E0, symSize: 0x130 }
  - { offset: 0x13E201, size: 0x8, addend: 0x0, symName: __ZN6VSTGUI16CNewFileSelector4ImplC2Ev, symObjAddr: 0x19D0, symBinAddr: 0x58130, symSize: 0x120 }
  - { offset: 0x13E76F, size: 0x8, addend: 0x0, symName: __ZNKSt3__114default_deleteIN6VSTGUI16CNewFileSelector4ImplEEclB8ne180100EPS3_, symObjAddr: 0x17F0, symBinAddr: 0x57F50, symSize: 0xD0 }
  - { offset: 0x13EB46, size: 0x8, addend: 0x0, symName: __ZN6VSTGUI16CNewFileSelectorC1EONSt3__110shared_ptrINS_21IPlatformFileSelectorEEEPNS_6CFrameE, symObjAddr: 0xAA0, symBinAddr: 0x57310, symSize: 0x100 }
  - { offset: 0x13EEDD, size: 0x8, addend: 0x0, symName: __ZN6VSTGUI16CNewFileSelectorD2Ev, symObjAddr: 0xBA0, symBinAddr: 0x57410, symSize: 0x30 }
  - { offset: 0x13EF8D, size: 0x8, addend: 0x0, symName: __ZN6VSTGUI16CNewFileSelectorD1Ev, symObjAddr: 0xBD0, symBinAddr: 0x57440, symSize: 0x30 }
  - { offset: 0x13F04A, size: 0x8, addend: 0x0, symName: __ZN6VSTGUI16CNewFileSelectorD0Ev, symObjAddr: 0xC00, symBinAddr: 0x57470, symSize: 0x40 }
  - { offset: 0x13F621, size: 0x8, addend: 0x0, symName: __ZNSt3__110__function12__value_funcIFvONS_6vectorIN6VSTGUI10UTF8StringENS_9allocatorIS4_EEEEEE4swapB8ne180100ERSA_, symObjAddr: 0x1E90, symBinAddr: 0x585B0, symSize: 0x140 }
  - { offset: 0x13FCED, size: 0x8, addend: 0x0, symName: __ZN6VSTGUI16CNewFileSelector6cancelEv, symObjAddr: 0xFF0, symBinAddr: 0x57850, symSize: 0x20 }
  - { offset: 0x140096, size: 0x8, addend: 0x0, symName: __ZN6VSTGUI16CNewFileSelector8setTitleERKNS_10UTF8StringE, symObjAddr: 0x10D0, symBinAddr: 0x57930, symSize: 0x10 }
  - { offset: 0x1400EB, size: 0x8, addend: 0x0, symName: __ZN6VSTGUI16CNewFileSelector19setInitialDirectoryERKNS_10UTF8StringE, symObjAddr: 0x10E0, symBinAddr: 0x57940, symSize: 0x20 }
  - { offset: 0x140140, size: 0x8, addend: 0x0, symName: __ZN6VSTGUI16CNewFileSelector18setDefaultSaveNameERKNS_10UTF8StringE, symObjAddr: 0x1100, symBinAddr: 0x57960, symSize: 0x20 }
  - { offset: 0x140195, size: 0x8, addend: 0x0, symName: __ZN6VSTGUI16CNewFileSelector26setAllowMultiFileSelectionEb, symObjAddr: 0x1120, symBinAddr: 0x57980, symSize: 0x20 }
  - { offset: 0x1403DC, size: 0x8, addend: 0x0, symName: __ZN6VSTGUI16CNewFileSelector19setDefaultExtensionERKNS_14CFileExtensionE, symObjAddr: 0x1140, symBinAddr: 0x579A0, symSize: 0x200 }
  - { offset: 0x14076C, size: 0x8, addend: 0x0, symName: __ZN6VSTGUI21PlatformFileExtensionC1ERKS0_, symObjAddr: 0x2730, symBinAddr: 0x58DE0, symSize: 0xE0 }
  - { offset: 0x140B6A, size: 0x8, addend: 0x0, symName: __ZNSt3__16vectorIN6VSTGUI21PlatformFileExtensionENS_9allocatorIS2_EEE24__emplace_back_slow_pathIJRKS2_EEEPS2_DpOT_, symObjAddr: 0x2520, symBinAddr: 0x58BD0, symSize: 0x210 }
  - { offset: 0x14120C, size: 0x8, addend: 0x0, symName: __ZN6VSTGUI16CNewFileSelector16addFileExtensionERKNS_14CFileExtensionE, symObjAddr: 0x1340, symBinAddr: 0x57BA0, symSize: 0x50 }
  - { offset: 0x1414BF, size: 0x8, addend: 0x0, symName: __ZN6VSTGUI16CNewFileSelector16addFileExtensionEONS_14CFileExtensionE, symObjAddr: 0x1390, symBinAddr: 0x57BF0, symSize: 0x50 }
  - { offset: 0x14168D, size: 0x8, addend: 0x0, symName: __ZNSt3__16vectorIN6VSTGUI21PlatformFileExtensionENS_9allocatorIS2_EEE24__emplace_back_slow_pathIJKS2_EEEPS2_DpOT_, symObjAddr: 0x28F0, symBinAddr: 0x58F20, symSize: 0x210 }
  - { offset: 0x141D49, size: 0x8, addend: 0x0, symName: __ZNK6VSTGUI16CNewFileSelector19getNumSelectedFilesEv, symObjAddr: 0x13E0, symBinAddr: 0x57C40, symSize: 0x20 }
  - { offset: 0x141E6B, size: 0x8, addend: 0x0, symName: __ZNK6VSTGUI16CNewFileSelector15getSelectedFileEj, symObjAddr: 0x1400, symBinAddr: 0x57C60, symSize: 0x50 }
  - { offset: 0x141FCE, size: 0x8, addend: 0x0, symName: __ZN6VSTGUI16CNewFileSelector6createEPNS_6CFrameENS0_5StyleE, symObjAddr: 0x1450, symBinAddr: 0x57CB0, symSize: 0x110 }
  - { offset: 0x14225B, size: 0x8, addend: 0x0, symName: __ZNK6VSTGUI16CNewFileSelector7newCopyEv, symObjAddr: 0x1650, symBinAddr: 0x57DC0, symSize: 0x10 }
  - { offset: 0x1423AF, size: 0x8, addend: 0x0, symName: __ZN6VSTGUI14CFileExtension4ImplC2Ev.cold.1, symObjAddr: 0x2B00, symBinAddr: 0x178C80, symSize: 0x20 }
  - { offset: 0x142662, size: 0x8, addend: 0x0, symName: __ZN6VSTGUI26PlatformFileSelectorConfigD2Ev, symObjAddr: 0x18C0, symBinAddr: 0x58020, symSize: 0x110 }
  - { offset: 0x142FB2, size: 0x8, addend: 0x0, symName: __ZN6VSTGUI21PlatformFileExtensionC1Ev, symObjAddr: 0x1AF0, symBinAddr: 0x58250, symSize: 0xD0 }
  - { offset: 0x14339D, size: 0x8, addend: 0x0, symName: __ZN6VSTGUI16CNewFileSelector4ImplC2Ev.cold.2, symObjAddr: 0x2B40, symBinAddr: 0x178CA0, symSize: 0x50 }
  - { offset: 0x143787, size: 0x8, addend: 0x0, symName: '__ZNSt3__110__function6__funcIZN6VSTGUI16CNewFileSelector3runEPNS2_11CBaseObjectEE3$_0NS_9allocatorIS6_EEFvONS_6vectorINS2_10UTF8StringENS7_ISA_EEEEEED1Ev', symObjAddr: 0x1BC0, symBinAddr: 0x58320, symSize: 0x30 }
  - { offset: 0x143864, size: 0x8, addend: 0x0, symName: '__ZNSt3__110__function6__funcIZN6VSTGUI16CNewFileSelector3runEPNS2_11CBaseObjectEE3$_0NS_9allocatorIS6_EEFvONS_6vectorINS2_10UTF8StringENS7_ISA_EEEEEED0Ev', symObjAddr: 0x1BF0, symBinAddr: 0x58350, symSize: 0x40 }
  - { offset: 0x143BA5, size: 0x8, addend: 0x0, symName: '__ZNKSt3__110__function6__funcIZN6VSTGUI16CNewFileSelector3runEPNS2_11CBaseObjectEE3$_0NS_9allocatorIS6_EEFvONS_6vectorINS2_10UTF8StringENS7_ISA_EEEEEE7__cloneEv', symObjAddr: 0x1C30, symBinAddr: 0x58390, symSize: 0x50 }
  - { offset: 0x143EC3, size: 0x8, addend: 0x0, symName: '__ZNKSt3__110__function6__funcIZN6VSTGUI16CNewFileSelector3runEPNS2_11CBaseObjectEE3$_0NS_9allocatorIS6_EEFvONS_6vectorINS2_10UTF8StringENS7_ISA_EEEEEE7__cloneEPNS0_6__baseISE_EE', symObjAddr: 0x1C80, symBinAddr: 0x583E0, symSize: 0x40 }
  - { offset: 0x14401E, size: 0x8, addend: 0x0, symName: '__ZNSt3__110__function6__funcIZN6VSTGUI16CNewFileSelector3runEPNS2_11CBaseObjectEE3$_0NS_9allocatorIS6_EEFvONS_6vectorINS2_10UTF8StringENS7_ISA_EEEEEE7destroyEv', symObjAddr: 0x1CC0, symBinAddr: 0x58420, symSize: 0x20 }
  - { offset: 0x1440EE, size: 0x8, addend: 0x0, symName: '__ZNSt3__110__function6__funcIZN6VSTGUI16CNewFileSelector3runEPNS2_11CBaseObjectEE3$_0NS_9allocatorIS6_EEFvONS_6vectorINS2_10UTF8StringENS7_ISA_EEEEEE18destroy_deallocateEv', symObjAddr: 0x1CE0, symBinAddr: 0x58440, symSize: 0x30 }
  - { offset: 0x144363, size: 0x8, addend: 0x0, symName: '__ZNSt3__110__function6__funcIZN6VSTGUI16CNewFileSelector3runEPNS2_11CBaseObjectEE3$_0NS_9allocatorIS6_EEFvONS_6vectorINS2_10UTF8StringENS7_ISA_EEEEEEclESD_', symObjAddr: 0x1D10, symBinAddr: 0x58470, symSize: 0x110 }
  - { offset: 0x1447B5, size: 0x8, addend: 0x0, symName: '__ZNKSt3__110__function6__funcIZN6VSTGUI16CNewFileSelector3runEPNS2_11CBaseObjectEE3$_0NS_9allocatorIS6_EEFvONS_6vectorINS2_10UTF8StringENS7_ISA_EEEEEE6targetERKSt9type_info', symObjAddr: 0x1E20, symBinAddr: 0x58580, symSize: 0x20 }
  - { offset: 0x144829, size: 0x8, addend: 0x0, symName: '__ZNKSt3__110__function6__funcIZN6VSTGUI16CNewFileSelector3runEPNS2_11CBaseObjectEE3$_0NS_9allocatorIS6_EEFvONS_6vectorINS2_10UTF8StringENS7_ISA_EEEEEE11target_typeEv', symObjAddr: 0x1E40, symBinAddr: 0x585A0, symSize: 0x10 }
  - { offset: 0x1448ED, size: 0x8, addend: 0x0, symName: '__ZNSt3__110__function6__funcIZN6VSTGUI16CNewFileSelector3runEONS_8functionIFvPS3_EEEE3$_0NS_9allocatorIS9_EEFvONS_6vectorINS2_10UTF8StringENSA_ISD_EEEEEED1Ev', symObjAddr: 0x1FD0, symBinAddr: 0x586F0, symSize: 0x40 }
  - { offset: 0x144A90, size: 0x8, addend: 0x0, symName: '__ZNSt3__110__function6__funcIZN6VSTGUI16CNewFileSelector3runEONS_8functionIFvPS3_EEEE3$_0NS_9allocatorIS9_EEFvONS_6vectorINS2_10UTF8StringENSA_ISD_EEEEEED0Ev', symObjAddr: 0x2010, symBinAddr: 0x58730, symSize: 0x50 }
  - { offset: 0x144FD8, size: 0x8, addend: 0x0, symName: '__ZNKSt3__110__function6__funcIZN6VSTGUI16CNewFileSelector3runEONS_8functionIFvPS3_EEEE3$_0NS_9allocatorIS9_EEFvONS_6vectorINS2_10UTF8StringENSA_ISD_EEEEEE7__cloneEv', symObjAddr: 0x2060, symBinAddr: 0x58780, symSize: 0x80 }
  - { offset: 0x1454EC, size: 0x8, addend: 0x0, symName: '__ZNKSt3__110__function6__funcIZN6VSTGUI16CNewFileSelector3runEONS_8functionIFvPS3_EEEE3$_0NS_9allocatorIS9_EEFvONS_6vectorINS2_10UTF8StringENSA_ISD_EEEEEE7__cloneEPNS0_6__baseISH_EE', symObjAddr: 0x20E0, symBinAddr: 0x58800, symSize: 0x70 }
  - { offset: 0x1456F8, size: 0x8, addend: 0x0, symName: '__ZNSt3__110__function6__funcIZN6VSTGUI16CNewFileSelector3runEONS_8functionIFvPS3_EEEE3$_0NS_9allocatorIS9_EEFvONS_6vectorINS2_10UTF8StringENSA_ISD_EEEEEE7destroyEv', symObjAddr: 0x2150, symBinAddr: 0x58870, symSize: 0x40 }
  - { offset: 0x14584E, size: 0x8, addend: 0x0, symName: '__ZNSt3__110__function6__funcIZN6VSTGUI16CNewFileSelector3runEONS_8functionIFvPS3_EEEE3$_0NS_9allocatorIS9_EEFvONS_6vectorINS2_10UTF8StringENSA_ISD_EEEEEE18destroy_deallocateEv', symObjAddr: 0x2190, symBinAddr: 0x588B0, symSize: 0x40 }
  - { offset: 0x145B4A, size: 0x8, addend: 0x0, symName: '__ZNSt3__110__function6__funcIZN6VSTGUI16CNewFileSelector3runEONS_8functionIFvPS3_EEEE3$_0NS_9allocatorIS9_EEFvONS_6vectorINS2_10UTF8StringENSA_ISD_EEEEEEclESG_', symObjAddr: 0x21D0, symBinAddr: 0x588F0, symSize: 0x120 }
  - { offset: 0x145F9F, size: 0x8, addend: 0x0, symName: '__ZNKSt3__110__function6__funcIZN6VSTGUI16CNewFileSelector3runEONS_8functionIFvPS3_EEEE3$_0NS_9allocatorIS9_EEFvONS_6vectorINS2_10UTF8StringENSA_ISD_EEEEEE6targetERKSt9type_info', symObjAddr: 0x22F0, symBinAddr: 0x58A10, symSize: 0x20 }
  - { offset: 0x146013, size: 0x8, addend: 0x0, symName: '__ZNKSt3__110__function6__funcIZN6VSTGUI16CNewFileSelector3runEONS_8functionIFvPS3_EEEE3$_0NS_9allocatorIS9_EEFvONS_6vectorINS2_10UTF8StringENSA_ISD_EEEEEE11target_typeEv', symObjAddr: 0x2310, symBinAddr: 0x58A30, symSize: 0x10 }
  - { offset: 0x146082, size: 0x8, addend: 0x0, symName: '__ZNSt3__110__function6__funcIZN6VSTGUI16CNewFileSelector8runModalEvE3$_0NS_9allocatorIS4_EEFvONS_6vectorINS2_10UTF8StringENS5_IS8_EEEEEED1Ev', symObjAddr: 0x2390, symBinAddr: 0x58A40, symSize: 0x10 }
  - { offset: 0x1460AA, size: 0x8, addend: 0x0, symName: '__ZNSt3__110__function6__funcIZN6VSTGUI16CNewFileSelector8runModalEvE3$_0NS_9allocatorIS4_EEFvONS_6vectorINS2_10UTF8StringENS5_IS8_EEEEEED0Ev', symObjAddr: 0x23A0, symBinAddr: 0x58A50, symSize: 0x10 }
  - { offset: 0x1462A5, size: 0x8, addend: 0x0, symName: '__ZNKSt3__110__function6__funcIZN6VSTGUI16CNewFileSelector8runModalEvE3$_0NS_9allocatorIS4_EEFvONS_6vectorINS2_10UTF8StringENS5_IS8_EEEEEE7__cloneEv', symObjAddr: 0x23B0, symBinAddr: 0x58A60, symSize: 0x30 }
  - { offset: 0x14658A, size: 0x8, addend: 0x0, symName: '__ZNKSt3__110__function6__funcIZN6VSTGUI16CNewFileSelector8runModalEvE3$_0NS_9allocatorIS4_EEFvONS_6vectorINS2_10UTF8StringENS5_IS8_EEEEEE7__cloneEPNS0_6__baseISC_EE', symObjAddr: 0x23E0, symBinAddr: 0x58A90, symSize: 0x20 }
  - { offset: 0x146694, size: 0x8, addend: 0x0, symName: '__ZNSt3__110__function6__funcIZN6VSTGUI16CNewFileSelector8runModalEvE3$_0NS_9allocatorIS4_EEFvONS_6vectorINS2_10UTF8StringENS5_IS8_EEEEEE7destroyEv', symObjAddr: 0x2400, symBinAddr: 0x58AB0, symSize: 0x10 }
  - { offset: 0x1466E2, size: 0x8, addend: 0x0, symName: '__ZNSt3__110__function6__funcIZN6VSTGUI16CNewFileSelector8runModalEvE3$_0NS_9allocatorIS4_EEFvONS_6vectorINS2_10UTF8StringENS5_IS8_EEEEEE18destroy_deallocateEv', symObjAddr: 0x2410, symBinAddr: 0x58AC0, symSize: 0x10 }
  - { offset: 0x146831, size: 0x8, addend: 0x0, symName: '__ZNSt3__110__function6__funcIZN6VSTGUI16CNewFileSelector8runModalEvE3$_0NS_9allocatorIS4_EEFvONS_6vectorINS2_10UTF8StringENS5_IS8_EEEEEEclESB_', symObjAddr: 0x2420, symBinAddr: 0x58AD0, symSize: 0xD0 }
  - { offset: 0x146BB5, size: 0x8, addend: 0x0, symName: '__ZNKSt3__110__function6__funcIZN6VSTGUI16CNewFileSelector8runModalEvE3$_0NS_9allocatorIS4_EEFvONS_6vectorINS2_10UTF8StringENS5_IS8_EEEEEE6targetERKSt9type_info', symObjAddr: 0x24F0, symBinAddr: 0x58BA0, symSize: 0x20 }
  - { offset: 0x146C29, size: 0x8, addend: 0x0, symName: '__ZNKSt3__110__function6__funcIZN6VSTGUI16CNewFileSelector8runModalEvE3$_0NS_9allocatorIS4_EEFvONS_6vectorINS2_10UTF8StringENS5_IS8_EEEEEE11target_typeEv', symObjAddr: 0x2510, symBinAddr: 0x58BC0, symSize: 0x10 }
  - { offset: 0x146FBA, size: 0x8, addend: 0x0, symName: __ZNKSt3__16vectorIN6VSTGUI21PlatformFileExtensionENS_9allocatorIS2_EEE20__throw_length_errorB8ne180100Ev, symObjAddr: 0x2860, symBinAddr: 0x58F10, symSize: 0x10 }
  - { offset: 0x146FEE, size: 0x8, addend: 0x0, symName: __ZNSt3__114__split_bufferIN6VSTGUI21PlatformFileExtensionERNS_9allocatorIS2_EEED1Ev, symObjAddr: 0x2810, symBinAddr: 0x58EC0, symSize: 0x50 }
  - { offset: 0x1471B4, size: 0x8, addend: 0x0, symName: __ZN6VSTGUI21PlatformFileExtensionC1ERKS0_.cold.1, symObjAddr: 0x2BB0, symBinAddr: 0x178CF0, symSize: 0x15 }
  - { offset: 0x14938A, size: 0x8, addend: 0x0, symName: __ZN6VSTGUIL11globalFontsE, symObjAddr: 0x1EF08, symBinAddr: 0x1D21F8, symSize: 0x0 }
  - { offset: 0x149AF4, size: 0x8, addend: 0x0, symName: __ZN6VSTGUI11kSystemFontE, symObjAddr: 0x1EF48, symBinAddr: 0x1F7668, symSize: 0x0 }
  - { offset: 0x149B19, size: 0x8, addend: 0x0, symName: __ZN6VSTGUI18kNormalFontVeryBigE, symObjAddr: 0x1EF50, symBinAddr: 0x1F7670, symSize: 0x0 }
  - { offset: 0x149B33, size: 0x8, addend: 0x0, symName: __ZN6VSTGUI14kNormalFontBigE, symObjAddr: 0x1EF58, symBinAddr: 0x1F7678, symSize: 0x0 }
  - { offset: 0x149B4D, size: 0x8, addend: 0x0, symName: __ZN6VSTGUI11kNormalFontE, symObjAddr: 0x1EF60, symBinAddr: 0x1F7680, symSize: 0x0 }
  - { offset: 0x149B67, size: 0x8, addend: 0x0, symName: __ZN6VSTGUI16kNormalFontSmallE, symObjAddr: 0x1EF68, symBinAddr: 0x1F7688, symSize: 0x0 }
  - { offset: 0x149B81, size: 0x8, addend: 0x0, symName: __ZN6VSTGUI18kNormalFontSmallerE, symObjAddr: 0x1EF70, symBinAddr: 0x1F7690, symSize: 0x0 }
  - { offset: 0x149B9B, size: 0x8, addend: 0x0, symName: __ZN6VSTGUI20kNormalFontVerySmallE, symObjAddr: 0x1EF78, symBinAddr: 0x1F7698, symSize: 0x0 }
  - { offset: 0x149BB5, size: 0x8, addend: 0x0, symName: __ZN6VSTGUI11kSymbolFontE, symObjAddr: 0x1EF80, symBinAddr: 0x1F76A0, symSize: 0x0 }
  - { offset: 0x149BC3, size: 0x8, addend: 0x0, symName: __ZN6VSTGUI9makeOwnedINS_9CFontDescEJRA14_KciEEENS_13SharedPointerIT_EEDpOT0_, symObjAddr: 0x280, symBinAddr: 0x595D0, symSize: 0x110 }
  - { offset: 0x14A023, size: 0x8, addend: 0x0, symName: __ZN6VSTGUI9makeOwnedINS_9CFontDescEJRA6_KciEEENS_13SharedPointerIT_EEDpOT0_, symObjAddr: 0x390, symBinAddr: 0x596E0, symSize: 0x110 }
  - { offset: 0x14A483, size: 0x8, addend: 0x0, symName: __ZN6VSTGUI9makeOwnedINS_9CFontDescEJRA7_KciEEENS_13SharedPointerIT_EEDpOT0_, symObjAddr: 0x4A0, symBinAddr: 0x597F0, symSize: 0x110 }
  - { offset: 0x14D858, size: 0x8, addend: 0x0, symName: __ZN6VSTGUI11GlobalFontsD1Ev, symObjAddr: 0x0, symBinAddr: 0x59350, symSize: 0x10 }
  - { offset: 0x14D899, size: 0x8, addend: 0x0, symName: __ZN6VSTGUI11GlobalFontsD2Ev, symObjAddr: 0xD80, symBinAddr: 0x5A000, symSize: 0xBF }
  - { offset: 0x14DADF, size: 0x8, addend: 0x0, symName: __ZN6VSTGUI9CFontDesc4initEv, symObjAddr: 0x10, symBinAddr: 0x59360, symSize: 0x270 }
  - { offset: 0x14E237, size: 0x8, addend: 0x0, symName: __ZN6VSTGUI9CFontDesc7cleanupEv, symObjAddr: 0x5B0, symBinAddr: 0x59900, symSize: 0x180 }
  - { offset: 0x14E366, size: 0x8, addend: 0x0, symName: __ZN6VSTGUI9CFontDescC2ERKNS_10UTF8StringERKdi, symObjAddr: 0x730, symBinAddr: 0x59A80, symSize: 0xB0 }
  - { offset: 0x14E5A6, size: 0x8, addend: 0x0, symName: __ZN6VSTGUI9CFontDescC1ERKNS_10UTF8StringERKdi, symObjAddr: 0x820, symBinAddr: 0x59B30, symSize: 0xA0 }
  - { offset: 0x14E7B3, size: 0x8, addend: 0x0, symName: __ZN6VSTGUI9CFontDescC2ERKS0_, symObjAddr: 0x8C0, symBinAddr: 0x59BD0, symSize: 0xB0 }
  - { offset: 0x14E9D6, size: 0x8, addend: 0x0, symName: __ZN6VSTGUI9CFontDescC1ERKS0_, symObjAddr: 0x970, symBinAddr: 0x59C80, symSize: 0x90 }
  - { offset: 0x14EBE2, size: 0x8, addend: 0x0, symName: __ZN6VSTGUI9CFontDescD2Ev, symObjAddr: 0xA00, symBinAddr: 0x59D10, symSize: 0xA0 }
  - { offset: 0x14EDEB, size: 0x8, addend: 0x0, symName: __ZN6VSTGUI9CFontDescD1Ev, symObjAddr: 0xAB0, symBinAddr: 0x59DB0, symSize: 0x20 }
  - { offset: 0x14EE3B, size: 0x8, addend: 0x0, symName: __ZN6VSTGUI9CFontDescD0Ev, symObjAddr: 0xAD0, symBinAddr: 0x59DD0, symSize: 0x30 }
  - { offset: 0x14EE99, size: 0x8, addend: 0x0, symName: __ZN6VSTGUI9CFontDesc12beforeDeleteEv, symObjAddr: 0xB00, symBinAddr: 0x59E00, symSize: 0x10 }
  - { offset: 0x14EF5E, size: 0x8, addend: 0x0, symName: __ZNK6VSTGUI9CFontDesc15getPlatformFontEv, symObjAddr: 0xB10, symBinAddr: 0x59E10, symSize: 0x80 }
  - { offset: 0x14F0C8, size: 0x8, addend: 0x0, symName: __ZNK6VSTGUI9CFontDesc14getFontPainterEv, symObjAddr: 0xB90, symBinAddr: 0x59E90, symSize: 0x50 }
  - { offset: 0x14F1AD, size: 0x8, addend: 0x0, symName: __ZN6VSTGUI9CFontDesc16freePlatformFontEv, symObjAddr: 0xBE0, symBinAddr: 0x59EE0, symSize: 0x30 }
  - { offset: 0x14F202, size: 0x8, addend: 0x0, symName: __ZN6VSTGUI9CFontDesc7setNameERKNS_10UTF8StringE, symObjAddr: 0xC10, symBinAddr: 0x59F10, symSize: 0x50 }
  - { offset: 0x14F246, size: 0x8, addend: 0x0, symName: __ZN6VSTGUI9CFontDesc7setSizeEd, symObjAddr: 0xC60, symBinAddr: 0x59F60, symSize: 0x10 }
  - { offset: 0x14F28F, size: 0x8, addend: 0x0, symName: __ZN6VSTGUI9CFontDesc8setStyleEi, symObjAddr: 0xC70, symBinAddr: 0x59F70, symSize: 0x10 }
  - { offset: 0x14F2F1, size: 0x8, addend: 0x0, symName: __ZN6VSTGUI9CFontDescaSERKS0_, symObjAddr: 0xC80, symBinAddr: 0x59F80, symSize: 0x40 }
  - { offset: 0x14F37C, size: 0x8, addend: 0x0, symName: __ZNK6VSTGUI9CFontDesceqERKS0_, symObjAddr: 0xCC0, symBinAddr: 0x59FC0, symSize: 0x30 }
  - { offset: 0x14F3D0, size: 0x8, addend: 0x0, symName: __ZNK6VSTGUI9CFontDescneERKS0_, symObjAddr: 0xD70, symBinAddr: 0x59FF0, symSize: 0x10 }
  - { offset: 0x1513B7, size: 0x8, addend: 0x0, symName: __ZN6VSTGUI16kMsgNewFocusViewE, symObjAddr: 0xC4C0, symBinAddr: 0x1D0698, symSize: 0x0 }
  - { offset: 0x1513D1, size: 0x8, addend: 0x0, symName: __ZN6VSTGUI16kMsgOldFocusViewE, symObjAddr: 0xC4C8, symBinAddr: 0x1D06A0, symSize: 0x0 }
  - { offset: 0x1513E5, size: 0x8, addend: 0x0, symName: __ZN6VSTGUI6CFrame16kDefaultKnobModeE, symObjAddr: 0x16F684, symBinAddr: 0x1F76A8, symSize: 0x0 }
  - { offset: 0x17BF70, size: 0x8, addend: 0x0, symName: __ZN6VSTGUI6CFrame12setFocusViewEPNS_5CViewE, symObjAddr: 0x2CA0, symBinAddr: 0x5CB80, symSize: 0x2E0 }
  - { offset: 0x17BF98, size: 0x8, addend: 0x0, symName: __ZZN6VSTGUI6CFrame12setFocusViewEPNS_5CViewEE9recursion, symObjAddr: 0x16F688, symBinAddr: 0x1D2238, symSize: 0x0 }
  - { offset: 0x17C352, size: 0x8, addend: 0x0, symName: __ZN6VSTGUI6CFrame20dispatchMouseUpEventERNS_12MouseUpEventE, symObjAddr: 0x3460, symBinAddr: 0x5D340, symSize: 0x310 }
  - { offset: 0x17CFD7, size: 0x8, addend: 0x0, symName: __ZN6VSTGUI6CFrameC2ERKNS_5CRectEPNS_21VSTGUIEditorInterfaceE, symObjAddr: 0x0, symBinAddr: 0x5A100, symSize: 0x1A0 }
  - { offset: 0x17D4B9, size: 0x8, addend: 0x0, symName: __ZN6VSTGUI6CFrameC1ERKNS_5CRectEPNS_21VSTGUIEditorInterfaceE, symObjAddr: 0x1A0, symBinAddr: 0x5A2A0, symSize: 0x190 }
  - { offset: 0x17DB67, size: 0x8, addend: 0x0, symName: __ZN6VSTGUI6CFrame12beforeDeleteEv, symObjAddr: 0x330, symBinAddr: 0x5A430, symSize: 0x160 }
  - { offset: 0x17DE62, size: 0x8, addend: 0x0, symName: __ZN6VSTGUI6CFrame15clearMouseViewsERKNS_6CPointENS_9ModifiersEb, symObjAddr: 0x490, symBinAddr: 0x5A590, symSize: 0x2D0 }
  - { offset: 0x17E4E7, size: 0x8, addend: 0x0, symName: __ZN6VSTGUI6CFrame25endLegacyModalViewSessionEv, symObjAddr: 0x3E00, symBinAddr: 0x5DCE0, symSize: 0xE0 }
  - { offset: 0x17E6AE, size: 0x8, addend: 0x0, symName: __ZN6VSTGUI6CFrame19endModalViewSessionEj, symObjAddr: 0x4070, symBinAddr: 0x5DF50, symSize: 0x1A0 }
  - { offset: 0x17EC24, size: 0x8, addend: 0x0, symName: __ZN6VSTGUI6CFrame9removeAllEb, symObjAddr: 0x7E0, symBinAddr: 0x5A8E0, symSize: 0xC0 }
  - { offset: 0x17EDF9, size: 0x8, addend: 0x0, symName: __ZN6VSTGUI6CFrame4ImplD2Ev, symObjAddr: 0x7A70, symBinAddr: 0x61600, symSize: 0x1B0 }
  - { offset: 0x17FF5A, size: 0x8, addend: 0x0, symName: __ZN6VSTGUI6CFrame28callMouseObserverMouseExitedEPNS_5CViewE, symObjAddr: 0x13C0, symBinAddr: 0x5B490, symSize: 0xC0 }
  - { offset: 0x180518, size: 0x8, addend: 0x0, symName: __ZN6VSTGUI12DispatchListIPNS_14IMouseObserverEE11postForEachEv, symObjAddr: 0x9B60, symBinAddr: 0x62C30, symSize: 0x3D0 }
  - { offset: 0x1813FB, size: 0x8, addend: 0x0, symName: __ZN6VSTGUI6CFrame22clearModalViewSessionsEv, symObjAddr: 0x760, symBinAddr: 0x5A860, symSize: 0x60 }
  - { offset: 0x18150E, size: 0x8, addend: 0x0, symName: __ZN6VSTGUI6CFrame9setCursorENS_11CCursorTypeE, symObjAddr: 0x7C0, symBinAddr: 0x5A8C0, symSize: 0x20 }
  - { offset: 0x18157A, size: 0x8, addend: 0x0, symName: __ZN6VSTGUI6CFrame5closeEv, symObjAddr: 0x8A0, symBinAddr: 0x5A9A0, symSize: 0x100 }
  - { offset: 0x181917, size: 0x8, addend: 0x0, symName: __ZN6VSTGUI6CFrame4openEPvNS_12PlatformTypeEPNS_20IPlatformFrameConfigE, symObjAddr: 0x9D0, symBinAddr: 0x5AAA0, symSize: 0x170 }
  - { offset: 0x181BF9, size: 0x8, addend: 0x0, symName: __ZN6VSTGUI6CFrame19CollectInvalidRectsC2EPS0_, symObjAddr: 0x6F30, symBinAddr: 0x60DD0, symSize: 0x110 }
  - { offset: 0x18211B, size: 0x8, addend: 0x0, symName: __ZN6VSTGUI6CFrame11invalidRectERKNS_5CRectE, symObjAddr: 0x4F90, symBinAddr: 0x5EE70, symSize: 0x100 }
  - { offset: 0x182274, size: 0x8, addend: 0x0, symName: __ZN6VSTGUI6CFrame19CollectInvalidRectsD2Ev, symObjAddr: 0x7080, symBinAddr: 0x60EE0, symSize: 0x110 }
  - { offset: 0x182701, size: 0x8, addend: 0x0, symName: __ZN6VSTGUI6CFrame19CollectInvalidRectsC1EPS0_, symObjAddr: 0xB40, symBinAddr: 0x5AC10, symSize: 0x10 }
  - { offset: 0x182744, size: 0x8, addend: 0x0, symName: __ZN6VSTGUI6CFrame8attachedEPNS_5CViewE, symObjAddr: 0xB50, symBinAddr: 0x5AC20, symSize: 0xA0 }
  - { offset: 0x18282A, size: 0x8, addend: 0x0, symName: __ZN6VSTGUI6CFrame7invalidEv, symObjAddr: 0xBF0, symBinAddr: 0x5ACC0, symSize: 0x30 }
  - { offset: 0x18285F, size: 0x8, addend: 0x0, symName: __ZN6VSTGUI6CFrame19CollectInvalidRectsD1Ev, symObjAddr: 0xC20, symBinAddr: 0x5ACF0, symSize: 0x10 }
  - { offset: 0x18292B, size: 0x8, addend: 0x0, symName: __ZN6VSTGUI6CFrame22dispatchNewScaleFactorEd, symObjAddr: 0xF50, symBinAddr: 0x5B020, symSize: 0xB0 }
  - { offset: 0x182B68, size: 0x8, addend: 0x0, symName: __ZN6VSTGUI6CFrame7setZoomEd, symObjAddr: 0xC30, symBinAddr: 0x5AD00, symSize: 0x240 }
  - { offset: 0x182E5B, size: 0x8, addend: 0x0, symName: __ZN6VSTGUI6CFrame7setSizeEdd, symObjAddr: 0xE70, symBinAddr: 0x5AF40, symSize: 0xE0 }
  - { offset: 0x182FA1, size: 0x8, addend: 0x0, symName: __ZN6VSTGUI12DispatchListIPNS_27IScaleFactorChangedListenerEE11postForEachEv, symObjAddr: 0xA8E0, symBinAddr: 0x633D0, symSize: 0x3D0 }
  - { offset: 0x183EE4, size: 0x8, addend: 0x0, symName: __ZNK6VSTGUI6CFrame14getScaleFactorEv, symObjAddr: 0x1000, symBinAddr: 0x5B0D0, symSize: 0x20 }
  - { offset: 0x183F0C, size: 0x8, addend: 0x0, symName: __ZNK6VSTGUI6CFrame7getZoomEv, symObjAddr: 0x1020, symBinAddr: 0x5B0F0, symSize: 0x20 }
  - { offset: 0x183F34, size: 0x8, addend: 0x0, symName: __ZN6VSTGUI6CFrame29setBitmapInterpolationQualityENS_26BitmapInterpolationQualityE, symObjAddr: 0x1040, symBinAddr: 0x5B110, symSize: 0x50 }
  - { offset: 0x183FA3, size: 0x8, addend: 0x0, symName: __ZNK6VSTGUI6CFrame29getBitmapInterpolationQualityEv, symObjAddr: 0x1090, symBinAddr: 0x5B160, symSize: 0x20 }
  - { offset: 0x183FF3, size: 0x8, addend: 0x0, symName: __ZN6VSTGUI6CFrame14enableTooltipsEbj, symObjAddr: 0x10B0, symBinAddr: 0x5B180, symSize: 0xA0 }
  - { offset: 0x1840B2, size: 0x8, addend: 0x0, symName: __ZN6VSTGUI6CFrame4drawEPNS_12CDrawContextE, symObjAddr: 0x1150, symBinAddr: 0x5B220, symSize: 0x30 }
  - { offset: 0x1840FB, size: 0x8, addend: 0x0, symName: __ZN6VSTGUI6CFrame8drawRectEPNS_12CDrawContextERKNS_5CRectE, symObjAddr: 0x1180, symBinAddr: 0x5B250, symSize: 0x220 }
  - { offset: 0x1846A6, size: 0x8, addend: 0x0, symName: __ZN6VSTGUI10ConcatClipD1Ev, symObjAddr: 0x8250, symBinAddr: 0x61CB0, symSize: 0x20 }
  - { offset: 0x1846DF, size: 0x8, addend: 0x0, symName: __ZN6VSTGUI6CFrame13dispatchEventEPNS_5CViewERNS_5EventE, symObjAddr: 0x13A0, symBinAddr: 0x5B470, symSize: 0x20 }
  - { offset: 0x1847CE, size: 0x8, addend: 0x0, symName: __ZN6VSTGUI6CFrame20removeFromMouseViewsEPNS_5CViewE, symObjAddr: 0x1480, symBinAddr: 0x5B550, symSize: 0x180 }
  - { offset: 0x185044, size: 0x8, addend: 0x0, symName: __ZN6VSTGUI6CFrame15checkMouseViewsERKNS_10MouseEventE, symObjAddr: 0x1600, symBinAddr: 0x5B6D0, symSize: 0x3D0 }
  - { offset: 0x185D4B, size: 0x8, addend: 0x0, symName: __ZNK6VSTGUI6CFrame9getViewAtERKNS_6CPointERKNS_14GetViewOptionsE, symObjAddr: 0x19D0, symBinAddr: 0x5BAA0, symSize: 0x1A0 }
  - { offset: 0x185FDB, size: 0x8, addend: 0x0, symName: '__ZZN6VSTGUI6CFrame15checkMouseViewsERKNS_10MouseEventEENK3$_0clEPNS_5CViewE', symObjAddr: 0x1B70, symBinAddr: 0x5BC40, symSize: 0x1E0 }
  - { offset: 0x186634, size: 0x8, addend: 0x0, symName: '__ZZN6VSTGUI6CFrame15checkMouseViewsERKNS_10MouseEventEENK3$_1clEPNS_5CViewE', symObjAddr: 0x1F40, symBinAddr: 0x5BE20, symSize: 0x1E0 }
  - { offset: 0x186DB2, size: 0x8, addend: 0x0, symName: __ZN6VSTGUI6CFrame15hitTestSubViewsERKNS_6CPointERKNS_5EventE, symObjAddr: 0x2120, symBinAddr: 0x5C000, symSize: 0x1B0 }
  - { offset: 0x187030, size: 0x8, addend: 0x0, symName: __ZNK6VSTGUI6CFrame12getModalViewEv, symObjAddr: 0x22D0, symBinAddr: 0x5C1B0, symSize: 0x40 }
  - { offset: 0x18712E, size: 0x8, addend: 0x0, symName: __ZN6VSTGUI6CFrame23dispatchEventToChildrenERNS_5EventE, symObjAddr: 0x2310, symBinAddr: 0x5C1F0, symSize: 0x10 }
  - { offset: 0x187421, size: 0x8, addend: 0x0, symName: __ZN6VSTGUI6CFrame21dispatchKeyboardEventERNS_13KeyboardEventE, symObjAddr: 0x2320, symBinAddr: 0x5C200, symSize: 0x270 }
  - { offset: 0x187AD5, size: 0x8, addend: 0x0, symName: __ZN6VSTGUI6CFrame20advanceNextFocusViewEPNS_5CViewEb, symObjAddr: 0x2640, symBinAddr: 0x5C520, symSize: 0x230 }
  - { offset: 0x187D74, size: 0x8, addend: 0x0, symName: __ZN6VSTGUI12DispatchListIPNS_13IKeyboardHookEE11postForEachEv, symObjAddr: 0x9460, symBinAddr: 0x62820, symSize: 0x3D0 }
  - { offset: 0x188C57, size: 0x8, addend: 0x0, symName: __ZN6VSTGUI6CFrame28dispatchKeyboardEventToHooksERNS_13KeyboardEventE, symObjAddr: 0x2590, symBinAddr: 0x5C470, symSize: 0xB0 }
  - { offset: 0x189004, size: 0x8, addend: 0x0, symName: __ZN6VSTGUI6CFrame22dispatchMouseDownEventERNS_14MouseDownEventE, symObjAddr: 0x2870, symBinAddr: 0x5C750, symSize: 0x370 }
  - { offset: 0x189634, size: 0x8, addend: 0x0, symName: __ZN6VSTGUI6CFrame32callMouseObserverOtherMouseEventERNS_10MouseEventE, symObjAddr: 0x2BE0, symBinAddr: 0x5CAC0, symSize: 0xC0 }
  - { offset: 0x18982D, size: 0x8, addend: 0x0, symName: __ZN6VSTGUI12DispatchListIPNS_18IFocusViewObserverEE11postForEachEv, symObjAddr: 0x8D60, symBinAddr: 0x62410, symSize: 0x3D0 }
  - { offset: 0x18A725, size: 0x8, addend: 0x0, symName: __ZN6VSTGUI6CFrame22dispatchMouseMoveEventERNS_14MouseMoveEventE, symObjAddr: 0x2F80, symBinAddr: 0x5CE60, symSize: 0x4E0 }
  - { offset: 0x18AFE6, size: 0x8, addend: 0x0, symName: '__ZN6VSTGUI11FinalActionIZNS_6CFrame20dispatchMouseUpEventERNS_12MouseUpEventEE3$_0ED1Ev', symObjAddr: 0x3770, symBinAddr: 0x5D650, symSize: 0x20 }
  - { offset: 0x18B027, size: 0x8, addend: 0x0, symName: __ZN6VSTGUI6CFrame18dispatchMouseEventERNS_10MouseEventE, symObjAddr: 0x3790, symBinAddr: 0x5D670, symSize: 0xD0 }
  - { offset: 0x18B191, size: 0x8, addend: 0x0, symName: __ZN6VSTGUI6CFrame13dispatchEventERNS_5EventE, symObjAddr: 0x3860, symBinAddr: 0x5D740, symSize: 0x260 }
  - { offset: 0x18B6F6, size: 0x8, addend: 0x0, symName: __ZN6VSTGUI6CFrame4Impl16PostEventHandlerD2Ev, symObjAddr: 0x7F60, symBinAddr: 0x61AF0, symSize: 0x1B0 }
  - { offset: 0x18BC42, size: 0x8, addend: 0x0, symName: __ZN6VSTGUI6CFrame12getClipboardEv, symObjAddr: 0x3AC0, symBinAddr: 0x5D9A0, symSize: 0x30 }
  - { offset: 0x18BC8C, size: 0x8, addend: 0x0, symName: __ZN6VSTGUI6CFrame12setClipboardERKNS_13SharedPointerINS_12IDataPackageEEE, symObjAddr: 0x3AF0, symBinAddr: 0x5D9D0, symSize: 0x30 }
  - { offset: 0x18BCE1, size: 0x8, addend: 0x0, symName: __ZN6VSTGUI6CFrame4idleEv, symObjAddr: 0x3B20, symBinAddr: 0x5DA00, symSize: 0x20 }
  - { offset: 0x18BD45, size: 0x8, addend: 0x0, symName: __ZN6VSTGUI6CFrame11getAnimatorEv, symObjAddr: 0x3B40, symBinAddr: 0x5DA20, symSize: 0x80 }
  - { offset: 0x18BDD6, size: 0x8, addend: 0x0, symName: __ZNK6VSTGUI6CFrame8getTicksEv, symObjAddr: 0x3BC0, symBinAddr: 0x5DAA0, symSize: 0x20 }
  - { offset: 0x18BE12, size: 0x8, addend: 0x0, symName: __ZNK6VSTGUI6CFrame11getKnobModeEv, symObjAddr: 0x3BE0, symBinAddr: 0x5DAC0, symSize: 0x30 }
  - { offset: 0x18BEC9, size: 0x8, addend: 0x0, symName: __ZN6VSTGUI6CFrame11setPositionEdd, symObjAddr: 0x3C10, symBinAddr: 0x5DAF0, symSize: 0xC0 }
  - { offset: 0x18BFB1, size: 0x8, addend: 0x0, symName: __ZN6VSTGUI6CFrame11setViewSizeERKNS_5CRectEb, symObjAddr: 0x3CD0, symBinAddr: 0x5DBB0, symSize: 0x10 }
  - { offset: 0x18C01D, size: 0x8, addend: 0x0, symName: __ZNK6VSTGUI6CFrame11getPositionERdS1_, symObjAddr: 0x3CE0, symBinAddr: 0x5DBC0, symSize: 0x60 }
  - { offset: 0x18C0F4, size: 0x8, addend: 0x0, symName: __ZNK6VSTGUI6CFrame9getEditorEv, symObjAddr: 0x3D40, symBinAddr: 0x5DC20, symSize: 0x10 }
  - { offset: 0x18C113, size: 0x8, addend: 0x0, symName: __ZNK6VSTGUI6CFrame7getSizeEPNS_5CRectE, symObjAddr: 0x3D50, symBinAddr: 0x5DC30, symSize: 0x30 }
  - { offset: 0x18C16C, size: 0x8, addend: 0x0, symName: __ZNK6VSTGUI6CFrame7getSizeERNS_5CRectE, symObjAddr: 0x3D80, symBinAddr: 0x5DC60, symSize: 0x20 }
  - { offset: 0x18C232, size: 0x8, addend: 0x0, symName: __ZN6VSTGUI6CFrame12setModalViewEPNS_5CViewE, symObjAddr: 0x3DA0, symBinAddr: 0x5DC80, symSize: 0x60 }
  - { offset: 0x18C313, size: 0x8, addend: 0x0, symName: __ZN6VSTGUI6CFrame21beginModalViewSessionEPNS_5CViewE, symObjAddr: 0x3EE0, symBinAddr: 0x5DDC0, symSize: 0x190 }
  - { offset: 0x18C993, size: 0x8, addend: 0x0, symName: __ZNSt3__15dequeIN6VSTGUI16ModalViewSessionENS_9allocatorIS2_EEE19__add_back_capacityEv, symObjAddr: 0x8270, symBinAddr: 0x61CD0, symSize: 0x720 }
  - { offset: 0x18DD2B, size: 0x8, addend: 0x0, symName: __ZN6VSTGUI6CFrame20initModalViewSessionERKNS_16ModalViewSessionE, symObjAddr: 0x4210, symBinAddr: 0x5E0F0, symSize: 0x180 }
  - { offset: 0x18E319, size: 0x8, addend: 0x0, symName: __ZNK6VSTGUI6CFrame23getCurrentMouseLocationERNS_6CPointE, symObjAddr: 0x4390, symBinAddr: 0x5E270, symSize: 0x70 }
  - { offset: 0x18E3C2, size: 0x8, addend: 0x0, symName: __ZN6VSTGUI6CFrame10removeViewEPNS_5CViewEb, symObjAddr: 0x4400, symBinAddr: 0x5E2E0, symSize: 0x10 }
  - { offset: 0x18E3FC, size: 0x8, addend: 0x0, symName: __ZN6VSTGUI6CFrame9beginEditEi, symObjAddr: 0x4410, symBinAddr: 0x5E2F0, symSize: 0x20 }
  - { offset: 0x18E441, size: 0x8, addend: 0x0, symName: __ZN6VSTGUI6CFrame7endEditEi, symObjAddr: 0x4430, symBinAddr: 0x5E310, symSize: 0x20 }
  - { offset: 0x18E4CE, size: 0x8, addend: 0x0, symName: __ZNK6VSTGUI6CFrame22getCurrentMouseButtonsEv, symObjAddr: 0x4450, symBinAddr: 0x5E330, symSize: 0x30 }
  - { offset: 0x18E7C0, size: 0x8, addend: 0x0, symName: __ZN6VSTGUI6CFrame13onViewRemovedEPNS_5CViewE, symObjAddr: 0x4480, symBinAddr: 0x5E360, symSize: 0x150 }
  - { offset: 0x18EB78, size: 0x8, addend: 0x0, symName: __ZNK6VSTGUI6CFrame27getViewAddedRemovedObserverEv, symObjAddr: 0x45D0, symBinAddr: 0x5E4B0, symSize: 0x10 }
  - { offset: 0x18EB98, size: 0x8, addend: 0x0, symName: __ZN6VSTGUI6CFrame11onViewAddedEPNS_5CViewE, symObjAddr: 0x45E0, symBinAddr: 0x5E4C0, symSize: 0x80 }
  - { offset: 0x18EC3B, size: 0x8, addend: 0x0, symName: __ZN6VSTGUI12DispatchListIPNS_5CViewEE3addERKS2_, symObjAddr: 0x4660, symBinAddr: 0x5E540, symSize: 0x2F0 }
  - { offset: 0x18FE9E, size: 0x8, addend: 0x0, symName: __ZNKSt3__16vectorIPN6VSTGUI5CViewENS_9allocatorIS3_EEE20__throw_length_errorB8ne180100Ev, symObjAddr: 0x8D40, symBinAddr: 0x623F0, symSize: 0x10 }
  - { offset: 0x18FEC8, size: 0x8, addend: 0x0, symName: __ZNKSt3__16vectorINS_4pairIbPN6VSTGUI5CViewEEENS_9allocatorIS5_EEE20__throw_length_errorB8ne180100Ev, symObjAddr: 0x8D50, symBinAddr: 0x62400, symSize: 0x10 }
  - { offset: 0x18FED3, size: 0x8, addend: 0x0, symName: __ZNKSt3__16vectorINS_4pairIbPN6VSTGUI5CViewEEENS_9allocatorIS5_EEE20__throw_length_errorB8ne180100Ev, symObjAddr: 0x8D50, symBinAddr: 0x62400, symSize: 0x10 }
  - { offset: 0x18FEFD, size: 0x8, addend: 0x0, symName: __ZN6VSTGUI12DispatchListIPNS_18IFocusViewObserverEE11postForEachEv, symObjAddr: 0x8D60, symBinAddr: 0x62410, symSize: 0x3D0 }
  - { offset: 0x18FF07, size: 0x8, addend: 0x0, symName: __ZNK6VSTGUI6CFrame12getFocusViewEv, symObjAddr: 0x4950, symBinAddr: 0x5E830, symSize: 0x10 }
  - { offset: 0x18FF27, size: 0x8, addend: 0x0, symName: __ZNK6VSTGUI6CFrame14getContainerAtERKNS_6CPointERKNS_14GetViewOptionsE, symObjAddr: 0x4960, symBinAddr: 0x5E840, symSize: 0x1A0 }
  - { offset: 0x1904B6, size: 0x8, addend: 0x0, symName: __ZNK6VSTGUI6CFrame10getViewsAtERKNS_6CPointERNSt3__14listINS_13SharedPointerINS_5CViewEEENS4_9allocatorIS8_EEEERKNS_14GetViewOptionsE, symObjAddr: 0x4B00, symBinAddr: 0x5E9E0, symSize: 0x270 }
  - { offset: 0x190B04, size: 0x8, addend: 0x0, symName: __ZN6VSTGUI6CFrame10onActivateEb, symObjAddr: 0x4D70, symBinAddr: 0x5EC50, symSize: 0x90 }
  - { offset: 0x190BB5, size: 0x8, addend: 0x0, symName: __ZNK6VSTGUI6CFrame19focusDrawingEnabledEv, symObjAddr: 0x4E00, symBinAddr: 0x5ECE0, symSize: 0x20 }
  - { offset: 0x190C7D, size: 0x8, addend: 0x0, symName: __ZNK6VSTGUI6CFrame13getFocusColorEv, symObjAddr: 0x4E20, symBinAddr: 0x5ED00, symSize: 0x40 }
  - { offset: 0x190D6C, size: 0x8, addend: 0x0, symName: __ZNK6VSTGUI6CFrame13getFocusWidthEv, symObjAddr: 0x4E60, symBinAddr: 0x5ED40, symSize: 0x40 }
  - { offset: 0x190E1C, size: 0x8, addend: 0x0, symName: __ZN6VSTGUI6CFrame22setFocusDrawingEnabledEb, symObjAddr: 0x4EA0, symBinAddr: 0x5ED80, symSize: 0x40 }
  - { offset: 0x190EBE, size: 0x8, addend: 0x0, symName: __ZN6VSTGUI6CFrame13setFocusColorERKNS_6CColorE, symObjAddr: 0x4EE0, symBinAddr: 0x5EDC0, symSize: 0x20 }
  - { offset: 0x190F5C, size: 0x8, addend: 0x0, symName: __ZN6VSTGUI6CFrame13setFocusWidthEd, symObjAddr: 0x4F00, symBinAddr: 0x5EDE0, symSize: 0x30 }
  - { offset: 0x190FC9, size: 0x8, addend: 0x0, symName: __ZN6VSTGUI6CFrame10scrollRectERKNS_5CRectERKNS_6CPointE, symObjAddr: 0x4F30, symBinAddr: 0x5EE10, symSize: 0x60 }
  - { offset: 0x1910DB, size: 0x8, addend: 0x0, symName: __ZN6VSTGUI6CFrame19CollectInvalidRects7addRectERKNS_5CRectE, symObjAddr: 0x5110, symBinAddr: 0x5EFF0, symSize: 0xC0 }
  - { offset: 0x1913CE, size: 0x8, addend: 0x0, symName: __ZN6VSTGUI6CFrame10invalidateERKNS_5CRectE, symObjAddr: 0x5090, symBinAddr: 0x5EF70, symSize: 0x80 }
  - { offset: 0x191696, size: 0x8, addend: 0x0, symName: __ZN6VSTGUI16CInvalidRectList3addERKNS_5CRectE, symObjAddr: 0x71A0, symBinAddr: 0x60FF0, symSize: 0x380 }
  - { offset: 0x192196, size: 0x8, addend: 0x0, symName: __ZN6VSTGUI6CFrame27setViewAddedRemovedObserverEPNS_25IViewAddedRemovedObserverE, symObjAddr: 0x51D0, symBinAddr: 0x5F0B0, symSize: 0x10 }
  - { offset: 0x1921CD, size: 0x8, addend: 0x0, symName: __ZN6VSTGUI6CFrame20registerKeyboardHookEPNS_13IKeyboardHookE, symObjAddr: 0x51E0, symBinAddr: 0x5F0C0, symSize: 0x30 }
  - { offset: 0x19221C, size: 0x8, addend: 0x0, symName: __ZN6VSTGUI12DispatchListIPNS_13IKeyboardHookEE3addERKS2_, symObjAddr: 0x5210, symBinAddr: 0x5F0F0, symSize: 0x2F0 }
  - { offset: 0x193470, size: 0x8, addend: 0x0, symName: __ZNKSt3__16vectorIPN6VSTGUI13IKeyboardHookENS_9allocatorIS3_EEE20__throw_length_errorB8ne180100Ev, symObjAddr: 0x9440, symBinAddr: 0x62800, symSize: 0x10 }
  - { offset: 0x19349A, size: 0x8, addend: 0x0, symName: __ZNKSt3__16vectorINS_4pairIbPN6VSTGUI13IKeyboardHookEEENS_9allocatorIS5_EEE20__throw_length_errorB8ne180100Ev, symObjAddr: 0x9450, symBinAddr: 0x62810, symSize: 0x10 }
  - { offset: 0x1934A5, size: 0x8, addend: 0x0, symName: __ZNKSt3__16vectorINS_4pairIbPN6VSTGUI13IKeyboardHookEEENS_9allocatorIS5_EEE20__throw_length_errorB8ne180100Ev, symObjAddr: 0x9450, symBinAddr: 0x62810, symSize: 0x10 }
  - { offset: 0x1934CF, size: 0x8, addend: 0x0, symName: __ZN6VSTGUI12DispatchListIPNS_13IKeyboardHookEE11postForEachEv, symObjAddr: 0x9460, symBinAddr: 0x62820, symSize: 0x3D0 }
  - { offset: 0x1936CE, size: 0x8, addend: 0x0, symName: __ZN6VSTGUI6CFrame22unregisterKeyboardHookEPNS_13IKeyboardHookE, symObjAddr: 0x5500, symBinAddr: 0x5F3E0, symSize: 0x80 }
  - { offset: 0x19399D, size: 0x8, addend: 0x0, symName: __ZN6VSTGUI6CFrame34registerScaleFactorChangedListenerEPNS_27IScaleFactorChangedListenerE, symObjAddr: 0x5580, symBinAddr: 0x5F460, symSize: 0x30 }
  - { offset: 0x1939EC, size: 0x8, addend: 0x0, symName: __ZN6VSTGUI12DispatchListIPNS_27IScaleFactorChangedListenerEE3addERKS2_, symObjAddr: 0x55B0, symBinAddr: 0x5F490, symSize: 0x2F0 }
  - { offset: 0x194C45, size: 0x8, addend: 0x0, symName: __ZNKSt3__16vectorIPN6VSTGUI27IScaleFactorChangedListenerENS_9allocatorIS3_EEE20__throw_length_errorB8ne180100Ev, symObjAddr: 0x9B20, symBinAddr: 0x62BF0, symSize: 0x10 }
  - { offset: 0x194C6F, size: 0x8, addend: 0x0, symName: __ZNKSt3__16vectorINS_4pairIbPN6VSTGUI27IScaleFactorChangedListenerEEENS_9allocatorIS5_EEE20__throw_length_errorB8ne180100Ev, symObjAddr: 0x9B30, symBinAddr: 0x62C00, symSize: 0x10 }
  - { offset: 0x194C7A, size: 0x8, addend: 0x0, symName: __ZNKSt3__16vectorINS_4pairIbPN6VSTGUI27IScaleFactorChangedListenerEEENS_9allocatorIS5_EEE20__throw_length_errorB8ne180100Ev, symObjAddr: 0x9B30, symBinAddr: 0x62C00, symSize: 0x10 }
  - { offset: 0x194CA4, size: 0x8, addend: 0x0, symName: __ZNKSt3__16vectorIPN6VSTGUI14IMouseObserverENS_9allocatorIS3_EEE20__throw_length_errorB8ne180100Ev, symObjAddr: 0x9B40, symBinAddr: 0x62C10, symSize: 0x10 }
  - { offset: 0x194EA1, size: 0x8, addend: 0x0, symName: __ZN6VSTGUI6CFrame36unregisterScaleFactorChangedListenerEPNS_27IScaleFactorChangedListenerE, symObjAddr: 0x58A0, symBinAddr: 0x5F780, symSize: 0x80 }
  - { offset: 0x195170, size: 0x8, addend: 0x0, symName: __ZN6VSTGUI6CFrame21registerMouseObserverEPNS_14IMouseObserverE, symObjAddr: 0x5920, symBinAddr: 0x5F800, symSize: 0x30 }
  - { offset: 0x1951BF, size: 0x8, addend: 0x0, symName: __ZN6VSTGUI12DispatchListIPNS_14IMouseObserverEE3addERKS2_, symObjAddr: 0x5950, symBinAddr: 0x5F830, symSize: 0x2F0 }
  - { offset: 0x196418, size: 0x8, addend: 0x0, symName: __ZNKSt3__16vectorIPN6VSTGUI14IMouseObserverENS_9allocatorIS3_EEE20__throw_length_errorB8ne180100Ev, symObjAddr: 0x9B40, symBinAddr: 0x62C10, symSize: 0x10 }
  - { offset: 0x196442, size: 0x8, addend: 0x0, symName: __ZNKSt3__16vectorINS_4pairIbPN6VSTGUI14IMouseObserverEEENS_9allocatorIS5_EEE20__throw_length_errorB8ne180100Ev, symObjAddr: 0x9B50, symBinAddr: 0x62C20, symSize: 0x10 }
  - { offset: 0x19644D, size: 0x8, addend: 0x0, symName: __ZNKSt3__16vectorINS_4pairIbPN6VSTGUI14IMouseObserverEEENS_9allocatorIS5_EEE20__throw_length_errorB8ne180100Ev, symObjAddr: 0x9B50, symBinAddr: 0x62C20, symSize: 0x10 }
  - { offset: 0x196477, size: 0x8, addend: 0x0, symName: __ZN6VSTGUI12DispatchListIPNS_14IMouseObserverEE11postForEachEv, symObjAddr: 0x9B60, symBinAddr: 0x62C30, symSize: 0x3D0 }
  - { offset: 0x196482, size: 0x8, addend: 0x0, symName: __ZN6VSTGUI6CFrame25registerFocusViewObserverEPNS_18IFocusViewObserverE, symObjAddr: 0x5C40, symBinAddr: 0x5FB20, symSize: 0x30 }
  - { offset: 0x1964D1, size: 0x8, addend: 0x0, symName: __ZN6VSTGUI12DispatchListIPNS_18IFocusViewObserverEE3addERKS2_, symObjAddr: 0x5C70, symBinAddr: 0x5FB50, symSize: 0x2F0 }
  - { offset: 0x19772A, size: 0x8, addend: 0x0, symName: __ZNKSt3__16vectorIPN6VSTGUI18IFocusViewObserverENS_9allocatorIS3_EEE20__throw_length_errorB8ne180100Ev, symObjAddr: 0x9420, symBinAddr: 0x627E0, symSize: 0x10 }
  - { offset: 0x197754, size: 0x8, addend: 0x0, symName: __ZNKSt3__16vectorINS_4pairIbPN6VSTGUI18IFocusViewObserverEEENS_9allocatorIS5_EEE20__throw_length_errorB8ne180100Ev, symObjAddr: 0x9430, symBinAddr: 0x627F0, symSize: 0x10 }
  - { offset: 0x19775F, size: 0x8, addend: 0x0, symName: __ZNKSt3__16vectorINS_4pairIbPN6VSTGUI18IFocusViewObserverEEENS_9allocatorIS5_EEE20__throw_length_errorB8ne180100Ev, symObjAddr: 0x9430, symBinAddr: 0x627F0, symSize: 0x10 }
  - { offset: 0x197789, size: 0x8, addend: 0x0, symName: __ZNKSt3__16vectorIPN6VSTGUI13IKeyboardHookENS_9allocatorIS3_EEE20__throw_length_errorB8ne180100Ev, symObjAddr: 0x9440, symBinAddr: 0x62800, symSize: 0x10 }
  - { offset: 0x197986, size: 0x8, addend: 0x0, symName: __ZN6VSTGUI6CFrame27unregisterFocusViewObserverEPNS_18IFocusViewObserverE, symObjAddr: 0x5F60, symBinAddr: 0x5FE40, symSize: 0x80 }
  - { offset: 0x197E47, size: 0x8, addend: 0x0, symName: __ZN6VSTGUI6CFrame23unregisterMouseObserverEPNS_14IMouseObserverE, symObjAddr: 0x5FE0, symBinAddr: 0x5FEC0, symSize: 0x80 }
  - { offset: 0x198115, size: 0x8, addend: 0x0, symName: __ZN6VSTGUI6CFrame29callMouseObserverMouseEnteredEPNS_5CViewE, symObjAddr: 0x6060, symBinAddr: 0x5FF40, symSize: 0xC0 }
  - { offset: 0x198254, size: 0x8, addend: 0x0, symName: __ZN6VSTGUI6CFrame11performDragERKNS_15DragDescriptionERKNS_13SharedPointerINS_13IDragCallbackEEE, symObjAddr: 0x6120, symBinAddr: 0x60000, symSize: 0x40 }
  - { offset: 0x1982FE, size: 0x8, addend: 0x0, symName: __ZNK6VSTGUI6CFrame16getPlatformFrameEv, symObjAddr: 0x6160, symBinAddr: 0x60040, symSize: 0x10 }
  - { offset: 0x198463, size: 0x8, addend: 0x0, symName: __ZN6VSTGUI6CFrame17platformDrawRectsERKNSt3__110shared_ptrINS_30IPlatformGraphicsDeviceContextEEEdRKNS1_6vectorINS_5CRectENS1_9allocatorIS8_EEEE, symObjAddr: 0x6170, symBinAddr: 0x60050, symSize: 0x110 }
  - { offset: 0x198741, size: 0x8, addend: 0x0, symName: __ZThn32_N6VSTGUI6CFrame17platformDrawRectsERKNSt3__110shared_ptrINS_30IPlatformGraphicsDeviceContextEEEdRKNS1_6vectorINS_5CRectENS1_9allocatorIS8_EEEE, symObjAddr: 0x62C0, symBinAddr: 0x60160, symSize: 0x10 }
  - { offset: 0x19877C, size: 0x8, addend: 0x0, symName: __ZN6VSTGUI6CFrame15platformOnEventERNS_5EventE, symObjAddr: 0x62D0, symBinAddr: 0x60170, symSize: 0x10 }
  - { offset: 0x1987E4, size: 0x8, addend: 0x0, symName: __ZThn32_N6VSTGUI6CFrame15platformOnEventERNS_5EventE, symObjAddr: 0x62E0, symBinAddr: 0x60180, symSize: 0x10 }
  - { offset: 0x198889, size: 0x8, addend: 0x0, symName: __ZN6VSTGUI6CFrame19platformOnDragEnterENS_13DragEventDataE, symObjAddr: 0x62F0, symBinAddr: 0x60190, symSize: 0x100 }
  - { offset: 0x198AF4, size: 0x8, addend: 0x0, symName: __ZN6VSTGUI13SharedPointerINS_11IDropTargetEED1Ev, symObjAddr: 0x63F0, symBinAddr: 0x60290, symSize: 0x30 }
  - { offset: 0x198B3A, size: 0x8, addend: 0x0, symName: __ZThn32_N6VSTGUI6CFrame19platformOnDragEnterENS_13DragEventDataE, symObjAddr: 0x6420, symBinAddr: 0x602C0, symSize: 0x10 }
  - { offset: 0x198B60, size: 0x8, addend: 0x0, symName: __ZN6VSTGUI6CFrame18platformOnDragMoveENS_13DragEventDataE, symObjAddr: 0x6430, symBinAddr: 0x602D0, symSize: 0x100 }
  - { offset: 0x198DCC, size: 0x8, addend: 0x0, symName: __ZThn32_N6VSTGUI6CFrame18platformOnDragMoveENS_13DragEventDataE, symObjAddr: 0x6530, symBinAddr: 0x603D0, symSize: 0x10 }
  - { offset: 0x198DF2, size: 0x8, addend: 0x0, symName: __ZN6VSTGUI6CFrame19platformOnDragLeaveENS_13DragEventDataE, symObjAddr: 0x6540, symBinAddr: 0x603E0, symSize: 0xF0 }
  - { offset: 0x19905E, size: 0x8, addend: 0x0, symName: __ZThn32_N6VSTGUI6CFrame19platformOnDragLeaveENS_13DragEventDataE, symObjAddr: 0x6630, symBinAddr: 0x604D0, symSize: 0x10 }
  - { offset: 0x199084, size: 0x8, addend: 0x0, symName: __ZN6VSTGUI6CFrame14platformOnDropENS_13DragEventDataE, symObjAddr: 0x6640, symBinAddr: 0x604E0, symSize: 0x100 }
  - { offset: 0x1992F0, size: 0x8, addend: 0x0, symName: __ZThn32_N6VSTGUI6CFrame14platformOnDropENS_13DragEventDataE, symObjAddr: 0x6740, symBinAddr: 0x605E0, symSize: 0x10 }
  - { offset: 0x19933A, size: 0x8, addend: 0x0, symName: __ZN6VSTGUI6CFrame18platformOnActivateEb, symObjAddr: 0x6750, symBinAddr: 0x605F0, symSize: 0xD0 }
  - { offset: 0x1994F5, size: 0x8, addend: 0x0, symName: __ZThn32_N6VSTGUI6CFrame18platformOnActivateEb, symObjAddr: 0x6820, symBinAddr: 0x606C0, symSize: 0x10 }
  - { offset: 0x199537, size: 0x8, addend: 0x0, symName: __ZN6VSTGUI6CFrame24platformOnWindowActivateEb, symObjAddr: 0x6830, symBinAddr: 0x606D0, symSize: 0xF0 }
  - { offset: 0x1997F1, size: 0x8, addend: 0x0, symName: __ZN6VSTGUI12DispatchListIPNS_5CViewEE11postForEachEv, symObjAddr: 0xA220, symBinAddr: 0x63000, symSize: 0x3D0 }
  - { offset: 0x19A6D5, size: 0x8, addend: 0x0, symName: __ZThn32_N6VSTGUI6CFrame24platformOnWindowActivateEb, symObjAddr: 0x6920, symBinAddr: 0x607C0, symSize: 0x10 }
  - { offset: 0x19A702, size: 0x8, addend: 0x0, symName: __ZN6VSTGUI6CFrame26platformScaleFactorChangedEd, symObjAddr: 0x6930, symBinAddr: 0x607D0, symSize: 0xD0 }
  - { offset: 0x19A870, size: 0x8, addend: 0x0, symName: __ZThn32_N6VSTGUI6CFrame26platformScaleFactorChangedEd, symObjAddr: 0x6A00, symBinAddr: 0x608A0, symSize: 0xD0 }
  - { offset: 0x19ABE9, size: 0x8, addend: 0x0, symName: __ZN6VSTGUI6CFrame22doAfterEventProcessingEONSt3__18functionIFvvEEE, symObjAddr: 0x6AD0, symBinAddr: 0x60970, symSize: 0x130 }
  - { offset: 0x19AE6C, size: 0x8, addend: 0x0, symName: __ZNSt3__15dequeINS_8functionIFvvEEENS_9allocatorIS3_EEE19__add_back_capacityEv, symObjAddr: 0xAFA0, symBinAddr: 0x637A0, symSize: 0x720 }
  - { offset: 0x19C364, size: 0x8, addend: 0x0, symName: __ZN6VSTGUI6CFrame22doAfterEventProcessingERKNSt3__18functionIFvvEEE, symObjAddr: 0x6C00, symBinAddr: 0x60AA0, symSize: 0x120 }
  - { offset: 0x19C628, size: 0x8, addend: 0x0, symName: __ZNK6VSTGUI6CFrame17inEventProcessingEv, symObjAddr: 0x6D20, symBinAddr: 0x60BC0, symSize: 0x20 }
  - { offset: 0x19C650, size: 0x8, addend: 0x0, symName: __ZN6VSTGUI6CFrame21onStartLocalEventLoopEv, symObjAddr: 0x6D40, symBinAddr: 0x60BE0, symSize: 0xB0 }
  - { offset: 0x19C8B9, size: 0x8, addend: 0x0, symName: __ZN6VSTGUI6CFrame19CollectInvalidRects5flushEv, symObjAddr: 0x6DF0, symBinAddr: 0x60C90, symSize: 0x90 }
  - { offset: 0x19CB02, size: 0x8, addend: 0x0, symName: __ZN6VSTGUI6CFrame22setCollectInvalidRectsEPNS0_19CollectInvalidRectsE, symObjAddr: 0x6E80, symBinAddr: 0x60D20, symSize: 0xB0 }
  - { offset: 0x19D476, size: 0x8, addend: 0x0, symName: __ZNKSt3__16vectorIN6VSTGUI5CRectENS_9allocatorIS2_EEE20__throw_length_errorB8ne180100Ev, symObjAddr: 0x8180, symBinAddr: 0x61CA0, symSize: 0x10 }
  - { offset: 0x19D4D5, size: 0x8, addend: 0x0, symName: __ZN6VSTGUI23OldMouseObserverAdapter12onMouseEventERNS_10MouseEventEPNS_6CFrameE, symObjAddr: 0x7520, symBinAddr: 0x61370, symSize: 0x100 }
  - { offset: 0x19D68A, size: 0x8, addend: 0x0, symName: __ZN6VSTGUI23OldMouseObserverAdapter12onMouseMovedEPNS_6CFrameERKNS_6CPointERKNS_12CButtonStateE, symObjAddr: 0x7620, symBinAddr: 0x61470, symSize: 0x10 }
  - { offset: 0x19D6D3, size: 0x8, addend: 0x0, symName: __ZN6VSTGUI23OldMouseObserverAdapter11onMouseDownEPNS_6CFrameERKNS_6CPointERKNS_12CButtonStateE, symObjAddr: 0x7630, symBinAddr: 0x61480, symSize: 0x10 }
  - { offset: 0x19D72B, size: 0x8, addend: 0x0, symName: __ZN6VSTGUI22OldKeyboardHookAdapter15onKeyboardEventERNS_13KeyboardEventEPNS_6CFrameE, symObjAddr: 0x7640, symBinAddr: 0x61490, symSize: 0x60 }
  - { offset: 0x19D7F8, size: 0x8, addend: 0x0, symName: __ZN6VSTGUI6CFrameD1Ev, symObjAddr: 0x7920, symBinAddr: 0x614F0, symSize: 0x20 }
  - { offset: 0x19D84C, size: 0x8, addend: 0x0, symName: __ZN6VSTGUI6CFrameD0Ev, symObjAddr: 0x7940, symBinAddr: 0x61510, symSize: 0x30 }
  - { offset: 0x19D8A6, size: 0x8, addend: 0x0, symName: __ZNK6VSTGUI6CFrame7newCopyEv, symObjAddr: 0x7970, symBinAddr: 0x61540, symSize: 0x10 }
  - { offset: 0x19D8CB, size: 0x8, addend: 0x0, symName: __ZNK6VSTGUI6CFrame12frameToLocalERNS_6CPointE, symObjAddr: 0x7980, symBinAddr: 0x61550, symSize: 0x10 }
  - { offset: 0x19D8FF, size: 0x8, addend: 0x0, symName: __ZNK6VSTGUI6CFrame12localToFrameERNS_6CPointE, symObjAddr: 0x7990, symBinAddr: 0x61560, symSize: 0x10 }
  - { offset: 0x19D933, size: 0x8, addend: 0x0, symName: __ZThn32_N6VSTGUI6CFrameD1Ev, symObjAddr: 0x79A0, symBinAddr: 0x61570, symSize: 0x20 }
  - { offset: 0x19D99B, size: 0x8, addend: 0x0, symName: __ZThn32_N6VSTGUI6CFrameD0Ev, symObjAddr: 0x79C0, symBinAddr: 0x61590, symSize: 0x30 }
  - { offset: 0x19DA08, size: 0x8, addend: 0x0, symName: __ZN6VSTGUI23OldMouseObserverAdapterD1Ev, symObjAddr: 0x79F0, symBinAddr: 0x615C0, symSize: 0x10 }
  - { offset: 0x19DA34, size: 0x8, addend: 0x0, symName: __ZN6VSTGUI23OldMouseObserverAdapterD0Ev, symObjAddr: 0x7A00, symBinAddr: 0x615D0, symSize: 0x10 }
  - { offset: 0x19DA60, size: 0x8, addend: 0x0, symName: __ZN6VSTGUI23OldMouseObserverAdapter14onMouseEnteredEPNS_5CViewEPNS_6CFrameE, symObjAddr: 0x7A10, symBinAddr: 0x615E0, symSize: 0x10 }
  - { offset: 0x19DAA3, size: 0x8, addend: 0x0, symName: __ZN6VSTGUI23OldMouseObserverAdapter13onMouseExitedEPNS_5CViewEPNS_6CFrameE, symObjAddr: 0x7A20, symBinAddr: 0x615F0, symSize: 0x10 }
  - { offset: 0x19DAE6, size: 0x8, addend: 0x0, symName: __ZN6VSTGUI22OldKeyboardHookAdapterD1Ev, symObjAddr: 0x7A30, symBinAddr: 0x178D10, symSize: 0x10 }
  - { offset: 0x19DB12, size: 0x8, addend: 0x0, symName: __ZN6VSTGUI22OldKeyboardHookAdapterD0Ev, symObjAddr: 0x7A40, symBinAddr: 0x178D20, symSize: 0x10 }
  - { offset: 0x19DB3E, size: 0x8, addend: 0x0, symName: __ZN6VSTGUI22IPlatformFrameCallbackD1Ev, symObjAddr: 0x7A50, symBinAddr: 0x178D30, symSize: 0x10 }
  - { offset: 0x19DB67, size: 0x8, addend: 0x0, symName: __ZN6VSTGUI22IPlatformFrameCallbackD0Ev, symObjAddr: 0x7A60, symBinAddr: 0x178D40, symSize: 0x10 }
  - { offset: 0x19E230, size: 0x8, addend: 0x0, symName: __ZNSt3__15dequeINS_8functionIFvvEEENS_9allocatorIS3_EEED2B8ne180100Ev, symObjAddr: 0x7C20, symBinAddr: 0x617B0, symSize: 0x1C0 }
  - { offset: 0x19E7B1, size: 0x8, addend: 0x0, symName: __ZNSt3__15dequeIN6VSTGUI16ModalViewSessionENS_9allocatorIS2_EEED2B8ne180100Ev, symObjAddr: 0x7DE0, symBinAddr: 0x61970, symSize: 0x180 }
  - { offset: 0x1A34FD, size: 0x8, addend: 0x0, symName: __ZNSt3__114__split_bufferIPNS_8functionIFvvEEENS_9allocatorIS4_EEE10push_frontEOS4_, symObjAddr: 0xB8A0, symBinAddr: 0x63EC0, symSize: 0x1C9 }
  - { offset: 0x1A58C0, size: 0x8, addend: 0x0, symName: __ZN6VSTGUI9CGradient6createERKNSt3__18multimapIdNS_6CColorENS1_4lessIdEENS1_9allocatorINS1_4pairIKdS3_EEEEEE, symObjAddr: 0x0, symBinAddr: 0x64090, symSize: 0x90 }
  - { offset: 0x1A9454, size: 0x8, addend: 0x0, symName: __ZN6VSTGUI9CGradient6createERKNSt3__18multimapIdNS_6CColorENS1_4lessIdEENS1_9allocatorINS1_4pairIKdS3_EEEEEE, symObjAddr: 0x0, symBinAddr: 0x64090, symSize: 0x90 }
  - { offset: 0x1A9799, size: 0x8, addend: 0x0, symName: __ZN6VSTGUI9CGradientC1EONSt3__110unique_ptrINS_17IPlatformGradientENS1_14default_deleteIS3_EEEE, symObjAddr: 0x90, symBinAddr: 0x64120, symSize: 0x30 }
  - { offset: 0x1A9F1B, size: 0x8, addend: 0x0, symName: __ZN6VSTGUI9CGradient6createEddRKNS_6CColorES3_, symObjAddr: 0xC0, symBinAddr: 0x64150, symSize: 0x190 }
  - { offset: 0x1AAB23, size: 0x8, addend: 0x0, symName: __ZN6VSTGUI9CGradientC2EONSt3__110unique_ptrINS_17IPlatformGradientENS1_14default_deleteIS3_EEEE, symObjAddr: 0x250, symBinAddr: 0x642E0, symSize: 0x40 }
  - { offset: 0x1AAD57, size: 0x8, addend: 0x0, symName: __ZN6VSTGUI9CGradientD2Ev, symObjAddr: 0x290, symBinAddr: 0x64320, symSize: 0x40 }
  - { offset: 0x1AAE36, size: 0x8, addend: 0x0, symName: __ZN6VSTGUI9CGradientD1Ev, symObjAddr: 0x2D0, symBinAddr: 0x64360, symSize: 0x30 }
  - { offset: 0x1AAF24, size: 0x8, addend: 0x0, symName: __ZN6VSTGUI9CGradientD0Ev, symObjAddr: 0x300, symBinAddr: 0x64390, symSize: 0x40 }
  - { offset: 0x1AB0EC, size: 0x8, addend: 0x0, symName: __ZN6VSTGUI9CGradient12addColorStopEdRKNS_6CColorE, symObjAddr: 0x340, symBinAddr: 0x643D0, symSize: 0x30 }
  - { offset: 0x1AB229, size: 0x8, addend: 0x0, symName: __ZN6VSTGUI9CGradient12addColorStopERKNSt3__14pairIdNS_6CColorEEE, symObjAddr: 0x370, symBinAddr: 0x64400, symSize: 0x20 }
  - { offset: 0x1AB284, size: 0x8, addend: 0x0, symName: __ZNK6VSTGUI9CGradient13getColorStopsEv, symObjAddr: 0x390, symBinAddr: 0x64420, symSize: 0x10 }
  - { offset: 0x1AB2D7, size: 0x8, addend: 0x0, symName: __ZNK6VSTGUI9CGradient19getPlatformGradientEv, symObjAddr: 0x3A0, symBinAddr: 0x64430, symSize: 0x10 }
  - { offset: 0x1AD27B, size: 0x8, addend: 0x0, symName: __ZN6VSTGUI13CGradientViewC2ERKNS_5CRectE, symObjAddr: 0x0, symBinAddr: 0x64440, symSize: 0x80 }
  - { offset: 0x1B3C6F, size: 0x8, addend: 0x0, symName: __ZN6VSTGUI13CGradientViewC2ERKNS_5CRectE, symObjAddr: 0x0, symBinAddr: 0x64440, symSize: 0x80 }
  - { offset: 0x1B3DCE, size: 0x8, addend: 0x0, symName: __ZN6VSTGUI13CGradientViewC1ERKNS_5CRectE, symObjAddr: 0x80, symBinAddr: 0x644C0, symSize: 0x80 }
  - { offset: 0x1B3F1C, size: 0x8, addend: 0x0, symName: __ZN6VSTGUI13CGradientView16attributeChangedEv, symObjAddr: 0x100, symBinAddr: 0x64540, symSize: 0x10 }
  - { offset: 0x1B3F57, size: 0x8, addend: 0x0, symName: __ZN6VSTGUI13CGradientView16setGradientStyleENS0_13GradientStyleE, symObjAddr: 0x110, symBinAddr: 0x64550, symSize: 0x20 }
  - { offset: 0x1B3FD4, size: 0x8, addend: 0x0, symName: __ZN6VSTGUI13CGradientView11setGradientEPNS_9CGradientE, symObjAddr: 0x130, symBinAddr: 0x64570, symSize: 0x50 }
  - { offset: 0x1B40B7, size: 0x8, addend: 0x0, symName: __ZN6VSTGUI13CGradientView13setFrameColorERKNS_6CColorE, symObjAddr: 0x180, symBinAddr: 0x645C0, symSize: 0x50 }
  - { offset: 0x1B4132, size: 0x8, addend: 0x0, symName: __ZN6VSTGUI13CGradientView16setGradientAngleEd, symObjAddr: 0x1D0, symBinAddr: 0x64610, symSize: 0x20 }
  - { offset: 0x1B419B, size: 0x8, addend: 0x0, symName: __ZN6VSTGUI13CGradientView18setRoundRectRadiusEd, symObjAddr: 0x1F0, symBinAddr: 0x64630, symSize: 0x50 }
  - { offset: 0x1B420B, size: 0x8, addend: 0x0, symName: __ZN6VSTGUI13CGradientView13setFrameWidthEd, symObjAddr: 0x240, symBinAddr: 0x64680, symSize: 0x50 }
  - { offset: 0x1B427B, size: 0x8, addend: 0x0, symName: __ZN6VSTGUI13CGradientView18setDrawAntialiasedEb, symObjAddr: 0x290, symBinAddr: 0x646D0, symSize: 0x20 }
  - { offset: 0x1B42E1, size: 0x8, addend: 0x0, symName: __ZN6VSTGUI13CGradientView15setRadialCenterERKNS_6CPointE, symObjAddr: 0x2B0, symBinAddr: 0x646F0, symSize: 0x40 }
  - { offset: 0x1B433E, size: 0x8, addend: 0x0, symName: __ZN6VSTGUI13CGradientView15setRadialRadiusEd, symObjAddr: 0x2F0, symBinAddr: 0x64730, symSize: 0x20 }
  - { offset: 0x1B43A5, size: 0x8, addend: 0x0, symName: __ZN6VSTGUI13CGradientView11setViewSizeERKNS_5CRectEb, symObjAddr: 0x310, symBinAddr: 0x64750, symSize: 0x90 }
  - { offset: 0x1B4536, size: 0x8, addend: 0x0, symName: __ZN6VSTGUI13CGradientView4drawEPNS_12CDrawContextE, symObjAddr: 0x3A0, symBinAddr: 0x647E0, symSize: 0x470 }
  - { offset: 0x1B4979, size: 0x8, addend: 0x0, symName: __ZN6VSTGUI13CGradientViewD1Ev, symObjAddr: 0xA60, symBinAddr: 0x64C50, symSize: 0x60 }
  - { offset: 0x1B4A48, size: 0x8, addend: 0x0, symName: __ZN6VSTGUI13CGradientViewD0Ev, symObjAddr: 0xAC0, symBinAddr: 0x64CB0, symSize: 0x60 }
  - { offset: 0x1B69F4, size: 0x8, addend: 0x0, symName: __ZN6VSTGUI13CGraphicsPath12addRoundRectERKNS_5CRectEd, symObjAddr: 0x0, symBinAddr: 0x64D10, symSize: 0x180 }
  - { offset: 0x1B9E4F, size: 0x8, addend: 0x0, symName: __ZN6VSTGUI13CGraphicsPath12addRoundRectERKNS_5CRectEd, symObjAddr: 0x0, symBinAddr: 0x64D10, symSize: 0x180 }
  - { offset: 0x1BA0AA, size: 0x8, addend: 0x0, symName: __ZN6VSTGUI13CGraphicsPath12beginSubpathERKNS_6CPointE, symObjAddr: 0x320, symBinAddr: 0x65030, symSize: 0x190 }
  - { offset: 0x1BA6C4, size: 0x8, addend: 0x0, symName: __ZN6VSTGUI13CGraphicsPath6addArcERKNS_5CRectEddb, symObjAddr: 0x4B0, symBinAddr: 0x651C0, symSize: 0x1E0 }
  - { offset: 0x1BAD0B, size: 0x8, addend: 0x0, symName: __ZN6VSTGUI13CGraphicsPath12closeSubpathEv, symObjAddr: 0x690, symBinAddr: 0x653A0, symSize: 0x170 }
  - { offset: 0x1BB2FA, size: 0x8, addend: 0x0, symName: __ZN6VSTGUI13CGraphicsPath7addRectERKNS_5CRectE, symObjAddr: 0x180, symBinAddr: 0x64E90, symSize: 0x1A0 }
  - { offset: 0x1BBDAB, size: 0x8, addend: 0x0, symName: __ZNKSt3__16vectorIN6VSTGUI13CGraphicsPath7ElementENS_9allocatorIS3_EEE20__throw_length_errorB8ne180100Ev, symObjAddr: 0x1780, symBinAddr: 0x66410, symSize: 0x10 }
  - { offset: 0x1BBECA, size: 0x8, addend: 0x0, symName: __ZN6VSTGUI13CGraphicsPath7addPathERKS0_PNS_18CGraphicsTransformE, symObjAddr: 0x800, symBinAddr: 0x65510, symSize: 0x380 }
  - { offset: 0x1BC66F, size: 0x8, addend: 0x0, symName: __ZN6VSTGUI13CGraphicsPath5dirtyEv, symObjAddr: 0xB80, symBinAddr: 0x65890, symSize: 0x30 }
  - { offset: 0x1BC70E, size: 0x8, addend: 0x0, symName: __ZN6VSTGUI13CGraphicsPath10addEllipseERKNS_5CRectE, symObjAddr: 0xBB0, symBinAddr: 0x658C0, symSize: 0x1A0 }
  - { offset: 0x1BCD28, size: 0x8, addend: 0x0, symName: __ZN6VSTGUI13CGraphicsPath7addLineERKNS_6CPointE, symObjAddr: 0xD50, symBinAddr: 0x65A60, symSize: 0x190 }
  - { offset: 0x1BD342, size: 0x8, addend: 0x0, symName: __ZN6VSTGUI13CGraphicsPath14addBezierCurveERKNS_6CPointES3_S3_, symObjAddr: 0xEE0, symBinAddr: 0x65BF0, symSize: 0x1B0 }
  - { offset: 0x1BDCCB, size: 0x8, addend: 0x0, symName: __ZN6VSTGUI13CGraphicsPathC2ERKNSt3__110shared_ptrINS_28IPlatformGraphicsPathFactoryEEEONS1_10unique_ptrINS_21IPlatformGraphicsPathENS1_14default_deleteIS8_EEEE, symObjAddr: 0x1090, symBinAddr: 0x65DA0, symSize: 0x70 }
  - { offset: 0x1BDFE4, size: 0x8, addend: 0x0, symName: __ZN6VSTGUI13CGraphicsPathC1ERKNSt3__110shared_ptrINS_28IPlatformGraphicsPathFactoryEEEONS1_10unique_ptrINS_21IPlatformGraphicsPathENS1_14default_deleteIS8_EEEE, symObjAddr: 0x1100, symBinAddr: 0x65E10, symSize: 0x50 }
  - { offset: 0x1BE3FC, size: 0x8, addend: 0x0, symName: __ZN6VSTGUI13CGraphicsPathD2Ev, symObjAddr: 0x1150, symBinAddr: 0x65E60, symSize: 0x90 }
  - { offset: 0x1BE67F, size: 0x8, addend: 0x0, symName: __ZN6VSTGUI13CGraphicsPathD1Ev, symObjAddr: 0x11E0, symBinAddr: 0x65EF0, symSize: 0x80 }
  - { offset: 0x1BE90F, size: 0x8, addend: 0x0, symName: __ZN6VSTGUI13CGraphicsPathD0Ev, symObjAddr: 0x1260, symBinAddr: 0x65F70, symSize: 0x80 }
  - { offset: 0x1BEBAC, size: 0x8, addend: 0x0, symName: __ZN6VSTGUI13CGraphicsPath14createGradientEddRKNS_6CColorES3_, symObjAddr: 0x12E0, symBinAddr: 0x65FF0, symSize: 0x10 }
  - { offset: 0x1BECFA, size: 0x8, addend: 0x0, symName: __ZN6VSTGUI13CGraphicsPath24makePlatformGraphicsPathENS_28PlatformGraphicsPathFillModeE, symObjAddr: 0x12F0, symBinAddr: 0x66000, symSize: 0x1D0 }
  - { offset: 0x1BF24F, size: 0x8, addend: 0x0, symName: __ZN6VSTGUI13CGraphicsPath31ensurePlatformGraphicsPathValidENS_28PlatformGraphicsPathFillModeE, symObjAddr: 0x14C0, symBinAddr: 0x661D0, symSize: 0x50 }
  - { offset: 0x1BF359, size: 0x8, addend: 0x0, symName: __ZN6VSTGUI13CGraphicsPath7hitTestERKNS_6CPointEbPNS_18CGraphicsTransformE, symObjAddr: 0x1510, symBinAddr: 0x66220, symSize: 0x80 }
  - { offset: 0x1BF4C3, size: 0x8, addend: 0x0, symName: __ZN6VSTGUI13CGraphicsPath18getCurrentPositionEv, symObjAddr: 0x1590, symBinAddr: 0x662A0, symSize: 0x90 }
  - { offset: 0x1BF585, size: 0x8, addend: 0x0, symName: __ZN6VSTGUI13CGraphicsPath14getBoundingBoxEv, symObjAddr: 0x1620, symBinAddr: 0x66330, symSize: 0x90 }
  - { offset: 0x1BF708, size: 0x8, addend: 0x0, symName: __ZN6VSTGUI13CGraphicsPath15getPlatformPathENS_28PlatformGraphicsPathFillModeE, symObjAddr: 0x16B0, symBinAddr: 0x663C0, symSize: 0x50 }
  - { offset: 0x1C174C, size: 0x8, addend: 0x0, symName: __ZN6VSTGUI21CLayeredViewContainerC2ERKNS_5CRectE, symObjAddr: 0x0, symBinAddr: 0x66420, symSize: 0x80 }
  - { offset: 0x1CC11A, size: 0x8, addend: 0x0, symName: __ZN6VSTGUI21CLayeredViewContainerC2ERKNS_5CRectE, symObjAddr: 0x0, symBinAddr: 0x66420, symSize: 0x80 }
  - { offset: 0x1CC1DD, size: 0x8, addend: 0x0, symName: __ZN6VSTGUI21CLayeredViewContainerC1ERKNS_5CRectE, symObjAddr: 0x80, symBinAddr: 0x664A0, symSize: 0x70 }
  - { offset: 0x1CC24E, size: 0x8, addend: 0x0, symName: __ZN6VSTGUI21CLayeredViewContainer9setZIndexEj, symObjAddr: 0xF0, symBinAddr: 0x66510, symSize: 0x30 }
  - { offset: 0x1CC42E, size: 0x8, addend: 0x0, symName: __ZN6VSTGUI21CLayeredViewContainer15updateLayerSizeEv, symObjAddr: 0x120, symBinAddr: 0x66540, symSize: 0x390 }
  - { offset: 0x1CC7EC, size: 0x8, addend: 0x0, symName: __ZN6VSTGUI21CLayeredViewContainer7removedEPNS_5CViewE, symObjAddr: 0x4B0, symBinAddr: 0x668D0, symSize: 0xB0 }
  - { offset: 0x1CC8A3, size: 0x8, addend: 0x0, symName: __ZN6VSTGUI21CLayeredViewContainer17registerListenersEb, symObjAddr: 0x560, symBinAddr: 0x66980, symSize: 0x80 }
  - { offset: 0x1CC992, size: 0x8, addend: 0x0, symName: __ZN6VSTGUI21CLayeredViewContainer8attachedEPNS_5CViewE, symObjAddr: 0x5E0, symBinAddr: 0x66A00, symSize: 0x210 }
  - { offset: 0x1CCB7D, size: 0x8, addend: 0x0, symName: __ZN6VSTGUI21CLayeredViewContainer29viewContainerTransformChangedEPNS_14CViewContainerE, symObjAddr: 0x7F0, symBinAddr: 0x66C10, symSize: 0x10 }
  - { offset: 0x1CCBDB, size: 0x8, addend: 0x0, symName: __ZThn40_N6VSTGUI21CLayeredViewContainer29viewContainerTransformChangedEPNS_14CViewContainerE, symObjAddr: 0x800, symBinAddr: 0x66C20, symSize: 0x10 }
  - { offset: 0x1CCC32, size: 0x8, addend: 0x0, symName: __ZN6VSTGUI21CLayeredViewContainer7invalidEv, symObjAddr: 0x810, symBinAddr: 0x66C30, symSize: 0x50 }
  - { offset: 0x1CCCBD, size: 0x8, addend: 0x0, symName: __ZN6VSTGUI21CLayeredViewContainer11invalidRectERKNS_5CRectE, symObjAddr: 0x860, symBinAddr: 0x66C80, symSize: 0xC0 }
  - { offset: 0x1CCDEC, size: 0x8, addend: 0x0, symName: __ZNK6VSTGUI21CLayeredViewContainer16getDrawTransformEv, symObjAddr: 0x920, symBinAddr: 0x66D40, symSize: 0x390 }
  - { offset: 0x1CDB54, size: 0x8, addend: 0x0, symName: __ZN6VSTGUI21CLayeredViewContainer17parentSizeChangedEv, symObjAddr: 0xCB0, symBinAddr: 0x670D0, symSize: 0x40 }
  - { offset: 0x1CDB9D, size: 0x8, addend: 0x0, symName: __ZN6VSTGUI21CLayeredViewContainer11setViewSizeERKNS_5CRectEb, symObjAddr: 0xCF0, symBinAddr: 0x67110, symSize: 0x20 }
  - { offset: 0x1CDBF2, size: 0x8, addend: 0x0, symName: __ZN6VSTGUI21CLayeredViewContainer13setAlphaValueEf, symObjAddr: 0xD10, symBinAddr: 0x67130, symSize: 0x50 }
  - { offset: 0x1CDC4A, size: 0x8, addend: 0x0, symName: __ZN6VSTGUI21CLayeredViewContainer8drawRectEPNS_12CDrawContextERKNS_5CRectE, symObjAddr: 0xD60, symBinAddr: 0x67180, symSize: 0x80 }
  - { offset: 0x1CDE0B, size: 0x8, addend: 0x0, symName: __ZN6VSTGUI21CLayeredViewContainer18drawViewLayerRectsERKNSt3__110shared_ptrINS_30IPlatformGraphicsDeviceContextEEEdRKNS1_6vectorINS_5CRectENS1_9allocatorIS8_EEEE, symObjAddr: 0xDE0, symBinAddr: 0x67200, symSize: 0x410 }
  - { offset: 0x1CE2B7, size: 0x8, addend: 0x0, symName: __ZThn32_N6VSTGUI21CLayeredViewContainer18drawViewLayerRectsERKNSt3__110shared_ptrINS_30IPlatformGraphicsDeviceContextEEEdRKNS1_6vectorINS_5CRectENS1_9allocatorIS8_EEEE, symObjAddr: 0x1230, symBinAddr: 0x67610, symSize: 0x10 }
  - { offset: 0x1CE2F1, size: 0x8, addend: 0x0, symName: __ZN6VSTGUI21CLayeredViewContainer20onScaleFactorChangedEPNS_6CFrameEd, symObjAddr: 0x12A0, symBinAddr: 0x67620, symSize: 0x20 }
  - { offset: 0x1CE379, size: 0x8, addend: 0x0, symName: __ZThn48_N6VSTGUI21CLayeredViewContainer20onScaleFactorChangedEPNS_6CFrameEd, symObjAddr: 0x12C0, symBinAddr: 0x67640, symSize: 0x20 }
  - { offset: 0x1CE407, size: 0x8, addend: 0x0, symName: __ZN6VSTGUI21CLayeredViewContainerD1Ev, symObjAddr: 0x1590, symBinAddr: 0x67660, symSize: 0x60 }
  - { offset: 0x1CE49A, size: 0x8, addend: 0x0, symName: __ZN6VSTGUI21CLayeredViewContainerD0Ev, symObjAddr: 0x15F0, symBinAddr: 0x676C0, symSize: 0x70 }
  - { offset: 0x1CE525, size: 0x8, addend: 0x0, symName: __ZThn32_N6VSTGUI21CLayeredViewContainerD1Ev, symObjAddr: 0x1660, symBinAddr: 0x67730, symSize: 0x70 }
  - { offset: 0x1CE5BD, size: 0x8, addend: 0x0, symName: __ZThn32_N6VSTGUI21CLayeredViewContainerD0Ev, symObjAddr: 0x16D0, symBinAddr: 0x677A0, symSize: 0x70 }
  - { offset: 0x1CE653, size: 0x8, addend: 0x0, symName: __ZThn40_N6VSTGUI21CLayeredViewContainerD1Ev, symObjAddr: 0x1740, symBinAddr: 0x67810, symSize: 0x70 }
  - { offset: 0x1CE6D2, size: 0x8, addend: 0x0, symName: __ZThn40_N6VSTGUI21CLayeredViewContainerD0Ev, symObjAddr: 0x17B0, symBinAddr: 0x67880, symSize: 0x70 }
  - { offset: 0x1CE768, size: 0x8, addend: 0x0, symName: __ZN6VSTGUI28ViewContainerListenerAdapter22viewContainerViewAddedEPNS_14CViewContainerEPNS_5CViewE, symObjAddr: 0x1820, symBinAddr: 0x678F0, symSize: 0x10 }
  - { offset: 0x1CE7A9, size: 0x8, addend: 0x0, symName: __ZN6VSTGUI28ViewContainerListenerAdapter24viewContainerViewRemovedEPNS_14CViewContainerEPNS_5CViewE, symObjAddr: 0x1830, symBinAddr: 0x67900, symSize: 0x10 }
  - { offset: 0x1CE7EA, size: 0x8, addend: 0x0, symName: __ZN6VSTGUI28ViewContainerListenerAdapter30viewContainerViewZOrderChangedEPNS_14CViewContainerEPNS_5CViewE, symObjAddr: 0x1840, symBinAddr: 0x67910, symSize: 0x10 }
  - { offset: 0x1CE82B, size: 0x8, addend: 0x0, symName: __ZThn48_N6VSTGUI21CLayeredViewContainerD1Ev, symObjAddr: 0x1850, symBinAddr: 0x67920, symSize: 0x70 }
  - { offset: 0x1CE8AA, size: 0x8, addend: 0x0, symName: __ZThn48_N6VSTGUI21CLayeredViewContainerD0Ev, symObjAddr: 0x18C0, symBinAddr: 0x67990, symSize: 0x70 }
  - { offset: 0x1CE940, size: 0x8, addend: 0x0, symName: __ZN6VSTGUI26IPlatformViewLayerDelegateD1Ev, symObjAddr: 0x1930, symBinAddr: 0x178D50, symSize: 0x10 }
  - { offset: 0x1CE969, size: 0x8, addend: 0x0, symName: __ZN6VSTGUI26IPlatformViewLayerDelegateD0Ev, symObjAddr: 0x1940, symBinAddr: 0x178D60, symSize: 0x10 }
  - { offset: 0x1CE992, size: 0x8, addend: 0x0, symName: __ZN6VSTGUI28ViewContainerListenerAdapterD1Ev, symObjAddr: 0x1950, symBinAddr: 0x67A00, symSize: 0x10 }
  - { offset: 0x1CE9BD, size: 0x8, addend: 0x0, symName: __ZN6VSTGUI28ViewContainerListenerAdapterD0Ev, symObjAddr: 0x1960, symBinAddr: 0x67A10, symSize: 0x10 }
  - { offset: 0x1CE9E8, size: 0x8, addend: 0x0, symName: __ZN6VSTGUI28ViewContainerListenerAdapter29viewContainerTransformChangedEPNS_14CViewContainerE, symObjAddr: 0x1970, symBinAddr: 0x67A20, symSize: 0x10 }
  - { offset: 0x1CEA1B, size: 0x8, addend: 0x0, symName: __ZN6VSTGUI27IScaleFactorChangedListenerD1Ev, symObjAddr: 0x1980, symBinAddr: 0x178D70, symSize: 0x10 }
  - { offset: 0x1CEA44, size: 0x8, addend: 0x0, symName: __ZN6VSTGUI27IScaleFactorChangedListenerD0Ev, symObjAddr: 0x1990, symBinAddr: 0x178D80, symSize: 0x10 }
  - { offset: 0x1D097F, size: 0x8, addend: 0x0, symName: __ZN6VSTGUI10kLineSolidE, symObjAddr: 0x23E08, symBinAddr: 0x1F76B0, symSize: 0x0 }
  - { offset: 0x1D0C03, size: 0x8, addend: 0x0, symName: __ZN6VSTGUI14kLineOnOffDashE, symObjAddr: 0x23E30, symBinAddr: 0x1F76D8, symSize: 0x0 }
  - { offset: 0x1D0C1C, size: 0x8, addend: 0x0, symName: __ZN6VSTGUIL23kDefaultOnOffDashLengthE, symObjAddr: 0xAB0, symBinAddr: 0x17CEB0, symSize: 0x0 }
  - { offset: 0x1D42A9, size: 0x8, addend: 0x0, symName: __ZN6VSTGUI10CLineStyleC2ENS0_7LineCapENS0_8LineJoinEdjPKd, symObjAddr: 0x0, symBinAddr: 0x67A30, symSize: 0x2A0 }
  - { offset: 0x1D49B4, size: 0x8, addend: 0x0, symName: __ZNKSt3__16vectorIdNS_9allocatorIdEEE20__throw_length_errorB8ne180100Ev, symObjAddr: 0x7A0, symBinAddr: 0x68140, symSize: 0x10 }
  - { offset: 0x1D49E8, size: 0x8, addend: 0x0, symName: __ZN6VSTGUI10CLineStyleC1ENS0_7LineCapENS0_8LineJoinEdjPKd, symObjAddr: 0x2A0, symBinAddr: 0x67CD0, symSize: 0x10 }
  - { offset: 0x1D4C6F, size: 0x8, addend: 0x0, symName: __ZN6VSTGUI10CLineStyleC2ENS0_7LineCapENS0_8LineJoinEdRKNSt3__16vectorIdNS3_9allocatorIdEEEE, symObjAddr: 0x2B0, symBinAddr: 0x67CE0, symSize: 0xB0 }
  - { offset: 0x1D512E, size: 0x8, addend: 0x0, symName: __ZN6VSTGUI10CLineStyleC1ENS0_7LineCapENS0_8LineJoinEdRKNSt3__16vectorIdNS3_9allocatorIdEEEE, symObjAddr: 0x360, symBinAddr: 0x67D90, symSize: 0xB0 }
  - { offset: 0x1D5682, size: 0x8, addend: 0x0, symName: __ZN6VSTGUI10CLineStyleC2ERKS0_, symObjAddr: 0x410, symBinAddr: 0x67E40, symSize: 0x80 }
  - { offset: 0x1D5896, size: 0x8, addend: 0x0, symName: __ZNSt3__16vectorIdNS_9allocatorIdEEE18__assign_with_sizeB8ne180100IPdS5_EEvT_T0_l, symObjAddr: 0x870, symBinAddr: 0x68150, symSize: 0x143 }
  - { offset: 0x1D62CC, size: 0x8, addend: 0x0, symName: __ZN6VSTGUI10CLineStyleaSERKS0_, symObjAddr: 0x490, symBinAddr: 0x67EC0, symSize: 0x50 }
  - { offset: 0x1D6424, size: 0x8, addend: 0x0, symName: __ZN6VSTGUI10CLineStyleC1ERKS0_, symObjAddr: 0x4E0, symBinAddr: 0x67F10, symSize: 0x80 }
  - { offset: 0x1D66B6, size: 0x8, addend: 0x0, symName: __ZN6VSTGUI10CLineStyleC2ENS0_7LineCapENS0_8LineJoinEdONSt3__16vectorIdNS3_9allocatorIdEEEE, symObjAddr: 0x560, symBinAddr: 0x67F90, symSize: 0x40 }
  - { offset: 0x1D67F6, size: 0x8, addend: 0x0, symName: __ZN6VSTGUI10CLineStyleC2EOS0_, symObjAddr: 0x5E0, symBinAddr: 0x67FD0, symSize: 0x50 }
  - { offset: 0x1D68A6, size: 0x8, addend: 0x0, symName: __ZN6VSTGUI10CLineStyleaSEOS0_, symObjAddr: 0x630, symBinAddr: 0x68020, symSize: 0x80 }
  - { offset: 0x1D6AAC, size: 0x8, addend: 0x0, symName: __ZNK6VSTGUI10CLineStyleeqERKS0_, symObjAddr: 0x700, symBinAddr: 0x680A0, symSize: 0x80 }
  - { offset: 0x1D6C1E, size: 0x8, addend: 0x0, symName: __ZN6VSTGUI10CLineStyleD1Ev, symObjAddr: 0x780, symBinAddr: 0x68120, symSize: 0x20 }
  - { offset: 0x1DC4AF, size: 0x8, addend: 0x0, symName: __ZN6VSTGUI21renderBitmapOffscreenERKNS_6CPointEdNSt3__18functionIFvRNS_12CDrawContextEEEE, symObjAddr: 0x750, symBinAddr: 0x68A30, symSize: 0xB0 }
  - { offset: 0x1E198E, size: 0x8, addend: 0x0, symName: __ZN6VSTGUI17COffscreenContextC2EPNS_7CBitmapE, symObjAddr: 0x0, symBinAddr: 0x68320, symSize: 0x90 }
  - { offset: 0x1E1AD4, size: 0x8, addend: 0x0, symName: __ZN6VSTGUI17COffscreenContextC1EPNS_7CBitmapE, symObjAddr: 0x90, symBinAddr: 0x683B0, symSize: 0x90 }
  - { offset: 0x1E1C3F, size: 0x8, addend: 0x0, symName: __ZN6VSTGUI17COffscreenContextC2ERKNS_5CRectE, symObjAddr: 0x120, symBinAddr: 0x68440, symSize: 0x40 }
  - { offset: 0x1E1CC7, size: 0x8, addend: 0x0, symName: __ZN6VSTGUI17COffscreenContextC1ERKNS_5CRectE, symObjAddr: 0x160, symBinAddr: 0x68480, symSize: 0x40 }
  - { offset: 0x1E1E4C, size: 0x8, addend: 0x0, symName: __ZN6VSTGUI17COffscreenContextC2ENSt3__110shared_ptrINS_30IPlatformGraphicsDeviceContextEEERKNS_5CRectERKNS_13SharedPointerINS_15IPlatformBitmapEEE, symObjAddr: 0x1A0, symBinAddr: 0x684C0, symSize: 0x100 }
  - { offset: 0x1E2107, size: 0x8, addend: 0x0, symName: __ZN6VSTGUI17COffscreenContextC1ENSt3__110shared_ptrINS_30IPlatformGraphicsDeviceContextEEERKNS_5CRectERKNS_13SharedPointerINS_15IPlatformBitmapEEE, symObjAddr: 0x2E0, symBinAddr: 0x685C0, symSize: 0xF0 }
  - { offset: 0x1E2385, size: 0x8, addend: 0x0, symName: __ZN6VSTGUI17COffscreenContext8copyFromEPNS_12CDrawContextENS_5CRectENS_6CPointE, symObjAddr: 0x3D0, symBinAddr: 0x686B0, symSize: 0x40 }
  - { offset: 0x1E2474, size: 0x8, addend: 0x0, symName: __ZN6VSTGUI17COffscreenContext6createEPNS_6CFrameEddd, symObjAddr: 0x410, symBinAddr: 0x686F0, symSize: 0x30 }
  - { offset: 0x1E2541, size: 0x8, addend: 0x0, symName: __ZN6VSTGUI17COffscreenContext6createERKNS_6CPointEd, symObjAddr: 0x440, symBinAddr: 0x68720, symSize: 0x290 }
  - { offset: 0x1E2F2E, size: 0x8, addend: 0x0, symName: __ZNSt3__110shared_ptrIN6VSTGUI23IPlatformGraphicsDeviceEED1B8ne180100Ev, symObjAddr: 0x6D0, symBinAddr: 0x689B0, symSize: 0x40 }
  - { offset: 0x1E2FC7, size: 0x8, addend: 0x0, symName: __ZNK6VSTGUI17COffscreenContext8getWidthEv, symObjAddr: 0x710, symBinAddr: 0x689F0, symSize: 0x20 }
  - { offset: 0x1E300E, size: 0x8, addend: 0x0, symName: __ZNK6VSTGUI17COffscreenContext9getHeightEv, symObjAddr: 0x730, symBinAddr: 0x68A10, symSize: 0x20 }
  - { offset: 0x1E31D3, size: 0x8, addend: 0x0, symName: __ZN6VSTGUI17COffscreenContextD1Ev, symObjAddr: 0x880, symBinAddr: 0x68AE0, symSize: 0x40 }
  - { offset: 0x1E3268, size: 0x8, addend: 0x0, symName: __ZN6VSTGUI17COffscreenContextD0Ev, symObjAddr: 0x8C0, symBinAddr: 0x68B20, symSize: 0x50 }
  - { offset: 0x1ED9DC, size: 0x8, addend: 0x0, symName: __ZN6VSTGUI14CAutoAnimation10startTimerEv, symObjAddr: 0xBD0, symBinAddr: 0x69740, symSize: 0x130 }
  - { offset: 0x1EDFA2, size: 0x8, addend: 0x0, symName: __ZN6VSTGUI14CAutoAnimationC2ERKNS_5CRectEPNS_16IControlListenerEiPNS_7CBitmapE, symObjAddr: 0x0, symBinAddr: 0x68B70, symSize: 0x130 }
  - { offset: 0x1EE0D9, size: 0x8, addend: 0x0, symName: __ZN6VSTGUI13SharedPointerINS_12CVSTGUITimerEED1Ev, symObjAddr: 0x130, symBinAddr: 0x68CA0, symSize: 0x40 }
  - { offset: 0x1EE19C, size: 0x8, addend: 0x0, symName: __ZN6VSTGUI14CAutoAnimationC1ERKNS_5CRectEPNS_16IControlListenerEiPNS_7CBitmapE, symObjAddr: 0x170, symBinAddr: 0x68CE0, symSize: 0x120 }
  - { offset: 0x1EE2A8, size: 0x8, addend: 0x0, symName: __ZN6VSTGUI14CAutoAnimationC2ERKNS_5CRectEPNS_16IControlListenerEiPNS_7CBitmapERKNS_6CPointE, symObjAddr: 0x290, symBinAddr: 0x68E00, symSize: 0x140 }
  - { offset: 0x1EE3EF, size: 0x8, addend: 0x0, symName: __ZN6VSTGUI14CAutoAnimationC1ERKNS_5CRectEPNS_16IControlListenerEiPNS_7CBitmapERKNS_6CPointE, symObjAddr: 0x3D0, symBinAddr: 0x68F40, symSize: 0x130 }
  - { offset: 0x1EE544, size: 0x8, addend: 0x0, symName: __ZN6VSTGUI14CAutoAnimationC2ERKNS_5CRectEPNS_16IControlListenerEiidPNS_7CBitmapERKNS_6CPointE, symObjAddr: 0x500, symBinAddr: 0x69070, symSize: 0x160 }
  - { offset: 0x1EE720, size: 0x8, addend: 0x0, symName: __ZN6VSTGUI14CAutoAnimationC1ERKNS_5CRectEPNS_16IControlListenerEiidPNS_7CBitmapERKNS_6CPointE, symObjAddr: 0x660, symBinAddr: 0x691D0, symSize: 0x160 }
  - { offset: 0x1EE917, size: 0x8, addend: 0x0, symName: __ZN6VSTGUI14CAutoAnimation15setBitmapOffsetERKNS_6CPointE, symObjAddr: 0x7C0, symBinAddr: 0x69330, symSize: 0x20 }
  - { offset: 0x1EE960, size: 0x8, addend: 0x0, symName: __ZNK6VSTGUI14CAutoAnimation15getBitmapOffsetEv, symObjAddr: 0x7E0, symBinAddr: 0x69350, symSize: 0x10 }
  - { offset: 0x1EE987, size: 0x8, addend: 0x0, symName: __ZN6VSTGUI14CAutoAnimationC2ERKS0_, symObjAddr: 0x7F0, symBinAddr: 0x69360, symSize: 0xF0 }
  - { offset: 0x1EEA7C, size: 0x8, addend: 0x0, symName: __ZN6VSTGUI14CAutoAnimationC1ERKS0_, symObjAddr: 0x8E0, symBinAddr: 0x69450, symSize: 0xF0 }
  - { offset: 0x1EEBE5, size: 0x8, addend: 0x0, symName: __ZNK6VSTGUI14CAutoAnimation14isWindowOpenedEv, symObjAddr: 0x9D0, symBinAddr: 0x69540, symSize: 0x10 }
  - { offset: 0x1EEC7D, size: 0x8, addend: 0x0, symName: __ZN6VSTGUI14CAutoAnimation4drawEPNS_12CDrawContextE, symObjAddr: 0x9E0, symBinAddr: 0x69550, symSize: 0x150 }
  - { offset: 0x1EEE0D, size: 0x8, addend: 0x0, symName: __ZN6VSTGUI14CAutoAnimation11onMouseDownERNS_6CPointERKNS_12CButtonStateE, symObjAddr: 0xB30, symBinAddr: 0x696A0, symSize: 0x60 }
  - { offset: 0x1EEE9C, size: 0x8, addend: 0x0, symName: __ZN6VSTGUI14CAutoAnimation8attachedEPNS_5CViewE, symObjAddr: 0xB90, symBinAddr: 0x69700, symSize: 0x40 }
  - { offset: 0x1EF2D0, size: 0x8, addend: 0x0, symName: __ZN6VSTGUI14CAutoAnimation7removedEPNS_5CViewE, symObjAddr: 0xD00, symBinAddr: 0x69870, symSize: 0x60 }
  - { offset: 0x1EF383, size: 0x8, addend: 0x0, symName: __ZN6VSTGUI14CAutoAnimation10openWindowEv, symObjAddr: 0xD60, symBinAddr: 0x698D0, symSize: 0x30 }
  - { offset: 0x1EF3D6, size: 0x8, addend: 0x0, symName: __ZN6VSTGUI14CAutoAnimation11closeWindowEv, symObjAddr: 0xD90, symBinAddr: 0x69900, symSize: 0x50 }
  - { offset: 0x1EF48A, size: 0x8, addend: 0x0, symName: __ZN6VSTGUI14CAutoAnimation26updateMinMaxFromBackgroundEv, symObjAddr: 0xDE0, symBinAddr: 0x69950, symSize: 0xA0 }
  - { offset: 0x1EF571, size: 0x8, addend: 0x0, symName: __ZN6VSTGUI14CAutoAnimation13setBackgroundEPNS_7CBitmapE, symObjAddr: 0xE80, symBinAddr: 0x699F0, symSize: 0xB0 }
  - { offset: 0x1EF64C, size: 0x8, addend: 0x0, symName: __ZN6VSTGUI14CAutoAnimation10nextPixmapEv, symObjAddr: 0xF30, symBinAddr: 0x69AA0, symSize: 0xC0 }
  - { offset: 0x1EF6D2, size: 0x8, addend: 0x0, symName: __ZN6VSTGUI14CAutoAnimation14previousPixmapEv, symObjAddr: 0xFF0, symBinAddr: 0x69B60, symSize: 0xD0 }
  - { offset: 0x1EF75B, size: 0x8, addend: 0x0, symName: __ZN6VSTGUI14CAutoAnimation16setAnimationTimeEj, symObjAddr: 0x10C0, symBinAddr: 0x69C30, symSize: 0x20 }
  - { offset: 0x1EF7A0, size: 0x8, addend: 0x0, symName: __ZNK6VSTGUI14CAutoAnimation16getAnimationTimeEv, symObjAddr: 0x10E0, symBinAddr: 0x69C50, symSize: 0x10 }
  - { offset: 0x1EF7C8, size: 0x8, addend: 0x0, symName: __ZNK6VSTGUI8CControl8getValueEv, symObjAddr: 0x1280, symBinAddr: 0x69C60, symSize: 0x10 }
  - { offset: 0x1EF7ED, size: 0x8, addend: 0x0, symName: __ZNK6VSTGUI8CControl6getTagEv, symObjAddr: 0x1290, symBinAddr: 0x69C70, symSize: 0x10 }
  - { offset: 0x1EF812, size: 0x8, addend: 0x0, symName: __ZNK6VSTGUI8CControl11getListenerEv, symObjAddr: 0x12A0, symBinAddr: 0x69C80, symSize: 0x10 }
  - { offset: 0x1EF837, size: 0x8, addend: 0x0, symName: __ZN6VSTGUI8CControl11setListenerEPNS_16IControlListenerE, symObjAddr: 0x12B0, symBinAddr: 0x69C90, symSize: 0x10 }
  - { offset: 0x1EF8AB, size: 0x8, addend: 0x0, symName: __ZN6VSTGUI14CAutoAnimationD1Ev, symObjAddr: 0x1380, symBinAddr: 0x69CA0, symSize: 0x70 }
  - { offset: 0x1EF974, size: 0x8, addend: 0x0, symName: __ZN6VSTGUI14CAutoAnimationD0Ev, symObjAddr: 0x13F0, symBinAddr: 0x69D10, symSize: 0x70 }
  - { offset: 0x1EFA35, size: 0x8, addend: 0x0, symName: __ZNK6VSTGUI14CAutoAnimation7newCopyEv, symObjAddr: 0x1460, symBinAddr: 0x69D80, symSize: 0x40 }
  - { offset: 0x1EFA6F, size: 0x8, addend: 0x0, symName: __ZN6VSTGUI14CAutoAnimation16setNumSubPixmapsEi, symObjAddr: 0x14A0, symBinAddr: 0x69DC0, symSize: 0x10 }
  - { offset: 0x1EFAD0, size: 0x8, addend: 0x0, symName: __ZThn24_N6VSTGUI14CAutoAnimationD1Ev, symObjAddr: 0x14B0, symBinAddr: 0x69DD0, symSize: 0x70 }
  - { offset: 0x1EFB9E, size: 0x8, addend: 0x0, symName: __ZThn24_N6VSTGUI14CAutoAnimationD0Ev, symObjAddr: 0x1520, symBinAddr: 0x69E40, symSize: 0x80 }
  - { offset: 0x1EFC6A, size: 0x8, addend: 0x0, symName: __ZThn64_N6VSTGUI14CAutoAnimationD1Ev, symObjAddr: 0x15A0, symBinAddr: 0x69EC0, symSize: 0x70 }
  - { offset: 0x1EFD1F, size: 0x8, addend: 0x0, symName: __ZThn64_N6VSTGUI14CAutoAnimationD0Ev, symObjAddr: 0x1610, symBinAddr: 0x69F30, symSize: 0x80 }
  - { offset: 0x1EFDEB, size: 0x8, addend: 0x0, symName: __ZN6VSTGUI19IMultiBitmapControl19setHeightOfOneImageERKd, symObjAddr: 0x1690, symBinAddr: 0x69FB0, symSize: 0x10 }
  - { offset: 0x1EFE1E, size: 0x8, addend: 0x0, symName: __ZNK6VSTGUI19IMultiBitmapControl19getHeightOfOneImageEv, symObjAddr: 0x16A0, symBinAddr: 0x69FC0, symSize: 0x10 }
  - { offset: 0x1EFE43, size: 0x8, addend: 0x0, symName: __ZThn64_N6VSTGUI14CAutoAnimation16setNumSubPixmapsEi, symObjAddr: 0x16B0, symBinAddr: 0x69FD0, symSize: 0x20 }
  - { offset: 0x1EFEAF, size: 0x8, addend: 0x0, symName: __ZNK6VSTGUI19IMultiBitmapControl16getNumSubPixmapsEv, symObjAddr: 0x16D0, symBinAddr: 0x69FF0, symSize: 0x10 }
  - { offset: 0x1EFED4, size: 0x8, addend: 0x0, symName: '__ZNSt3__110__function6__funcIZN6VSTGUI14CAutoAnimation10startTimerEvE3$_0NS_9allocatorIS4_EEFvPNS2_12CVSTGUITimerEEED1Ev', symObjAddr: 0x16F0, symBinAddr: 0x6A000, symSize: 0x10 }
  - { offset: 0x1EFEFC, size: 0x8, addend: 0x0, symName: '__ZNSt3__110__function6__funcIZN6VSTGUI14CAutoAnimation10startTimerEvE3$_0NS_9allocatorIS4_EEFvPNS2_12CVSTGUITimerEEED0Ev', symObjAddr: 0x1700, symBinAddr: 0x6A010, symSize: 0x10 }
  - { offset: 0x1F00FC, size: 0x8, addend: 0x0, symName: '__ZNKSt3__110__function6__funcIZN6VSTGUI14CAutoAnimation10startTimerEvE3$_0NS_9allocatorIS4_EEFvPNS2_12CVSTGUITimerEEE7__cloneEv', symObjAddr: 0x1710, symBinAddr: 0x6A020, symSize: 0x30 }
  - { offset: 0x1F03E1, size: 0x8, addend: 0x0, symName: '__ZNKSt3__110__function6__funcIZN6VSTGUI14CAutoAnimation10startTimerEvE3$_0NS_9allocatorIS4_EEFvPNS2_12CVSTGUITimerEEE7__cloneEPNS0_6__baseIS9_EE', symObjAddr: 0x1740, symBinAddr: 0x6A050, symSize: 0x20 }
  - { offset: 0x1F04EB, size: 0x8, addend: 0x0, symName: '__ZNSt3__110__function6__funcIZN6VSTGUI14CAutoAnimation10startTimerEvE3$_0NS_9allocatorIS4_EEFvPNS2_12CVSTGUITimerEEE7destroyEv', symObjAddr: 0x1760, symBinAddr: 0x6A070, symSize: 0x10 }
  - { offset: 0x1F0539, size: 0x8, addend: 0x0, symName: '__ZNSt3__110__function6__funcIZN6VSTGUI14CAutoAnimation10startTimerEvE3$_0NS_9allocatorIS4_EEFvPNS2_12CVSTGUITimerEEE18destroy_deallocateEv', symObjAddr: 0x1770, symBinAddr: 0x6A080, symSize: 0x10 }
  - { offset: 0x1F068E, size: 0x8, addend: 0x0, symName: '__ZNSt3__110__function6__funcIZN6VSTGUI14CAutoAnimation10startTimerEvE3$_0NS_9allocatorIS4_EEFvPNS2_12CVSTGUITimerEEEclEOS8_', symObjAddr: 0x1780, symBinAddr: 0x6A090, symSize: 0x30 }
  - { offset: 0x1F077D, size: 0x8, addend: 0x0, symName: '__ZNKSt3__110__function6__funcIZN6VSTGUI14CAutoAnimation10startTimerEvE3$_0NS_9allocatorIS4_EEFvPNS2_12CVSTGUITimerEEE6targetERKSt9type_info', symObjAddr: 0x17B0, symBinAddr: 0x6A0C0, symSize: 0x20 }
  - { offset: 0x1F07F1, size: 0x8, addend: 0x0, symName: '__ZNKSt3__110__function6__funcIZN6VSTGUI14CAutoAnimation10startTimerEvE3$_0NS_9allocatorIS4_EEFvPNS2_12CVSTGUITimerEEE11target_typeEv', symObjAddr: 0x17D0, symBinAddr: 0x6A0E0, symSize: 0xD }
  - { offset: 0x1F27A8, size: 0x8, addend: 0x0, symName: __ZN6VSTGUIL12kWhiteCColorE, symObjAddr: 0x6F20, symBinAddr: 0x17D070, symSize: 0x0 }
  - { offset: 0x1F2BA8, size: 0x8, addend: 0x0, symName: __ZN6VSTGUIL12kBlackCColorE, symObjAddr: 0x6F24, symBinAddr: 0x17D074, symSize: 0x0 }
  - { offset: 0x1F2BC1, size: 0x8, addend: 0x0, symName: __ZN6VSTGUIL10kRedCColorE, symObjAddr: 0x6F28, symBinAddr: 0x17D078, symSize: 0x0 }
  - { offset: 0x1FCF95, size: 0x8, addend: 0x0, symName: __ZN6VSTGUI12COnOffButtonC2ERKNS_5CRectEPNS_16IControlListenerEiPNS_7CBitmapEi, symObjAddr: 0x0, symBinAddr: 0x6A0F0, symSize: 0x80 }
  - { offset: 0x1FD051, size: 0x8, addend: 0x0, symName: __ZN6VSTGUI12COnOffButtonC1ERKNS_5CRectEPNS_16IControlListenerEiPNS_7CBitmapEi, symObjAddr: 0x80, symBinAddr: 0x6A170, symSize: 0x80 }
  - { offset: 0x1FD0E5, size: 0x8, addend: 0x0, symName: __ZN6VSTGUI12COnOffButtonC2ERKS0_, symObjAddr: 0x100, symBinAddr: 0x6A1F0, symSize: 0x80 }
  - { offset: 0x1FD145, size: 0x8, addend: 0x0, symName: __ZN6VSTGUI12COnOffButtonC1ERKS0_, symObjAddr: 0x180, symBinAddr: 0x6A270, symSize: 0x70 }
  - { offset: 0x1FD1EF, size: 0x8, addend: 0x0, symName: __ZN6VSTGUI12COnOffButton4drawEPNS_12CDrawContextE, symObjAddr: 0x1F0, symBinAddr: 0x6A2E0, symSize: 0xC0 }
  - { offset: 0x1FD2E7, size: 0x8, addend: 0x0, symName: __ZN6VSTGUI12COnOffButton11onMouseDownERNS_6CPointERKNS_12CButtonStateE, symObjAddr: 0x2B0, symBinAddr: 0x6A3A0, symSize: 0x20 }
  - { offset: 0x1FD336, size: 0x8, addend: 0x0, symName: __ZN6VSTGUI12COnOffButton12onMouseMovedERNS_6CPointERKNS_12CButtonStateE, symObjAddr: 0x2D0, symBinAddr: 0x6A3C0, symSize: 0x10 }
  - { offset: 0x1FD398, size: 0x8, addend: 0x0, symName: __ZN6VSTGUI12COnOffButton9onMouseUpERNS_6CPointERKNS_12CButtonStateE, symObjAddr: 0x2E0, symBinAddr: 0x6A3D0, symSize: 0xB0 }
  - { offset: 0x1FD458, size: 0x8, addend: 0x0, symName: __ZN6VSTGUI12COnOffButton13onMouseCancelEv, symObjAddr: 0x390, symBinAddr: 0x6A480, symSize: 0x30 }
  - { offset: 0x1FD4B7, size: 0x8, addend: 0x0, symName: __ZN6VSTGUI12COnOffButton15onKeyboardEventERNS_13KeyboardEventE, symObjAddr: 0x3C0, symBinAddr: 0x6A4B0, symSize: 0x90 }
  - { offset: 0x1FD5BD, size: 0x8, addend: 0x0, symName: __ZN6VSTGUI12COnOffButton9sizeToFitEv, symObjAddr: 0x450, symBinAddr: 0x6A540, symSize: 0xC0 }
  - { offset: 0x1FD727, size: 0x8, addend: 0x0, symName: __ZN6VSTGUI11CKickButtonC2ERKNS_5CRectEPNS_16IControlListenerEiPNS_7CBitmapE, symObjAddr: 0x510, symBinAddr: 0x6A600, symSize: 0xF0 }
  - { offset: 0x1FD84C, size: 0x8, addend: 0x0, symName: __ZN6VSTGUI11CKickButtonC1ERKNS_5CRectEPNS_16IControlListenerEiPNS_7CBitmapE, symObjAddr: 0x600, symBinAddr: 0x6A6F0, symSize: 0xE0 }
  - { offset: 0x1FD987, size: 0x8, addend: 0x0, symName: __ZN6VSTGUI11CKickButtonC2ERKNS_5CRectEPNS_16IControlListenerEidPNS_7CBitmapERKNS_6CPointE, symObjAddr: 0x6E0, symBinAddr: 0x6A7D0, symSize: 0xD0 }
  - { offset: 0x1FDA8F, size: 0x8, addend: 0x0, symName: __ZN6VSTGUI11CKickButtonC1ERKNS_5CRectEPNS_16IControlListenerEidPNS_7CBitmapERKNS_6CPointE, symObjAddr: 0x7B0, symBinAddr: 0x6A8A0, symSize: 0xC0 }
  - { offset: 0x1FDB8E, size: 0x8, addend: 0x0, symName: __ZN6VSTGUI11CKickButtonC2ERKS0_, symObjAddr: 0x870, symBinAddr: 0x6A960, symSize: 0xD0 }
  - { offset: 0x1FDC92, size: 0x8, addend: 0x0, symName: __ZN6VSTGUI11CKickButtonC1ERKS0_, symObjAddr: 0x940, symBinAddr: 0x6AA30, symSize: 0xB0 }
  - { offset: 0x1FDDD9, size: 0x8, addend: 0x0, symName: __ZN6VSTGUI11CKickButton4drawEPNS_12CDrawContextE, symObjAddr: 0x9F0, symBinAddr: 0x6AAE0, symSize: 0x160 }
  - { offset: 0x1FDFB2, size: 0x8, addend: 0x0, symName: __ZN6VSTGUI11CKickButton11onMouseDownERNS_6CPointERKNS_12CButtonStateE, symObjAddr: 0xB50, symBinAddr: 0x6AC40, symSize: 0x50 }
  - { offset: 0x1FE011, size: 0x8, addend: 0x0, symName: __ZN6VSTGUI11CKickButton13onMouseCancelEv, symObjAddr: 0xBA0, symBinAddr: 0x6AC90, symSize: 0x60 }
  - { offset: 0x1FE094, size: 0x8, addend: 0x0, symName: __ZN6VSTGUI11CKickButton9onMouseUpERNS_6CPointERKNS_12CButtonStateE, symObjAddr: 0xC00, symBinAddr: 0x6ACF0, symSize: 0x80 }
  - { offset: 0x1FE13F, size: 0x8, addend: 0x0, symName: __ZN6VSTGUI11CKickButton12onMouseMovedERNS_6CPointERKNS_12CButtonStateE, symObjAddr: 0xC80, symBinAddr: 0x6AD70, symSize: 0xE0 }
  - { offset: 0x1FE1D5, size: 0x8, addend: 0x0, symName: __ZN6VSTGUI11CKickButton15onKeyboardEventERNS_13KeyboardEventE, symObjAddr: 0xD60, symBinAddr: 0x6AE50, symSize: 0xD0 }
  - { offset: 0x1FE2E5, size: 0x8, addend: 0x0, symName: __ZN6VSTGUI11CKickButton9sizeToFitEv, symObjAddr: 0xE30, symBinAddr: 0x6AF20, symSize: 0xD0 }
  - { offset: 0x1FE664, size: 0x8, addend: 0x0, symName: __ZN6VSTGUI9CCheckBoxC2ERKNS_5CRectEPNS_16IControlListenerEiPKcPNS_7CBitmapEi, symObjAddr: 0xF00, symBinAddr: 0x6AFF0, symSize: 0x1A0 }
  - { offset: 0x1FEAF5, size: 0x8, addend: 0x0, symName: __ZN6VSTGUI9CCheckBoxC1ERKNS_5CRectEPNS_16IControlListenerEiPKcPNS_7CBitmapEi, symObjAddr: 0x10E0, symBinAddr: 0x6B190, symSize: 0x1B0 }
  - { offset: 0x1FEF23, size: 0x8, addend: 0x0, symName: __ZN6VSTGUI9CCheckBoxC2ERKS0_, symObjAddr: 0x1290, symBinAddr: 0x6B340, symSize: 0x150 }
  - { offset: 0x1FF15B, size: 0x8, addend: 0x0, symName: __ZN6VSTGUI9CCheckBoxC1ERKS0_, symObjAddr: 0x13E0, symBinAddr: 0x6B490, symSize: 0x150 }
  - { offset: 0x1FF3A3, size: 0x8, addend: 0x0, symName: __ZN6VSTGUI9CCheckBox8setTitleERKNS_10UTF8StringE, symObjAddr: 0x1530, symBinAddr: 0x6B5E0, symSize: 0x40 }
  - { offset: 0x1FF426, size: 0x8, addend: 0x0, symName: __ZN6VSTGUI9CCheckBox7setFontEPNS_9CFontDescE, symObjAddr: 0x1570, symBinAddr: 0x6B620, symSize: 0x70 }
  - { offset: 0x1FF4C2, size: 0x8, addend: 0x0, symName: __ZN6VSTGUI9CCheckBox13setBackgroundEPNS_7CBitmapE, symObjAddr: 0x15E0, symBinAddr: 0x6B690, symSize: 0x30 }
  - { offset: 0x1FF509, size: 0x8, addend: 0x0, symName: __ZN6VSTGUI9CCheckBox8setStyleEi, symObjAddr: 0x1610, symBinAddr: 0x6B6C0, symSize: 0x40 }
  - { offset: 0x1FF562, size: 0x8, addend: 0x0, symName: __ZN6VSTGUI9CCheckBox13setFrameWidthEd, symObjAddr: 0x1650, symBinAddr: 0x6B700, symSize: 0x20 }
  - { offset: 0x1FF5A5, size: 0x8, addend: 0x0, symName: __ZN6VSTGUI9CCheckBox18setRoundRectRadiusEd, symObjAddr: 0x1670, symBinAddr: 0x6B720, symSize: 0x20 }
  - { offset: 0x1FF712, size: 0x8, addend: 0x0, symName: __ZN6VSTGUI9CCheckBox9sizeToFitEv, symObjAddr: 0x1690, symBinAddr: 0x6B740, symSize: 0x1D0 }
  - { offset: 0x1FFE32, size: 0x8, addend: 0x0, symName: __ZN6VSTGUI9CCheckBox4drawEPNS_12CDrawContextE, symObjAddr: 0x18A0, symBinAddr: 0x6B910, symSize: 0x720 }
  - { offset: 0x2007DA, size: 0x8, addend: 0x0, symName: __ZN6VSTGUI9CCheckBox12getFocusPathERNS_13CGraphicsPathE, symObjAddr: 0x1FC0, symBinAddr: 0x6C030, symSize: 0x200 }
  - { offset: 0x200A82, size: 0x8, addend: 0x0, symName: __ZThn24_N6VSTGUI9CCheckBox12getFocusPathERNS_13CGraphicsPathE, symObjAddr: 0x21C0, symBinAddr: 0x6C230, symSize: 0x20 }
  - { offset: 0x200ADC, size: 0x8, addend: 0x0, symName: __ZN6VSTGUI9CCheckBox11onMouseDownERNS_6CPointERKNS_12CButtonStateE, symObjAddr: 0x21E0, symBinAddr: 0x6C250, symSize: 0x70 }
  - { offset: 0x200B7A, size: 0x8, addend: 0x0, symName: __ZN6VSTGUI9CCheckBox12onMouseMovedERNS_6CPointERKNS_12CButtonStateE, symObjAddr: 0x2250, symBinAddr: 0x6C2C0, symSize: 0xA0 }
  - { offset: 0x200C0B, size: 0x8, addend: 0x0, symName: __ZN6VSTGUI9CCheckBox13onMouseCancelEv, symObjAddr: 0x22F0, symBinAddr: 0x6C360, symSize: 0x60 }
  - { offset: 0x200C7D, size: 0x8, addend: 0x0, symName: __ZN6VSTGUI9CCheckBox9onMouseUpERNS_6CPointERKNS_12CButtonStateE, symObjAddr: 0x2350, symBinAddr: 0x6C3C0, symSize: 0xD0 }
  - { offset: 0x200D55, size: 0x8, addend: 0x0, symName: __ZN6VSTGUI9CCheckBox15onKeyboardEventERNS_13KeyboardEventE, symObjAddr: 0x2420, symBinAddr: 0x6C490, symSize: 0x90 }
  - { offset: 0x200F77, size: 0x8, addend: 0x0, symName: __ZN6VSTGUI11CTextButtonC2ERKNS_5CRectEPNS_16IControlListenerEiPKcNS0_5StyleE, symObjAddr: 0x24B0, symBinAddr: 0x6C520, symSize: 0x270 }
  - { offset: 0x2015CE, size: 0x8, addend: 0x0, symName: __ZN6VSTGUI11CTextButtonC1ERKNS_5CRectEPNS_16IControlListenerEiPKcNS0_5StyleE, symObjAddr: 0x2720, symBinAddr: 0x6C790, symSize: 0x270 }
  - { offset: 0x201C76, size: 0x8, addend: 0x0, symName: __ZN6VSTGUI11CTextButton7removedEPNS_5CViewE, symObjAddr: 0x2990, symBinAddr: 0x6CA00, symSize: 0x40 }
  - { offset: 0x201CF5, size: 0x8, addend: 0x0, symName: __ZN6VSTGUI11CTextButton11invalidPathEv, symObjAddr: 0x29D0, symBinAddr: 0x6CA40, symSize: 0x30 }
  - { offset: 0x201D44, size: 0x8, addend: 0x0, symName: __ZN6VSTGUI11CTextButton11setViewSizeERKNS_5CRectEb, symObjAddr: 0x2A00, symBinAddr: 0x6CA70, symSize: 0x50 }
  - { offset: 0x201DEE, size: 0x8, addend: 0x0, symName: __ZNK6VSTGUI11CTextButton11getGradientEv, symObjAddr: 0x2A50, symBinAddr: 0x6CAC0, symSize: 0x10 }
  - { offset: 0x201E37, size: 0x8, addend: 0x0, symName: __ZNK6VSTGUI11CTextButton22getGradientHighlightedEv, symObjAddr: 0x2A60, symBinAddr: 0x6CAD0, symSize: 0x10 }
  - { offset: 0x201E99, size: 0x8, addend: 0x0, symName: __ZNK6VSTGUI11CTextButton7getIconEv, symObjAddr: 0x2A70, symBinAddr: 0x6CAE0, symSize: 0x10 }
  - { offset: 0x201EE2, size: 0x8, addend: 0x0, symName: __ZNK6VSTGUI11CTextButton18getIconHighlightedEv, symObjAddr: 0x2A80, symBinAddr: 0x6CAF0, symSize: 0x10 }
  - { offset: 0x201F2B, size: 0x8, addend: 0x0, symName: __ZN6VSTGUI11CTextButton8setTitleERKNS_10UTF8StringE, symObjAddr: 0x2A90, symBinAddr: 0x6CB00, symSize: 0x30 }
  - { offset: 0x201F72, size: 0x8, addend: 0x0, symName: __ZN6VSTGUI11CTextButton7setFontEPNS_9CFontDescE, symObjAddr: 0x2AC0, symBinAddr: 0x6CB30, symSize: 0x50 }
  - { offset: 0x202017, size: 0x8, addend: 0x0, symName: __ZN6VSTGUI11CTextButton12setTextColorERKNS_6CColorE, symObjAddr: 0x2B10, symBinAddr: 0x6CB80, symSize: 0x10 }
  - { offset: 0x2020AD, size: 0x8, addend: 0x0, symName: __ZN6VSTGUI11CTextButton11setGradientEPNS_9CGradientE, symObjAddr: 0x2B20, symBinAddr: 0x6CB90, symSize: 0x50 }
  - { offset: 0x202133, size: 0x8, addend: 0x0, symName: __ZN6VSTGUI11CTextButton22setGradientHighlightedEPNS_9CGradientE, symObjAddr: 0x2B70, symBinAddr: 0x6CBE0, symSize: 0x50 }
  - { offset: 0x2021B9, size: 0x8, addend: 0x0, symName: __ZN6VSTGUI11CTextButton13setFrameColorERKNS_6CColorE, symObjAddr: 0x2BC0, symBinAddr: 0x6CC30, symSize: 0x10 }
  - { offset: 0x20222C, size: 0x8, addend: 0x0, symName: __ZN6VSTGUI11CTextButton23setTextColorHighlightedERKNS_6CColorE, symObjAddr: 0x2BD0, symBinAddr: 0x6CC40, symSize: 0x10 }
  - { offset: 0x20229F, size: 0x8, addend: 0x0, symName: __ZN6VSTGUI11CTextButton24setFrameColorHighlightedERKNS_6CColorE, symObjAddr: 0x2BE0, symBinAddr: 0x6CC50, symSize: 0x10 }
  - { offset: 0x202312, size: 0x8, addend: 0x0, symName: __ZN6VSTGUI11CTextButton13setFrameWidthEd, symObjAddr: 0x2BF0, symBinAddr: 0x6CC60, symSize: 0x10 }
  - { offset: 0x20235D, size: 0x8, addend: 0x0, symName: __ZN6VSTGUI11CTextButton14setRoundRadiusEd, symObjAddr: 0x2C00, symBinAddr: 0x6CC70, symSize: 0x40 }
  - { offset: 0x2023E9, size: 0x8, addend: 0x0, symName: __ZN6VSTGUI11CTextButton8setStyleENS0_5StyleE, symObjAddr: 0x2C40, symBinAddr: 0x6CCB0, symSize: 0x10 }
  - { offset: 0x202443, size: 0x8, addend: 0x0, symName: __ZN6VSTGUI11CTextButton7setIconEPNS_7CBitmapE, symObjAddr: 0x2C50, symBinAddr: 0x6CCC0, symSize: 0x50 }
  - { offset: 0x2024EA, size: 0x8, addend: 0x0, symName: __ZN6VSTGUI11CTextButton18setIconHighlightedEPNS_7CBitmapE, symObjAddr: 0x2CA0, symBinAddr: 0x6CD10, symSize: 0x50 }
  - { offset: 0x202591, size: 0x8, addend: 0x0, symName: __ZN6VSTGUI11CTextButton15setIconPositionENS_12CDrawMethods12IconPositionE, symObjAddr: 0x2CF0, symBinAddr: 0x6CD60, symSize: 0x20 }
  - { offset: 0x2025D4, size: 0x8, addend: 0x0, symName: __ZN6VSTGUI11CTextButton13setTextMarginEd, symObjAddr: 0x2D10, symBinAddr: 0x6CD80, symSize: 0x20 }
  - { offset: 0x202617, size: 0x8, addend: 0x0, symName: __ZN6VSTGUI11CTextButton16setTextAlignmentENS_13CHoriTxtAlignE, symObjAddr: 0x2D30, symBinAddr: 0x6CDA0, symSize: 0x20 }
  - { offset: 0x20265A, size: 0x8, addend: 0x0, symName: __ZN6VSTGUI11CTextButton9sizeToFitEv, symObjAddr: 0x2D50, symBinAddr: 0x6CDC0, symSize: 0x150 }
  - { offset: 0x202AC3, size: 0x8, addend: 0x0, symName: __ZN6VSTGUI11CTextButton4drawEPNS_12CDrawContextE, symObjAddr: 0x2EA0, symBinAddr: 0x6CF10, symSize: 0x350 }
  - { offset: 0x203082, size: 0x8, addend: 0x0, symName: __ZN6VSTGUI11CTextButton7getPathEPNS_12CDrawContextEd, symObjAddr: 0x31F0, symBinAddr: 0x6D260, symSize: 0xA0 }
  - { offset: 0x20313B, size: 0x8, addend: 0x0, symName: __ZN6VSTGUI11CTextButton12getFocusPathERNS_13CGraphicsPathE, symObjAddr: 0x3290, symBinAddr: 0x6D300, symSize: 0xB0 }
  - { offset: 0x2031D4, size: 0x8, addend: 0x0, symName: __ZThn24_N6VSTGUI11CTextButton12getFocusPathERNS_13CGraphicsPathE, symObjAddr: 0x3340, symBinAddr: 0x6D3B0, symSize: 0xC0 }
  - { offset: 0x203241, size: 0x8, addend: 0x0, symName: __ZN6VSTGUI11CTextButton14drawFocusOnTopEv, symObjAddr: 0x3400, symBinAddr: 0x6D470, symSize: 0x10 }
  - { offset: 0x203266, size: 0x8, addend: 0x0, symName: __ZThn24_N6VSTGUI11CTextButton14drawFocusOnTopEv, symObjAddr: 0x3410, symBinAddr: 0x6D480, symSize: 0x10 }
  - { offset: 0x20327D, size: 0x8, addend: 0x0, symName: __ZN6VSTGUI11CTextButton11onMouseDownERNS_6CPointERKNS_12CButtonStateE, symObjAddr: 0x3420, symBinAddr: 0x6D490, symSize: 0x60 }
  - { offset: 0x2032E1, size: 0x8, addend: 0x0, symName: __ZN6VSTGUI11CTextButton13onMouseCancelEv, symObjAddr: 0x3480, symBinAddr: 0x6D4F0, symSize: 0x50 }
  - { offset: 0x203341, size: 0x8, addend: 0x0, symName: __ZN6VSTGUI11CTextButton9onMouseUpERNS_6CPointERKNS_12CButtonStateE, symObjAddr: 0x34D0, symBinAddr: 0x6D540, symSize: 0x80 }
  - { offset: 0x2033EF, size: 0x8, addend: 0x0, symName: __ZN6VSTGUI11CTextButton12onMouseMovedERNS_6CPointERKNS_12CButtonStateE, symObjAddr: 0x3550, symBinAddr: 0x6D5C0, symSize: 0x130 }
  - { offset: 0x203490, size: 0x8, addend: 0x0, symName: __ZN6VSTGUI11CTextButton15onKeyboardEventERNS_13KeyboardEventE, symObjAddr: 0x3680, symBinAddr: 0x6D6F0, symSize: 0x110 }
  - { offset: 0x203604, size: 0x8, addend: 0x0, symName: __ZN6VSTGUI12COnOffButtonD1Ev, symObjAddr: 0x3A20, symBinAddr: 0x6D800, symSize: 0x20 }
  - { offset: 0x203658, size: 0x8, addend: 0x0, symName: __ZN6VSTGUI12COnOffButtonD0Ev, symObjAddr: 0x3A40, symBinAddr: 0x6D820, symSize: 0x30 }
  - { offset: 0x2036D7, size: 0x8, addend: 0x0, symName: __ZNK6VSTGUI12COnOffButton7newCopyEv, symObjAddr: 0x3A70, symBinAddr: 0x6D850, symSize: 0xA0 }
  - { offset: 0x20373A, size: 0x8, addend: 0x0, symName: __ZNK6VSTGUI12COnOffButton8getStyleEv, symObjAddr: 0x3B10, symBinAddr: 0x6D8F0, symSize: 0x10 }
  - { offset: 0x20375F, size: 0x8, addend: 0x0, symName: __ZN6VSTGUI12COnOffButton8setStyleEi, symObjAddr: 0x3B20, symBinAddr: 0x6D900, symSize: 0x10 }
  - { offset: 0x203792, size: 0x8, addend: 0x0, symName: __ZThn24_N6VSTGUI12COnOffButtonD1Ev, symObjAddr: 0x3B30, symBinAddr: 0x6D910, symSize: 0x20 }
  - { offset: 0x2037FA, size: 0x8, addend: 0x0, symName: __ZThn24_N6VSTGUI12COnOffButtonD0Ev, symObjAddr: 0x3B50, symBinAddr: 0x6D930, symSize: 0x30 }
  - { offset: 0x20388D, size: 0x8, addend: 0x0, symName: __ZN6VSTGUI11CKickButtonD1Ev, symObjAddr: 0x3B80, symBinAddr: 0x6D960, symSize: 0x20 }
  - { offset: 0x2038E1, size: 0x8, addend: 0x0, symName: __ZN6VSTGUI11CKickButtonD0Ev, symObjAddr: 0x3BA0, symBinAddr: 0x6D980, symSize: 0x30 }
  - { offset: 0x203960, size: 0x8, addend: 0x0, symName: __ZNK6VSTGUI11CKickButton7newCopyEv, symObjAddr: 0x3BD0, symBinAddr: 0x6D9B0, symSize: 0xD0 }
  - { offset: 0x203A47, size: 0x8, addend: 0x0, symName: __ZN6VSTGUI11CKickButton16setNumSubPixmapsEi, symObjAddr: 0x3CA0, symBinAddr: 0x6DA80, symSize: 0x10 }
  - { offset: 0x203AA8, size: 0x8, addend: 0x0, symName: __ZThn24_N6VSTGUI11CKickButtonD1Ev, symObjAddr: 0x3CB0, symBinAddr: 0x6DA90, symSize: 0x20 }
  - { offset: 0x203B10, size: 0x8, addend: 0x0, symName: __ZThn24_N6VSTGUI11CKickButtonD0Ev, symObjAddr: 0x3CD0, symBinAddr: 0x6DAB0, symSize: 0x30 }
  - { offset: 0x203B7D, size: 0x8, addend: 0x0, symName: __ZThn64_N6VSTGUI11CKickButtonD1Ev, symObjAddr: 0x3D00, symBinAddr: 0x6DAE0, symSize: 0x20 }
  - { offset: 0x203BCC, size: 0x8, addend: 0x0, symName: __ZThn64_N6VSTGUI11CKickButtonD0Ev, symObjAddr: 0x3D20, symBinAddr: 0x6DB00, symSize: 0x30 }
  - { offset: 0x203C58, size: 0x8, addend: 0x0, symName: __ZThn64_N6VSTGUI11CKickButton16setNumSubPixmapsEi, symObjAddr: 0x3D70, symBinAddr: 0x6DB30, symSize: 0x20 }
  - { offset: 0x203CEA, size: 0x8, addend: 0x0, symName: __ZN6VSTGUI9CCheckBoxD1Ev, symObjAddr: 0x3DA0, symBinAddr: 0x6DB50, symSize: 0x80 }
  - { offset: 0x203F12, size: 0x8, addend: 0x0, symName: __ZN6VSTGUI9CCheckBoxD0Ev, symObjAddr: 0x3E20, symBinAddr: 0x6DBD0, symSize: 0x80 }
  - { offset: 0x20413A, size: 0x8, addend: 0x0, symName: __ZNK6VSTGUI9CCheckBox7newCopyEv, symObjAddr: 0x3EA0, symBinAddr: 0x6DC50, symSize: 0x40 }
  - { offset: 0x204175, size: 0x8, addend: 0x0, symName: __ZN6VSTGUI9CCheckBox12setFontColorERKNS_6CColorE, symObjAddr: 0x3EE0, symBinAddr: 0x6DC90, symSize: 0x10 }
  - { offset: 0x2041E2, size: 0x8, addend: 0x0, symName: __ZN6VSTGUI9CCheckBox16setBoxFrameColorERKNS_6CColorE, symObjAddr: 0x3EF0, symBinAddr: 0x6DCA0, symSize: 0x10 }
  - { offset: 0x20424F, size: 0x8, addend: 0x0, symName: __ZN6VSTGUI9CCheckBox15setBoxFillColorERKNS_6CColorE, symObjAddr: 0x3F00, symBinAddr: 0x6DCB0, symSize: 0x10 }
  - { offset: 0x2042BC, size: 0x8, addend: 0x0, symName: __ZN6VSTGUI9CCheckBox17setCheckMarkColorERKNS_6CColorE, symObjAddr: 0x3F10, symBinAddr: 0x6DCC0, symSize: 0x10 }
  - { offset: 0x204329, size: 0x8, addend: 0x0, symName: __ZNK6VSTGUI9CCheckBox8getStyleEv, symObjAddr: 0x3F20, symBinAddr: 0x6DCD0, symSize: 0x10 }
  - { offset: 0x20434E, size: 0x8, addend: 0x0, symName: __ZThn24_N6VSTGUI9CCheckBoxD1Ev, symObjAddr: 0x3F30, symBinAddr: 0x6DCE0, symSize: 0x80 }
  - { offset: 0x20454F, size: 0x8, addend: 0x0, symName: __ZThn24_N6VSTGUI9CCheckBoxD0Ev, symObjAddr: 0x3FB0, symBinAddr: 0x6DD60, symSize: 0x10 }
  - { offset: 0x204573, size: 0x8, addend: 0x0, symName: __ZN6VSTGUI11CTextButtonD1Ev, symObjAddr: 0x3FC0, symBinAddr: 0x6DD70, symSize: 0x20 }
  - { offset: 0x2045A9, size: 0x8, addend: 0x0, symName: __ZN6VSTGUI11CTextButtonD2Ev, symObjAddr: 0x4080, symBinAddr: 0x6DE20, symSize: 0xF0 }
  - { offset: 0x2048F6, size: 0x8, addend: 0x0, symName: __ZN6VSTGUI11CTextButtonD0Ev, symObjAddr: 0x3FE0, symBinAddr: 0x6DD90, symSize: 0x30 }
  - { offset: 0x204949, size: 0x8, addend: 0x0, symName: __ZNK6VSTGUI11CTextButton7newCopyEv, symObjAddr: 0x4010, symBinAddr: 0x6DDC0, symSize: 0x10 }
  - { offset: 0x20496E, size: 0x8, addend: 0x0, symName: __ZThn24_N6VSTGUI11CTextButtonD1Ev, symObjAddr: 0x4020, symBinAddr: 0x6DDD0, symSize: 0x20 }
  - { offset: 0x2049C8, size: 0x8, addend: 0x0, symName: __ZThn24_N6VSTGUI11CTextButtonD0Ev, symObjAddr: 0x4040, symBinAddr: 0x6DDF0, symSize: 0x30 }
  - { offset: 0x206936, size: 0x8, addend: 0x0, symName: __ZN6VSTGUI8CControl21CheckDefaultValueFuncE, symObjAddr: 0x2858, symBinAddr: 0x1D06A8, symSize: 0x0 }
  - { offset: 0x209787, size: 0x8, addend: 0x0, symName: __ZN6VSTGUI8CControl26CheckDefaultValueEventFuncE, symObjAddr: 0x2860, symBinAddr: 0x1D06B0, symSize: 0x0 }
  - { offset: 0x211F91, size: 0x8, addend: 0x0, symName: __ZN6VSTGUI8CControl21kDefaultValueModifierE, symObjAddr: 0x2868, symBinAddr: 0x1D06B8, symSize: 0x0 }
  - { offset: 0x212021, size: 0x8, addend: 0x0, symName: __ZN6VSTGUI25CMouseWheelEditingSupport19onMouseWheelEditingEPNS_8CControlE, symObjAddr: 0xF20, symBinAddr: 0x6EE10, symSize: 0x120 }
  - { offset: 0x212841, size: 0x8, addend: 0x0, symName: __ZN6VSTGUI8CControlC2ERKNS_5CRectEPNS_16IControlListenerEiPNS_7CBitmapE, symObjAddr: 0x0, symBinAddr: 0x6DF10, symSize: 0x130 }
  - { offset: 0x212B64, size: 0x8, addend: 0x0, symName: __ZN6VSTGUI8CControlC2ERKS0_, symObjAddr: 0x130, symBinAddr: 0x6E040, symSize: 0x110 }
  - { offset: 0x212E0F, size: 0x8, addend: 0x0, symName: __ZN6VSTGUI8CControlD2Ev, symObjAddr: 0x240, symBinAddr: 0x6E150, symSize: 0x70 }
  - { offset: 0x212F01, size: 0x8, addend: 0x0, symName: __ZN6VSTGUI8CControlD1Ev, symObjAddr: 0x2C0, symBinAddr: 0x6E1C0, symSize: 0x10 }
  - { offset: 0x212F3A, size: 0x8, addend: 0x0, symName: __ZThn24_N6VSTGUI8CControlD1Ev, symObjAddr: 0x2D0, symBinAddr: 0x6E1D0, symSize: 0x10 }
  - { offset: 0x212F64, size: 0x8, addend: 0x0, symName: __ZN6VSTGUI8CControlD0Ev, symObjAddr: 0x2E0, symBinAddr: 0x6E1E0, symSize: 0x10 }
  - { offset: 0x212F9D, size: 0x8, addend: 0x0, symName: __ZThn24_N6VSTGUI8CControlD0Ev, symObjAddr: 0x2F0, symBinAddr: 0x6E1F0, symSize: 0x10 }
  - { offset: 0x212FC8, size: 0x8, addend: 0x0, symName: __ZN6VSTGUI8CControl23registerControlListenerEPNS_16IControlListenerE, symObjAddr: 0x300, symBinAddr: 0x6E200, symSize: 0x50 }
  - { offset: 0x213040, size: 0x8, addend: 0x0, symName: __ZN6VSTGUI12DispatchListIPNS_16IControlListenerEE3addERKS2_, symObjAddr: 0x350, symBinAddr: 0x6E250, symSize: 0x2F0 }
  - { offset: 0x2142B7, size: 0x8, addend: 0x0, symName: __ZNKSt3__16vectorIPN6VSTGUI16IControlListenerENS_9allocatorIS3_EEE20__throw_length_errorB8ne180100Ev, symObjAddr: 0x14E0, symBinAddr: 0x6F100, symSize: 0x10 }
  - { offset: 0x2142EC, size: 0x8, addend: 0x0, symName: __ZNKSt3__16vectorINS_4pairIbPN6VSTGUI16IControlListenerEEENS_9allocatorIS5_EEE20__throw_length_errorB8ne180100Ev, symObjAddr: 0x15B0, symBinAddr: 0x6F110, symSize: 0x10 }
  - { offset: 0x214316, size: 0x8, addend: 0x0, symName: __ZN6VSTGUI12DispatchListIPNS_16IControlListenerEE11postForEachEv, symObjAddr: 0x15C0, symBinAddr: 0x6F120, symSize: 0x3D0 }
  - { offset: 0x214531, size: 0x8, addend: 0x0, symName: __ZN6VSTGUI8CControl25unregisterControlListenerEPNS_16IControlListenerE, symObjAddr: 0x640, symBinAddr: 0x6E540, symSize: 0x80 }
  - { offset: 0x214818, size: 0x8, addend: 0x0, symName: __ZN6VSTGUI8CControl11setWheelIncEf, symObjAddr: 0x6C0, symBinAddr: 0x6E5C0, symSize: 0x10 }
  - { offset: 0x21486B, size: 0x8, addend: 0x0, symName: __ZNK6VSTGUI8CControl11getWheelIncEv, symObjAddr: 0x6D0, symBinAddr: 0x6E5D0, symSize: 0x10 }
  - { offset: 0x2148B0, size: 0x8, addend: 0x0, symName: __ZN6VSTGUI8CControl6setMinEf, symObjAddr: 0x6E0, symBinAddr: 0x6E5E0, symSize: 0x20 }
  - { offset: 0x214917, size: 0x8, addend: 0x0, symName: __ZNK6VSTGUI8CControl6getMinEv, symObjAddr: 0x700, symBinAddr: 0x6E600, symSize: 0x10 }
  - { offset: 0x21495C, size: 0x8, addend: 0x0, symName: __ZN6VSTGUI8CControl6setMaxEf, symObjAddr: 0x710, symBinAddr: 0x6E610, symSize: 0x20 }
  - { offset: 0x2149C3, size: 0x8, addend: 0x0, symName: __ZNK6VSTGUI8CControl6getMaxEv, symObjAddr: 0x730, symBinAddr: 0x6E630, symSize: 0x10 }
  - { offset: 0x214A08, size: 0x8, addend: 0x0, symName: __ZN6VSTGUI8CControl11setOldValueEf, symObjAddr: 0x740, symBinAddr: 0x6E640, symSize: 0x10 }
  - { offset: 0x214A5B, size: 0x8, addend: 0x0, symName: __ZNK6VSTGUI8CControl11getOldValueEv, symObjAddr: 0x750, symBinAddr: 0x6E650, symSize: 0x10 }
  - { offset: 0x214AA0, size: 0x8, addend: 0x0, symName: __ZN6VSTGUI8CControl15setDefaultValueEf, symObjAddr: 0x760, symBinAddr: 0x6E660, symSize: 0x10 }
  - { offset: 0x214AF3, size: 0x8, addend: 0x0, symName: __ZNK6VSTGUI8CControl15getDefaultValueEv, symObjAddr: 0x770, symBinAddr: 0x6E670, symSize: 0x10 }
  - { offset: 0x214B38, size: 0x8, addend: 0x0, symName: __ZN6VSTGUI8CControl6setTagEi, symObjAddr: 0x780, symBinAddr: 0x6E680, symSize: 0x50 }
  - { offset: 0x214B8D, size: 0x8, addend: 0x0, symName: __ZNK6VSTGUI8CControl9isEditingEv, symObjAddr: 0x7D0, symBinAddr: 0x6E6D0, symSize: 0x20 }
  - { offset: 0x214BDF, size: 0x8, addend: 0x0, symName: __ZN6VSTGUI8CControl9beginEditEv, symObjAddr: 0x7F0, symBinAddr: 0x6E6F0, symSize: 0xF0 }
  - { offset: 0x214E0A, size: 0x8, addend: 0x0, symName: __ZN6VSTGUI12DispatchListIPNS_16IControlListenerEE11postForEachEv, symObjAddr: 0x15C0, symBinAddr: 0x6F120, symSize: 0x3D0 }
  - { offset: 0x215D0A, size: 0x8, addend: 0x0, symName: __ZN6VSTGUI8CControl7endEditEv, symObjAddr: 0x8E0, symBinAddr: 0x6E7E0, symSize: 0xE0 }
  - { offset: 0x215F8F, size: 0x8, addend: 0x0, symName: __ZN6VSTGUI8CControl8setValueEf, symObjAddr: 0x9C0, symBinAddr: 0x6E8C0, symSize: 0x50 }
  - { offset: 0x21606B, size: 0x8, addend: 0x0, symName: __ZN6VSTGUI8CControl18setValueNormalizedEf, symObjAddr: 0xA10, symBinAddr: 0x6E910, symSize: 0xF0 }
  - { offset: 0x2161EF, size: 0x8, addend: 0x0, symName: __ZNK6VSTGUI8CControl18getValueNormalizedEv, symObjAddr: 0xB00, symBinAddr: 0x6EA00, symSize: 0xC0 }
  - { offset: 0x2162C9, size: 0x8, addend: 0x0, symName: __ZN6VSTGUI8CControl12valueChangedEv, symObjAddr: 0xBC0, symBinAddr: 0x6EAC0, symSize: 0xA0 }
  - { offset: 0x2164EC, size: 0x8, addend: 0x0, symName: __ZNK6VSTGUI8CControl7isDirtyEv, symObjAddr: 0xC60, symBinAddr: 0x6EB60, symSize: 0x40 }
  - { offset: 0x216548, size: 0x8, addend: 0x0, symName: __ZN6VSTGUI8CControl8setDirtyEb, symObjAddr: 0xCB0, symBinAddr: 0x6EBA0, symSize: 0x60 }
  - { offset: 0x21658F, size: 0x8, addend: 0x0, symName: __ZN6VSTGUI8CControl11bounceValueEv, symObjAddr: 0xD10, symBinAddr: 0x6EC00, symSize: 0x50 }
  - { offset: 0x2166B0, size: 0x8, addend: 0x0, symName: '__ZN6VSTGUI8CControl3$_38__invokeEPS0_NS_12CButtonStateE', symObjAddr: 0xD60, symBinAddr: 0x6EC50, symSize: 0x30 }
  - { offset: 0x216768, size: 0x8, addend: 0x0, symName: '__ZN6VSTGUI8CControl3$_48__invokeEPS0_RNS_14MouseDownEventE', symObjAddr: 0xD90, symBinAddr: 0x6EC80, symSize: 0x40 }
  - { offset: 0x216808, size: 0x8, addend: 0x0, symName: __ZN6VSTGUI8CControl14drawFocusOnTopEv, symObjAddr: 0xDD0, symBinAddr: 0x6ECC0, symSize: 0x10 }
  - { offset: 0x21682D, size: 0x8, addend: 0x0, symName: __ZThn24_N6VSTGUI8CControl14drawFocusOnTopEv, symObjAddr: 0xDE0, symBinAddr: 0x6ECD0, symSize: 0x10 }
  - { offset: 0x2168B7, size: 0x8, addend: 0x0, symName: __ZN6VSTGUI8CControl12getFocusPathERNS_13CGraphicsPathE, symObjAddr: 0xDF0, symBinAddr: 0x6ECE0, symSize: 0xA0 }
  - { offset: 0x2169BA, size: 0x8, addend: 0x0, symName: __ZThn24_N6VSTGUI8CControl12getFocusPathERNS_13CGraphicsPathE, symObjAddr: 0xE90, symBinAddr: 0x6ED80, symSize: 0x20 }
  - { offset: 0x2169E7, size: 0x8, addend: 0x0, symName: __ZN6VSTGUI8CControl17mapVstKeyModifierEi, symObjAddr: 0xEB0, symBinAddr: 0x6EDA0, symSize: 0x20 }
  - { offset: 0x216A37, size: 0x8, addend: 0x0, symName: __ZN6VSTGUI19IMultiBitmapControl27autoComputeHeightOfOneImageEv, symObjAddr: 0xED0, symBinAddr: 0x6EDC0, symSize: 0x50 }
  - { offset: 0x216E9F, size: 0x8, addend: 0x0, symName: __ZN6VSTGUI25CMouseWheelEditingSupport26invalidMouseWheelEditTimerEPNS_8CControlE, symObjAddr: 0x1040, symBinAddr: 0x6EF30, symSize: 0x50 }
  - { offset: 0x216F6D, size: 0x8, addend: 0x0, symName: __ZN6VSTGUI19IMultiBitmapControlD1Ev, symObjAddr: 0x1090, symBinAddr: 0x6EF80, symSize: 0x10 }
  - { offset: 0x216F96, size: 0x8, addend: 0x0, symName: __ZN6VSTGUI19IMultiBitmapControlD0Ev, symObjAddr: 0x10A0, symBinAddr: 0x6EF90, symSize: 0x10 }
  - { offset: 0x216FBF, size: 0x8, addend: 0x0, symName: __ZN6VSTGUI19IMultiBitmapControl16setNumSubPixmapsEi, symObjAddr: 0x10D0, symBinAddr: 0x6EFA0, symSize: 0x10 }
  - { offset: 0x217129, size: 0x8, addend: 0x0, symName: __ZN6VSTGUI8CControl4ImplD1Ev, symObjAddr: 0x1390, symBinAddr: 0x6EFB0, symSize: 0x50 }
  - { offset: 0x217427, size: 0x8, addend: 0x0, symName: __ZN6VSTGUI8CControl4ImplD0Ev, symObjAddr: 0x13E0, symBinAddr: 0x6F000, symSize: 0x50 }
  - { offset: 0x21776B, size: 0x8, addend: 0x0, symName: __ZN6VSTGUI8CControl4Impl11viewOnEventEPNS_5CViewERNS_5EventE, symObjAddr: 0x1430, symBinAddr: 0x6F050, symSize: 0xB0 }
  - { offset: 0x2181FC, size: 0x8, addend: 0x0, symName: '__ZNSt3__110__function6__funcIZN6VSTGUI25CMouseWheelEditingSupport19onMouseWheelEditingEPNS2_8CControlEE3$_0NS_9allocatorIS6_EEFvPNS2_12CVSTGUITimerEEED1Ev', symObjAddr: 0x1C80, symBinAddr: 0x6F4F0, symSize: 0x10 }
  - { offset: 0x218224, size: 0x8, addend: 0x0, symName: '__ZNSt3__110__function6__funcIZN6VSTGUI25CMouseWheelEditingSupport19onMouseWheelEditingEPNS2_8CControlEE3$_0NS_9allocatorIS6_EEFvPNS2_12CVSTGUITimerEEED0Ev', symObjAddr: 0x1C90, symBinAddr: 0x6F500, symSize: 0x10 }
  - { offset: 0x21841F, size: 0x8, addend: 0x0, symName: '__ZNKSt3__110__function6__funcIZN6VSTGUI25CMouseWheelEditingSupport19onMouseWheelEditingEPNS2_8CControlEE3$_0NS_9allocatorIS6_EEFvPNS2_12CVSTGUITimerEEE7__cloneEv', symObjAddr: 0x1CA0, symBinAddr: 0x6F510, symSize: 0x30 }
  - { offset: 0x218704, size: 0x8, addend: 0x0, symName: '__ZNKSt3__110__function6__funcIZN6VSTGUI25CMouseWheelEditingSupport19onMouseWheelEditingEPNS2_8CControlEE3$_0NS_9allocatorIS6_EEFvPNS2_12CVSTGUITimerEEE7__cloneEPNS0_6__baseISB_EE', symObjAddr: 0x1CD0, symBinAddr: 0x6F540, symSize: 0x20 }
  - { offset: 0x21880E, size: 0x8, addend: 0x0, symName: '__ZNSt3__110__function6__funcIZN6VSTGUI25CMouseWheelEditingSupport19onMouseWheelEditingEPNS2_8CControlEE3$_0NS_9allocatorIS6_EEFvPNS2_12CVSTGUITimerEEE7destroyEv', symObjAddr: 0x1CF0, symBinAddr: 0x6F560, symSize: 0x10 }
  - { offset: 0x21885C, size: 0x8, addend: 0x0, symName: '__ZNSt3__110__function6__funcIZN6VSTGUI25CMouseWheelEditingSupport19onMouseWheelEditingEPNS2_8CControlEE3$_0NS_9allocatorIS6_EEFvPNS2_12CVSTGUITimerEEE18destroy_deallocateEv', symObjAddr: 0x1D00, symBinAddr: 0x6F570, symSize: 0x10 }
  - { offset: 0x2189AC, size: 0x8, addend: 0x0, symName: '__ZNSt3__110__function6__funcIZN6VSTGUI25CMouseWheelEditingSupport19onMouseWheelEditingEPNS2_8CControlEE3$_0NS_9allocatorIS6_EEFvPNS2_12CVSTGUITimerEEEclEOSA_', symObjAddr: 0x1D10, symBinAddr: 0x6F580, symSize: 0x30 }
  - { offset: 0x218A98, size: 0x8, addend: 0x0, symName: '__ZNKSt3__110__function6__funcIZN6VSTGUI25CMouseWheelEditingSupport19onMouseWheelEditingEPNS2_8CControlEE3$_0NS_9allocatorIS6_EEFvPNS2_12CVSTGUITimerEEE6targetERKSt9type_info', symObjAddr: 0x1D40, symBinAddr: 0x6F5B0, symSize: 0x20 }
  - { offset: 0x218B0C, size: 0x8, addend: 0x0, symName: '__ZNKSt3__110__function6__funcIZN6VSTGUI25CMouseWheelEditingSupport19onMouseWheelEditingEPNS2_8CControlEE3$_0NS_9allocatorIS6_EEFvPNS2_12CVSTGUITimerEEE11target_typeEv', symObjAddr: 0x1D60, symBinAddr: 0x6F5D0, symSize: 0xD }
  - { offset: 0x21F4CF, size: 0x8, addend: 0x0, symName: __ZN6VSTGUI8CControl13kZoomModifierE, symObjAddr: 0x6858, symBinAddr: 0x1D06BC, symSize: 0x0 }
  - { offset: 0x2253BB, size: 0x8, addend: 0x0, symName: __ZN6VSTGUI9CKnobBaseC2ERKNS_5CRectEPNS_16IControlListenerEiPNS_7CBitmapE, symObjAddr: 0x0, symBinAddr: 0x6F5E0, symSize: 0xC0 }
  - { offset: 0x2254F9, size: 0x8, addend: 0x0, symName: __ZN6VSTGUI9CKnobBaseC2ERKS0_, symObjAddr: 0xC0, symBinAddr: 0x6F6A0, symSize: 0x70 }
  - { offset: 0x2255C4, size: 0x8, addend: 0x0, symName: __ZN6VSTGUI9CKnobBase11setViewSizeERKNS_5CRectEb, symObjAddr: 0x130, symBinAddr: 0x6F710, symSize: 0x30 }
  - { offset: 0x22563A, size: 0x8, addend: 0x0, symName: __ZN6VSTGUI9CKnobBase7computeEv, symObjAddr: 0x160, symBinAddr: 0x6F740, symSize: 0x20 }
  - { offset: 0x2256B5, size: 0x8, addend: 0x0, symName: __ZN6VSTGUI9CKnobBase9sizeToFitEv, symObjAddr: 0x180, symBinAddr: 0x6F760, symSize: 0xB0 }
  - { offset: 0x2258BD, size: 0x8, addend: 0x0, symName: __ZN6VSTGUI9CKnobBase20getMouseEditingStateEv, symObjAddr: 0x230, symBinAddr: 0x6F810, symSize: 0x80 }
  - { offset: 0x225A0C, size: 0x8, addend: 0x0, symName: __ZN6VSTGUI9CKnobBase22clearMouseEditingStateEv, symObjAddr: 0x2B0, symBinAddr: 0x6F890, symSize: 0x60 }
  - { offset: 0x225B51, size: 0x8, addend: 0x0, symName: __ZN6VSTGUI9CKnobBase11onMouseDownERNS_6CPointERKNS_12CButtonStateE, symObjAddr: 0x310, symBinAddr: 0x6F8F0, symSize: 0x230 }
  - { offset: 0x225EB4, size: 0x8, addend: 0x0, symName: __ZN6VSTGUI9CKnobBase9onMouseUpERNS_6CPointERKNS_12CButtonStateE, symObjAddr: 0x540, symBinAddr: 0x6FB20, symSize: 0x80 }
  - { offset: 0x225F63, size: 0x8, addend: 0x0, symName: __ZN6VSTGUI9CKnobBase13onMouseCancelEv, symObjAddr: 0x5C0, symBinAddr: 0x6FBA0, symSize: 0x110 }
  - { offset: 0x2261DC, size: 0x8, addend: 0x0, symName: __ZN6VSTGUI9CKnobBase12onMouseMovedERNS_6CPointERKNS_12CButtonStateE, symObjAddr: 0x6D0, symBinAddr: 0x6FCB0, symSize: 0x300 }
  - { offset: 0x22657E, size: 0x8, addend: 0x0, symName: __ZN6VSTGUI9CKnobBase17onMouseWheelEventERNS_15MouseWheelEventE, symObjAddr: 0x9D0, symBinAddr: 0x6FFB0, symSize: 0xD0 }
  - { offset: 0x2266A9, size: 0x8, addend: 0x0, symName: __ZN6VSTGUI9CKnobBase15onKeyboardEventERNS_13KeyboardEventE, symObjAddr: 0xAA0, symBinAddr: 0x70080, symSize: 0x140 }
  - { offset: 0x22684E, size: 0x8, addend: 0x0, symName: __ZN6VSTGUI9CKnobBase13setStartAngleEf, symObjAddr: 0xBE0, symBinAddr: 0x701C0, symSize: 0x20 }
  - { offset: 0x2268AC, size: 0x8, addend: 0x0, symName: __ZN6VSTGUI9CKnobBase13setRangeAngleEf, symObjAddr: 0xC00, symBinAddr: 0x701E0, symSize: 0x20 }
  - { offset: 0x22694B, size: 0x8, addend: 0x0, symName: __ZNK6VSTGUI9CKnobBase12valueToPointERNS_6CPointE, symObjAddr: 0xC20, symBinAddr: 0x70200, symSize: 0x100 }
  - { offset: 0x226A41, size: 0x8, addend: 0x0, symName: __ZNK6VSTGUI9CKnobBase14valueFromPointERNS_6CPointE, symObjAddr: 0xD20, symBinAddr: 0x70300, symSize: 0x1E0 }
  - { offset: 0x226BD4, size: 0x8, addend: 0x0, symName: __ZN6VSTGUI9CKnobBase6setMinEf, symObjAddr: 0xF00, symBinAddr: 0x704E0, symSize: 0x50 }
  - { offset: 0x226C65, size: 0x8, addend: 0x0, symName: __ZN6VSTGUI9CKnobBase6setMaxEf, symObjAddr: 0xF50, symBinAddr: 0x70530, symSize: 0x50 }
  - { offset: 0x226F1C, size: 0x8, addend: 0x0, symName: __ZN6VSTGUI5CKnobC2ERKNS_5CRectEPNS_16IControlListenerEiPNS_7CBitmapES7_RKNS_6CPointEi, symObjAddr: 0xFA0, symBinAddr: 0x70580, symSize: 0x1F0 }
  - { offset: 0x227385, size: 0x8, addend: 0x0, symName: __ZN6VSTGUI9CKnobBaseD2Ev, symObjAddr: 0x1190, symBinAddr: 0x70770, symSize: 0x40 }
  - { offset: 0x227445, size: 0x8, addend: 0x0, symName: __ZN6VSTGUI5CKnobC1ERKNS_5CRectEPNS_16IControlListenerEiPNS_7CBitmapES7_RKNS_6CPointEi, symObjAddr: 0x11D0, symBinAddr: 0x707B0, symSize: 0x1F0 }
  - { offset: 0x227960, size: 0x8, addend: 0x0, symName: __ZN6VSTGUI5CKnobC2ERKS0_, symObjAddr: 0x13C0, symBinAddr: 0x709A0, symSize: 0x140 }
  - { offset: 0x227CDB, size: 0x8, addend: 0x0, symName: __ZN6VSTGUI5CKnobC1ERKS0_, symObjAddr: 0x1500, symBinAddr: 0x70AE0, symSize: 0x110 }
  - { offset: 0x228082, size: 0x8, addend: 0x0, symName: __ZN6VSTGUI5CKnobD2Ev, symObjAddr: 0x1610, symBinAddr: 0x70BF0, symSize: 0x90 }
  - { offset: 0x2282D0, size: 0x8, addend: 0x0, symName: __ZN6VSTGUI5CKnobD1Ev, symObjAddr: 0x16B0, symBinAddr: 0x70C80, symSize: 0x80 }
  - { offset: 0x22851F, size: 0x8, addend: 0x0, symName: __ZThn24_N6VSTGUI5CKnobD1Ev, symObjAddr: 0x1730, symBinAddr: 0x70D00, symSize: 0x80 }
  - { offset: 0x22874C, size: 0x8, addend: 0x0, symName: __ZN6VSTGUI5CKnobD0Ev, symObjAddr: 0x17B0, symBinAddr: 0x70D80, symSize: 0x90 }
  - { offset: 0x228993, size: 0x8, addend: 0x0, symName: __ZThn24_N6VSTGUI5CKnobD0Ev, symObjAddr: 0x1840, symBinAddr: 0x70E10, symSize: 0x10 }
  - { offset: 0x2289B8, size: 0x8, addend: 0x0, symName: __ZN6VSTGUI5CKnob14drawFocusOnTopEv, symObjAddr: 0x1850, symBinAddr: 0x70E20, symSize: 0x40 }
  - { offset: 0x228A04, size: 0x8, addend: 0x0, symName: __ZThn24_N6VSTGUI5CKnob14drawFocusOnTopEv, symObjAddr: 0x1890, symBinAddr: 0x70E60, symSize: 0x40 }
  - { offset: 0x228A6F, size: 0x8, addend: 0x0, symName: __ZN6VSTGUI5CKnob12getFocusPathERNS_13CGraphicsPathE, symObjAddr: 0x18D0, symBinAddr: 0x70EA0, symSize: 0xA0 }
  - { offset: 0x228B3F, size: 0x8, addend: 0x0, symName: __ZThn24_N6VSTGUI5CKnob12getFocusPathERNS_13CGraphicsPathE, symObjAddr: 0x1970, symBinAddr: 0x70F40, symSize: 0xB0 }
  - { offset: 0x228BC6, size: 0x8, addend: 0x0, symName: __ZN6VSTGUI5CKnob4drawEPNS_12CDrawContextE, symObjAddr: 0x1A20, symBinAddr: 0x70FF0, symSize: 0xE0 }
  - { offset: 0x228C7A, size: 0x8, addend: 0x0, symName: __ZN6VSTGUI5CKnob6addArcEPNS_13CGraphicsPathERKNS_5CRectEdd, symObjAddr: 0x1B00, symBinAddr: 0x710D0, symSize: 0xD0 }
  - { offset: 0x228E0F, size: 0x8, addend: 0x0, symName: __ZNK6VSTGUI5CKnob17drawCoronaOutlineEPNS_12CDrawContextE, symObjAddr: 0x1BD0, symBinAddr: 0x711A0, symSize: 0x290 }
  - { offset: 0x22930F, size: 0x8, addend: 0x0, symName: __ZNK6VSTGUI5CKnob10drawCoronaEPNS_12CDrawContextE, symObjAddr: 0x1E60, symBinAddr: 0x71430, symSize: 0x340 }
  - { offset: 0x229879, size: 0x8, addend: 0x0, symName: __ZNK6VSTGUI5CKnob18drawHandleAsCircleEPNS_12CDrawContextE, symObjAddr: 0x21A0, symBinAddr: 0x71770, symSize: 0xF0 }
  - { offset: 0x229A48, size: 0x8, addend: 0x0, symName: __ZNK6VSTGUI5CKnob16drawHandleAsLineEPNS_12CDrawContextE, symObjAddr: 0x2290, symBinAddr: 0x71860, symSize: 0x220 }
  - { offset: 0x22A097, size: 0x8, addend: 0x0, symName: __ZN6VSTGUI5CKnob10drawHandleEPNS_12CDrawContextE, symObjAddr: 0x24B0, symBinAddr: 0x71A80, symSize: 0xD0 }
  - { offset: 0x22A24D, size: 0x8, addend: 0x0, symName: __ZN6VSTGUI5CKnob14setCoronaInsetEd, symObjAddr: 0x2580, symBinAddr: 0x71B50, symSize: 0x30 }
  - { offset: 0x22A2BA, size: 0x8, addend: 0x0, symName: __ZN6VSTGUI5CKnob14setCoronaColorENS_6CColorE, symObjAddr: 0x25B0, symBinAddr: 0x71B80, symSize: 0x50 }
  - { offset: 0x22A343, size: 0x8, addend: 0x0, symName: __ZN6VSTGUI5CKnob20setColorShadowHandleENS_6CColorE, symObjAddr: 0x2600, symBinAddr: 0x71BD0, symSize: 0x50 }
  - { offset: 0x22A3CC, size: 0x8, addend: 0x0, symName: __ZN6VSTGUI5CKnob14setColorHandleENS_6CColorE, symObjAddr: 0x2650, symBinAddr: 0x71C20, symSize: 0x50 }
  - { offset: 0x22A455, size: 0x8, addend: 0x0, symName: __ZN6VSTGUI5CKnob18setHandleLineWidthEd, symObjAddr: 0x26A0, symBinAddr: 0x71C70, symSize: 0x30 }
  - { offset: 0x22A49E, size: 0x8, addend: 0x0, symName: __ZN6VSTGUI5CKnob24setCoronaOutlineWidthAddEd, symObjAddr: 0x26D0, symBinAddr: 0x71CA0, symSize: 0x30 }
  - { offset: 0x22A500, size: 0x8, addend: 0x0, symName: __ZNK6VSTGUI5CKnob23getCoronaDashDotLengthsEv, symObjAddr: 0x2700, symBinAddr: 0x71CD0, symSize: 0x10 }
  - { offset: 0x22A627, size: 0x8, addend: 0x0, symName: __ZN6VSTGUI5CKnob23setCoronaDashDotLengthsERKNSt3__16vectorIdNS1_9allocatorIdEEEE, symObjAddr: 0x2710, symBinAddr: 0x71CE0, symSize: 0x90 }
  - { offset: 0x22AEB4, size: 0x8, addend: 0x0, symName: __ZN6VSTGUI5CKnob12setDrawStyleEi, symObjAddr: 0x27A0, symBinAddr: 0x71D70, symSize: 0x20 }
  - { offset: 0x22AEFF, size: 0x8, addend: 0x0, symName: __ZN6VSTGUI5CKnob15setHandleBitmapEPNS_7CBitmapE, symObjAddr: 0x27C0, symBinAddr: 0x71D90, symSize: 0x80 }
  - { offset: 0x22AFCF, size: 0x8, addend: 0x0, symName: __ZN6VSTGUI9CAnimKnobC2ERKNS_5CRectEPNS_16IControlListenerEiPNS_7CBitmapE, symObjAddr: 0x2840, symBinAddr: 0x71E10, symSize: 0x1C0 }
  - { offset: 0x22B28C, size: 0x8, addend: 0x0, symName: __ZN6VSTGUI9CAnimKnobC1ERKNS_5CRectEPNS_16IControlListenerEiPNS_7CBitmapE, symObjAddr: 0x2A00, symBinAddr: 0x71FD0, symSize: 0x1C0 }
  - { offset: 0x22B56E, size: 0x8, addend: 0x0, symName: __ZN6VSTGUI9CAnimKnobC2ERKS0_, symObjAddr: 0x2BC0, symBinAddr: 0x72190, symSize: 0x110 }
  - { offset: 0x22B6E7, size: 0x8, addend: 0x0, symName: __ZN6VSTGUI9CAnimKnobC1ERKS0_, symObjAddr: 0x2CD0, symBinAddr: 0x722A0, symSize: 0xF0 }
  - { offset: 0x22B8EF, size: 0x8, addend: 0x0, symName: __ZN6VSTGUI9CAnimKnob9sizeToFitEv, symObjAddr: 0x2DC0, symBinAddr: 0x72390, symSize: 0xD0 }
  - { offset: 0x22BA1F, size: 0x8, addend: 0x0, symName: __ZN6VSTGUI9CAnimKnobC2ERKNS_5CRectEPNS_16IControlListenerEiidPNS_7CBitmapERKNS_6CPointE, symObjAddr: 0x2E90, symBinAddr: 0x72460, symSize: 0x1B0 }
  - { offset: 0x22BC9F, size: 0x8, addend: 0x0, symName: __ZN6VSTGUI9CAnimKnobC1ERKNS_5CRectEPNS_16IControlListenerEiidPNS_7CBitmapERKNS_6CPointE, symObjAddr: 0x3040, symBinAddr: 0x72610, symSize: 0x1A0 }
  - { offset: 0x22BF72, size: 0x8, addend: 0x0, symName: __ZN6VSTGUI9CAnimKnob19setHeightOfOneImageERKd, symObjAddr: 0x31E0, symBinAddr: 0x727B0, symSize: 0x90 }
  - { offset: 0x22BFF5, size: 0x8, addend: 0x0, symName: __ZThn96_N6VSTGUI9CAnimKnob19setHeightOfOneImageERKd, symObjAddr: 0x3270, symBinAddr: 0x72840, symSize: 0xB0 }
  - { offset: 0x22C05F, size: 0x8, addend: 0x0, symName: __ZN6VSTGUI9CAnimKnob13setBackgroundEPNS_7CBitmapE, symObjAddr: 0x3320, symBinAddr: 0x728F0, symSize: 0xC0 }
  - { offset: 0x22C16C, size: 0x8, addend: 0x0, symName: __ZN6VSTGUI9CAnimKnob4drawEPNS_12CDrawContextE, symObjAddr: 0x33E0, symBinAddr: 0x729B0, symSize: 0x1F0 }
  - { offset: 0x22C3D1, size: 0x8, addend: 0x0, symName: __ZN6VSTGUI9CKnobBaseD1Ev, symObjAddr: 0x3860, symBinAddr: 0x178D90, symSize: 0x10 }
  - { offset: 0x22C3F0, size: 0x8, addend: 0x0, symName: __ZN6VSTGUI9CKnobBaseD0Ev, symObjAddr: 0x3870, symBinAddr: 0x178DA0, symSize: 0x10 }
  - { offset: 0x22C410, size: 0x8, addend: 0x0, symName: __ZNK6VSTGUI9CKnobBase13getStartAngleEv, symObjAddr: 0x3880, symBinAddr: 0x72BA0, symSize: 0x10 }
  - { offset: 0x22C435, size: 0x8, addend: 0x0, symName: __ZNK6VSTGUI9CKnobBase13getRangeAngleEv, symObjAddr: 0x3890, symBinAddr: 0x72BB0, symSize: 0x10 }
  - { offset: 0x22C45A, size: 0x8, addend: 0x0, symName: __ZN6VSTGUI9CKnobBase13setZoomFactorEf, symObjAddr: 0x38A0, symBinAddr: 0x72BC0, symSize: 0x10 }
  - { offset: 0x22C48D, size: 0x8, addend: 0x0, symName: __ZNK6VSTGUI9CKnobBase13getZoomFactorEv, symObjAddr: 0x38B0, symBinAddr: 0x72BD0, symSize: 0x10 }
  - { offset: 0x22C4B2, size: 0x8, addend: 0x0, symName: __ZNK6VSTGUI9CKnobBase13getInsetValueEv, symObjAddr: 0x38C0, symBinAddr: 0x72BE0, symSize: 0x10 }
  - { offset: 0x22C4D7, size: 0x8, addend: 0x0, symName: __ZN6VSTGUI9CKnobBase13setInsetValueEd, symObjAddr: 0x38D0, symBinAddr: 0x72BF0, symSize: 0x10 }
  - { offset: 0x22C50A, size: 0x8, addend: 0x0, symName: __ZN6VSTGUI9CKnobBase12setKnobRangeEf, symObjAddr: 0x38E0, symBinAddr: 0x72C00, symSize: 0x20 }
  - { offset: 0x22C53D, size: 0x8, addend: 0x0, symName: __ZNK6VSTGUI9CKnobBase12getKnobRangeEv, symObjAddr: 0x3900, symBinAddr: 0x72C20, symSize: 0x10 }
  - { offset: 0x22C57C, size: 0x8, addend: 0x0, symName: __ZThn24_N6VSTGUI9CKnobBaseD1Ev, symObjAddr: 0x3910, symBinAddr: 0x178DB0, symSize: 0x10 }
  - { offset: 0x22C5CB, size: 0x8, addend: 0x0, symName: __ZThn24_N6VSTGUI9CKnobBaseD0Ev, symObjAddr: 0x3920, symBinAddr: 0x178DC0, symSize: 0x10 }
  - { offset: 0x22C600, size: 0x8, addend: 0x0, symName: __ZNK6VSTGUI5CKnob7newCopyEv, symObjAddr: 0x3930, symBinAddr: 0x72C30, symSize: 0x40 }
  - { offset: 0x22C65C, size: 0x8, addend: 0x0, symName: __ZN6VSTGUI9CAnimKnobD1Ev, symObjAddr: 0x3970, symBinAddr: 0x72C70, symSize: 0x40 }
  - { offset: 0x22C724, size: 0x8, addend: 0x0, symName: __ZN6VSTGUI9CAnimKnobD0Ev, symObjAddr: 0x39B0, symBinAddr: 0x72CB0, symSize: 0x40 }
  - { offset: 0x22C7DD, size: 0x8, addend: 0x0, symName: __ZNK6VSTGUI9CAnimKnob7newCopyEv, symObjAddr: 0x39F0, symBinAddr: 0x72CF0, symSize: 0x40 }
  - { offset: 0x22C817, size: 0x8, addend: 0x0, symName: __ZN6VSTGUI9CAnimKnob16setNumSubPixmapsEi, symObjAddr: 0x3A30, symBinAddr: 0x72D30, symSize: 0x10 }
  - { offset: 0x22C878, size: 0x8, addend: 0x0, symName: __ZThn24_N6VSTGUI9CAnimKnobD1Ev, symObjAddr: 0x3A40, symBinAddr: 0x72D40, symSize: 0x40 }
  - { offset: 0x22C93E, size: 0x8, addend: 0x0, symName: __ZThn24_N6VSTGUI9CAnimKnobD0Ev, symObjAddr: 0x3A80, symBinAddr: 0x72D80, symSize: 0x40 }
  - { offset: 0x22CA02, size: 0x8, addend: 0x0, symName: __ZThn96_N6VSTGUI9CAnimKnobD1Ev, symObjAddr: 0x3AC0, symBinAddr: 0x72DC0, symSize: 0x40 }
  - { offset: 0x22CAAF, size: 0x8, addend: 0x0, symName: __ZThn96_N6VSTGUI9CAnimKnobD0Ev, symObjAddr: 0x3B00, symBinAddr: 0x72E00, symSize: 0x40 }
  - { offset: 0x22CB73, size: 0x8, addend: 0x0, symName: __ZThn96_N6VSTGUI9CAnimKnob16setNumSubPixmapsEi, symObjAddr: 0x3B50, symBinAddr: 0x72E40, symSize: 0x20 }
  - { offset: 0x23B6BA, size: 0x8, addend: 0x0, symName: __ZN6VSTGUI12CListControlC2ERKNS_5CRectEPNS_16IControlListenerEi, symObjAddr: 0x0, symBinAddr: 0x72E60, symSize: 0xA0 }
  - { offset: 0x23B8F5, size: 0x8, addend: 0x0, symName: __ZNSt3__110unique_ptrIN6VSTGUI12CListControl4ImplENS_14default_deleteIS3_EEED1B8ne180100Ev, symObjAddr: 0xA0, symBinAddr: 0x72F00, symSize: 0x80 }
  - { offset: 0x23BD35, size: 0x8, addend: 0x0, symName: __ZN6VSTGUI12CListControlC1ERKNS_5CRectEPNS_16IControlListenerEi, symObjAddr: 0x120, symBinAddr: 0x72F80, symSize: 0xB0 }
  - { offset: 0x23BF98, size: 0x8, addend: 0x0, symName: __ZN6VSTGUI12CListControlD2Ev, symObjAddr: 0x1D0, symBinAddr: 0x73030, symSize: 0xA0 }
  - { offset: 0x23C21F, size: 0x8, addend: 0x0, symName: __ZN6VSTGUI12CListControlD1Ev, symObjAddr: 0x270, symBinAddr: 0x730D0, symSize: 0x20 }
  - { offset: 0x23C274, size: 0x8, addend: 0x0, symName: __ZThn24_N6VSTGUI12CListControlD1Ev, symObjAddr: 0x290, symBinAddr: 0x730F0, symSize: 0x20 }
  - { offset: 0x23C2B4, size: 0x8, addend: 0x0, symName: __ZN6VSTGUI12CListControlD0Ev, symObjAddr: 0x2B0, symBinAddr: 0x73110, symSize: 0x30 }
  - { offset: 0x23C321, size: 0x8, addend: 0x0, symName: __ZThn24_N6VSTGUI12CListControlD0Ev, symObjAddr: 0x2E0, symBinAddr: 0x73140, symSize: 0x30 }
  - { offset: 0x23C3C2, size: 0x8, addend: 0x0, symName: __ZN6VSTGUI12CListControl9setDrawerEPNS_18IListControlDrawerE, symObjAddr: 0x310, symBinAddr: 0x73170, symSize: 0x60 }
  - { offset: 0x23C47C, size: 0x8, addend: 0x0, symName: __ZN6VSTGUI12CListControl15setConfiguratorEPNS_24IListControlConfiguratorE, symObjAddr: 0x370, symBinAddr: 0x731D0, symSize: 0x70 }
  - { offset: 0x23C521, size: 0x8, addend: 0x0, symName: __ZN6VSTGUI12CListControl17recalculateLayoutEv, symObjAddr: 0x3E0, symBinAddr: 0x73240, symSize: 0x1B0 }
  - { offset: 0x23C95B, size: 0x8, addend: 0x0, symName: __ZNSt3__16vectorIN6VSTGUI19CListControlRowDescENS_9allocatorIS2_EEE8__appendEm, symObjAddr: 0x2250, symBinAddr: 0x74DC0, symSize: 0x180 }
  - { offset: 0x23CFF1, size: 0x8, addend: 0x0, symName: __ZNK6VSTGUI12CListControl9getDrawerEv, symObjAddr: 0x590, symBinAddr: 0x733F0, symSize: 0x10 }
  - { offset: 0x23D066, size: 0x8, addend: 0x0, symName: __ZNK6VSTGUI12CListControl15getConfiguratorEv, symObjAddr: 0x5A0, symBinAddr: 0x73400, symSize: 0x10 }
  - { offset: 0x23D0E4, size: 0x8, addend: 0x0, symName: __ZNK6VSTGUI12CListControl13getHoveredRowEv, symObjAddr: 0x5B0, symBinAddr: 0x73410, symSize: 0x20 }
  - { offset: 0x23D146, size: 0x8, addend: 0x0, symName: __ZNK6VSTGUI12CListControl10getNumRowsEv, symObjAddr: 0x5D0, symBinAddr: 0x73430, symSize: 0x60 }
  - { offset: 0x23D1E1, size: 0x8, addend: 0x0, symName: __ZNK6VSTGUI12CListControl11getIntValueEv, symObjAddr: 0x630, symBinAddr: 0x73490, symSize: 0x30 }
  - { offset: 0x23D23A, size: 0x8, addend: 0x0, symName: __ZN6VSTGUI12CListControl11setViewSizeERKNS_5CRectEb, symObjAddr: 0x670, symBinAddr: 0x734C0, symSize: 0x30 }
  - { offset: 0x23D4E0, size: 0x8, addend: 0x0, symName: __ZNK6VSTGUI12CListControl10getRowRectEi, symObjAddr: 0x6A0, symBinAddr: 0x734F0, symSize: 0x130 }
  - { offset: 0x23D711, size: 0x8, addend: 0x0, symName: __ZNK6VSTGUI12CListControl14getMinRowIndexEv, symObjAddr: 0x7D0, symBinAddr: 0x73620, symSize: 0x10 }
  - { offset: 0x23D732, size: 0x8, addend: 0x0, symName: __ZNK6VSTGUI12CListControl14getMaxRowIndexEv, symObjAddr: 0x7E0, symBinAddr: 0x73630, symSize: 0x10 }
  - { offset: 0x23D784, size: 0x8, addend: 0x0, symName: __ZN6VSTGUI12CListControl10invalidRowEi, symObjAddr: 0x7F0, symBinAddr: 0x73640, symSize: 0x40 }
  - { offset: 0x23D85D, size: 0x8, addend: 0x0, symName: __ZNK6VSTGUI12CListControl13getRowAtPointENS_6CPointE, symObjAddr: 0x830, symBinAddr: 0x73680, symSize: 0xD0 }
  - { offset: 0x23D982, size: 0x8, addend: 0x0, symName: __ZN6VSTGUI12CListControl4drawEPNS_12CDrawContextE, symObjAddr: 0x900, symBinAddr: 0x73750, symSize: 0x30 }
  - { offset: 0x23D9C8, size: 0x8, addend: 0x0, symName: __ZN6VSTGUI12CListControl8drawRectEPNS_12CDrawContextERKNS_5CRectE, symObjAddr: 0x930, symBinAddr: 0x73780, symSize: 0x510 }
  - { offset: 0x23E205, size: 0x8, addend: 0x0, symName: __ZNK6VSTGUI12CListControl21getNormalizedRowIndexEi, symObjAddr: 0xE40, symBinAddr: 0x73C90, symSize: 0x50 }
  - { offset: 0x23E27F, size: 0x8, addend: 0x0, symName: __ZN6VSTGUI12CListControl8attachedEPNS_5CViewE, symObjAddr: 0xEB0, symBinAddr: 0x73CE0, symSize: 0xD0 }
  - { offset: 0x23E4B8, size: 0x8, addend: 0x0, symName: __ZN6VSTGUI12CListControl6setMinEf, symObjAddr: 0xF80, symBinAddr: 0x73DB0, symSize: 0x80 }
  - { offset: 0x23E559, size: 0x8, addend: 0x0, symName: __ZN6VSTGUI12CListControl6setMaxEf, symObjAddr: 0x1000, symBinAddr: 0x73E30, symSize: 0x80 }
  - { offset: 0x23E630, size: 0x8, addend: 0x0, symName: __ZN6VSTGUI12CListControl11onMouseDownERNS_6CPointERKNS_12CButtonStateE, symObjAddr: 0x1080, symBinAddr: 0x73EB0, symSize: 0x20 }
  - { offset: 0x23E6D8, size: 0x8, addend: 0x0, symName: __ZN6VSTGUI12CListControl15clearHoveredRowEv, symObjAddr: 0x10A0, symBinAddr: 0x73ED0, symSize: 0x50 }
  - { offset: 0x23E88A, size: 0x8, addend: 0x0, symName: __ZN6VSTGUI12CListControl12onMouseMovedERNS_6CPointERKNS_12CButtonStateE, symObjAddr: 0x10F0, symBinAddr: 0x73F20, symSize: 0x210 }
  - { offset: 0x23EDBB, size: 0x8, addend: 0x0, symName: __ZN6VSTGUI12CListControl9onMouseUpERNS_6CPointERKNS_12CButtonStateE, symObjAddr: 0x1300, symBinAddr: 0x74130, symSize: 0x250 }
  - { offset: 0x23F2A2, size: 0x8, addend: 0x0, symName: __ZNK6VSTGUI12CListControl13rowSelectableEi, symObjAddr: 0x1550, symBinAddr: 0x74380, symSize: 0x70 }
  - { offset: 0x23F38A, size: 0x8, addend: 0x0, symName: __ZN6VSTGUI12CListControl13onMouseExitedERNS_6CPointERKNS_12CButtonStateE, symObjAddr: 0x15C0, symBinAddr: 0x743F0, symSize: 0x60 }
  - { offset: 0x23F4EE, size: 0x8, addend: 0x0, symName: __ZNK6VSTGUI12CListControl20getNextSelectableRowEii, symObjAddr: 0x1620, symBinAddr: 0x74450, symSize: 0xD0 }
  - { offset: 0x23F6B3, size: 0x8, addend: 0x0, symName: __ZN6VSTGUI12CListControl15onKeyboardEventERNS_13KeyboardEventE, symObjAddr: 0x16F0, symBinAddr: 0x74520, symSize: 0x650 }
  - { offset: 0x240156, size: 0x8, addend: 0x0, symName: __ZN6VSTGUI12CListControl14drawFocusOnTopEv, symObjAddr: 0x1D40, symBinAddr: 0x74B70, symSize: 0x10 }
  - { offset: 0x24017B, size: 0x8, addend: 0x0, symName: __ZThn24_N6VSTGUI12CListControl14drawFocusOnTopEv, symObjAddr: 0x1D50, symBinAddr: 0x74B80, symSize: 0x10 }
  - { offset: 0x2401BD, size: 0x8, addend: 0x0, symName: __ZN6VSTGUI12CListControl12getFocusPathERNS_13CGraphicsPathE, symObjAddr: 0x1D60, symBinAddr: 0x74B90, symSize: 0x80 }
  - { offset: 0x240268, size: 0x8, addend: 0x0, symName: __ZThn24_N6VSTGUI12CListControl12getFocusPathERNS_13CGraphicsPathE, symObjAddr: 0x1DE0, symBinAddr: 0x74C10, symSize: 0x80 }
  - { offset: 0x2402E7, size: 0x8, addend: 0x0, symName: __ZNK6VSTGUI12CListControl7newCopyEv, symObjAddr: 0x20E0, symBinAddr: 0x74C90, symSize: 0x10 }
  - { offset: 0x240324, size: 0x8, addend: 0x0, symName: __ZZN6VSTGUI12CListControl8attachedEPNS_5CViewEEN12SizeListenerD1Ev, symObjAddr: 0x2100, symBinAddr: 0x74CA0, symSize: 0x40 }
  - { offset: 0x240376, size: 0x8, addend: 0x0, symName: __ZZN6VSTGUI12CListControl8attachedEPNS_5CViewEEN12SizeListenerD0Ev, symObjAddr: 0x2140, symBinAddr: 0x74CE0, symSize: 0x50 }
  - { offset: 0x2403CF, size: 0x8, addend: 0x0, symName: __ZZN6VSTGUI12CListControl8attachedEPNS_5CViewEEN12SizeListener15viewSizeChangedES2_RKNS_5CRectE, symObjAddr: 0x2190, symBinAddr: 0x74D30, symSize: 0x50 }
  - { offset: 0x24045E, size: 0x8, addend: 0x0, symName: __ZZN6VSTGUI12CListControl8attachedEPNS_5CViewEEN12SizeListener12viewAttachedES2_, symObjAddr: 0x21E0, symBinAddr: 0x74D80, symSize: 0x10 }
  - { offset: 0x24048F, size: 0x8, addend: 0x0, symName: __ZZN6VSTGUI12CListControl8attachedEPNS_5CViewEEN12SizeListener11viewRemovedES2_, symObjAddr: 0x21F0, symBinAddr: 0x74D90, symSize: 0x10 }
  - { offset: 0x2404C0, size: 0x8, addend: 0x0, symName: __ZZN6VSTGUI12CListControl8attachedEPNS_5CViewEEN12SizeListener14viewWillDeleteES2_, symObjAddr: 0x2220, symBinAddr: 0x74DA0, symSize: 0x20 }
  - { offset: 0x2408E2, size: 0x8, addend: 0x0, symName: __ZNKSt3__16vectorIN6VSTGUI19CListControlRowDescENS_9allocatorIS2_EEE20__throw_length_errorB8ne180100Ev, symObjAddr: 0x23D0, symBinAddr: 0x74F40, symSize: 0x10 }
  - { offset: 0x24284F, size: 0x8, addend: 0x0, symName: __ZN6VSTGUI12CMovieBitmapC2ERKNS_5CRectEPNS_16IControlListenerEiPNS_7CBitmapE, symObjAddr: 0x0, symBinAddr: 0x74F50, symSize: 0xF0 }
  - { offset: 0x242868, size: 0x8, addend: 0x0, symName: __ZN6VSTGUI12CMovieBitmap25useLegacyFrameCalculationE, symObjAddr: 0x2F218, symBinAddr: 0x1F7700, symSize: 0x0 }
  - { offset: 0x249156, size: 0x8, addend: 0x0, symName: __ZN6VSTGUI12CMovieBitmapC2ERKNS_5CRectEPNS_16IControlListenerEiPNS_7CBitmapE, symObjAddr: 0x0, symBinAddr: 0x74F50, symSize: 0xF0 }
  - { offset: 0x2492B4, size: 0x8, addend: 0x0, symName: __ZN6VSTGUI12CMovieBitmapC1ERKNS_5CRectEPNS_16IControlListenerEiPNS_7CBitmapE, symObjAddr: 0xF0, symBinAddr: 0x75040, symSize: 0xD0 }
  - { offset: 0x249401, size: 0x8, addend: 0x0, symName: __ZN6VSTGUI12CMovieBitmapC2ERKNS_5CRectEPNS_16IControlListenerEiidPNS_7CBitmapERKNS_6CPointE, symObjAddr: 0x1C0, symBinAddr: 0x75110, symSize: 0xE0 }
  - { offset: 0x24955F, size: 0x8, addend: 0x0, symName: __ZN6VSTGUI12CMovieBitmapC1ERKNS_5CRectEPNS_16IControlListenerEiidPNS_7CBitmapERKNS_6CPointE, symObjAddr: 0x2A0, symBinAddr: 0x751F0, symSize: 0xE0 }
  - { offset: 0x2496D3, size: 0x8, addend: 0x0, symName: __ZN6VSTGUI12CMovieBitmapC2ERKS0_, symObjAddr: 0x380, symBinAddr: 0x752D0, symSize: 0xD0 }
  - { offset: 0x2497B7, size: 0x8, addend: 0x0, symName: __ZN6VSTGUI12CMovieBitmapC1ERKS0_, symObjAddr: 0x450, symBinAddr: 0x753A0, symSize: 0xD0 }
  - { offset: 0x2499BA, size: 0x8, addend: 0x0, symName: __ZN6VSTGUI12CMovieBitmap4drawEPNS_12CDrawContextE, symObjAddr: 0x520, symBinAddr: 0x75470, symSize: 0x200 }
  - { offset: 0x249C68, size: 0x8, addend: 0x0, symName: __ZN6VSTGUI12CMovieBitmap9sizeToFitEv, symObjAddr: 0x720, symBinAddr: 0x75670, symSize: 0xE0 }
  - { offset: 0x249DF6, size: 0x8, addend: 0x0, symName: __ZN6VSTGUI12CMovieBitmapD1Ev, symObjAddr: 0xA90, symBinAddr: 0x75750, symSize: 0x20 }
  - { offset: 0x249E4A, size: 0x8, addend: 0x0, symName: __ZN6VSTGUI12CMovieBitmapD0Ev, symObjAddr: 0xAB0, symBinAddr: 0x75770, symSize: 0x30 }
  - { offset: 0x249EC9, size: 0x8, addend: 0x0, symName: __ZNK6VSTGUI12CMovieBitmap7newCopyEv, symObjAddr: 0xAE0, symBinAddr: 0x757A0, symSize: 0xF0 }
  - { offset: 0x249FE8, size: 0x8, addend: 0x0, symName: __ZN6VSTGUI12CMovieBitmap16setNumSubPixmapsEi, symObjAddr: 0xBD0, symBinAddr: 0x75890, symSize: 0x10 }
  - { offset: 0x24A049, size: 0x8, addend: 0x0, symName: __ZThn24_N6VSTGUI12CMovieBitmapD1Ev, symObjAddr: 0xBE0, symBinAddr: 0x758A0, symSize: 0x20 }
  - { offset: 0x24A0B1, size: 0x8, addend: 0x0, symName: __ZThn24_N6VSTGUI12CMovieBitmapD0Ev, symObjAddr: 0xC00, symBinAddr: 0x758C0, symSize: 0x30 }
  - { offset: 0x24A11E, size: 0x8, addend: 0x0, symName: __ZThn64_N6VSTGUI12CMovieBitmapD1Ev, symObjAddr: 0xC30, symBinAddr: 0x758F0, symSize: 0x20 }
  - { offset: 0x24A16D, size: 0x8, addend: 0x0, symName: __ZThn64_N6VSTGUI12CMovieBitmapD0Ev, symObjAddr: 0xC50, symBinAddr: 0x75910, symSize: 0x30 }
  - { offset: 0x24A1DA, size: 0x8, addend: 0x0, symName: __ZThn64_N6VSTGUI12CMovieBitmap16setNumSubPixmapsEi, symObjAddr: 0xCA0, symBinAddr: 0x75940, symSize: 0x20 }
  - { offset: 0x24C121, size: 0x8, addend: 0x0, symName: __ZN6VSTGUI12CMovieButtonC2ERKNS_5CRectEPNS_16IControlListenerEiPNS_7CBitmapE, symObjAddr: 0x0, symBinAddr: 0x75960, symSize: 0xD0 }
  - { offset: 0x252A93, size: 0x8, addend: 0x0, symName: __ZN6VSTGUI12CMovieButtonC2ERKNS_5CRectEPNS_16IControlListenerEiPNS_7CBitmapE, symObjAddr: 0x0, symBinAddr: 0x75960, symSize: 0xD0 }
  - { offset: 0x252BD7, size: 0x8, addend: 0x0, symName: __ZN6VSTGUI12CMovieButtonC1ERKNS_5CRectEPNS_16IControlListenerEiPNS_7CBitmapE, symObjAddr: 0xD0, symBinAddr: 0x75A30, symSize: 0xC0 }
  - { offset: 0x252D12, size: 0x8, addend: 0x0, symName: __ZN6VSTGUI12CMovieButtonC2ERKNS_5CRectEPNS_16IControlListenerEidPNS_7CBitmapERKNS_6CPointE, symObjAddr: 0x190, symBinAddr: 0x75AF0, symSize: 0xD0 }
  - { offset: 0x252E1A, size: 0x8, addend: 0x0, symName: __ZN6VSTGUI12CMovieButtonC1ERKNS_5CRectEPNS_16IControlListenerEidPNS_7CBitmapERKNS_6CPointE, symObjAddr: 0x260, symBinAddr: 0x75BC0, symSize: 0xD0 }
  - { offset: 0x252F19, size: 0x8, addend: 0x0, symName: __ZN6VSTGUI12CMovieButtonC2ERKS0_, symObjAddr: 0x330, symBinAddr: 0x75C90, symSize: 0xE0 }
  - { offset: 0x25301D, size: 0x8, addend: 0x0, symName: __ZN6VSTGUI12CMovieButtonC1ERKS0_, symObjAddr: 0x410, symBinAddr: 0x75D70, symSize: 0xC0 }
  - { offset: 0x253164, size: 0x8, addend: 0x0, symName: __ZN6VSTGUI12CMovieButton4drawEPNS_12CDrawContextE, symObjAddr: 0x4D0, symBinAddr: 0x75E30, symSize: 0x150 }
  - { offset: 0x253326, size: 0x8, addend: 0x0, symName: __ZN6VSTGUI12CMovieButton11onMouseDownERNS_6CPointERKNS_12CButtonStateE, symObjAddr: 0x620, symBinAddr: 0x75F80, symSize: 0x60 }
  - { offset: 0x253385, size: 0x8, addend: 0x0, symName: __ZN6VSTGUI12CMovieButton9onMouseUpERNS_6CPointERKNS_12CButtonStateE, symObjAddr: 0x680, symBinAddr: 0x75FE0, symSize: 0x30 }
  - { offset: 0x2533D6, size: 0x8, addend: 0x0, symName: __ZN6VSTGUI12CMovieButton12onMouseMovedERNS_6CPointERKNS_12CButtonStateE, symObjAddr: 0x6B0, symBinAddr: 0x76010, symSize: 0x110 }
  - { offset: 0x253473, size: 0x8, addend: 0x0, symName: __ZN6VSTGUI12CMovieButton13onMouseCancelEv, symObjAddr: 0x7C0, symBinAddr: 0x76120, symSize: 0x60 }
  - { offset: 0x253521, size: 0x8, addend: 0x0, symName: __ZN6VSTGUI12CMovieButton15onKeyboardEventERNS_13KeyboardEventE, symObjAddr: 0x820, symBinAddr: 0x76180, symSize: 0x90 }
  - { offset: 0x253647, size: 0x8, addend: 0x0, symName: __ZN6VSTGUI12CMovieButton9sizeToFitEv, symObjAddr: 0x8B0, symBinAddr: 0x76210, symSize: 0xD0 }
  - { offset: 0x253797, size: 0x8, addend: 0x0, symName: __ZN6VSTGUI12CMovieButtonD1Ev, symObjAddr: 0xC10, symBinAddr: 0x762E0, symSize: 0x20 }
  - { offset: 0x2537EB, size: 0x8, addend: 0x0, symName: __ZN6VSTGUI12CMovieButtonD0Ev, symObjAddr: 0xC30, symBinAddr: 0x76300, symSize: 0x30 }
  - { offset: 0x25386A, size: 0x8, addend: 0x0, symName: __ZNK6VSTGUI12CMovieButton7newCopyEv, symObjAddr: 0xC60, symBinAddr: 0x76330, symSize: 0xE0 }
  - { offset: 0x253951, size: 0x8, addend: 0x0, symName: __ZN6VSTGUI12CMovieButton16setNumSubPixmapsEi, symObjAddr: 0xD40, symBinAddr: 0x76410, symSize: 0x10 }
  - { offset: 0x2539B2, size: 0x8, addend: 0x0, symName: __ZThn24_N6VSTGUI12CMovieButtonD1Ev, symObjAddr: 0xD50, symBinAddr: 0x76420, symSize: 0x20 }
  - { offset: 0x253A1A, size: 0x8, addend: 0x0, symName: __ZThn24_N6VSTGUI12CMovieButtonD0Ev, symObjAddr: 0xD70, symBinAddr: 0x76440, symSize: 0x30 }
  - { offset: 0x253A87, size: 0x8, addend: 0x0, symName: __ZThn64_N6VSTGUI12CMovieButtonD1Ev, symObjAddr: 0xDA0, symBinAddr: 0x76470, symSize: 0x20 }
  - { offset: 0x253AD6, size: 0x8, addend: 0x0, symName: __ZThn64_N6VSTGUI12CMovieButtonD0Ev, symObjAddr: 0xDC0, symBinAddr: 0x76490, symSize: 0x30 }
  - { offset: 0x253B62, size: 0x8, addend: 0x0, symName: __ZThn64_N6VSTGUI12CMovieButton16setNumSubPixmapsEi, symObjAddr: 0xE10, symBinAddr: 0x764C0, symSize: 0x20 }
  - { offset: 0x26E5FE, size: 0x8, addend: 0x0, symName: __ZN6VSTGUI11COptionMenu15onKeyboardEventERNS_13KeyboardEventE, symObjAddr: 0x23F0, symBinAddr: 0x78880, symSize: 0x2B0 }
  - { offset: 0x26EEAB, size: 0x8, addend: 0x0, symName: __ZN6VSTGUI11COptionMenu5popupERKNSt3__18functionIFvPS0_EEE, symObjAddr: 0x2990, symBinAddr: 0x78E20, symSize: 0x300 }
  - { offset: 0x26FB8A, size: 0x8, addend: 0x0, symName: __ZN6VSTGUI11COptionMenu5popupEPNS_6CFrameERKNS_6CPointERKNSt3__18functionIFvPS0_EEE, symObjAddr: 0x2CF0, symBinAddr: 0x79180, symSize: 0x300 }
  - { offset: 0x27098C, size: 0x8, addend: 0x0, symName: __ZN6VSTGUI11COptionMenu11onMouseDownERNS_6CPointERKNS_12CButtonStateE, symObjAddr: 0x41A0, symBinAddr: 0x7A5D0, symSize: 0x120 }
  - { offset: 0x2713CD, size: 0x8, addend: 0x0, symName: __ZN6VSTGUI9CMenuItemC2Ev, symObjAddr: 0x0, symBinAddr: 0x764E0, symSize: 0x140 }
  - { offset: 0x27179B, size: 0x8, addend: 0x0, symName: __ZN6VSTGUI9CMenuItem4ImplD2Ev, symObjAddr: 0x4860, symBinAddr: 0x7AA00, symSize: 0x90 }
  - { offset: 0x271B40, size: 0x8, addend: 0x0, symName: __ZNSt3__110unique_ptrIN6VSTGUI9CMenuItem4ImplENS_14default_deleteIS3_EEED1B8ne180100Ev, symObjAddr: 0x140, symBinAddr: 0x76620, symSize: 0x40 }
  - { offset: 0x271C17, size: 0x8, addend: 0x0, symName: __ZN6VSTGUI9CMenuItemC1Ev, symObjAddr: 0x180, symBinAddr: 0x76660, symSize: 0x110 }
  - { offset: 0x271FDD, size: 0x8, addend: 0x0, symName: __ZN6VSTGUI9CMenuItemD2Ev, symObjAddr: 0x290, symBinAddr: 0x76770, symSize: 0x50 }
  - { offset: 0x2720E4, size: 0x8, addend: 0x0, symName: __ZN6VSTGUI9CMenuItemD1Ev, symObjAddr: 0x2E0, symBinAddr: 0x767C0, symSize: 0x40 }
  - { offset: 0x2721F8, size: 0x8, addend: 0x0, symName: __ZN6VSTGUI9CMenuItemD0Ev, symObjAddr: 0x320, symBinAddr: 0x76800, symSize: 0x50 }
  - { offset: 0x272333, size: 0x8, addend: 0x0, symName: __ZN6VSTGUI9CMenuItemC2ERKNS_10UTF8StringES3_iPNS_7CBitmapEi, symObjAddr: 0x370, symBinAddr: 0x76850, symSize: 0x80 }
  - { offset: 0x27242D, size: 0x8, addend: 0x0, symName: __ZN6VSTGUI9CMenuItemC1ERKNS_10UTF8StringES3_iPNS_7CBitmapEi, symObjAddr: 0x3F0, symBinAddr: 0x768D0, symSize: 0x80 }
  - { offset: 0x272513, size: 0x8, addend: 0x0, symName: __ZN6VSTGUI9CMenuItemC2ERKNS_10UTF8StringEPNS_11COptionMenuEPNS_7CBitmapE, symObjAddr: 0x470, symBinAddr: 0x76950, symSize: 0x70 }
  - { offset: 0x2725F8, size: 0x8, addend: 0x0, symName: __ZN6VSTGUI9CMenuItemC1ERKNS_10UTF8StringEPNS_11COptionMenuEPNS_7CBitmapE, symObjAddr: 0x4E0, symBinAddr: 0x769C0, symSize: 0x60 }
  - { offset: 0x2726A6, size: 0x8, addend: 0x0, symName: __ZN6VSTGUI9CMenuItemC2ERKNS_10UTF8StringEi, symObjAddr: 0x540, symBinAddr: 0x76A20, symSize: 0x60 }
  - { offset: 0x272765, size: 0x8, addend: 0x0, symName: __ZN6VSTGUI9CMenuItemC1ERKNS_10UTF8StringEi, symObjAddr: 0x5A0, symBinAddr: 0x76A80, symSize: 0x60 }
  - { offset: 0x2728CA, size: 0x8, addend: 0x0, symName: __ZN6VSTGUI9CMenuItemC2ERKS0_, symObjAddr: 0x600, symBinAddr: 0x76AE0, symSize: 0xC0 }
  - { offset: 0x272B3B, size: 0x8, addend: 0x0, symName: __ZNK6VSTGUI9CMenuItem8getTitleEv, symObjAddr: 0x6C0, symBinAddr: 0x76BA0, symSize: 0x10 }
  - { offset: 0x272B78, size: 0x8, addend: 0x0, symName: __ZNK6VSTGUI9CMenuItem7getIconEv, symObjAddr: 0x6D0, symBinAddr: 0x76BB0, symSize: 0x10 }
  - { offset: 0x272BD4, size: 0x8, addend: 0x0, symName: __ZNK6VSTGUI9CMenuItem13getVirtualKeyEv, symObjAddr: 0x6E0, symBinAddr: 0x76BC0, symSize: 0x10 }
  - { offset: 0x272C11, size: 0x8, addend: 0x0, symName: __ZNK6VSTGUI9CMenuItem15getKeyModifiersEv, symObjAddr: 0x6F0, symBinAddr: 0x76BD0, symSize: 0x10 }
  - { offset: 0x272C4E, size: 0x8, addend: 0x0, symName: __ZNK6VSTGUI9CMenuItem10getKeycodeEv, symObjAddr: 0x700, symBinAddr: 0x76BE0, symSize: 0x10 }
  - { offset: 0x272C8B, size: 0x8, addend: 0x0, symName: __ZNK6VSTGUI9CMenuItem6getTagEv, symObjAddr: 0x710, symBinAddr: 0x76BF0, symSize: 0x10 }
  - { offset: 0x272CC8, size: 0x8, addend: 0x0, symName: __ZNK6VSTGUI9CMenuItem10getSubmenuEv, symObjAddr: 0x720, symBinAddr: 0x76C00, symSize: 0x10 }
  - { offset: 0x272D25, size: 0x8, addend: 0x0, symName: __ZN6VSTGUI9CMenuItemC1ERKS0_, symObjAddr: 0x730, symBinAddr: 0x76C10, symSize: 0xB0 }
  - { offset: 0x272F7C, size: 0x8, addend: 0x0, symName: __ZN6VSTGUI9CMenuItem8setTitleERKNS_10UTF8StringE, symObjAddr: 0x7E0, symBinAddr: 0x76CC0, symSize: 0x10 }
  - { offset: 0x272FD1, size: 0x8, addend: 0x0, symName: __ZN6VSTGUI9CMenuItem6setKeyERKNS_10UTF8StringEi, symObjAddr: 0x7F0, symBinAddr: 0x76CD0, symSize: 0x30 }
  - { offset: 0x273054, size: 0x8, addend: 0x0, symName: __ZN6VSTGUI9CMenuItem13setVirtualKeyEii, symObjAddr: 0x820, symBinAddr: 0x76D00, symSize: 0x90 }
  - { offset: 0x27337C, size: 0x8, addend: 0x0, symName: __ZNK6VSTGUI9CMenuItem17getVirtualKeyCodeEv, symObjAddr: 0x8F0, symBinAddr: 0x76D90, symSize: 0x20 }
  - { offset: 0x2733E5, size: 0x8, addend: 0x0, symName: __ZN6VSTGUI9CMenuItem13setVirtualKeyENS_10VirtualKeyEi, symObjAddr: 0x910, symBinAddr: 0x76DB0, symSize: 0x90 }
  - { offset: 0x273625, size: 0x8, addend: 0x0, symName: __ZN6VSTGUI9CMenuItem10setSubmenuEPNS_11COptionMenuE, symObjAddr: 0x9A0, symBinAddr: 0x76E40, symSize: 0x40 }
  - { offset: 0x2736DC, size: 0x8, addend: 0x0, symName: __ZN6VSTGUI9CMenuItem7setIconEPNS_7CBitmapE, symObjAddr: 0x9E0, symBinAddr: 0x76E80, symSize: 0x40 }
  - { offset: 0x273770, size: 0x8, addend: 0x0, symName: __ZN6VSTGUI9CMenuItem6setTagEi, symObjAddr: 0xA20, symBinAddr: 0x76EC0, symSize: 0x10 }
  - { offset: 0x2737C3, size: 0x8, addend: 0x0, symName: __ZN6VSTGUI9CMenuItem10setEnabledEb, symObjAddr: 0xA30, symBinAddr: 0x76ED0, symSize: 0x20 }
  - { offset: 0x273846, size: 0x8, addend: 0x0, symName: __ZN6VSTGUI9CMenuItem10setCheckedEb, symObjAddr: 0xA50, symBinAddr: 0x76EF0, symSize: 0x20 }
  - { offset: 0x2738CB, size: 0x8, addend: 0x0, symName: __ZN6VSTGUI9CMenuItem10setIsTitleEb, symObjAddr: 0xA70, symBinAddr: 0x76F10, symSize: 0x20 }
  - { offset: 0x273950, size: 0x8, addend: 0x0, symName: __ZN6VSTGUI9CMenuItem14setIsSeparatorEb, symObjAddr: 0xA90, symBinAddr: 0x76F30, symSize: 0x20 }
  - { offset: 0x2739D5, size: 0x8, addend: 0x0, symName: __ZNK6VSTGUI9CMenuItem9isEnabledEv, symObjAddr: 0xAB0, symBinAddr: 0x76F50, symSize: 0x20 }
  - { offset: 0x273A35, size: 0x8, addend: 0x0, symName: __ZNK6VSTGUI9CMenuItem9isCheckedEv, symObjAddr: 0xAD0, symBinAddr: 0x76F70, symSize: 0x20 }
  - { offset: 0x273A8F, size: 0x8, addend: 0x0, symName: __ZNK6VSTGUI9CMenuItem7isTitleEv, symObjAddr: 0xAF0, symBinAddr: 0x76F90, symSize: 0x20 }
  - { offset: 0x273AEF, size: 0x8, addend: 0x0, symName: __ZNK6VSTGUI9CMenuItem11isSeparatorEv, symObjAddr: 0xB10, symBinAddr: 0x76FB0, symSize: 0x20 }
  - { offset: 0x273CEF, size: 0x8, addend: 0x0, symName: __ZN6VSTGUI16CCommandMenuItemC2EONS0_4DescE, symObjAddr: 0xB30, symBinAddr: 0x76FD0, symSize: 0x1B0 }
  - { offset: 0x274126, size: 0x8, addend: 0x0, symName: __ZN6VSTGUI13SharedPointerINS_22ICommandMenuItemTargetEED1Ev, symObjAddr: 0xCE0, symBinAddr: 0x77180, symSize: 0x30 }
  - { offset: 0x2741A6, size: 0x8, addend: 0x0, symName: __ZN6VSTGUI16CCommandMenuItemC1EONS0_4DescE, symObjAddr: 0xD10, symBinAddr: 0x771B0, symSize: 0x1A0 }
  - { offset: 0x274632, size: 0x8, addend: 0x0, symName: __ZN6VSTGUI16CCommandMenuItemC2ERKNS0_4DescE, symObjAddr: 0xEB0, symBinAddr: 0x77350, symSize: 0x1A0 }
  - { offset: 0x2749E2, size: 0x8, addend: 0x0, symName: __ZN6VSTGUI16CCommandMenuItemC1ERKNS0_4DescE, symObjAddr: 0x1050, symBinAddr: 0x774F0, symSize: 0x1A0 }
  - { offset: 0x274EC6, size: 0x8, addend: 0x0, symName: __ZN6VSTGUI16CCommandMenuItemC2ERKS0_, symObjAddr: 0x11F0, symBinAddr: 0x77690, symSize: 0x1A0 }
  - { offset: 0x275267, size: 0x8, addend: 0x0, symName: __ZN6VSTGUI16CCommandMenuItem13setItemTargetEPNS_22ICommandMenuItemTargetE, symObjAddr: 0x1390, symBinAddr: 0x77830, symSize: 0x60 }
  - { offset: 0x2752D4, size: 0x8, addend: 0x0, symName: __ZN6VSTGUI16CCommandMenuItemC1ERKS0_, symObjAddr: 0x13F0, symBinAddr: 0x77890, symSize: 0x190 }
  - { offset: 0x27567D, size: 0x8, addend: 0x0, symName: __ZN6VSTGUI16CCommandMenuItem18setCommandCategoryERKNS_10UTF8StringE, symObjAddr: 0x1580, symBinAddr: 0x77A20, symSize: 0x10 }
  - { offset: 0x2756B6, size: 0x8, addend: 0x0, symName: __ZNK6VSTGUI16CCommandMenuItem17isCommandCategoryERKNS_10UTF8StringE, symObjAddr: 0x1590, symBinAddr: 0x77A30, symSize: 0x10 }
  - { offset: 0x2756EF, size: 0x8, addend: 0x0, symName: __ZN6VSTGUI16CCommandMenuItem14setCommandNameERKNS_10UTF8StringE, symObjAddr: 0x15A0, symBinAddr: 0x77A40, symSize: 0x20 }
  - { offset: 0x275728, size: 0x8, addend: 0x0, symName: __ZNK6VSTGUI16CCommandMenuItem13isCommandNameERKNS_10UTF8StringE, symObjAddr: 0x15C0, symBinAddr: 0x77A60, symSize: 0x20 }
  - { offset: 0x2757CD, size: 0x8, addend: 0x0, symName: __ZN6VSTGUI16CCommandMenuItem10setActionsEONSt3__18functionIFvPS0_EEES6_, symObjAddr: 0x15E0, symBinAddr: 0x77A80, symSize: 0x110 }
  - { offset: 0x275999, size: 0x8, addend: 0x0, symName: __ZN6VSTGUI16CCommandMenuItem7executeEv, symObjAddr: 0x16F0, symBinAddr: 0x77B90, symSize: 0x40 }
  - { offset: 0x275A94, size: 0x8, addend: 0x0, symName: __ZN6VSTGUI16CCommandMenuItem8validateEv, symObjAddr: 0x1730, symBinAddr: 0x77BD0, symSize: 0x40 }
  - { offset: 0x275D73, size: 0x8, addend: 0x0, symName: __ZN6VSTGUI11COptionMenuC2ERKNS_5CRectEPNS_16IControlListenerEiPNS_7CBitmapES7_i, symObjAddr: 0x1770, symBinAddr: 0x77C10, symSize: 0x130 }
  - { offset: 0x275FD0, size: 0x8, addend: 0x0, symName: __ZNSt3__110unique_ptrIN6VSTGUI12DispatchListIPNS1_19IOptionMenuListenerEEENS_14default_deleteIS5_EEED1B8ne180100Ev, symObjAddr: 0x18A0, symBinAddr: 0x77D40, symSize: 0x50 }
  - { offset: 0x27657B, size: 0x8, addend: 0x0, symName: __ZN6VSTGUI11COptionMenuC1ERKNS_5CRectEPNS_16IControlListenerEiPNS_7CBitmapES7_i, symObjAddr: 0x18F0, symBinAddr: 0x77D90, symSize: 0x130 }
  - { offset: 0x276876, size: 0x8, addend: 0x0, symName: __ZN6VSTGUI11COptionMenuC2Ev, symObjAddr: 0x1A20, symBinAddr: 0x77EC0, symSize: 0x100 }
  - { offset: 0x2769FE, size: 0x8, addend: 0x0, symName: __ZN6VSTGUI11COptionMenuC1Ev, symObjAddr: 0x1B20, symBinAddr: 0x77FC0, symSize: 0xF0 }
  - { offset: 0x276BF4, size: 0x8, addend: 0x0, symName: __ZN6VSTGUI11COptionMenuC2ERKS0_, symObjAddr: 0x1C10, symBinAddr: 0x780B0, symSize: 0x120 }
  - { offset: 0x276DD7, size: 0x8, addend: 0x0, symName: __ZNSt3__16vectorIN6VSTGUI13SharedPointerINS1_9CMenuItemEEENS_9allocatorIS4_EEEC2ERKS7_, symObjAddr: 0x48F0, symBinAddr: 0x7AA90, symSize: 0x100 }
  - { offset: 0x277228, size: 0x8, addend: 0x0, symName: __ZN6VSTGUI11COptionMenuC1ERKS0_, symObjAddr: 0x1D30, symBinAddr: 0x781D0, symSize: 0x120 }
  - { offset: 0x277599, size: 0x8, addend: 0x0, symName: __ZN6VSTGUI11COptionMenuD2Ev, symObjAddr: 0x1E50, symBinAddr: 0x782F0, symSize: 0x120 }
  - { offset: 0x277AD7, size: 0x8, addend: 0x0, symName: __ZN6VSTGUI11COptionMenuD1Ev, symObjAddr: 0x1F80, symBinAddr: 0x78410, symSize: 0x20 }
  - { offset: 0x277B29, size: 0x8, addend: 0x0, symName: __ZThn24_N6VSTGUI11COptionMenuD1Ev, symObjAddr: 0x1FA0, symBinAddr: 0x78430, symSize: 0x20 }
  - { offset: 0x277B6A, size: 0x8, addend: 0x0, symName: __ZN6VSTGUI11COptionMenuD0Ev, symObjAddr: 0x1FC0, symBinAddr: 0x78450, symSize: 0x30 }
  - { offset: 0x277BDB, size: 0x8, addend: 0x0, symName: __ZThn24_N6VSTGUI11COptionMenuD0Ev, symObjAddr: 0x1FF0, symBinAddr: 0x78480, symSize: 0x30 }
  - { offset: 0x277CDF, size: 0x8, addend: 0x0, symName: __ZN6VSTGUI11COptionMenu26registerOptionMenuListenerEPNS_19IOptionMenuListenerE, symObjAddr: 0x2020, symBinAddr: 0x784B0, symSize: 0x60 }
  - { offset: 0x277E02, size: 0x8, addend: 0x0, symName: __ZN6VSTGUI12DispatchListIPNS_19IOptionMenuListenerEE3addERKS2_, symObjAddr: 0x2080, symBinAddr: 0x78510, symSize: 0x2F0 }
  - { offset: 0x278FB9, size: 0x8, addend: 0x0, symName: __ZNKSt3__16vectorIPN6VSTGUI19IOptionMenuListenerENS_9allocatorIS3_EEE20__throw_length_errorB8ne180100Ev, symObjAddr: 0x4AC0, symBinAddr: 0x7ABA0, symSize: 0x10 }
  - { offset: 0x278FE3, size: 0x8, addend: 0x0, symName: __ZNKSt3__16vectorINS_4pairIbPN6VSTGUI19IOptionMenuListenerEEENS_9allocatorIS5_EEE20__throw_length_errorB8ne180100Ev, symObjAddr: 0x4AD0, symBinAddr: 0x7ABB0, symSize: 0x10 }
  - { offset: 0x278FEE, size: 0x8, addend: 0x0, symName: __ZNKSt3__16vectorINS_4pairIbPN6VSTGUI19IOptionMenuListenerEEENS_9allocatorIS5_EEE20__throw_length_errorB8ne180100Ev, symObjAddr: 0x4AD0, symBinAddr: 0x7ABB0, symSize: 0x10 }
  - { offset: 0x279018, size: 0x8, addend: 0x0, symName: '__ZNSt3__110__function6__funcIZN6VSTGUI11COptionMenu15onKeyboardEventERNS2_13KeyboardEventEE3$_0NS_9allocatorIS6_EEFvvEED1Ev', symObjAddr: 0x4AE0, symBinAddr: 0x7ABC0, symSize: 0x30 }
  - { offset: 0x279207, size: 0x8, addend: 0x0, symName: __ZN6VSTGUI11COptionMenu28unregisterOptionMenuListenerEPNS_19IOptionMenuListenerE, symObjAddr: 0x2370, symBinAddr: 0x78800, symSize: 0x80 }
  - { offset: 0x279A83, size: 0x8, addend: 0x0, symName: __ZN6VSTGUI11COptionMenu11beforePopupEv, symObjAddr: 0x26A0, symBinAddr: 0x78B30, symSize: 0x120 }
  - { offset: 0x279FA4, size: 0x8, addend: 0x0, symName: __ZN6VSTGUI12DispatchListIPNS_19IOptionMenuListenerEE11postForEachEv, symObjAddr: 0x4D40, symBinAddr: 0x7AE20, symSize: 0x3D0 }
  - { offset: 0x27AE88, size: 0x8, addend: 0x0, symName: __ZN6VSTGUI11COptionMenu10afterPopupEv, symObjAddr: 0x27C0, symBinAddr: 0x78C50, symSize: 0xD0 }
  - { offset: 0x27B2C0, size: 0x8, addend: 0x0, symName: __ZN6VSTGUI11COptionMenu7doPopupEv, symObjAddr: 0x2890, symBinAddr: 0x78D20, symSize: 0x100 }
  - { offset: 0x27BB53, size: 0x8, addend: 0x0, symName: '__ZZN6VSTGUI11COptionMenu5popupERKNSt3__18functionIFvPS0_EEEEN3$_0D1Ev', symObjAddr: 0x2C90, symBinAddr: 0x79120, symSize: 0x60 }
  - { offset: 0x27C39D, size: 0x8, addend: 0x0, symName: '__ZZN6VSTGUI11COptionMenu5popupEPNS_6CFrameERKNS_6CPointERKNSt3__18functionIFvPS0_EEEEN3$_0D1Ev', symObjAddr: 0x2FF0, symBinAddr: 0x79480, symSize: 0x60 }
  - { offset: 0x27C9DB, size: 0x8, addend: 0x0, symName: __ZN6VSTGUI11COptionMenu17cleanupSeparatorsEb, symObjAddr: 0x3050, symBinAddr: 0x794E0, symSize: 0x2A0 }
  - { offset: 0x27D4A3, size: 0x8, addend: 0x0, symName: __ZN6VSTGUI11COptionMenu16setPrefixNumbersEi, symObjAddr: 0x3350, symBinAddr: 0x79780, symSize: 0x20 }
  - { offset: 0x27D708, size: 0x8, addend: 0x0, symName: __ZN6VSTGUI11COptionMenu8addEntryEPNS_9CMenuItemEi, symObjAddr: 0x3370, symBinAddr: 0x797A0, symSize: 0xF0 }
  - { offset: 0x27DB0E, size: 0x8, addend: 0x0, symName: __ZNSt3__16vectorIN6VSTGUI13SharedPointerINS1_9CMenuItemEEENS_9allocatorIS4_EEE24__emplace_back_slow_pathIJS4_EEEPS4_DpOT_, symObjAddr: 0x5C90, symBinAddr: 0x7BA80, symSize: 0x200 }
  - { offset: 0x27E049, size: 0x8, addend: 0x0, symName: __ZNSt3__16vectorIN6VSTGUI13SharedPointerINS1_9CMenuItemEEENS_9allocatorIS4_EEE6insertENS_11__wrap_iterIPKS4_EEOS4_, symObjAddr: 0x3460, symBinAddr: 0x79890, symSize: 0x560 }
  - { offset: 0x27EEA8, size: 0x8, addend: 0x0, symName: __ZNSt3__114__split_bufferIN6VSTGUI13SharedPointerINS1_9CMenuItemEEERNS_9allocatorIS4_EEE9push_backEOS4_, symObjAddr: 0x5F00, symBinAddr: 0x7BCF0, symSize: 0x280 }
  - { offset: 0x27F496, size: 0x8, addend: 0x0, symName: __ZNKSt3__16vectorIN6VSTGUI13SharedPointerINS1_9CMenuItemEEENS_9allocatorIS4_EEE20__throw_length_errorB8ne180100Ev, symObjAddr: 0x49F0, symBinAddr: 0x7AB90, symSize: 0x10 }
  - { offset: 0x27F4CA, size: 0x8, addend: 0x0, symName: __ZNSt3__114__split_bufferIN6VSTGUI13SharedPointerINS1_9CMenuItemEEERNS_9allocatorIS4_EEED1Ev, symObjAddr: 0x5E90, symBinAddr: 0x7BC80, symSize: 0x70 }
  - { offset: 0x27F69D, size: 0x8, addend: 0x0, symName: __ZN6VSTGUI11COptionMenu8addEntryEPS0_RKNS_10UTF8StringE, symObjAddr: 0x39C0, symBinAddr: 0x79DF0, symSize: 0xA0 }
  - { offset: 0x27F7E8, size: 0x8, addend: 0x0, symName: __ZN6VSTGUI11COptionMenu8addEntryERKNS_10UTF8StringEii, symObjAddr: 0x3A60, symBinAddr: 0x79E90, symSize: 0x130 }
  - { offset: 0x27FAF5, size: 0x8, addend: 0x0, symName: __ZN6VSTGUI11COptionMenu12addSeparatorEi, symObjAddr: 0x3B90, symBinAddr: 0x79FC0, symSize: 0x130 }
  - { offset: 0x27FF6A, size: 0x8, addend: 0x0, symName: __ZNK6VSTGUI11COptionMenu10getCurrentEv, symObjAddr: 0x3CC0, symBinAddr: 0x7A0F0, symSize: 0x20 }
  - { offset: 0x27FFDD, size: 0x8, addend: 0x0, symName: __ZNK6VSTGUI11COptionMenu8getEntryEi, symObjAddr: 0x3CE0, symBinAddr: 0x7A110, symSize: 0x50 }
  - { offset: 0x280083, size: 0x8, addend: 0x0, symName: __ZNK6VSTGUI11COptionMenu12getNbEntriesEv, symObjAddr: 0x3D30, symBinAddr: 0x7A160, symSize: 0x20 }
  - { offset: 0x2800C9, size: 0x8, addend: 0x0, symName: __ZNK6VSTGUI11COptionMenu10getSubMenuEi, symObjAddr: 0x3D50, symBinAddr: 0x7A180, symSize: 0x20 }
  - { offset: 0x28018C, size: 0x8, addend: 0x0, symName: __ZNK6VSTGUI11COptionMenu15getCurrentIndexEb, symObjAddr: 0x3D70, symBinAddr: 0x7A1A0, symSize: 0x70 }
  - { offset: 0x28033B, size: 0x8, addend: 0x0, symName: __ZN6VSTGUI11COptionMenu10setCurrentEib, symObjAddr: 0x3DE0, symBinAddr: 0x7A210, symSize: 0xE0 }
  - { offset: 0x280677, size: 0x8, addend: 0x0, symName: __ZN6VSTGUI11COptionMenu11removeEntryEi, symObjAddr: 0x3EC0, symBinAddr: 0x7A2F0, symSize: 0xF0 }
  - { offset: 0x280955, size: 0x8, addend: 0x0, symName: __ZN6VSTGUI11COptionMenu14removeAllEntryEv, symObjAddr: 0x3FB0, symBinAddr: 0x7A3E0, symSize: 0x60 }
  - { offset: 0x280A58, size: 0x8, addend: 0x0, symName: __ZN6VSTGUI11COptionMenu10checkEntryEib, symObjAddr: 0x4010, symBinAddr: 0x7A440, symSize: 0x40 }
  - { offset: 0x280AE1, size: 0x8, addend: 0x0, symName: __ZN6VSTGUI11COptionMenu15checkEntryAloneEi, symObjAddr: 0x4050, symBinAddr: 0x7A480, symSize: 0x50 }
  - { offset: 0x280C1A, size: 0x8, addend: 0x0, symName: __ZNK6VSTGUI11COptionMenu12isCheckEntryEi, symObjAddr: 0x40A0, symBinAddr: 0x7A4D0, symSize: 0x30 }
  - { offset: 0x280CF1, size: 0x8, addend: 0x0, symName: __ZN6VSTGUI11COptionMenu4drawEPNS_12CDrawContextE, symObjAddr: 0x40D0, symBinAddr: 0x7A500, symSize: 0xD0 }
  - { offset: 0x2811D5, size: 0x8, addend: 0x0, symName: __ZNK6VSTGUI11COptionMenu15getLastItemMenuERi, symObjAddr: 0x42C0, symBinAddr: 0x7A6F0, symSize: 0x40 }
  - { offset: 0x28121C, size: 0x8, addend: 0x0, symName: __ZN6VSTGUI11COptionMenu8setValueEf, symObjAddr: 0x4300, symBinAddr: 0x7A730, symSize: 0xA0 }
  - { offset: 0x28133B, size: 0x8, addend: 0x0, symName: __ZNK6VSTGUI11COptionMenu6getMaxEv, symObjAddr: 0x43A0, symBinAddr: 0x7A7D0, symSize: 0x60 }
  - { offset: 0x28137B, size: 0x8, addend: 0x0, symName: __ZN6VSTGUI11COptionMenu9takeFocusEv, symObjAddr: 0x4400, symBinAddr: 0x7A830, symSize: 0x10 }
  - { offset: 0x2813A3, size: 0x8, addend: 0x0, symName: __ZN6VSTGUI11COptionMenu10looseFocusEv, symObjAddr: 0x4410, symBinAddr: 0x7A840, symSize: 0x80 }
  - { offset: 0x2813F6, size: 0x8, addend: 0x0, symName: __ZNK6VSTGUI13CParamDisplay7newCopyEv, symObjAddr: 0x4550, symBinAddr: 0x7A8C0, symSize: 0x40 }
  - { offset: 0x28141D, size: 0x8, addend: 0x0, symName: __ZN6VSTGUI13CParamDisplay12setAntialiasEb, symObjAddr: 0x4710, symBinAddr: 0x7A900, symSize: 0x20 }
  - { offset: 0x28146E, size: 0x8, addend: 0x0, symName: __ZNK6VSTGUI11COptionMenu7newCopyEv, symObjAddr: 0x4780, symBinAddr: 0x7A920, symSize: 0x40 }
  - { offset: 0x2814A9, size: 0x8, addend: 0x0, symName: __ZN6VSTGUI11COptionMenu6setMinEf, symObjAddr: 0x47C0, symBinAddr: 0x7A960, symSize: 0x10 }
  - { offset: 0x2814DD, size: 0x8, addend: 0x0, symName: __ZNK6VSTGUI11COptionMenu6getMinEv, symObjAddr: 0x47D0, symBinAddr: 0x7A970, symSize: 0x10 }
  - { offset: 0x281502, size: 0x8, addend: 0x0, symName: __ZN6VSTGUI11COptionMenu6setMaxEf, symObjAddr: 0x47E0, symBinAddr: 0x7A980, symSize: 0x10 }
  - { offset: 0x281536, size: 0x8, addend: 0x0, symName: __ZN6VSTGUI11COptionMenu19setNbItemsPerColumnEi, symObjAddr: 0x47F0, symBinAddr: 0x7A990, symSize: 0x10 }
  - { offset: 0x28156A, size: 0x8, addend: 0x0, symName: __ZNK6VSTGUI11COptionMenu19getNbItemsPerColumnEv, symObjAddr: 0x4800, symBinAddr: 0x7A9A0, symSize: 0x10 }
  - { offset: 0x28158E, size: 0x8, addend: 0x0, symName: __ZN6VSTGUI16CCommandMenuItemD1Ev, symObjAddr: 0x4810, symBinAddr: 0x7A9B0, symSize: 0x20 }
  - { offset: 0x2815C4, size: 0x8, addend: 0x0, symName: __ZN6VSTGUI16CCommandMenuItemD2Ev, symObjAddr: 0x63E0, symBinAddr: 0x7C1D0, symSize: 0x136 }
  - { offset: 0x281B3C, size: 0x8, addend: 0x0, symName: __ZN6VSTGUI16CCommandMenuItemD0Ev, symObjAddr: 0x4830, symBinAddr: 0x7A9D0, symSize: 0x30 }
  - { offset: 0x281ECA, size: 0x8, addend: 0x0, symName: '__ZNSt3__110__function6__funcIZN6VSTGUI11COptionMenu15onKeyboardEventERNS2_13KeyboardEventEE3$_0NS_9allocatorIS6_EEFvvEED1Ev', symObjAddr: 0x4AE0, symBinAddr: 0x7ABC0, symSize: 0x30 }
  - { offset: 0x281FA9, size: 0x8, addend: 0x0, symName: '__ZNSt3__110__function6__funcIZN6VSTGUI11COptionMenu15onKeyboardEventERNS2_13KeyboardEventEE3$_0NS_9allocatorIS6_EEFvvEED0Ev', symObjAddr: 0x4B10, symBinAddr: 0x7ABF0, symSize: 0x40 }
  - { offset: 0x2822A2, size: 0x8, addend: 0x0, symName: '__ZNKSt3__110__function6__funcIZN6VSTGUI11COptionMenu15onKeyboardEventERNS2_13KeyboardEventEE3$_0NS_9allocatorIS6_EEFvvEE7__cloneEv', symObjAddr: 0x4B50, symBinAddr: 0x7AC30, symSize: 0x50 }
  - { offset: 0x2825C2, size: 0x8, addend: 0x0, symName: '__ZNKSt3__110__function6__funcIZN6VSTGUI11COptionMenu15onKeyboardEventERNS2_13KeyboardEventEE3$_0NS_9allocatorIS6_EEFvvEE7__cloneEPNS0_6__baseIS9_EE', symObjAddr: 0x4BA0, symBinAddr: 0x7AC80, symSize: 0x30 }
  - { offset: 0x28271F, size: 0x8, addend: 0x0, symName: '__ZNSt3__110__function6__funcIZN6VSTGUI11COptionMenu15onKeyboardEventERNS2_13KeyboardEventEE3$_0NS_9allocatorIS6_EEFvvEE7destroyEv', symObjAddr: 0x4BD0, symBinAddr: 0x7ACB0, symSize: 0x20 }
  - { offset: 0x2827F1, size: 0x8, addend: 0x0, symName: '__ZNSt3__110__function6__funcIZN6VSTGUI11COptionMenu15onKeyboardEventERNS2_13KeyboardEventEE3$_0NS_9allocatorIS6_EEFvvEE18destroy_deallocateEv', symObjAddr: 0x4BF0, symBinAddr: 0x7ACD0, symSize: 0x30 }
  - { offset: 0x2829C6, size: 0x8, addend: 0x0, symName: '__ZNSt3__110__function6__funcIZN6VSTGUI11COptionMenu15onKeyboardEventERNS2_13KeyboardEventEE3$_0NS_9allocatorIS6_EEFvvEEclEv', symObjAddr: 0x4C20, symBinAddr: 0x7AD00, symSize: 0xF0 }
  - { offset: 0x282C49, size: 0x8, addend: 0x0, symName: '__ZNKSt3__110__function6__funcIZN6VSTGUI11COptionMenu15onKeyboardEventERNS2_13KeyboardEventEE3$_0NS_9allocatorIS6_EEFvvEE6targetERKSt9type_info', symObjAddr: 0x4D10, symBinAddr: 0x7ADF0, symSize: 0x20 }
  - { offset: 0x282CBD, size: 0x8, addend: 0x0, symName: '__ZNKSt3__110__function6__funcIZN6VSTGUI11COptionMenu15onKeyboardEventERNS2_13KeyboardEventEE3$_0NS_9allocatorIS6_EEFvvEE11target_typeEv', symObjAddr: 0x4D30, symBinAddr: 0x7AE10, symSize: 0x10 }
  - { offset: 0x283674, size: 0x8, addend: 0x0, symName: '__ZNSt3__110__function6__funcIZN6VSTGUI11COptionMenu5popupERKNS_8functionIFvPS3_EEEE3$_0NS_9allocatorISA_EEFvS5_NS2_24PlatformOptionMenuResultEEED1Ev', symObjAddr: 0x5400, symBinAddr: 0x7B1F0, symSize: 0x60 }
  - { offset: 0x283811, size: 0x8, addend: 0x0, symName: '__ZNSt3__110__function6__funcIZN6VSTGUI11COptionMenu5popupERKNS_8functionIFvPS3_EEEE3$_0NS_9allocatorISA_EEFvS5_NS2_24PlatformOptionMenuResultEEED0Ev', symObjAddr: 0x5460, symBinAddr: 0x7B250, symSize: 0x70 }
  - { offset: 0x283C2F, size: 0x8, addend: 0x0, symName: '__ZNKSt3__110__function6__funcIZN6VSTGUI11COptionMenu5popupERKNS_8functionIFvPS3_EEEE3$_0NS_9allocatorISA_EEFvS5_NS2_24PlatformOptionMenuResultEEE7__cloneEv', symObjAddr: 0x54D0, symBinAddr: 0x7B2C0, symSize: 0xB0 }
  - { offset: 0x284191, size: 0x8, addend: 0x0, symName: '__ZNKSt3__110__function6__funcIZN6VSTGUI11COptionMenu5popupERKNS_8functionIFvPS3_EEEE3$_0NS_9allocatorISA_EEFvS5_NS2_24PlatformOptionMenuResultEEE7__cloneEPNS0_6__baseISE_EE', symObjAddr: 0x5580, symBinAddr: 0x7B370, symSize: 0xA0 }
  - { offset: 0x28442C, size: 0x8, addend: 0x0, symName: '__ZNSt3__110__function6__funcIZN6VSTGUI11COptionMenu5popupERKNS_8functionIFvPS3_EEEE3$_0NS_9allocatorISA_EEFvS5_NS2_24PlatformOptionMenuResultEEE7destroyEv', symObjAddr: 0x5620, symBinAddr: 0x7B410, symSize: 0x60 }
  - { offset: 0x284589, size: 0x8, addend: 0x0, symName: '__ZNSt3__110__function6__funcIZN6VSTGUI11COptionMenu5popupERKNS_8functionIFvPS3_EEEE3$_0NS_9allocatorISA_EEFvS5_NS2_24PlatformOptionMenuResultEEE18destroy_deallocateEv', symObjAddr: 0x5680, symBinAddr: 0x7B470, symSize: 0x60 }
  - { offset: 0x284A9E, size: 0x8, addend: 0x0, symName: '__ZNSt3__110__function6__funcIZN6VSTGUI11COptionMenu5popupERKNS_8functionIFvPS3_EEEE3$_0NS_9allocatorISA_EEFvS5_NS2_24PlatformOptionMenuResultEEEclEOS5_OSD_', symObjAddr: 0x56E0, symBinAddr: 0x7B4D0, symSize: 0x200 }
  - { offset: 0x2850CD, size: 0x8, addend: 0x0, symName: '__ZNKSt3__110__function6__funcIZN6VSTGUI11COptionMenu5popupERKNS_8functionIFvPS3_EEEE3$_0NS_9allocatorISA_EEFvS5_NS2_24PlatformOptionMenuResultEEE6targetERKSt9type_info', symObjAddr: 0x58E0, symBinAddr: 0x7B6D0, symSize: 0x20 }
  - { offset: 0x285141, size: 0x8, addend: 0x0, symName: '__ZNKSt3__110__function6__funcIZN6VSTGUI11COptionMenu5popupERKNS_8functionIFvPS3_EEEE3$_0NS_9allocatorISA_EEFvS5_NS2_24PlatformOptionMenuResultEEE11target_typeEv', symObjAddr: 0x5900, symBinAddr: 0x7B6F0, symSize: 0x10 }
  - { offset: 0x285200, size: 0x8, addend: 0x0, symName: '__ZNSt3__110__function6__funcIZN6VSTGUI11COptionMenu5popupEPNS2_6CFrameERKNS2_6CPointERKNS_8functionIFvPS3_EEEE3$_0NS_9allocatorISF_EESB_ED1Ev', symObjAddr: 0x5910, symBinAddr: 0x7B700, symSize: 0x60 }
  - { offset: 0x28539D, size: 0x8, addend: 0x0, symName: '__ZNSt3__110__function6__funcIZN6VSTGUI11COptionMenu5popupEPNS2_6CFrameERKNS2_6CPointERKNS_8functionIFvPS3_EEEE3$_0NS_9allocatorISF_EESB_ED0Ev', symObjAddr: 0x5970, symBinAddr: 0x7B760, symSize: 0x70 }
  - { offset: 0x2857BB, size: 0x8, addend: 0x0, symName: '__ZNKSt3__110__function6__funcIZN6VSTGUI11COptionMenu5popupEPNS2_6CFrameERKNS2_6CPointERKNS_8functionIFvPS3_EEEE3$_0NS_9allocatorISF_EESB_E7__cloneEv', symObjAddr: 0x59E0, symBinAddr: 0x7B7D0, symSize: 0xB0 }
  - { offset: 0x285D1D, size: 0x8, addend: 0x0, symName: '__ZNKSt3__110__function6__funcIZN6VSTGUI11COptionMenu5popupEPNS2_6CFrameERKNS2_6CPointERKNS_8functionIFvPS3_EEEE3$_0NS_9allocatorISF_EESB_E7__cloneEPNS0_6__baseISB_EE', symObjAddr: 0x5A90, symBinAddr: 0x7B880, symSize: 0xA0 }
  - { offset: 0x285FB8, size: 0x8, addend: 0x0, symName: '__ZNSt3__110__function6__funcIZN6VSTGUI11COptionMenu5popupEPNS2_6CFrameERKNS2_6CPointERKNS_8functionIFvPS3_EEEE3$_0NS_9allocatorISF_EESB_E7destroyEv', symObjAddr: 0x5B30, symBinAddr: 0x7B920, symSize: 0x60 }
  - { offset: 0x286115, size: 0x8, addend: 0x0, symName: '__ZNSt3__110__function6__funcIZN6VSTGUI11COptionMenu5popupEPNS2_6CFrameERKNS2_6CPointERKNS_8functionIFvPS3_EEEE3$_0NS_9allocatorISF_EESB_E18destroy_deallocateEv', symObjAddr: 0x5B90, symBinAddr: 0x7B980, symSize: 0x60 }
  - { offset: 0x2863C7, size: 0x8, addend: 0x0, symName: '__ZNSt3__110__function6__funcIZN6VSTGUI11COptionMenu5popupEPNS2_6CFrameERKNS2_6CPointERKNS_8functionIFvPS3_EEEE3$_0NS_9allocatorISF_EESB_EclEOSA_', symObjAddr: 0x5BF0, symBinAddr: 0x7B9E0, symSize: 0x70 }
  - { offset: 0x28652B, size: 0x8, addend: 0x0, symName: '__ZNKSt3__110__function6__funcIZN6VSTGUI11COptionMenu5popupEPNS2_6CFrameERKNS2_6CPointERKNS_8functionIFvPS3_EEEE3$_0NS_9allocatorISF_EESB_E6targetERKSt9type_info', symObjAddr: 0x5C60, symBinAddr: 0x7BA50, symSize: 0x20 }
  - { offset: 0x28659F, size: 0x8, addend: 0x0, symName: '__ZNKSt3__110__function6__funcIZN6VSTGUI11COptionMenu5popupEPNS2_6CFrameERKNS2_6CPointERKNS_8functionIFvPS3_EEEE3$_0NS_9allocatorISF_EESB_E11target_typeEv', symObjAddr: 0x5C80, symBinAddr: 0x7BA70, symSize: 0x10 }
  - { offset: 0x2867A0, size: 0x8, addend: 0x0, symName: '__ZNSt3__110__function6__funcIZN6VSTGUI11COptionMenu11onMouseDownERNS2_6CPointERKNS2_12CButtonStateEE3$_0NS_9allocatorIS9_EEFvvEED1Ev', symObjAddr: 0x6180, symBinAddr: 0x7BF70, symSize: 0x30 }
  - { offset: 0x28687F, size: 0x8, addend: 0x0, symName: '__ZNSt3__110__function6__funcIZN6VSTGUI11COptionMenu11onMouseDownERNS2_6CPointERKNS2_12CButtonStateEE3$_0NS_9allocatorIS9_EEFvvEED0Ev', symObjAddr: 0x61B0, symBinAddr: 0x7BFA0, symSize: 0x40 }
  - { offset: 0x286B78, size: 0x8, addend: 0x0, symName: '__ZNKSt3__110__function6__funcIZN6VSTGUI11COptionMenu11onMouseDownERNS2_6CPointERKNS2_12CButtonStateEE3$_0NS_9allocatorIS9_EEFvvEE7__cloneEv', symObjAddr: 0x61F0, symBinAddr: 0x7BFE0, symSize: 0x50 }
  - { offset: 0x286E98, size: 0x8, addend: 0x0, symName: '__ZNKSt3__110__function6__funcIZN6VSTGUI11COptionMenu11onMouseDownERNS2_6CPointERKNS2_12CButtonStateEE3$_0NS_9allocatorIS9_EEFvvEE7__cloneEPNS0_6__baseISC_EE', symObjAddr: 0x6240, symBinAddr: 0x7C030, symSize: 0x30 }
  - { offset: 0x286FF5, size: 0x8, addend: 0x0, symName: '__ZNSt3__110__function6__funcIZN6VSTGUI11COptionMenu11onMouseDownERNS2_6CPointERKNS2_12CButtonStateEE3$_0NS_9allocatorIS9_EEFvvEE7destroyEv', symObjAddr: 0x6270, symBinAddr: 0x7C060, symSize: 0x20 }
  - { offset: 0x2870C7, size: 0x8, addend: 0x0, symName: '__ZNSt3__110__function6__funcIZN6VSTGUI11COptionMenu11onMouseDownERNS2_6CPointERKNS2_12CButtonStateEE3$_0NS_9allocatorIS9_EEFvvEE18destroy_deallocateEv', symObjAddr: 0x6290, symBinAddr: 0x7C080, symSize: 0x30 }
  - { offset: 0x287278, size: 0x8, addend: 0x0, symName: '__ZNSt3__110__function6__funcIZN6VSTGUI11COptionMenu11onMouseDownERNS2_6CPointERKNS2_12CButtonStateEE3$_0NS_9allocatorIS9_EEFvvEEclEv', symObjAddr: 0x62C0, symBinAddr: 0x7C0B0, symSize: 0xF0 }
  - { offset: 0x2874B8, size: 0x8, addend: 0x0, symName: '__ZNKSt3__110__function6__funcIZN6VSTGUI11COptionMenu11onMouseDownERNS2_6CPointERKNS2_12CButtonStateEE3$_0NS_9allocatorIS9_EEFvvEE6targetERKSt9type_info', symObjAddr: 0x63B0, symBinAddr: 0x7C1A0, symSize: 0x20 }
  - { offset: 0x28752C, size: 0x8, addend: 0x0, symName: '__ZNKSt3__110__function6__funcIZN6VSTGUI11COptionMenu11onMouseDownERNS2_6CPointERKNS2_12CButtonStateEE3$_0NS_9allocatorIS9_EEFvvEE11target_typeEv', symObjAddr: 0x63D0, symBinAddr: 0x7C1C0, symSize: 0x10 }
  - { offset: 0x2954B6, size: 0x8, addend: 0x0, symName: __ZN6VSTGUI13CParamDisplay24setValueToStringFunctionERKNSt3__18functionIFbfPcPS0_EEE, symObjAddr: 0x9E0, symBinAddr: 0x7CCE0, symSize: 0x1C0 }
  - { offset: 0x2960EF, size: 0x8, addend: 0x0, symName: __ZN6VSTGUI13CParamDisplayC2ERKNS_5CRectEPNS_7CBitmapEi, symObjAddr: 0x0, symBinAddr: 0x7C310, symSize: 0x150 }
  - { offset: 0x29646A, size: 0x8, addend: 0x0, symName: __ZN6VSTGUI13CParamDisplayC1ERKNS_5CRectEPNS_7CBitmapEi, symObjAddr: 0x150, symBinAddr: 0x7C460, symSize: 0x150 }
  - { offset: 0x2968B4, size: 0x8, addend: 0x0, symName: __ZN6VSTGUI13CParamDisplayC2ERKS0_, symObjAddr: 0x2A0, symBinAddr: 0x7C5B0, symSize: 0x180 }
  - { offset: 0x296BF5, size: 0x8, addend: 0x0, symName: __ZN6VSTGUI13CParamDisplayC1ERKS0_, symObjAddr: 0x420, symBinAddr: 0x7C730, symSize: 0x170 }
  - { offset: 0x296F43, size: 0x8, addend: 0x0, symName: __ZN6VSTGUI13CParamDisplayD2Ev, symObjAddr: 0x590, symBinAddr: 0x7C8A0, symSize: 0x80 }
  - { offset: 0x29702B, size: 0x8, addend: 0x0, symName: __ZN6VSTGUI13CParamDisplayD1Ev, symObjAddr: 0x620, symBinAddr: 0x7C920, symSize: 0x80 }
  - { offset: 0x29711B, size: 0x8, addend: 0x0, symName: __ZThn24_N6VSTGUI13CParamDisplayD1Ev, symObjAddr: 0x6A0, symBinAddr: 0x7C9A0, symSize: 0x80 }
  - { offset: 0x2971D5, size: 0x8, addend: 0x0, symName: __ZN6VSTGUI13CParamDisplayD0Ev, symObjAddr: 0x720, symBinAddr: 0x7CA20, symSize: 0x80 }
  - { offset: 0x2972D5, size: 0x8, addend: 0x0, symName: __ZThn24_N6VSTGUI13CParamDisplayD0Ev, symObjAddr: 0x7A0, symBinAddr: 0x7CAA0, symSize: 0x80 }
  - { offset: 0x2973A7, size: 0x8, addend: 0x0, symName: __ZN6VSTGUI13CParamDisplay7removedEPNS_5CViewE, symObjAddr: 0x820, symBinAddr: 0x7CB20, symSize: 0x10 }
  - { offset: 0x2973DC, size: 0x8, addend: 0x0, symName: __ZN6VSTGUI13CParamDisplay8setStyleEi, symObjAddr: 0x830, symBinAddr: 0x7CB30, symSize: 0x30 }
  - { offset: 0x297474, size: 0x8, addend: 0x0, symName: __ZNK6VSTGUI13CParamDisplay8getStyleEv, symObjAddr: 0x860, symBinAddr: 0x7CB60, symSize: 0x10 }
  - { offset: 0x2974CF, size: 0x8, addend: 0x0, symName: __ZN6VSTGUI13CParamDisplay12setPrecisionEh, symObjAddr: 0x870, symBinAddr: 0x7CB70, symSize: 0x20 }
  - { offset: 0x297556, size: 0x8, addend: 0x0, symName: __ZN6VSTGUI13CParamDisplay25setValueToStringFunction2ERKNSt3__18functionIFbfRNS1_12basic_stringIcNS1_11char_traitsIcEENS1_9allocatorIcEEEEPS0_EEE, symObjAddr: 0x890, symBinAddr: 0x7CB90, symSize: 0xB0 }
  - { offset: 0x29774C, size: 0x8, addend: 0x0, symName: __ZNSt3__110__function12__value_funcIFbfRNS_12basic_stringIcNS_11char_traitsIcEENS_9allocatorIcEEEEPN6VSTGUI13CParamDisplayEEE4swapB8ne180100ERSD_, symObjAddr: 0x2050, symBinAddr: 0x7E020, symSize: 0x140 }
  - { offset: 0x2978EA, size: 0x8, addend: 0x0, symName: __ZN6VSTGUI13CParamDisplay25setValueToStringFunction2EONSt3__18functionIFbfRNS1_12basic_stringIcNS1_11char_traitsIcEENS1_9allocatorIcEEEEPS0_EEE, symObjAddr: 0x940, symBinAddr: 0x7CC40, symSize: 0xA0 }
  - { offset: 0x29801B, size: 0x8, addend: 0x0, symName: __ZN6VSTGUI13CParamDisplay24setValueToStringFunctionEONSt3__18functionIFbfPcPS0_EEE, symObjAddr: 0xBA0, symBinAddr: 0x7CEA0, symSize: 0x10 }
  - { offset: 0x2980DE, size: 0x8, addend: 0x0, symName: __ZN6VSTGUI13CParamDisplay12getFocusPathERNS_13CGraphicsPathE, symObjAddr: 0xBB0, symBinAddr: 0x7CEB0, symSize: 0x160 }
  - { offset: 0x29824B, size: 0x8, addend: 0x0, symName: __ZThn24_N6VSTGUI13CParamDisplay12getFocusPathERNS_13CGraphicsPathE, symObjAddr: 0xD10, symBinAddr: 0x7D010, symSize: 0x20 }
  - { offset: 0x29854E, size: 0x8, addend: 0x0, symName: __ZN6VSTGUI13CParamDisplay4drawEPNS_12CDrawContextE, symObjAddr: 0xD30, symBinAddr: 0x7D030, symSize: 0x1C0 }
  - { offset: 0x298E67, size: 0x8, addend: 0x0, symName: __ZN6VSTGUI13CParamDisplay8drawBackEPNS_12CDrawContextEPNS_7CBitmapE, symObjAddr: 0xF30, symBinAddr: 0x7D1F0, symSize: 0x5D0 }
  - { offset: 0x29953A, size: 0x8, addend: 0x0, symName: __ZN6VSTGUI13CParamDisplay16drawPlatformTextEPNS_12CDrawContextERKNS_10UTF8StringE, symObjAddr: 0x1500, symBinAddr: 0x7D7C0, symSize: 0x40 }
  - { offset: 0x29960D, size: 0x8, addend: 0x0, symName: __ZN6VSTGUI13CParamDisplay16drawPlatformTextEPNS_12CDrawContextERKNS_10UTF8StringERKNS_5CRectE, symObjAddr: 0x1540, symBinAddr: 0x7D800, symSize: 0x420 }
  - { offset: 0x299DD4, size: 0x8, addend: 0x0, symName: __ZN6VSTGUI13CParamDisplay7setFontEPNS_9CFontDescE, symObjAddr: 0x1960, symBinAddr: 0x7DC20, symSize: 0x50 }
  - { offset: 0x299E5D, size: 0x8, addend: 0x0, symName: __ZN6VSTGUI13CParamDisplay12setFontColorENS_6CColorE, symObjAddr: 0x19B0, symBinAddr: 0x7DC70, symSize: 0x70 }
  - { offset: 0x299EE9, size: 0x8, addend: 0x0, symName: __ZN6VSTGUI13CParamDisplay12setBackColorENS_6CColorE, symObjAddr: 0x1A20, symBinAddr: 0x7DCE0, symSize: 0x70 }
  - { offset: 0x299F75, size: 0x8, addend: 0x0, symName: __ZN6VSTGUI13CParamDisplay13setFrameColorENS_6CColorE, symObjAddr: 0x1A90, symBinAddr: 0x7DD50, symSize: 0x70 }
  - { offset: 0x29A001, size: 0x8, addend: 0x0, symName: __ZN6VSTGUI13CParamDisplay14setShadowColorENS_6CColorE, symObjAddr: 0x1B00, symBinAddr: 0x7DDC0, symSize: 0x70 }
  - { offset: 0x29A0B1, size: 0x8, addend: 0x0, symName: __ZN6VSTGUI13CParamDisplay19setShadowTextOffsetERKNS_6CPointE, symObjAddr: 0x1B70, symBinAddr: 0x7DE30, symSize: 0x40 }
  - { offset: 0x29A112, size: 0x8, addend: 0x0, symName: __ZN6VSTGUI13CParamDisplay12setHoriAlignENS_13CHoriTxtAlignE, symObjAddr: 0x1BB0, symBinAddr: 0x7DE70, symSize: 0x20 }
  - { offset: 0x29A155, size: 0x8, addend: 0x0, symName: __ZN6VSTGUI13CParamDisplay12setTextInsetERKNS_6CPointE, symObjAddr: 0x1BD0, symBinAddr: 0x7DE90, symSize: 0x40 }
  - { offset: 0x29A1B6, size: 0x8, addend: 0x0, symName: __ZN6VSTGUI13CParamDisplay15setTextRotationEd, symObjAddr: 0x1C10, symBinAddr: 0x7DED0, symSize: 0x80 }
  - { offset: 0x29A1F9, size: 0x8, addend: 0x0, symName: __ZN6VSTGUI13CParamDisplay18setRoundRectRadiusERKd, symObjAddr: 0x1C90, symBinAddr: 0x7DF50, symSize: 0x30 }
  - { offset: 0x29A23C, size: 0x8, addend: 0x0, symName: __ZN6VSTGUI13CParamDisplay13setFrameWidthERKd, symObjAddr: 0x1CC0, symBinAddr: 0x7DF80, symSize: 0x30 }
  - { offset: 0x29A27F, size: 0x8, addend: 0x0, symName: __ZN6VSTGUI13CParamDisplay16drawStyleChangedEv, symObjAddr: 0x1CF0, symBinAddr: 0x7DFB0, symSize: 0x20 }
  - { offset: 0x29A2C0, size: 0x8, addend: 0x0, symName: __ZN6VSTGUI13CParamDisplay13setBackOffsetERKNS_6CPointE, symObjAddr: 0x1D10, symBinAddr: 0x7DFD0, symSize: 0x10 }
  - { offset: 0x29A2F7, size: 0x8, addend: 0x0, symName: __ZN6VSTGUI13CParamDisplay14copyBackOffsetEv, symObjAddr: 0x1D20, symBinAddr: 0x7DFE0, symSize: 0x40 }
  - { offset: 0x29A3F0, size: 0x8, addend: 0x0, symName: '__ZNSt3__110__function6__funcIZN6VSTGUI13CParamDisplay24setValueToStringFunctionERKNS_8functionIFbfPcPS3_EEEE3$_0NS_9allocatorISB_EEFbfRNS_12basic_stringIcNS_11char_traitsIcEENSC_IcEEEES6_EED1Ev', symObjAddr: 0x2190, symBinAddr: 0x7E160, symSize: 0x40 }
  - { offset: 0x29A562, size: 0x8, addend: 0x0, symName: '__ZNSt3__110__function6__funcIZN6VSTGUI13CParamDisplay24setValueToStringFunctionERKNS_8functionIFbfPcPS3_EEEE3$_0NS_9allocatorISB_EEFbfRNS_12basic_stringIcNS_11char_traitsIcEENSC_IcEEEES6_EED0Ev', symObjAddr: 0x21D0, symBinAddr: 0x7E1A0, symSize: 0x50 }
  - { offset: 0x29A998, size: 0x8, addend: 0x0, symName: '__ZNKSt3__110__function6__funcIZN6VSTGUI13CParamDisplay24setValueToStringFunctionERKNS_8functionIFbfPcPS3_EEEE3$_0NS_9allocatorISB_EEFbfRNS_12basic_stringIcNS_11char_traitsIcEENSC_IcEEEES6_EE7__cloneEv', symObjAddr: 0x2220, symBinAddr: 0x7E1F0, symSize: 0x70 }
  - { offset: 0x29AE6A, size: 0x8, addend: 0x0, symName: '__ZNKSt3__110__function6__funcIZN6VSTGUI13CParamDisplay24setValueToStringFunctionERKNS_8functionIFbfPcPS3_EEEE3$_0NS_9allocatorISB_EEFbfRNS_12basic_stringIcNS_11char_traitsIcEENSC_IcEEEES6_EE7__cloneEPNS0_6__baseISK_EE', symObjAddr: 0x2290, symBinAddr: 0x7E260, symSize: 0x70 }
  - { offset: 0x29B076, size: 0x8, addend: 0x0, symName: '__ZNSt3__110__function6__funcIZN6VSTGUI13CParamDisplay24setValueToStringFunctionERKNS_8functionIFbfPcPS3_EEEE3$_0NS_9allocatorISB_EEFbfRNS_12basic_stringIcNS_11char_traitsIcEENSC_IcEEEES6_EE7destroyEv', symObjAddr: 0x2300, symBinAddr: 0x7E2D0, symSize: 0x40 }
  - { offset: 0x29B1A1, size: 0x8, addend: 0x0, symName: '__ZNSt3__110__function6__funcIZN6VSTGUI13CParamDisplay24setValueToStringFunctionERKNS_8functionIFbfPcPS3_EEEE3$_0NS_9allocatorISB_EEFbfRNS_12basic_stringIcNS_11char_traitsIcEENSC_IcEEEES6_EE18destroy_deallocateEv', symObjAddr: 0x2340, symBinAddr: 0x7E310, symSize: 0x40 }
  - { offset: 0x29B519, size: 0x8, addend: 0x0, symName: '__ZNSt3__110__function6__funcIZN6VSTGUI13CParamDisplay24setValueToStringFunctionERKNS_8functionIFbfPcPS3_EEEE3$_0NS_9allocatorISB_EEFbfRNS_12basic_stringIcNS_11char_traitsIcEENSC_IcEEEES6_EEclEOfSJ_OS6_', symObjAddr: 0x2380, symBinAddr: 0x7E350, symSize: 0xB0 }
  - { offset: 0x29B6B7, size: 0x8, addend: 0x0, symName: '__ZNKSt3__110__function6__funcIZN6VSTGUI13CParamDisplay24setValueToStringFunctionERKNS_8functionIFbfPcPS3_EEEE3$_0NS_9allocatorISB_EEFbfRNS_12basic_stringIcNS_11char_traitsIcEENSC_IcEEEES6_EE6targetERKSt9type_info', symObjAddr: 0x2430, symBinAddr: 0x7E400, symSize: 0x20 }
  - { offset: 0x29B72B, size: 0x8, addend: 0x0, symName: '__ZNKSt3__110__function6__funcIZN6VSTGUI13CParamDisplay24setValueToStringFunctionERKNS_8functionIFbfPcPS3_EEEE3$_0NS_9allocatorISB_EEFbfRNS_12basic_stringIcNS_11char_traitsIcEENSC_IcEEEES6_EE11target_typeEv', symObjAddr: 0x2450, symBinAddr: 0x7E420, symSize: 0x10 }
  - { offset: 0x29D655, size: 0x8, addend: 0x0, symName: __ZN6VSTGUI10CScrollbarC2ERKNS_5CRectEPNS_16IControlListenerEiNS0_18ScrollbarDirectionES3_, symObjAddr: 0x0, symBinAddr: 0x7E430, symSize: 0x180 }
  - { offset: 0x2A75E4, size: 0x8, addend: 0x0, symName: __ZN6VSTGUI10CScrollbarC2ERKNS_5CRectEPNS_16IControlListenerEiNS0_18ScrollbarDirectionES3_, symObjAddr: 0x0, symBinAddr: 0x7E430, symSize: 0x180 }
  - { offset: 0x2A77F1, size: 0x8, addend: 0x0, symName: __ZN6VSTGUI10CScrollbar23calculateScrollerLengthEv, symObjAddr: 0x180, symBinAddr: 0x7E5B0, symSize: 0x140 }
  - { offset: 0x2A7A31, size: 0x8, addend: 0x0, symName: __ZN6VSTGUI10CScrollbarC1ERKNS_5CRectEPNS_16IControlListenerEiNS0_18ScrollbarDirectionES3_, symObjAddr: 0x300, symBinAddr: 0x7E6F0, symSize: 0x180 }
  - { offset: 0x2A7CB4, size: 0x8, addend: 0x0, symName: __ZN6VSTGUI10CScrollbarC2ERKS0_, symObjAddr: 0x480, symBinAddr: 0x7E870, symSize: 0x140 }
  - { offset: 0x2A7E5A, size: 0x8, addend: 0x0, symName: __ZN6VSTGUI10CScrollbarC1ERKS0_, symObjAddr: 0x5C0, symBinAddr: 0x7E9B0, symSize: 0x140 }
  - { offset: 0x2A800E, size: 0x8, addend: 0x0, symName: __ZN6VSTGUI10CScrollbar11setViewSizeERKNS_5CRectEb, symObjAddr: 0x700, symBinAddr: 0x7EAF0, symSize: 0x50 }
  - { offset: 0x2A80C1, size: 0x8, addend: 0x0, symName: __ZN6VSTGUI10CScrollbar13setScrollSizeERKNS_5CRectE, symObjAddr: 0x750, symBinAddr: 0x7EB40, symSize: 0x70 }
  - { offset: 0x2A81A8, size: 0x8, addend: 0x0, symName: __ZN6VSTGUI10CScrollbar15getScrollerRectEv, symObjAddr: 0x7C0, symBinAddr: 0x7EBB0, symSize: 0xB0 }
  - { offset: 0x2A82FD, size: 0x8, addend: 0x0, symName: __ZN6VSTGUI10CScrollbar10doSteppingEv, symObjAddr: 0x870, symBinAddr: 0x7EC60, symSize: 0x200 }
  - { offset: 0x2A849C, size: 0x8, addend: 0x0, symName: __ZN6VSTGUI10CScrollbar6notifyEPNS_11CBaseObjectEPKc, symObjAddr: 0xA70, symBinAddr: 0x7EE60, symSize: 0x50 }
  - { offset: 0x2A8507, size: 0x8, addend: 0x0, symName: __ZN6VSTGUI10CScrollbar15setOverlayStyleEb, symObjAddr: 0xAC0, symBinAddr: 0x7EEB0, symSize: 0x50 }
  - { offset: 0x2A863D, size: 0x8, addend: 0x0, symName: __ZN6VSTGUI10CScrollbar14onMouseEnteredERNS_6CPointERKNS_12CButtonStateE, symObjAddr: 0xB10, symBinAddr: 0x7EF00, symSize: 0x140 }
  - { offset: 0x2A882E, size: 0x8, addend: 0x0, symName: __ZN6VSTGUI10CScrollbar13onMouseExitedERNS_6CPointERKNS_12CButtonStateE, symObjAddr: 0xC50, symBinAddr: 0x7F040, symSize: 0x1A0 }
  - { offset: 0x2A8AA7, size: 0x8, addend: 0x0, symName: __ZN6VSTGUI10CScrollbar11onMouseDownERNS_6CPointERKNS_12CButtonStateE, symObjAddr: 0xDF0, symBinAddr: 0x7F1E0, symSize: 0x210 }
  - { offset: 0x2A8CD7, size: 0x8, addend: 0x0, symName: __ZN6VSTGUI10CScrollbar9onMouseUpERNS_6CPointERKNS_12CButtonStateE, symObjAddr: 0x1000, symBinAddr: 0x7F3F0, symSize: 0x50 }
  - { offset: 0x2A8D78, size: 0x8, addend: 0x0, symName: __ZN6VSTGUI10CScrollbar12onMouseMovedERNS_6CPointERKNS_12CButtonStateE, symObjAddr: 0x1050, symBinAddr: 0x7F440, symSize: 0x280 }
  - { offset: 0x2A8F90, size: 0x8, addend: 0x0, symName: __ZN6VSTGUI10CScrollbar13onMouseCancelEv, symObjAddr: 0x12D0, symBinAddr: 0x7F6C0, symSize: 0x50 }
  - { offset: 0x2A9036, size: 0x8, addend: 0x0, symName: __ZN6VSTGUI10CScrollbar14onVisualChangeEv, symObjAddr: 0x1320, symBinAddr: 0x7F710, symSize: 0x1E0 }
  - { offset: 0x2A92B7, size: 0x8, addend: 0x0, symName: __ZN6VSTGUI10CScrollbar17onMouseWheelEventERNS_15MouseWheelEventE, symObjAddr: 0x1500, symBinAddr: 0x7F8F0, symSize: 0x120 }
  - { offset: 0x2A9423, size: 0x8, addend: 0x0, symName: __ZN6VSTGUI10CScrollbar14drawBackgroundEPNS_12CDrawContextE, symObjAddr: 0x1620, symBinAddr: 0x7FA10, symSize: 0xB0 }
  - { offset: 0x2A94E5, size: 0x8, addend: 0x0, symName: __ZN6VSTGUI10CScrollbar12drawScrollerEPNS_12CDrawContextERKNS_5CRectE, symObjAddr: 0x16D0, symBinAddr: 0x7FAC0, symSize: 0x170 }
  - { offset: 0x2A95F5, size: 0x8, addend: 0x0, symName: __ZN6VSTGUI10CScrollbar4drawEPNS_12CDrawContextE, symObjAddr: 0x1840, symBinAddr: 0x7FC30, symSize: 0xD0 }
  - { offset: 0x2A97EF, size: 0x8, addend: 0x0, symName: __ZN6VSTGUI10CScrollbarD1Ev, symObjAddr: 0x1BA0, symBinAddr: 0x7FD00, symSize: 0x60 }
  - { offset: 0x2A98B8, size: 0x8, addend: 0x0, symName: __ZN6VSTGUI10CScrollbarD0Ev, symObjAddr: 0x1C00, symBinAddr: 0x7FD60, symSize: 0x70 }
  - { offset: 0x2A9979, size: 0x8, addend: 0x0, symName: __ZNK6VSTGUI10CScrollbar7newCopyEv, symObjAddr: 0x1C70, symBinAddr: 0x7FDD0, symSize: 0x40 }
  - { offset: 0x2A99B4, size: 0x8, addend: 0x0, symName: __ZN6VSTGUI10CScrollbar9setDrawerEPNS_16IScrollbarDrawerE, symObjAddr: 0x1CB0, symBinAddr: 0x7FE10, symSize: 0x10 }
  - { offset: 0x2A99E7, size: 0x8, addend: 0x0, symName: __ZN6VSTGUI10CScrollbar7setStepEf, symObjAddr: 0x1CC0, symBinAddr: 0x7FE20, symSize: 0x10 }
  - { offset: 0x2A9A39, size: 0x8, addend: 0x0, symName: __ZN6VSTGUI10CScrollbar13setFrameColorERKNS_6CColorE, symObjAddr: 0x1CD0, symBinAddr: 0x7FE30, symSize: 0x10 }
  - { offset: 0x2A9A92, size: 0x8, addend: 0x0, symName: __ZN6VSTGUI10CScrollbar16setScrollerColorERKNS_6CColorE, symObjAddr: 0x1CE0, symBinAddr: 0x7FE40, symSize: 0x10 }
  - { offset: 0x2A9AEB, size: 0x8, addend: 0x0, symName: __ZN6VSTGUI10CScrollbar18setBackgroundColorERKNS_6CColorE, symObjAddr: 0x1CF0, symBinAddr: 0x7FE50, symSize: 0x10 }
  - { offset: 0x2A9B44, size: 0x8, addend: 0x0, symName: __ZThn24_N6VSTGUI10CScrollbarD1Ev, symObjAddr: 0x1D00, symBinAddr: 0x7FE60, symSize: 0x70 }
  - { offset: 0x2A9C12, size: 0x8, addend: 0x0, symName: __ZThn24_N6VSTGUI10CScrollbarD0Ev, symObjAddr: 0x1D70, symBinAddr: 0x7FED0, symSize: 0x70 }
  - { offset: 0x2B9375, size: 0x8, addend: 0x0, symName: __ZN6VSTGUI15CSearchTextEditC2ERKNS_5CRectEPNS_16IControlListenerEiPKcPNS_7CBitmapEi, symObjAddr: 0x0, symBinAddr: 0x7FF40, symSize: 0xE0 }
  - { offset: 0x2B973C, size: 0x8, addend: 0x0, symName: __ZN6VSTGUI15CSearchTextEditC1ERKNS_5CRectEPNS_16IControlListenerEiPKcPNS_7CBitmapEi, symObjAddr: 0x120, symBinAddr: 0x80020, symSize: 0xF0 }
  - { offset: 0x2B9A2A, size: 0x8, addend: 0x0, symName: __ZN6VSTGUI15CSearchTextEdit17setClearMarkInsetENS_6CPointE, symObjAddr: 0x210, symBinAddr: 0x80110, symSize: 0x40 }
  - { offset: 0x2B9A89, size: 0x8, addend: 0x0, symName: __ZNK6VSTGUI15CSearchTextEdit17getClearMarkInsetEv, symObjAddr: 0x250, symBinAddr: 0x80150, symSize: 0x20 }
  - { offset: 0x2B9B47, size: 0x8, addend: 0x0, symName: __ZNK6VSTGUI15CSearchTextEdit16getClearMarkRectEv, symObjAddr: 0x270, symBinAddr: 0x80170, symSize: 0xB0 }
  - { offset: 0x2B9CCF, size: 0x8, addend: 0x0, symName: __ZN6VSTGUI15CSearchTextEdit11onMouseDownERNS_6CPointERKNS_12CButtonStateE, symObjAddr: 0x320, symBinAddr: 0x80220, symSize: 0x1C0 }
  - { offset: 0x2BA199, size: 0x8, addend: 0x0, symName: __ZNK6VSTGUI15CSearchTextEdit13drawClearMarkEPNS_12CDrawContextE, symObjAddr: 0x4E0, symBinAddr: 0x803E0, symSize: 0x350 }
  - { offset: 0x2BA743, size: 0x8, addend: 0x0, symName: __ZN6VSTGUI15CSearchTextEdit4drawEPNS_12CDrawContextE, symObjAddr: 0x830, symBinAddr: 0x80730, symSize: 0x290 }
  - { offset: 0x2BAB46, size: 0x8, addend: 0x0, symName: __ZNK6VSTGUI15CSearchTextEdit11getTextRectEv, symObjAddr: 0xAC0, symBinAddr: 0x809C0, symSize: 0xC0 }
  - { offset: 0x2BAD09, size: 0x8, addend: 0x0, symName: __ZNK6VSTGUI15CSearchTextEdit15platformGetSizeEv, symObjAddr: 0xB80, symBinAddr: 0x80A80, symSize: 0x180 }
  - { offset: 0x2BAED8, size: 0x8, addend: 0x0, symName: __ZThn304_NK6VSTGUI15CSearchTextEdit15platformGetSizeEv, symObjAddr: 0xD00, symBinAddr: 0x80C00, symSize: 0x20 }
  - { offset: 0x2BAF39, size: 0x8, addend: 0x0, symName: __ZNK6VSTGUI15CSearchTextEdit22platformGetVisibleSizeEv, symObjAddr: 0xD20, symBinAddr: 0x80C20, symSize: 0x1B0 }
  - { offset: 0x2BB14E, size: 0x8, addend: 0x0, symName: __ZThn304_NK6VSTGUI15CSearchTextEdit22platformGetVisibleSizeEv, symObjAddr: 0xED0, symBinAddr: 0x80DD0, symSize: 0x20 }
  - { offset: 0x2BB17A, size: 0x8, addend: 0x0, symName: __ZN6VSTGUI15CSearchTextEdit21platformTextDidChangeEv, symObjAddr: 0xEF0, symBinAddr: 0x80DF0, symSize: 0xB0 }
  - { offset: 0x2BB28E, size: 0x8, addend: 0x0, symName: __ZThn304_N6VSTGUI15CSearchTextEdit21platformTextDidChangeEv, symObjAddr: 0xFA0, symBinAddr: 0x80EA0, symSize: 0x20 }
  - { offset: 0x2BB2B3, size: 0x8, addend: 0x0, symName: __ZNK6VSTGUI9CTextEdit7newCopyEv, symObjAddr: 0x1010, symBinAddr: 0x80EC0, symSize: 0x40 }
  - { offset: 0x2BB2DA, size: 0x8, addend: 0x0, symName: __ZN6VSTGUI10CTextLabel7onWheelERKNS_6CPointERKNS_15CMouseWheelAxisERKfRKNS_12CButtonStateE, symObjAddr: 0x1110, symBinAddr: 0x80F00, symSize: 0x10 }
  - { offset: 0x2BB337, size: 0x8, addend: 0x0, symName: __ZN6VSTGUI9CTextEdit15setTextRotationEd, symObjAddr: 0x11D0, symBinAddr: 0x80F10, symSize: 0x10 }
  - { offset: 0x2BB382, size: 0x8, addend: 0x0, symName: __ZNK6VSTGUI9CTextEdit20platformGetBackColorEv, symObjAddr: 0x11E0, symBinAddr: 0x80F20, symSize: 0x20 }
  - { offset: 0x2BB41D, size: 0x8, addend: 0x0, symName: __ZNK6VSTGUI9CTextEdit20platformGetFontColorEv, symObjAddr: 0x1200, symBinAddr: 0x80F40, symSize: 0x20 }
  - { offset: 0x2BB4B8, size: 0x8, addend: 0x0, symName: __ZNK6VSTGUI9CTextEdit23platformGetHoriTxtAlignEv, symObjAddr: 0x1220, symBinAddr: 0x80F60, symSize: 0x10 }
  - { offset: 0x2BB4F3, size: 0x8, addend: 0x0, symName: __ZNK6VSTGUI9CTextEdit15platformGetTextEv, symObjAddr: 0x1230, symBinAddr: 0x80F70, symSize: 0x10 }
  - { offset: 0x2BB512, size: 0x8, addend: 0x0, symName: __ZNK6VSTGUI9CTextEdit26platformGetPlaceholderTextEv, symObjAddr: 0x1240, symBinAddr: 0x80F80, symSize: 0x10 }
  - { offset: 0x2BB545, size: 0x8, addend: 0x0, symName: __ZNK6VSTGUI9CTextEdit20platformGetTextInsetEv, symObjAddr: 0x1250, symBinAddr: 0x80F90, symSize: 0x20 }
  - { offset: 0x2BB580, size: 0x8, addend: 0x0, symName: __ZN6VSTGUI10CTextLabelD1Ev, symObjAddr: 0x1270, symBinAddr: 0x80FB0, symSize: 0x20 }
  - { offset: 0x2BB5B6, size: 0x8, addend: 0x0, symName: __ZN6VSTGUI10CTextLabelD2Ev, symObjAddr: 0x1570, symBinAddr: 0x81170, symSize: 0xEB }
  - { offset: 0x2BBC7A, size: 0x8, addend: 0x0, symName: __ZN6VSTGUI10CTextLabelD0Ev, symObjAddr: 0x1290, symBinAddr: 0x80FD0, symSize: 0x30 }
  - { offset: 0x2BBCD6, size: 0x8, addend: 0x0, symName: __ZNK6VSTGUI10CTextLabel7newCopyEv, symObjAddr: 0x12C0, symBinAddr: 0x81000, symSize: 0x40 }
  - { offset: 0x2BBD29, size: 0x8, addend: 0x0, symName: __ZN6VSTGUI15CSearchTextEditD1Ev, symObjAddr: 0x1430, symBinAddr: 0x81040, symSize: 0x20 }
  - { offset: 0x2BBD7E, size: 0x8, addend: 0x0, symName: __ZN6VSTGUI15CSearchTextEditD0Ev, symObjAddr: 0x1450, symBinAddr: 0x81060, symSize: 0x30 }
  - { offset: 0x2BBDD8, size: 0x8, addend: 0x0, symName: __ZThn24_N6VSTGUI15CSearchTextEditD1Ev, symObjAddr: 0x1480, symBinAddr: 0x81090, symSize: 0x20 }
  - { offset: 0x2BBE41, size: 0x8, addend: 0x0, symName: __ZThn24_N6VSTGUI15CSearchTextEditD0Ev, symObjAddr: 0x14A0, symBinAddr: 0x810B0, symSize: 0x30 }
  - { offset: 0x2BBEC7, size: 0x8, addend: 0x0, symName: __ZThn304_NK6VSTGUI9CTextEdit20platformGetBackColorEv, symObjAddr: 0x14D0, symBinAddr: 0x810E0, symSize: 0x20 }
  - { offset: 0x2BBF7C, size: 0x8, addend: 0x0, symName: __ZThn304_NK6VSTGUI9CTextEdit20platformGetFontColorEv, symObjAddr: 0x14F0, symBinAddr: 0x81100, symSize: 0x20 }
  - { offset: 0x2BC031, size: 0x8, addend: 0x0, symName: __ZThn304_NK6VSTGUI9CTextEdit23platformGetHoriTxtAlignEv, symObjAddr: 0x1510, symBinAddr: 0x81120, symSize: 0x10 }
  - { offset: 0x2BC09A, size: 0x8, addend: 0x0, symName: __ZThn304_NK6VSTGUI9CTextEdit15platformGetTextEv, symObjAddr: 0x1520, symBinAddr: 0x81130, symSize: 0x10 }
  - { offset: 0x2BC0E4, size: 0x8, addend: 0x0, symName: __ZThn304_NK6VSTGUI9CTextEdit26platformGetPlaceholderTextEv, symObjAddr: 0x1530, symBinAddr: 0x81140, symSize: 0x10 }
  - { offset: 0x2BC12E, size: 0x8, addend: 0x0, symName: __ZThn304_NK6VSTGUI9CTextEdit20platformGetTextInsetEv, symObjAddr: 0x1540, symBinAddr: 0x81150, symSize: 0x20 }
  - { offset: 0x2CB400, size: 0x8, addend: 0x0, symName: __ZNSt3__16vectorIN6VSTGUI14CSegmentButton7SegmentENS_9allocatorIS3_EEE26__swap_out_circular_bufferERNS_14__split_bufferIS3_RS5_EEPS3_, symObjAddr: 0x3AA0, symBinAddr: 0x84900, symSize: 0x200 }
  - { offset: 0x2CBD6C, size: 0x8, addend: 0x0, symName: __ZN6VSTGUI14CSegmentButtonC2ERKNS_5CRectEPNS_16IControlListenerEi, symObjAddr: 0x0, symBinAddr: 0x81260, symSize: 0x150 }
  - { offset: 0x2CBFF9, size: 0x8, addend: 0x0, symName: __ZNSt3__16vectorIN6VSTGUI14CSegmentButton7SegmentENS_9allocatorIS3_EEED1B8ne180100Ev, symObjAddr: 0x150, symBinAddr: 0x813B0, symSize: 0x70 }
  - { offset: 0x2CC4C4, size: 0x8, addend: 0x0, symName: __ZN6VSTGUI14CSegmentButtonC1ERKNS_5CRectEPNS_16IControlListenerEi, symObjAddr: 0x1C0, symBinAddr: 0x81420, symSize: 0x160 }
  - { offset: 0x2CC776, size: 0x8, addend: 0x0, symName: __ZNK6VSTGUI14CSegmentButton20canAddOneMoreSegmentEv, symObjAddr: 0x320, symBinAddr: 0x81580, symSize: 0x40 }
  - { offset: 0x2CC953, size: 0x8, addend: 0x0, symName: __ZN6VSTGUI14CSegmentButton10addSegmentERKNS0_7SegmentEj, symObjAddr: 0x360, symBinAddr: 0x815C0, symSize: 0x100 }
  - { offset: 0x2CCBCD, size: 0x8, addend: 0x0, symName: __ZN6VSTGUI14CSegmentButton7SegmentC2ERKS1_, symObjAddr: 0x33A0, symBinAddr: 0x842A0, symSize: 0xA0 }
  - { offset: 0x2CCD38, size: 0x8, addend: 0x0, symName: __ZNSt3__16vectorIN6VSTGUI14CSegmentButton7SegmentENS_9allocatorIS3_EEE6insertENS_11__wrap_iterIPKS3_EERS8_, symObjAddr: 0x460, symBinAddr: 0x816C0, symSize: 0x300 }
  - { offset: 0x2CD6D5, size: 0x8, addend: 0x0, symName: __ZN6VSTGUI14CSegmentButton18updateSegmentSizesEv, symObjAddr: 0x760, symBinAddr: 0x819C0, symSize: 0x340 }
  - { offset: 0x2CDC63, size: 0x8, addend: 0x0, symName: __ZNSt3__16vectorIN6VSTGUI14CSegmentButton7SegmentENS_9allocatorIS3_EEE24__emplace_back_slow_pathIJRKS3_EEEPS3_DpOT_, symObjAddr: 0x34E0, symBinAddr: 0x84340, symSize: 0x220 }
  - { offset: 0x2CEA43, size: 0x8, addend: 0x0, symName: __ZN6VSTGUI14CSegmentButton7SegmentaSEOS1_, symObjAddr: 0x3CA0, symBinAddr: 0x84B00, symSize: 0xE0 }
  - { offset: 0x2CEB26, size: 0x8, addend: 0x0, symName: __ZN6VSTGUI14CSegmentButton7SegmentaSERKS1_, symObjAddr: 0x3750, symBinAddr: 0x845B0, symSize: 0x110 }
  - { offset: 0x2CECD5, size: 0x8, addend: 0x0, symName: __ZNSt3__114__split_bufferIN6VSTGUI14CSegmentButton7SegmentERNS_9allocatorIS3_EEE9push_backB8ne180100ERKS3_, symObjAddr: 0x3860, symBinAddr: 0x846C0, symSize: 0x240 }
  - { offset: 0x2CF459, size: 0x8, addend: 0x0, symName: __ZNKSt3__16vectorIN6VSTGUI14CSegmentButton7SegmentENS_9allocatorIS3_EEE20__throw_length_errorB8ne180100Ev, symObjAddr: 0x32C0, symBinAddr: 0x84290, symSize: 0x10 }
  - { offset: 0x2CF48D, size: 0x8, addend: 0x0, symName: __ZNSt3__114__split_bufferIN6VSTGUI14CSegmentButton7SegmentERNS_9allocatorIS3_EEED1Ev, symObjAddr: 0x3700, symBinAddr: 0x84560, symSize: 0x50 }
  - { offset: 0x2CF7EA, size: 0x8, addend: 0x0, symName: __ZN6VSTGUI14CSegmentButton10addSegmentEONS0_7SegmentEj, symObjAddr: 0xAA0, symBinAddr: 0x81D00, symSize: 0x180 }
  - { offset: 0x2CFC11, size: 0x8, addend: 0x0, symName: __ZNSt3__16vectorIN6VSTGUI14CSegmentButton7SegmentENS_9allocatorIS3_EEE6insertENS_11__wrap_iterIPKS3_EEOS3_, symObjAddr: 0xC20, symBinAddr: 0x81E80, symSize: 0x360 }
  - { offset: 0x2D06F2, size: 0x8, addend: 0x0, symName: __ZNSt3__16vectorIN6VSTGUI14CSegmentButton7SegmentENS_9allocatorIS3_EEE24__emplace_back_slow_pathIJS3_EEEPS3_DpOT_, symObjAddr: 0x3D80, symBinAddr: 0x84BE0, symSize: 0x260 }
  - { offset: 0x2D1039, size: 0x8, addend: 0x0, symName: __ZNSt3__114__split_bufferIN6VSTGUI14CSegmentButton7SegmentERNS_9allocatorIS3_EEE9push_backEOS3_, symObjAddr: 0x3FE0, symBinAddr: 0x84E40, symSize: 0x2C0 }
  - { offset: 0x2D1A72, size: 0x8, addend: 0x0, symName: __ZN6VSTGUI14CSegmentButton13removeSegmentEj, symObjAddr: 0xF80, symBinAddr: 0x821E0, symSize: 0xB0 }
  - { offset: 0x2D1D77, size: 0x8, addend: 0x0, symName: __ZN6VSTGUI14CSegmentButton17removeAllSegmentsEv, symObjAddr: 0x1030, symBinAddr: 0x82290, symSize: 0x50 }
  - { offset: 0x2D1EFF, size: 0x8, addend: 0x0, symName: __ZN6VSTGUI14CSegmentButton12valueChangedEv, symObjAddr: 0x1080, symBinAddr: 0x822E0, symSize: 0x170 }
  - { offset: 0x2D217C, size: 0x8, addend: 0x0, symName: __ZNK6VSTGUI14CSegmentButton18getSelectedSegmentEv, symObjAddr: 0x11F0, symBinAddr: 0x82450, symSize: 0x90 }
  - { offset: 0x2D21F0, size: 0x8, addend: 0x0, symName: __ZN6VSTGUI14CSegmentButton18setSelectedSegmentEj, symObjAddr: 0x1280, symBinAddr: 0x824E0, symSize: 0xB0 }
  - { offset: 0x2D2281, size: 0x8, addend: 0x0, symName: __ZNK6VSTGUI14CSegmentButton15getSegmentIndexEf, symObjAddr: 0x1330, symBinAddr: 0x82590, symSize: 0x70 }
  - { offset: 0x2D22C8, size: 0x8, addend: 0x0, symName: __ZN6VSTGUI14CSegmentButton8setStyleENS0_5StyleE, symObjAddr: 0x13A0, symBinAddr: 0x82600, symSize: 0x40 }
  - { offset: 0x2D2394, size: 0x8, addend: 0x0, symName: __ZN6VSTGUI14CSegmentButton16setSelectionModeENS0_13SelectionModeE, symObjAddr: 0x13E0, symBinAddr: 0x82640, symSize: 0x170 }
  - { offset: 0x2D2519, size: 0x8, addend: 0x0, symName: __ZN6VSTGUI14CSegmentButton16verifySelectionsEv, symObjAddr: 0x1550, symBinAddr: 0x827B0, symSize: 0x140 }
  - { offset: 0x2D265B, size: 0x8, addend: 0x0, symName: __ZN6VSTGUI14CSegmentButton19setTextTruncateModeENS_12CDrawMethods16TextTruncateModeE, symObjAddr: 0x1690, symBinAddr: 0x828F0, symSize: 0x20 }
  - { offset: 0x2D26D8, size: 0x8, addend: 0x0, symName: __ZN6VSTGUI14CSegmentButton11setGradientEPNS_9CGradientE, symObjAddr: 0x16B0, symBinAddr: 0x82910, symSize: 0x50 }
  - { offset: 0x2D2779, size: 0x8, addend: 0x0, symName: __ZN6VSTGUI14CSegmentButton22setGradientHighlightedEPNS_9CGradientE, symObjAddr: 0x1700, symBinAddr: 0x82960, symSize: 0x50 }
  - { offset: 0x2D281A, size: 0x8, addend: 0x0, symName: __ZN6VSTGUI14CSegmentButton14setRoundRadiusEd, symObjAddr: 0x1750, symBinAddr: 0x829B0, symSize: 0x20 }
  - { offset: 0x2D2897, size: 0x8, addend: 0x0, symName: __ZN6VSTGUI14CSegmentButton7setFontEPNS_9CFontDescE, symObjAddr: 0x1770, symBinAddr: 0x829D0, symSize: 0x50 }
  - { offset: 0x2D2938, size: 0x8, addend: 0x0, symName: __ZN6VSTGUI14CSegmentButton16setTextAlignmentENS_13CHoriTxtAlignE, symObjAddr: 0x17C0, symBinAddr: 0x82A20, symSize: 0x20 }
  - { offset: 0x2D2979, size: 0x8, addend: 0x0, symName: __ZN6VSTGUI14CSegmentButton13setTextMarginEd, symObjAddr: 0x17E0, symBinAddr: 0x82A40, symSize: 0x20 }
  - { offset: 0x2D29FD, size: 0x8, addend: 0x0, symName: __ZN6VSTGUI14CSegmentButton12setTextColorENS_6CColorE, symObjAddr: 0x1800, symBinAddr: 0x82A60, symSize: 0x60 }
  - { offset: 0x2D2A83, size: 0x8, addend: 0x0, symName: __ZN6VSTGUI14CSegmentButton23setTextColorHighlightedENS_6CColorE, symObjAddr: 0x1860, symBinAddr: 0x82AC0, symSize: 0x60 }
  - { offset: 0x2D2B09, size: 0x8, addend: 0x0, symName: __ZN6VSTGUI14CSegmentButton13setFrameColorENS_6CColorE, symObjAddr: 0x18C0, symBinAddr: 0x82B20, symSize: 0x60 }
  - { offset: 0x2D2B93, size: 0x8, addend: 0x0, symName: __ZN6VSTGUI14CSegmentButton13setFrameWidthEd, symObjAddr: 0x1920, symBinAddr: 0x82B80, symSize: 0x20 }
  - { offset: 0x2D2BD6, size: 0x8, addend: 0x0, symName: __ZN6VSTGUI14CSegmentButton8attachedEPNS_5CViewE, symObjAddr: 0x1940, symBinAddr: 0x82BA0, symSize: 0x160 }
  - { offset: 0x2D2D52, size: 0x8, addend: 0x0, symName: __ZN6VSTGUI14CSegmentButton11setViewSizeERKNS_5CRectEb, symObjAddr: 0x1AA0, symBinAddr: 0x82D00, symSize: 0x20 }
  - { offset: 0x2D2DB0, size: 0x8, addend: 0x0, symName: __ZN6VSTGUI14CSegmentButton13selectSegmentEjb, symObjAddr: 0x1AC0, symBinAddr: 0x82D20, symSize: 0x60 }
  - { offset: 0x2D2E57, size: 0x8, addend: 0x0, symName: __ZNK6VSTGUI14CSegmentButton17isSegmentSelectedEj, symObjAddr: 0x1B20, symBinAddr: 0x82D80, symSize: 0x20 }
  - { offset: 0x2D2F63, size: 0x8, addend: 0x0, symName: __ZN6VSTGUI14CSegmentButton11onMouseDownERNS_6CPointERKNS_12CButtonStateE, symObjAddr: 0x1B40, symBinAddr: 0x82DA0, symSize: 0x340 }
  - { offset: 0x2D334E, size: 0x8, addend: 0x0, symName: __ZN6VSTGUI14CSegmentButton15onKeyboardEventERNS_13KeyboardEventE, symObjAddr: 0x1E80, symBinAddr: 0x830E0, symSize: 0x280 }
  - { offset: 0x2D3520, size: 0x8, addend: 0x0, symName: __ZN6VSTGUI14CSegmentButton4drawEPNS_12CDrawContextE, symObjAddr: 0x2100, symBinAddr: 0x83360, symSize: 0x10 }
  - { offset: 0x2D36E9, size: 0x8, addend: 0x0, symName: __ZN6VSTGUI14CSegmentButton8drawRectEPNS_12CDrawContextERKNS_5CRectE, symObjAddr: 0x2110, symBinAddr: 0x83370, symSize: 0x8D0 }
  - { offset: 0x2D42C5, size: 0x8, addend: 0x0, symName: __ZN6VSTGUI14CSegmentButton14drawFocusOnTopEv, symObjAddr: 0x29E0, symBinAddr: 0x83C40, symSize: 0x10 }
  - { offset: 0x2D42EA, size: 0x8, addend: 0x0, symName: __ZThn24_N6VSTGUI14CSegmentButton14drawFocusOnTopEv, symObjAddr: 0x29F0, symBinAddr: 0x83C50, symSize: 0x10 }
  - { offset: 0x2D432C, size: 0x8, addend: 0x0, symName: __ZN6VSTGUI14CSegmentButton12getFocusPathERNS_13CGraphicsPathE, symObjAddr: 0x2A00, symBinAddr: 0x83C60, symSize: 0x100 }
  - { offset: 0x2D4496, size: 0x8, addend: 0x0, symName: __ZThn24_N6VSTGUI14CSegmentButton12getFocusPathERNS_13CGraphicsPathE, symObjAddr: 0x2B00, symBinAddr: 0x83D60, symSize: 0x100 }
  - { offset: 0x2D45BF, size: 0x8, addend: 0x0, symName: __ZN6VSTGUI14CSegmentButtonD1Ev, symObjAddr: 0x2E90, symBinAddr: 0x83E60, symSize: 0x20 }
  - { offset: 0x2D45F5, size: 0x8, addend: 0x0, symName: __ZN6VSTGUI14CSegmentButtonD2Ev, symObjAddr: 0x2F70, symBinAddr: 0x83F40, symSize: 0xC0 }
  - { offset: 0x2D4898, size: 0x8, addend: 0x0, symName: __ZN6VSTGUI14CSegmentButtonD0Ev, symObjAddr: 0x2EB0, symBinAddr: 0x83E80, symSize: 0x30 }
  - { offset: 0x2D48EB, size: 0x8, addend: 0x0, symName: __ZNK6VSTGUI14CSegmentButton7newCopyEv, symObjAddr: 0x2EE0, symBinAddr: 0x83EB0, symSize: 0x40 }
  - { offset: 0x2D492B, size: 0x8, addend: 0x0, symName: __ZN6VSTGUI14CSegmentButtonC1ERKS0_, symObjAddr: 0x3030, symBinAddr: 0x84000, symSize: 0x120 }
  - { offset: 0x2D4BDB, size: 0x8, addend: 0x0, symName: __ZThn24_N6VSTGUI14CSegmentButtonD1Ev, symObjAddr: 0x2F20, symBinAddr: 0x83EF0, symSize: 0x20 }
  - { offset: 0x2D4C36, size: 0x8, addend: 0x0, symName: __ZThn24_N6VSTGUI14CSegmentButtonD0Ev, symObjAddr: 0x2F40, symBinAddr: 0x83F10, symSize: 0x30 }
  - { offset: 0x2D4DC7, size: 0x8, addend: 0x0, symName: __ZNSt3__16vectorIN6VSTGUI14CSegmentButton7SegmentENS_9allocatorIS3_EEE16__init_with_sizeB8ne180100IPS3_S8_EEvT_T0_m, symObjAddr: 0x3150, symBinAddr: 0x84120, symSize: 0x100 }
  - { offset: 0x2D5450, size: 0x8, addend: 0x0, symName: __ZNSt3__128__exception_guard_exceptionsINS_6vectorIN6VSTGUI14CSegmentButton7SegmentENS_9allocatorIS4_EEE16__destroy_vectorEED1B8ne180100Ev, symObjAddr: 0x3250, symBinAddr: 0x84220, symSize: 0x70 }
  - { offset: 0x2D787D, size: 0x8, addend: 0x0, symName: __ZN6VSTGUI11CSliderBase20kAlwaysUseZoomFactorE, symObjAddr: 0x674FF, symBinAddr: 0x1F7701, symSize: 0x0 }
  - { offset: 0x2DA621, size: 0x8, addend: 0x0, symName: __ZN6VSTGUI11CSliderBase4Impl10globalModeE, symObjAddr: 0x3BB0, symBinAddr: 0x1D06C0, symSize: 0x0 }
  - { offset: 0x2E1E15, size: 0x8, addend: 0x0, symName: __ZN6VSTGUI11CSliderBase11onMouseDownERNS_6CPointERKNS_12CButtonStateE, symObjAddr: 0xC60, symBinAddr: 0x85D60, symSize: 0x2B0 }
  - { offset: 0x2E28FB, size: 0x8, addend: 0x0, symName: __ZN6VSTGUI11CSliderBaseC2ERKNS_5CRectEPNS_16IControlListenerEi, symObjAddr: 0x0, symBinAddr: 0x85100, symSize: 0xF0 }
  - { offset: 0x2E2C84, size: 0x8, addend: 0x0, symName: __ZNSt3__110unique_ptrIN6VSTGUI11CSliderBase4ImplENS_14default_deleteIS3_EEED1B8ne180100Ev, symObjAddr: 0xF0, symBinAddr: 0x851F0, symSize: 0x50 }
  - { offset: 0x2E2F68, size: 0x8, addend: 0x0, symName: __ZN6VSTGUI11CSliderBaseC2ERKS0_, symObjAddr: 0x140, symBinAddr: 0x85240, symSize: 0x100 }
  - { offset: 0x2E329A, size: 0x8, addend: 0x0, symName: __ZN6VSTGUI11CSliderBaseD2Ev, symObjAddr: 0x240, symBinAddr: 0x85340, symSize: 0xA0 }
  - { offset: 0x2E343D, size: 0x8, addend: 0x0, symName: __ZN6VSTGUI11CSliderBaseD1Ev, symObjAddr: 0x2E0, symBinAddr: 0x853E0, symSize: 0x10 }
  - { offset: 0x2E3476, size: 0x8, addend: 0x0, symName: __ZThn24_N6VSTGUI11CSliderBaseD1Ev, symObjAddr: 0x2F0, symBinAddr: 0x853F0, symSize: 0x10 }
  - { offset: 0x2E34A0, size: 0x8, addend: 0x0, symName: __ZN6VSTGUI11CSliderBaseD0Ev, symObjAddr: 0x300, symBinAddr: 0x85400, symSize: 0x10 }
  - { offset: 0x2E34D9, size: 0x8, addend: 0x0, symName: __ZThn24_N6VSTGUI11CSliderBaseD0Ev, symObjAddr: 0x310, symBinAddr: 0x85410, symSize: 0x10 }
  - { offset: 0x2E354A, size: 0x8, addend: 0x0, symName: __ZN6VSTGUI11CSliderBase21setHandleRangePrivateEd, symObjAddr: 0x320, symBinAddr: 0x85420, symSize: 0x40 }
  - { offset: 0x2E35BA, size: 0x8, addend: 0x0, symName: __ZN6VSTGUI11CSliderBase26updateInternalHandleValuesEv, symObjAddr: 0x360, symBinAddr: 0x85460, symSize: 0x40 }
  - { offset: 0x2E3614, size: 0x8, addend: 0x0, symName: __ZN6VSTGUI11CSliderBase22setHandleMinPosPrivateEd, symObjAddr: 0x3A0, symBinAddr: 0x854A0, symSize: 0x40 }
  - { offset: 0x2E3685, size: 0x8, addend: 0x0, symName: __ZNK6VSTGUI11CSliderBase22getHandleMinPosPrivateEv, symObjAddr: 0x3E0, symBinAddr: 0x854E0, symSize: 0x10 }
  - { offset: 0x2E36CA, size: 0x8, addend: 0x0, symName: __ZN6VSTGUI11CSliderBase15setOffsetHandleERKNS_6CPointE, symObjAddr: 0x3F0, symBinAddr: 0x854F0, symSize: 0x50 }
  - { offset: 0x2E3767, size: 0x8, addend: 0x0, symName: __ZNK6VSTGUI11CSliderBase15getOffsetHandleEv, symObjAddr: 0x440, symBinAddr: 0x85540, symSize: 0x20 }
  - { offset: 0x2E37AC, size: 0x8, addend: 0x0, symName: __ZN6VSTGUI11CSliderBase20setHandleSizePrivateEdd, symObjAddr: 0x460, symBinAddr: 0x85560, symSize: 0x50 }
  - { offset: 0x2E3824, size: 0x8, addend: 0x0, symName: __ZNK6VSTGUI11CSliderBase20getHandleSizePrivateEv, symObjAddr: 0x4B0, symBinAddr: 0x855B0, symSize: 0x20 }
  - { offset: 0x2E38C7, size: 0x8, addend: 0x0, symName: __ZNK6VSTGUI11CSliderBase21getControlSizePrivateEv, symObjAddr: 0x4D0, symBinAddr: 0x855D0, symSize: 0x40 }
  - { offset: 0x2E3958, size: 0x8, addend: 0x0, symName: __ZN6VSTGUI11CSliderBase8setStyleEi, symObjAddr: 0x510, symBinAddr: 0x85610, symSize: 0x50 }
  - { offset: 0x2E39B4, size: 0x8, addend: 0x0, symName: __ZNK6VSTGUI11CSliderBase8getStyleEv, symObjAddr: 0x560, symBinAddr: 0x85660, symSize: 0x10 }
  - { offset: 0x2E39F2, size: 0x8, addend: 0x0, symName: __ZNK6VSTGUI11CSliderBase17isStyleHorizontalEv, symObjAddr: 0x570, symBinAddr: 0x85670, symSize: 0x10 }
  - { offset: 0x2E3A30, size: 0x8, addend: 0x0, symName: __ZNK6VSTGUI11CSliderBase12isStyleRightEv, symObjAddr: 0x580, symBinAddr: 0x85680, symSize: 0x20 }
  - { offset: 0x2E3A6F, size: 0x8, addend: 0x0, symName: __ZNK6VSTGUI11CSliderBase13isStyleBottomEv, symObjAddr: 0x5A0, symBinAddr: 0x856A0, symSize: 0x20 }
  - { offset: 0x2E3AB4, size: 0x8, addend: 0x0, symName: __ZNK6VSTGUI11CSliderBase14isInverseStyleEv, symObjAddr: 0x5C0, symBinAddr: 0x856C0, symSize: 0x20 }
  - { offset: 0x2E3B0F, size: 0x8, addend: 0x0, symName: __ZN6VSTGUI11CSliderBase13setZoomFactorEf, symObjAddr: 0x5E0, symBinAddr: 0x856E0, symSize: 0x10 }
  - { offset: 0x2E3B63, size: 0x8, addend: 0x0, symName: __ZNK6VSTGUI11CSliderBase13getZoomFactorEv, symObjAddr: 0x5F0, symBinAddr: 0x856F0, symSize: 0x10 }
  - { offset: 0x2E3BA9, size: 0x8, addend: 0x0, symName: __ZN6VSTGUI11CSliderBase13setSliderModeENS_11CSliderModeE, symObjAddr: 0x600, symBinAddr: 0x85700, symSize: 0x10 }
  - { offset: 0x2E3BFD, size: 0x8, addend: 0x0, symName: __ZNK6VSTGUI11CSliderBase13getSliderModeEv, symObjAddr: 0x610, symBinAddr: 0x85710, symSize: 0x10 }
  - { offset: 0x2E3C42, size: 0x8, addend: 0x0, symName: __ZNK6VSTGUI11CSliderBase22getEffectiveSliderModeEv, symObjAddr: 0x620, symBinAddr: 0x85720, symSize: 0x20 }
  - { offset: 0x2E3C81, size: 0x8, addend: 0x0, symName: __ZN6VSTGUI11CSliderBase13setGlobalModeENS_11CSliderModeE, symObjAddr: 0x640, symBinAddr: 0x85740, symSize: 0x40 }
  - { offset: 0x2E3CB5, size: 0x8, addend: 0x0, symName: __ZN6VSTGUI11CSliderBase13getGlobalModeEv, symObjAddr: 0x680, symBinAddr: 0x85780, symSize: 0x10 }
  - { offset: 0x2E3CCB, size: 0x8, addend: 0x0, symName: __ZN6VSTGUI11CSliderBase11setViewSizeERKNS_5CRectEb, symObjAddr: 0x690, symBinAddr: 0x85790, symSize: 0xD0 }
  - { offset: 0x2E3E4F, size: 0x8, addend: 0x0, symName: __ZNK6VSTGUI11CSliderBase19calculateHandleRectEf, symObjAddr: 0x760, symBinAddr: 0x85860, symSize: 0x160 }
  - { offset: 0x2E3F68, size: 0x8, addend: 0x0, symName: __ZNK6VSTGUI11CSliderBase14calculateDeltaERKNS_6CPointEPNS_5CRectE, symObjAddr: 0x8C0, symBinAddr: 0x859C0, symSize: 0x190 }
  - { offset: 0x2E4172, size: 0x8, addend: 0x0, symName: __ZN6VSTGUI11CSliderBase9doRampingEv, symObjAddr: 0xA50, symBinAddr: 0x85B50, symSize: 0x210 }
  - { offset: 0x2E482A, size: 0x8, addend: 0x0, symName: __ZN6VSTGUI11CSliderBase13onMouseCancelEv, symObjAddr: 0xF10, symBinAddr: 0x86010, symSize: 0xA0 }
  - { offset: 0x2E495D, size: 0x8, addend: 0x0, symName: __ZN6VSTGUI11CSliderBase9onMouseUpERNS_6CPointERKNS_12CButtonStateE, symObjAddr: 0xFB0, symBinAddr: 0x860B0, symSize: 0x70 }
  - { offset: 0x2E4ABC, size: 0x8, addend: 0x0, symName: __ZN6VSTGUI11CSliderBase12onMouseMovedERNS_6CPointERKNS_12CButtonStateE, symObjAddr: 0x1020, symBinAddr: 0x86120, symSize: 0x3F0 }
  - { offset: 0x2E4F70, size: 0x8, addend: 0x0, symName: __ZN6VSTGUI11CSliderBase17onMouseWheelEventERNS_15MouseWheelEventE, symObjAddr: 0x1410, symBinAddr: 0x86510, symSize: 0x130 }
  - { offset: 0x2E5142, size: 0x8, addend: 0x0, symName: __ZN6VSTGUI11CSliderBase15onKeyboardEventERNS_13KeyboardEventE, symObjAddr: 0x1540, symBinAddr: 0x86640, symSize: 0x200 }
  - { offset: 0x2E55D9, size: 0x8, addend: 0x0, symName: __ZN6VSTGUI7CSliderC2ERKNS_5CRectEPNS_16IControlListenerEiiiPNS_7CBitmapES7_RKNS_6CPointEi, symObjAddr: 0x1740, symBinAddr: 0x86840, symSize: 0x1F0 }
  - { offset: 0x2E59D1, size: 0x8, addend: 0x0, symName: __ZNSt3__110unique_ptrIN6VSTGUI7CSlider4ImplENS_14default_deleteIS3_EEED1B8ne180100Ev, symObjAddr: 0x1930, symBinAddr: 0x86A30, symSize: 0x40 }
  - { offset: 0x2E5B79, size: 0x8, addend: 0x0, symName: __ZN6VSTGUI7CSlider19setBackgroundOffsetERKNS_6CPointE, symObjAddr: 0x1970, symBinAddr: 0x86A70, symSize: 0x10 }
  - { offset: 0x2E5BE0, size: 0x8, addend: 0x0, symName: __ZN6VSTGUI7CSliderC1ERKNS_5CRectEPNS_16IControlListenerEiiiPNS_7CBitmapES7_RKNS_6CPointEi, symObjAddr: 0x1980, symBinAddr: 0x86A80, symSize: 0x1E0 }
  - { offset: 0x2E5FEE, size: 0x8, addend: 0x0, symName: __ZN6VSTGUI7CSliderC2ERKNS_5CRectEPNS_16IControlListenerEiRKNS_6CPointEiPNS_7CBitmapESA_S8_i, symObjAddr: 0x1B60, symBinAddr: 0x86C60, symSize: 0x1B0 }
  - { offset: 0x2E6447, size: 0x8, addend: 0x0, symName: __ZN6VSTGUI7CSliderC1ERKNS_5CRectEPNS_16IControlListenerEiRKNS_6CPointEiPNS_7CBitmapESA_S8_i, symObjAddr: 0x1D10, symBinAddr: 0x86E10, symSize: 0x1B0 }
  - { offset: 0x2E6941, size: 0x8, addend: 0x0, symName: __ZN6VSTGUI7CSliderC2ERKS0_, symObjAddr: 0x1EC0, symBinAddr: 0x86FC0, symSize: 0x120 }
  - { offset: 0x2E6CD1, size: 0x8, addend: 0x0, symName: __ZN6VSTGUI7CSliderC1ERKS0_, symObjAddr: 0x1FE0, symBinAddr: 0x870E0, symSize: 0x110 }
  - { offset: 0x2E707C, size: 0x8, addend: 0x0, symName: __ZN6VSTGUI7CSliderD2Ev, symObjAddr: 0x20F0, symBinAddr: 0x871F0, symSize: 0x80 }
  - { offset: 0x2E71C2, size: 0x8, addend: 0x0, symName: __ZN6VSTGUI7CSliderD1Ev, symObjAddr: 0x2170, symBinAddr: 0x87270, symSize: 0x70 }
  - { offset: 0x2E7312, size: 0x8, addend: 0x0, symName: __ZThn24_N6VSTGUI7CSliderD1Ev, symObjAddr: 0x21E0, symBinAddr: 0x872E0, symSize: 0x70 }
  - { offset: 0x2E7449, size: 0x8, addend: 0x0, symName: __ZN6VSTGUI7CSliderD0Ev, symObjAddr: 0x2250, symBinAddr: 0x87350, symSize: 0x70 }
  - { offset: 0x2E75AF, size: 0x8, addend: 0x0, symName: __ZThn24_N6VSTGUI7CSliderD0Ev, symObjAddr: 0x22C0, symBinAddr: 0x873C0, symSize: 0x70 }
  - { offset: 0x2E7705, size: 0x8, addend: 0x0, symName: __ZN6VSTGUI7CSlider9setOffsetERKNS_6CPointE, symObjAddr: 0x2330, symBinAddr: 0x87430, symSize: 0x10 }
  - { offset: 0x2E779F, size: 0x8, addend: 0x0, symName: __ZNK6VSTGUI7CSlider9getOffsetEv, symObjAddr: 0x2340, symBinAddr: 0x87440, symSize: 0x20 }
  - { offset: 0x2E7805, size: 0x8, addend: 0x0, symName: __ZNK6VSTGUI7CSlider19getBackgroundOffsetEv, symObjAddr: 0x2360, symBinAddr: 0x87460, symSize: 0x20 }
  - { offset: 0x2E7888, size: 0x8, addend: 0x0, symName: __ZN6VSTGUI7CSlider9sizeToFitEv, symObjAddr: 0x2380, symBinAddr: 0x87480, symSize: 0xB0 }
  - { offset: 0x2E7AD2, size: 0x8, addend: 0x0, symName: __ZN6VSTGUI7CSlider4drawEPNS_12CDrawContextE, symObjAddr: 0x2430, symBinAddr: 0x87530, symSize: 0x610 }
  - { offset: 0x2E8362, size: 0x8, addend: 0x0, symName: __ZNK6VSTGUI7CSlider13getFrameWidthEv, symObjAddr: 0x2A40, symBinAddr: 0x87B40, symSize: 0x10 }
  - { offset: 0x2E8407, size: 0x8, addend: 0x0, symName: __ZN6VSTGUI7CSlider9setHandleEPNS_7CBitmapE, symObjAddr: 0x2A50, symBinAddr: 0x87B50, symSize: 0x120 }
  - { offset: 0x2E8629, size: 0x8, addend: 0x0, symName: __ZNK6VSTGUI7CSlider9getHandleEv, symObjAddr: 0x2B70, symBinAddr: 0x87C70, symSize: 0x10 }
  - { offset: 0x2E8692, size: 0x8, addend: 0x0, symName: __ZN6VSTGUI7CSlider12setDrawStyleEi, symObjAddr: 0x2B80, symBinAddr: 0x87C80, symSize: 0x20 }
  - { offset: 0x2E86F6, size: 0x8, addend: 0x0, symName: __ZN6VSTGUI7CSlider13setFrameWidthEd, symObjAddr: 0x2BA0, symBinAddr: 0x87CA0, symSize: 0x20 }
  - { offset: 0x2E879D, size: 0x8, addend: 0x0, symName: __ZN6VSTGUI7CSlider13setFrameColorENS_6CColorE, symObjAddr: 0x2BC0, symBinAddr: 0x87CC0, symSize: 0x50 }
  - { offset: 0x2E883F, size: 0x8, addend: 0x0, symName: __ZN6VSTGUI7CSlider12setBackColorENS_6CColorE, symObjAddr: 0x2C10, symBinAddr: 0x87D10, symSize: 0x50 }
  - { offset: 0x2E88E1, size: 0x8, addend: 0x0, symName: __ZN6VSTGUI7CSlider13setValueColorENS_6CColorE, symObjAddr: 0x2C60, symBinAddr: 0x87D60, symSize: 0x50 }
  - { offset: 0x2E8983, size: 0x8, addend: 0x0, symName: __ZNK6VSTGUI7CSlider12getDrawStyleEv, symObjAddr: 0x2CB0, symBinAddr: 0x87DB0, symSize: 0x10 }
  - { offset: 0x2E89CC, size: 0x8, addend: 0x0, symName: __ZNK6VSTGUI7CSlider13getFrameColorEv, symObjAddr: 0x2CC0, symBinAddr: 0x87DC0, symSize: 0x20 }
  - { offset: 0x2E8A61, size: 0x8, addend: 0x0, symName: __ZNK6VSTGUI7CSlider12getBackColorEv, symObjAddr: 0x2CE0, symBinAddr: 0x87DE0, symSize: 0x20 }
  - { offset: 0x2E8AF6, size: 0x8, addend: 0x0, symName: __ZNK6VSTGUI7CSlider13getValueColorEv, symObjAddr: 0x2D00, symBinAddr: 0x87E00, symSize: 0x20 }
  - { offset: 0x2E8B9A, size: 0x8, addend: 0x0, symName: __ZN6VSTGUI15CVerticalSliderC2ERKNS_5CRectEPNS_16IControlListenerEiiiPNS_7CBitmapES7_RKNS_6CPointEi, symObjAddr: 0x2D20, symBinAddr: 0x87E20, symSize: 0x70 }
  - { offset: 0x2E8C9A, size: 0x8, addend: 0x0, symName: __ZN6VSTGUI15CVerticalSliderC1ERKNS_5CRectEPNS_16IControlListenerEiiiPNS_7CBitmapES7_RKNS_6CPointEi, symObjAddr: 0x2D90, symBinAddr: 0x87E90, symSize: 0x70 }
  - { offset: 0x2E8DAB, size: 0x8, addend: 0x0, symName: __ZN6VSTGUI15CVerticalSliderC2ERKNS_5CRectEPNS_16IControlListenerEiRKNS_6CPointEiPNS_7CBitmapESA_S8_i, symObjAddr: 0x2E00, symBinAddr: 0x87F00, symSize: 0x70 }
  - { offset: 0x2E8EAB, size: 0x8, addend: 0x0, symName: __ZN6VSTGUI15CVerticalSliderC1ERKNS_5CRectEPNS_16IControlListenerEiRKNS_6CPointEiPNS_7CBitmapESA_S8_i, symObjAddr: 0x2E70, symBinAddr: 0x87F70, symSize: 0x70 }
  - { offset: 0x2E8FCB, size: 0x8, addend: 0x0, symName: __ZN6VSTGUI17CHorizontalSliderC2ERKNS_5CRectEPNS_16IControlListenerEiiiPNS_7CBitmapES7_RKNS_6CPointEi, symObjAddr: 0x2EE0, symBinAddr: 0x87FE0, symSize: 0x70 }
  - { offset: 0x2E90CB, size: 0x8, addend: 0x0, symName: __ZN6VSTGUI17CHorizontalSliderC1ERKNS_5CRectEPNS_16IControlListenerEiiiPNS_7CBitmapES7_RKNS_6CPointEi, symObjAddr: 0x2F50, symBinAddr: 0x88050, symSize: 0x70 }
  - { offset: 0x2E91DC, size: 0x8, addend: 0x0, symName: __ZN6VSTGUI17CHorizontalSliderC2ERKNS_5CRectEPNS_16IControlListenerEiRKNS_6CPointEiPNS_7CBitmapESA_S8_i, symObjAddr: 0x2FC0, symBinAddr: 0x880C0, symSize: 0x70 }
  - { offset: 0x2E92DC, size: 0x8, addend: 0x0, symName: __ZN6VSTGUI17CHorizontalSliderC1ERKNS_5CRectEPNS_16IControlListenerEiRKNS_6CPointEiPNS_7CBitmapESA_S8_i, symObjAddr: 0x3030, symBinAddr: 0x88130, symSize: 0x70 }
  - { offset: 0x2E93ED, size: 0x8, addend: 0x0, symName: __ZNK6VSTGUI7CSlider7newCopyEv, symObjAddr: 0x3330, symBinAddr: 0x881A0, symSize: 0x40 }
  - { offset: 0x2E944F, size: 0x8, addend: 0x0, symName: __ZN6VSTGUI15CVerticalSliderD1Ev, symObjAddr: 0x3370, symBinAddr: 0x881E0, symSize: 0x70 }
  - { offset: 0x2E95B8, size: 0x8, addend: 0x0, symName: __ZN6VSTGUI15CVerticalSliderD0Ev, symObjAddr: 0x33E0, symBinAddr: 0x88250, symSize: 0x70 }
  - { offset: 0x2E9717, size: 0x8, addend: 0x0, symName: __ZThn24_N6VSTGUI15CVerticalSliderD1Ev, symObjAddr: 0x3450, symBinAddr: 0x882C0, symSize: 0x70 }
  - { offset: 0x2E987E, size: 0x8, addend: 0x0, symName: __ZThn24_N6VSTGUI15CVerticalSliderD0Ev, symObjAddr: 0x34C0, symBinAddr: 0x88330, symSize: 0x70 }
  - { offset: 0x2E9A0F, size: 0x8, addend: 0x0, symName: __ZN6VSTGUI17CHorizontalSliderD1Ev, symObjAddr: 0x3530, symBinAddr: 0x883A0, symSize: 0x70 }
  - { offset: 0x2E9B78, size: 0x8, addend: 0x0, symName: __ZN6VSTGUI17CHorizontalSliderD0Ev, symObjAddr: 0x35A0, symBinAddr: 0x88410, symSize: 0x70 }
  - { offset: 0x2E9CD7, size: 0x8, addend: 0x0, symName: __ZThn24_N6VSTGUI17CHorizontalSliderD1Ev, symObjAddr: 0x3610, symBinAddr: 0x88480, symSize: 0x70 }
  - { offset: 0x2E9E3E, size: 0x8, addend: 0x0, symName: __ZThn24_N6VSTGUI17CHorizontalSliderD0Ev, symObjAddr: 0x3680, symBinAddr: 0x884F0, symSize: 0x70 }
  - { offset: 0x2E9FA8, size: 0x8, addend: 0x0, symName: '__ZNSt3__110__function6__funcIZN6VSTGUI11CSliderBase11onMouseDownERNS2_6CPointERKNS2_12CButtonStateEE3$_0NS_9allocatorIS9_EEFvPNS2_12CVSTGUITimerEEED1Ev', symObjAddr: 0x3700, symBinAddr: 0x88560, symSize: 0x10 }
  - { offset: 0x2E9FD0, size: 0x8, addend: 0x0, symName: '__ZNSt3__110__function6__funcIZN6VSTGUI11CSliderBase11onMouseDownERNS2_6CPointERKNS2_12CButtonStateEE3$_0NS_9allocatorIS9_EEFvPNS2_12CVSTGUITimerEEED0Ev', symObjAddr: 0x3710, symBinAddr: 0x88570, symSize: 0x10 }
  - { offset: 0x2EA1D0, size: 0x8, addend: 0x0, symName: '__ZNKSt3__110__function6__funcIZN6VSTGUI11CSliderBase11onMouseDownERNS2_6CPointERKNS2_12CButtonStateEE3$_0NS_9allocatorIS9_EEFvPNS2_12CVSTGUITimerEEE7__cloneEv', symObjAddr: 0x3720, symBinAddr: 0x88580, symSize: 0x30 }
  - { offset: 0x2EA4B5, size: 0x8, addend: 0x0, symName: '__ZNKSt3__110__function6__funcIZN6VSTGUI11CSliderBase11onMouseDownERNS2_6CPointERKNS2_12CButtonStateEE3$_0NS_9allocatorIS9_EEFvPNS2_12CVSTGUITimerEEE7__cloneEPNS0_6__baseISE_EE', symObjAddr: 0x3750, symBinAddr: 0x885B0, symSize: 0x20 }
  - { offset: 0x2EA5BF, size: 0x8, addend: 0x0, symName: '__ZNSt3__110__function6__funcIZN6VSTGUI11CSliderBase11onMouseDownERNS2_6CPointERKNS2_12CButtonStateEE3$_0NS_9allocatorIS9_EEFvPNS2_12CVSTGUITimerEEE7destroyEv', symObjAddr: 0x3770, symBinAddr: 0x885D0, symSize: 0x10 }
  - { offset: 0x2EA60D, size: 0x8, addend: 0x0, symName: '__ZNSt3__110__function6__funcIZN6VSTGUI11CSliderBase11onMouseDownERNS2_6CPointERKNS2_12CButtonStateEE3$_0NS_9allocatorIS9_EEFvPNS2_12CVSTGUITimerEEE18destroy_deallocateEv', symObjAddr: 0x3780, symBinAddr: 0x885E0, symSize: 0x10 }
  - { offset: 0x2EA75A, size: 0x8, addend: 0x0, symName: '__ZNSt3__110__function6__funcIZN6VSTGUI11CSliderBase11onMouseDownERNS2_6CPointERKNS2_12CButtonStateEE3$_0NS_9allocatorIS9_EEFvPNS2_12CVSTGUITimerEEEclEOSD_', symObjAddr: 0x3790, symBinAddr: 0x885F0, symSize: 0x10 }
  - { offset: 0x2EA839, size: 0x8, addend: 0x0, symName: '__ZNKSt3__110__function6__funcIZN6VSTGUI11CSliderBase11onMouseDownERNS2_6CPointERKNS2_12CButtonStateEE3$_0NS_9allocatorIS9_EEFvPNS2_12CVSTGUITimerEEE6targetERKSt9type_info', symObjAddr: 0x37A0, symBinAddr: 0x88600, symSize: 0x20 }
  - { offset: 0x2EA8AD, size: 0x8, addend: 0x0, symName: '__ZNKSt3__110__function6__funcIZN6VSTGUI11CSliderBase11onMouseDownERNS2_6CPointERKNS2_12CButtonStateEE3$_0NS_9allocatorIS9_EEFvPNS2_12CVSTGUITimerEEE11target_typeEv', symObjAddr: 0x37C0, symBinAddr: 0x88620, symSize: 0xD }
  - { offset: 0x2F6D0E, size: 0x8, addend: 0x0, symName: __ZN6VSTGUI22CAnimationSplashScreen15createAnimationEjjPNS_5CViewEb, symObjAddr: 0xFB0, symBinAddr: 0x895D0, symSize: 0x200 }
  - { offset: 0x2F73BC, size: 0x8, addend: 0x0, symName: __ZN6VSTGUI13CSplashScreenC2ERKNS_5CRectEPNS_16IControlListenerEiPNS_7CBitmapES3_RKNS_6CPointE, symObjAddr: 0x0, symBinAddr: 0x88630, symSize: 0x160 }
  - { offset: 0x2F7576, size: 0x8, addend: 0x0, symName: __ZN6VSTGUI13CSplashScreenC1ERKNS_5CRectEPNS_16IControlListenerEiPNS_7CBitmapES3_RKNS_6CPointE, symObjAddr: 0x160, symBinAddr: 0x88790, symSize: 0x150 }
  - { offset: 0x2F7721, size: 0x8, addend: 0x0, symName: __ZN6VSTGUI13CSplashScreenC2ERKNS_5CRectEPNS_16IControlListenerEiPNS_5CViewE, symObjAddr: 0x2B0, symBinAddr: 0x888E0, symSize: 0xA0 }
  - { offset: 0x2F7870, size: 0x8, addend: 0x0, symName: __ZN6VSTGUI13CSplashScreenC1ERKNS_5CRectEPNS_16IControlListenerEiPNS_5CViewE, symObjAddr: 0x350, symBinAddr: 0x88980, symSize: 0x90 }
  - { offset: 0x2F79AF, size: 0x8, addend: 0x0, symName: __ZN6VSTGUI13CSplashScreenC2ERKS0_, symObjAddr: 0x3E0, symBinAddr: 0x88A10, symSize: 0xE0 }
  - { offset: 0x2F7A9E, size: 0x8, addend: 0x0, symName: __ZN6VSTGUI13CSplashScreenC1ERKS0_, symObjAddr: 0x4C0, symBinAddr: 0x88AF0, symSize: 0xD0 }
  - { offset: 0x2F7B6C, size: 0x8, addend: 0x0, symName: __ZN6VSTGUI13CSplashScreenD2Ev, symObjAddr: 0x590, symBinAddr: 0x88BC0, symSize: 0x70 }
  - { offset: 0x2F7BCF, size: 0x8, addend: 0x0, symName: __ZN6VSTGUI13CSplashScreenD1Ev, symObjAddr: 0x610, symBinAddr: 0x88C30, symSize: 0x60 }
  - { offset: 0x2F7C35, size: 0x8, addend: 0x0, symName: __ZThn24_N6VSTGUI13CSplashScreenD1Ev, symObjAddr: 0x670, symBinAddr: 0x88C90, symSize: 0x60 }
  - { offset: 0x2F7C85, size: 0x8, addend: 0x0, symName: __ZThn56_N6VSTGUI13CSplashScreenD1Ev, symObjAddr: 0x6D0, symBinAddr: 0x88CF0, symSize: 0x60 }
  - { offset: 0x2F7CD4, size: 0x8, addend: 0x0, symName: __ZN6VSTGUI13CSplashScreenD0Ev, symObjAddr: 0x730, symBinAddr: 0x88D50, symSize: 0x60 }
  - { offset: 0x2F7D4A, size: 0x8, addend: 0x0, symName: __ZThn24_N6VSTGUI13CSplashScreenD0Ev, symObjAddr: 0x790, symBinAddr: 0x88DB0, symSize: 0x60 }
  - { offset: 0x2F7DB1, size: 0x8, addend: 0x0, symName: __ZThn56_N6VSTGUI13CSplashScreenD0Ev, symObjAddr: 0x7F0, symBinAddr: 0x88E10, symSize: 0x60 }
  - { offset: 0x2F7E18, size: 0x8, addend: 0x0, symName: __ZN6VSTGUI13CSplashScreen4drawEPNS_12CDrawContextE, symObjAddr: 0x850, symBinAddr: 0x88E70, symSize: 0x10 }
  - { offset: 0x2F7E7C, size: 0x8, addend: 0x0, symName: __ZN6VSTGUI13CSplashScreen7hitTestERKNS_6CPointERKNS_5EventE, symObjAddr: 0x860, symBinAddr: 0x88E80, symSize: 0x40 }
  - { offset: 0x2F7F7C, size: 0x8, addend: 0x0, symName: __ZN6VSTGUI13CSplashScreen11onMouseDownERNS_6CPointERKNS_12CButtonStateE, symObjAddr: 0x8A0, symBinAddr: 0x88EC0, symSize: 0xE0 }
  - { offset: 0x2F8076, size: 0x8, addend: 0x0, symName: __ZN6VSTGUI13CSplashScreen12valueChangedEPNS_8CControlE, symObjAddr: 0x980, symBinAddr: 0x88FA0, symSize: 0x30 }
  - { offset: 0x2F80CF, size: 0x8, addend: 0x0, symName: __ZThn56_N6VSTGUI13CSplashScreen12valueChangedEPNS_8CControlE, symObjAddr: 0x9B0, symBinAddr: 0x88FD0, symSize: 0x40 }
  - { offset: 0x2F8117, size: 0x8, addend: 0x0, symName: __ZN6VSTGUI13CSplashScreen8unSplashEv, symObjAddr: 0x9F0, symBinAddr: 0x89010, symSize: 0x70 }
  - { offset: 0x2F82AB, size: 0x8, addend: 0x0, symName: __ZN6VSTGUI22CAnimationSplashScreenC2ERKNS_5CRectEiPNS_7CBitmapES5_, symObjAddr: 0xA60, symBinAddr: 0x89080, symSize: 0xC0 }
  - { offset: 0x2F843F, size: 0x8, addend: 0x0, symName: __ZN6VSTGUI22CAnimationSplashScreenC1ERKNS_5CRectEiPNS_7CBitmapES5_, symObjAddr: 0xB20, symBinAddr: 0x89140, symSize: 0xC0 }
  - { offset: 0x2F85D3, size: 0x8, addend: 0x0, symName: __ZN6VSTGUI22CAnimationSplashScreen15setSplashBitmapEPNS_7CBitmapE, symObjAddr: 0xBE0, symBinAddr: 0x89200, symSize: 0x20 }
  - { offset: 0x2F8616, size: 0x8, addend: 0x0, symName: __ZNK6VSTGUI22CAnimationSplashScreen15getSplashBitmapEv, symObjAddr: 0xC00, symBinAddr: 0x89220, symSize: 0x20 }
  - { offset: 0x2F863F, size: 0x8, addend: 0x0, symName: __ZN6VSTGUI22CAnimationSplashScreen13setSplashRectERKNS_5CRectE, symObjAddr: 0xC20, symBinAddr: 0x89240, symSize: 0x50 }
  - { offset: 0x2F8694, size: 0x8, addend: 0x0, symName: __ZNK6VSTGUI22CAnimationSplashScreen13getSplashRectEv, symObjAddr: 0xC70, symBinAddr: 0x89290, symSize: 0x20 }
  - { offset: 0x2F86BD, size: 0x8, addend: 0x0, symName: __ZN6VSTGUI22CAnimationSplashScreen11onMouseDownERNS_6CPointERKNS_12CButtonStateE, symObjAddr: 0xC90, symBinAddr: 0x892B0, symSize: 0x70 }
  - { offset: 0x2F8754, size: 0x8, addend: 0x0, symName: __ZN6VSTGUI22CAnimationSplashScreen8unSplashEv, symObjAddr: 0xD00, symBinAddr: 0x89320, symSize: 0xC0 }
  - { offset: 0x2F882F, size: 0x8, addend: 0x0, symName: __ZN6VSTGUI22CAnimationSplashScreen4drawEPNS_12CDrawContextE, symObjAddr: 0xDC0, symBinAddr: 0x893E0, symSize: 0x30 }
  - { offset: 0x2F8963, size: 0x8, addend: 0x0, symName: __ZN6VSTGUI22CAnimationSplashScreen9sizeToFitEv, symObjAddr: 0xDF0, symBinAddr: 0x89410, symSize: 0x1C0 }
  - { offset: 0x2F8F73, size: 0x8, addend: 0x0, symName: __ZNK6VSTGUI13CSplashScreen7newCopyEv, symObjAddr: 0x1440, symBinAddr: 0x897D0, symSize: 0x100 }
  - { offset: 0x2F905E, size: 0x8, addend: 0x0, symName: __ZN6VSTGUI13CSplashScreen14setDisplayAreaERKNS_5CRectE, symObjAddr: 0x1540, symBinAddr: 0x898D0, symSize: 0x20 }
  - { offset: 0x2F9091, size: 0x8, addend: 0x0, symName: __ZNK6VSTGUI13CSplashScreen14getDisplayAreaERNS_5CRectE, symObjAddr: 0x1560, symBinAddr: 0x898F0, symSize: 0x20 }
  - { offset: 0x2F90E6, size: 0x8, addend: 0x0, symName: __ZN6VSTGUI22CAnimationSplashScreenD1Ev, symObjAddr: 0x15D0, symBinAddr: 0x89910, symSize: 0x60 }
  - { offset: 0x2F9168, size: 0x8, addend: 0x0, symName: __ZN6VSTGUI22CAnimationSplashScreenD0Ev, symObjAddr: 0x1630, symBinAddr: 0x89970, symSize: 0x60 }
  - { offset: 0x2F91DB, size: 0x8, addend: 0x0, symName: __ZN6VSTGUI22CAnimationSplashScreen17setAnimationIndexEj, symObjAddr: 0x1690, symBinAddr: 0x899D0, symSize: 0x10 }
  - { offset: 0x2F920E, size: 0x8, addend: 0x0, symName: __ZN6VSTGUI22CAnimationSplashScreen16setAnimationTimeEj, symObjAddr: 0x16A0, symBinAddr: 0x899E0, symSize: 0x10 }
  - { offset: 0x2F9241, size: 0x8, addend: 0x0, symName: __ZThn24_N6VSTGUI22CAnimationSplashScreenD1Ev, symObjAddr: 0x16B0, symBinAddr: 0x899F0, symSize: 0x60 }
  - { offset: 0x2F92C1, size: 0x8, addend: 0x0, symName: __ZThn24_N6VSTGUI22CAnimationSplashScreenD0Ev, symObjAddr: 0x1710, symBinAddr: 0x89A50, symSize: 0x60 }
  - { offset: 0x2F933F, size: 0x8, addend: 0x0, symName: __ZThn56_N6VSTGUI22CAnimationSplashScreenD1Ev, symObjAddr: 0x1770, symBinAddr: 0x89AB0, symSize: 0x60 }
  - { offset: 0x2F93A6, size: 0x8, addend: 0x0, symName: __ZThn56_N6VSTGUI22CAnimationSplashScreenD0Ev, symObjAddr: 0x17D0, symBinAddr: 0x89B10, symSize: 0x60 }
  - { offset: 0x2F9424, size: 0x8, addend: 0x0, symName: __ZN6VSTGUI16IControlListenerD1Ev, symObjAddr: 0x1830, symBinAddr: 0x178DD0, symSize: 0x10 }
  - { offset: 0x2F944D, size: 0x8, addend: 0x0, symName: __ZN6VSTGUI16IControlListenerD0Ev, symObjAddr: 0x1840, symBinAddr: 0x178DE0, symSize: 0x10 }
  - { offset: 0x2F9498, size: 0x8, addend: 0x0, symName: __ZN6VSTGUI24CDefaultSplashScreenViewD1Ev, symObjAddr: 0x1850, symBinAddr: 0x89B70, symSize: 0x20 }
  - { offset: 0x2F94ED, size: 0x8, addend: 0x0, symName: __ZN6VSTGUI24CDefaultSplashScreenViewD0Ev, symObjAddr: 0x1870, symBinAddr: 0x89B90, symSize: 0x30 }
  - { offset: 0x2F9594, size: 0x8, addend: 0x0, symName: __ZNK6VSTGUI24CDefaultSplashScreenView7newCopyEv, symObjAddr: 0x18A0, symBinAddr: 0x89BC0, symSize: 0x70 }
  - { offset: 0x2F95FA, size: 0x8, addend: 0x0, symName: __ZN6VSTGUI24CDefaultSplashScreenView4drawEPNS_12CDrawContextE, symObjAddr: 0x1910, symBinAddr: 0x89C30, symSize: 0x70 }
  - { offset: 0x2F968D, size: 0x8, addend: 0x0, symName: __ZN6VSTGUI24CDefaultSplashScreenView11onMouseDownERNS_6CPointERKNS_12CButtonStateE, symObjAddr: 0x1980, symBinAddr: 0x89CA0, symSize: 0x30 }
  - { offset: 0x2F9716, size: 0x8, addend: 0x0, symName: __ZThn24_N6VSTGUI24CDefaultSplashScreenViewD1Ev, symObjAddr: 0x19B0, symBinAddr: 0x89CD0, symSize: 0x20 }
  - { offset: 0x2F977F, size: 0x8, addend: 0x0, symName: __ZThn24_N6VSTGUI24CDefaultSplashScreenViewD0Ev, symObjAddr: 0x19D0, symBinAddr: 0x89CF0, symSize: 0x30 }
  - { offset: 0x2F97EC, size: 0x8, addend: 0x0, symName: '__ZNSt3__110__function6__funcIZN6VSTGUI22CAnimationSplashScreen15createAnimationEjjPNS2_5CViewEbE3$_0NS_9allocatorIS6_EEFvS5_PKcPNS2_9Animation16IAnimationTargetEEED1Ev', symObjAddr: 0x1A00, symBinAddr: 0x89D20, symSize: 0x10 }
  - { offset: 0x2F9814, size: 0x8, addend: 0x0, symName: '__ZNSt3__110__function6__funcIZN6VSTGUI22CAnimationSplashScreen15createAnimationEjjPNS2_5CViewEbE3$_0NS_9allocatorIS6_EEFvS5_PKcPNS2_9Animation16IAnimationTargetEEED0Ev', symObjAddr: 0x1A10, symBinAddr: 0x89D30, symSize: 0x10 }
  - { offset: 0x2F9A14, size: 0x8, addend: 0x0, symName: '__ZNKSt3__110__function6__funcIZN6VSTGUI22CAnimationSplashScreen15createAnimationEjjPNS2_5CViewEbE3$_0NS_9allocatorIS6_EEFvS5_PKcPNS2_9Animation16IAnimationTargetEEE7__cloneEv', symObjAddr: 0x1A20, symBinAddr: 0x89D40, symSize: 0x30 }
  - { offset: 0x2F9CF9, size: 0x8, addend: 0x0, symName: '__ZNKSt3__110__function6__funcIZN6VSTGUI22CAnimationSplashScreen15createAnimationEjjPNS2_5CViewEbE3$_0NS_9allocatorIS6_EEFvS5_PKcPNS2_9Animation16IAnimationTargetEEE7__cloneEPNS0_6__baseISE_EE', symObjAddr: 0x1A50, symBinAddr: 0x89D70, symSize: 0x20 }
  - { offset: 0x2F9E03, size: 0x8, addend: 0x0, symName: '__ZNSt3__110__function6__funcIZN6VSTGUI22CAnimationSplashScreen15createAnimationEjjPNS2_5CViewEbE3$_0NS_9allocatorIS6_EEFvS5_PKcPNS2_9Animation16IAnimationTargetEEE7destroyEv', symObjAddr: 0x1A70, symBinAddr: 0x89D90, symSize: 0x10 }
  - { offset: 0x2F9E51, size: 0x8, addend: 0x0, symName: '__ZNSt3__110__function6__funcIZN6VSTGUI22CAnimationSplashScreen15createAnimationEjjPNS2_5CViewEbE3$_0NS_9allocatorIS6_EEFvS5_PKcPNS2_9Animation16IAnimationTargetEEE18destroy_deallocateEv', symObjAddr: 0x1A80, symBinAddr: 0x89DA0, symSize: 0x10 }
  - { offset: 0x2F9FFB, size: 0x8, addend: 0x0, symName: '__ZNSt3__110__function6__funcIZN6VSTGUI22CAnimationSplashScreen15createAnimationEjjPNS2_5CViewEbE3$_0NS_9allocatorIS6_EEFvS5_PKcPNS2_9Animation16IAnimationTargetEEEclEOS5_OSA_OSD_', symObjAddr: 0x1A90, symBinAddr: 0x89DB0, symSize: 0x80 }
  - { offset: 0x2FA17C, size: 0x8, addend: 0x0, symName: '__ZNKSt3__110__function6__funcIZN6VSTGUI22CAnimationSplashScreen15createAnimationEjjPNS2_5CViewEbE3$_0NS_9allocatorIS6_EEFvS5_PKcPNS2_9Animation16IAnimationTargetEEE6targetERKSt9type_info', symObjAddr: 0x1B10, symBinAddr: 0x89E30, symSize: 0x20 }
  - { offset: 0x2FA1F0, size: 0x8, addend: 0x0, symName: '__ZNKSt3__110__function6__funcIZN6VSTGUI22CAnimationSplashScreen15createAnimationEjjPNS2_5CViewEbE3$_0NS_9allocatorIS6_EEFvS5_PKcPNS2_9Animation16IAnimationTargetEEE11target_typeEv', symObjAddr: 0x1B30, symBinAddr: 0x89E50, symSize: 0xD }
  - { offset: 0x301B79, size: 0x8, addend: 0x0, symName: __ZN6VSTGUI23StringListControlDrawerC2Ev, symObjAddr: 0x0, symBinAddr: 0x89E60, symSize: 0x160 }
  - { offset: 0x301F9E, size: 0x8, addend: 0x0, symName: __ZNSt3__110unique_ptrIN6VSTGUI23StringListControlDrawer4ImplENS_14default_deleteIS3_EEED1B8ne180100Ev, symObjAddr: 0x160, symBinAddr: 0x89FC0, symSize: 0x70 }
  - { offset: 0x302105, size: 0x8, addend: 0x0, symName: __ZN6VSTGUI23StringListControlDrawerC1Ev, symObjAddr: 0x1D0, symBinAddr: 0x8A030, symSize: 0x130 }
  - { offset: 0x302507, size: 0x8, addend: 0x0, symName: __ZN6VSTGUI23StringListControlDrawerD2Ev, symObjAddr: 0x300, symBinAddr: 0x8A160, symSize: 0x80 }
  - { offset: 0x30269C, size: 0x8, addend: 0x0, symName: __ZN6VSTGUI23StringListControlDrawerD1Ev, symObjAddr: 0x380, symBinAddr: 0x8A1E0, symSize: 0x80 }
  - { offset: 0x302832, size: 0x8, addend: 0x0, symName: __ZThn8_N6VSTGUI23StringListControlDrawerD1Ev, symObjAddr: 0x400, symBinAddr: 0x8A260, symSize: 0x80 }
  - { offset: 0x3029B8, size: 0x8, addend: 0x0, symName: __ZN6VSTGUI23StringListControlDrawerD0Ev, symObjAddr: 0x480, symBinAddr: 0x8A2E0, symSize: 0x80 }
  - { offset: 0x302B85, size: 0x8, addend: 0x0, symName: __ZThn8_N6VSTGUI23StringListControlDrawerD0Ev, symObjAddr: 0x500, symBinAddr: 0x8A360, symSize: 0x90 }
  - { offset: 0x302DB6, size: 0x8, addend: 0x0, symName: __ZN6VSTGUI23StringListControlDrawer17setStringProviderEONSt3__18functionIFNS_13SharedPointerINS_15IPlatformStringEEEiEEE, symObjAddr: 0x590, symBinAddr: 0x8A3F0, symSize: 0x90 }
  - { offset: 0x302F61, size: 0x8, addend: 0x0, symName: __ZN6VSTGUI23StringListControlDrawer17setStringProviderERKNSt3__18functionIFNS_13SharedPointerINS_15IPlatformStringEEEiEEE, symObjAddr: 0x620, symBinAddr: 0x8A480, symSize: 0xB0 }
  - { offset: 0x303175, size: 0x8, addend: 0x0, symName: __ZNSt3__110__function12__value_funcIFN6VSTGUI13SharedPointerINS2_15IPlatformStringEEEiEE4swapB8ne180100ERS7_, symObjAddr: 0xCB0, symBinAddr: 0x8AA60, symSize: 0x13B }
  - { offset: 0x3032CB, size: 0x8, addend: 0x0, symName: __ZN6VSTGUI23StringListControlDrawer7setFontEPNS_9CFontDescE, symObjAddr: 0x6D0, symBinAddr: 0x8A530, symSize: 0x40 }
  - { offset: 0x30337E, size: 0x8, addend: 0x0, symName: __ZN6VSTGUI23StringListControlDrawer12setFontColorENS_6CColorE, symObjAddr: 0x710, symBinAddr: 0x8A570, symSize: 0x10 }
  - { offset: 0x3033F7, size: 0x8, addend: 0x0, symName: __ZN6VSTGUI23StringListControlDrawer20setSelectedFontColorENS_6CColorE, symObjAddr: 0x720, symBinAddr: 0x8A580, symSize: 0x10 }
  - { offset: 0x303470, size: 0x8, addend: 0x0, symName: __ZN6VSTGUI23StringListControlDrawer12setBackColorENS_6CColorE, symObjAddr: 0x730, symBinAddr: 0x8A590, symSize: 0x10 }
  - { offset: 0x3034EA, size: 0x8, addend: 0x0, symName: __ZN6VSTGUI23StringListControlDrawer20setSelectedBackColorENS_6CColorE, symObjAddr: 0x740, symBinAddr: 0x8A5A0, symSize: 0x10 }
  - { offset: 0x303564, size: 0x8, addend: 0x0, symName: __ZN6VSTGUI23StringListControlDrawer13setHoverColorENS_6CColorE, symObjAddr: 0x750, symBinAddr: 0x8A5B0, symSize: 0x10 }
  - { offset: 0x3035DE, size: 0x8, addend: 0x0, symName: __ZN6VSTGUI23StringListControlDrawer12setLineColorENS_6CColorE, symObjAddr: 0x760, symBinAddr: 0x8A5C0, symSize: 0x10 }
  - { offset: 0x303658, size: 0x8, addend: 0x0, symName: __ZN6VSTGUI23StringListControlDrawer12setLineWidthEd, symObjAddr: 0x770, symBinAddr: 0x8A5D0, symSize: 0x10 }
  - { offset: 0x3036AB, size: 0x8, addend: 0x0, symName: __ZN6VSTGUI23StringListControlDrawer12setTextInsetEd, symObjAddr: 0x780, symBinAddr: 0x8A5E0, symSize: 0x10 }
  - { offset: 0x3036FE, size: 0x8, addend: 0x0, symName: __ZN6VSTGUI23StringListControlDrawer12setTextAlignENS_13CHoriTxtAlignE, symObjAddr: 0x790, symBinAddr: 0x8A5F0, symSize: 0x10 }
  - { offset: 0x30376A, size: 0x8, addend: 0x0, symName: __ZNK6VSTGUI23StringListControlDrawer7getFontEv, symObjAddr: 0x7A0, symBinAddr: 0x8A600, symSize: 0x10 }
  - { offset: 0x3037CD, size: 0x8, addend: 0x0, symName: __ZNK6VSTGUI23StringListControlDrawer12getFontColorEv, symObjAddr: 0x7B0, symBinAddr: 0x8A610, symSize: 0x20 }
  - { offset: 0x30385C, size: 0x8, addend: 0x0, symName: __ZNK6VSTGUI23StringListControlDrawer20getSelectedFontColorEv, symObjAddr: 0x7D0, symBinAddr: 0x8A630, symSize: 0x20 }
  - { offset: 0x3038EB, size: 0x8, addend: 0x0, symName: __ZNK6VSTGUI23StringListControlDrawer12getBackColorEv, symObjAddr: 0x7F0, symBinAddr: 0x8A650, symSize: 0x20 }
  - { offset: 0x30397A, size: 0x8, addend: 0x0, symName: __ZNK6VSTGUI23StringListControlDrawer20getSelectedBackColorEv, symObjAddr: 0x810, symBinAddr: 0x8A670, symSize: 0x20 }
  - { offset: 0x303A09, size: 0x8, addend: 0x0, symName: __ZNK6VSTGUI23StringListControlDrawer13getHoverColorEv, symObjAddr: 0x830, symBinAddr: 0x8A690, symSize: 0x20 }
  - { offset: 0x303A98, size: 0x8, addend: 0x0, symName: __ZNK6VSTGUI23StringListControlDrawer12getLineColorEv, symObjAddr: 0x850, symBinAddr: 0x8A6B0, symSize: 0x20 }
  - { offset: 0x303B27, size: 0x8, addend: 0x0, symName: __ZNK6VSTGUI23StringListControlDrawer12getLineWidthEv, symObjAddr: 0x870, symBinAddr: 0x8A6D0, symSize: 0x10 }
  - { offset: 0x303B6C, size: 0x8, addend: 0x0, symName: __ZNK6VSTGUI23StringListControlDrawer12getTextInsetEv, symObjAddr: 0x880, symBinAddr: 0x8A6E0, symSize: 0x10 }
  - { offset: 0x303BB1, size: 0x8, addend: 0x0, symName: __ZNK6VSTGUI23StringListControlDrawer12getTextAlignEv, symObjAddr: 0x890, symBinAddr: 0x8A6F0, symSize: 0x10 }
  - { offset: 0x303BF6, size: 0x8, addend: 0x0, symName: __ZN6VSTGUI23StringListControlDrawer14drawBackgroundEPNS_12CDrawContextENS_5CRectE, symObjAddr: 0x8A0, symBinAddr: 0x8A700, symSize: 0x40 }
  - { offset: 0x303E01, size: 0x8, addend: 0x0, symName: __ZN6VSTGUI23StringListControlDrawer7drawRowEPNS_12CDrawContextENS_5CRectENS_18IListControlDrawer3RowE, symObjAddr: 0x8E0, symBinAddr: 0x8A740, symSize: 0x200 }
  - { offset: 0x3040F5, size: 0x8, addend: 0x0, symName: __ZNK6VSTGUI23StringListControlDrawer9getStringEi, symObjAddr: 0xAE0, symBinAddr: 0x8A940, symSize: 0xC0 }
  - { offset: 0x30475D, size: 0x8, addend: 0x0, symName: __ZN6VSTGUI18IListControlDrawerD1Ev, symObjAddr: 0xBA0, symBinAddr: 0x178DF0, symSize: 0x10 }
  - { offset: 0x304786, size: 0x8, addend: 0x0, symName: __ZN6VSTGUI18IListControlDrawerD0Ev, symObjAddr: 0xBB0, symBinAddr: 0x178E00, symSize: 0x10 }
  - { offset: 0x3047C3, size: 0x8, addend: 0x0, symName: __ZTv0_n24_N6VSTGUI16ReferenceCountedIiE6forgetEv, symObjAddr: 0xC40, symBinAddr: 0x8AA00, symSize: 0x40 }
  - { offset: 0x304823, size: 0x8, addend: 0x0, symName: __ZTv0_n32_N6VSTGUI16ReferenceCountedIiE8rememberEv, symObjAddr: 0xC80, symBinAddr: 0x8AA40, symSize: 0x20 }
  - { offset: 0x30674E, size: 0x8, addend: 0x0, symName: __ZN6VSTGUI11CSwitchBase25useLegacyIndexCalculationE, symObjAddr: 0x45AF0, symBinAddr: 0x1F7702, symSize: 0x0 }
  - { offset: 0x30D77D, size: 0x8, addend: 0x0, symName: __ZN6VSTGUI11CSwitchBaseC2ERKNS_5CRectEPNS_16IControlListenerEiPNS_7CBitmapE, symObjAddr: 0x0, symBinAddr: 0x8ABA0, symSize: 0xC0 }
  - { offset: 0x30D86F, size: 0x8, addend: 0x0, symName: __ZN6VSTGUI11CSwitchBaseC2ERKNS_5CRectEPNS_16IControlListenerEiidiPNS_7CBitmapERKNS_6CPointE, symObjAddr: 0xC0, symBinAddr: 0x8AC60, symSize: 0x100 }
  - { offset: 0x30D96A, size: 0x8, addend: 0x0, symName: __ZN6VSTGUI11CSwitchBaseC2ERKS0_, symObjAddr: 0x1C0, symBinAddr: 0x8AD60, symSize: 0xE0 }
  - { offset: 0x30DA95, size: 0x8, addend: 0x0, symName: __ZNK6VSTGUI11CSwitchBase17normalizedToIndexEf, symObjAddr: 0x2A0, symBinAddr: 0x8AE40, symSize: 0x150 }
  - { offset: 0x30DBED, size: 0x8, addend: 0x0, symName: __ZNK6VSTGUI11CSwitchBase17indexToNormalizedEi, symObjAddr: 0x3F0, symBinAddr: 0x8AF90, symSize: 0xD0 }
  - { offset: 0x30DD78, size: 0x8, addend: 0x0, symName: __ZN6VSTGUI11CSwitchBase4drawEPNS_12CDrawContextE, symObjAddr: 0x4C0, symBinAddr: 0x8B060, symSize: 0x1B0 }
  - { offset: 0x30DFF2, size: 0x8, addend: 0x0, symName: __ZN6VSTGUI11CSwitchBase9sizeToFitEv, symObjAddr: 0x670, symBinAddr: 0x8B210, symSize: 0xD0 }
  - { offset: 0x30E117, size: 0x8, addend: 0x0, symName: __ZN6VSTGUI11CSwitchBase11onMouseDownERNS_6CPointERKNS_12CButtonStateE, symObjAddr: 0x740, symBinAddr: 0x8B2E0, symSize: 0x80 }
  - { offset: 0x30E19A, size: 0x8, addend: 0x0, symName: __ZN6VSTGUI11CSwitchBase9onMouseUpERNS_6CPointERKNS_12CButtonStateE, symObjAddr: 0x7C0, symBinAddr: 0x8B360, symSize: 0x30 }
  - { offset: 0x30E1EB, size: 0x8, addend: 0x0, symName: __ZN6VSTGUI11CSwitchBase13onMouseCancelEv, symObjAddr: 0x7F0, symBinAddr: 0x8B390, symSize: 0x60 }
  - { offset: 0x30E25C, size: 0x8, addend: 0x0, symName: __ZN6VSTGUI11CSwitchBase12onMouseMovedERNS_6CPointERKNS_12CButtonStateE, symObjAddr: 0x850, symBinAddr: 0x8B3F0, symSize: 0xD0 }
  - { offset: 0x30E352, size: 0x8, addend: 0x0, symName: __ZN6VSTGUI11CSwitchBase16setInverseBitmapEb, symObjAddr: 0x920, symBinAddr: 0x8B4C0, symSize: 0x20 }
  - { offset: 0x30E417, size: 0x8, addend: 0x0, symName: __ZN6VSTGUI15CVerticalSwitchC2ERKNS_5CRectEPNS_16IControlListenerEiPNS_7CBitmapE, symObjAddr: 0x940, symBinAddr: 0x8B4E0, symSize: 0x140 }
  - { offset: 0x30E5C4, size: 0x8, addend: 0x0, symName: __ZN6VSTGUI15CVerticalSwitchC1ERKNS_5CRectEPNS_16IControlListenerEiPNS_7CBitmapE, symObjAddr: 0xA80, symBinAddr: 0x8B620, symSize: 0x120 }
  - { offset: 0x30E7C0, size: 0x8, addend: 0x0, symName: __ZN6VSTGUI15CVerticalSwitchC2ERKNS_5CRectEPNS_16IControlListenerEiidiPNS_7CBitmapERKNS_6CPointE, symObjAddr: 0xBA0, symBinAddr: 0x8B740, symSize: 0x120 }
  - { offset: 0x30E9B0, size: 0x8, addend: 0x0, symName: __ZN6VSTGUI15CVerticalSwitchC1ERKNS_5CRectEPNS_16IControlListenerEiidiPNS_7CBitmapERKNS_6CPointE, symObjAddr: 0xCC0, symBinAddr: 0x8B860, symSize: 0x120 }
  - { offset: 0x30EBE0, size: 0x8, addend: 0x0, symName: __ZN6VSTGUI15CVerticalSwitchC2ERKS0_, symObjAddr: 0xDE0, symBinAddr: 0x8B980, symSize: 0x110 }
  - { offset: 0x30ED09, size: 0x8, addend: 0x0, symName: __ZN6VSTGUI15CVerticalSwitchC1ERKS0_, symObjAddr: 0xEF0, symBinAddr: 0x8BA90, symSize: 0x100 }
  - { offset: 0x30EECA, size: 0x8, addend: 0x0, symName: __ZNK6VSTGUI15CVerticalSwitch13calculateCoefEv, symObjAddr: 0xFF0, symBinAddr: 0x8BB90, symSize: 0xA0 }
  - { offset: 0x30EF4E, size: 0x8, addend: 0x0, symName: __ZNK6VSTGUI15CVerticalSwitch17calcNormFromPointERKNS_6CPointE, symObjAddr: 0x1090, symBinAddr: 0x8BC30, symSize: 0xE0 }
  - { offset: 0x30F006, size: 0x8, addend: 0x0, symName: __ZN6VSTGUI15CVerticalSwitch15onKeyboardEventERNS_13KeyboardEventE, symObjAddr: 0x1170, symBinAddr: 0x8BD10, symSize: 0x180 }
  - { offset: 0x30F1F3, size: 0x8, addend: 0x0, symName: __ZN6VSTGUI17CHorizontalSwitchC2ERKNS_5CRectEPNS_16IControlListenerEiPNS_7CBitmapE, symObjAddr: 0x12F0, symBinAddr: 0x8BE90, symSize: 0x140 }
  - { offset: 0x30F38E, size: 0x8, addend: 0x0, symName: __ZN6VSTGUI17CHorizontalSwitchC1ERKNS_5CRectEPNS_16IControlListenerEiPNS_7CBitmapE, symObjAddr: 0x1430, symBinAddr: 0x8BFD0, symSize: 0x120 }
  - { offset: 0x30F51E, size: 0x8, addend: 0x0, symName: __ZN6VSTGUI17CHorizontalSwitchC2ERKNS_5CRectEPNS_16IControlListenerEiidiPNS_7CBitmapERKNS_6CPointE, symObjAddr: 0x1550, symBinAddr: 0x8C0F0, symSize: 0x120 }
  - { offset: 0x30F6CB, size: 0x8, addend: 0x0, symName: __ZN6VSTGUI17CHorizontalSwitchC1ERKNS_5CRectEPNS_16IControlListenerEiidiPNS_7CBitmapERKNS_6CPointE, symObjAddr: 0x1670, symBinAddr: 0x8C210, symSize: 0x120 }
  - { offset: 0x30F8DF, size: 0x8, addend: 0x0, symName: __ZN6VSTGUI17CHorizontalSwitchC2ERKS0_, symObjAddr: 0x1790, symBinAddr: 0x8C330, symSize: 0x110 }
  - { offset: 0x30FA08, size: 0x8, addend: 0x0, symName: __ZN6VSTGUI17CHorizontalSwitchC1ERKS0_, symObjAddr: 0x18A0, symBinAddr: 0x8C440, symSize: 0x100 }
  - { offset: 0x30FB9F, size: 0x8, addend: 0x0, symName: __ZNK6VSTGUI17CHorizontalSwitch13calculateCoefEv, symObjAddr: 0x19A0, symBinAddr: 0x8C540, symSize: 0xA0 }
  - { offset: 0x30FC22, size: 0x8, addend: 0x0, symName: __ZNK6VSTGUI17CHorizontalSwitch17calcNormFromPointERKNS_6CPointE, symObjAddr: 0x1A40, symBinAddr: 0x8C5E0, symSize: 0xE0 }
  - { offset: 0x30FCB6, size: 0x8, addend: 0x0, symName: __ZN6VSTGUI17CHorizontalSwitch15onKeyboardEventERNS_13KeyboardEventE, symObjAddr: 0x1B20, symBinAddr: 0x8C6C0, symSize: 0x180 }
  - { offset: 0x30FE98, size: 0x8, addend: 0x0, symName: __ZN6VSTGUI13CRockerSwitchC2ERKNS_5CRectEPNS_16IControlListenerEiPNS_7CBitmapEi, symObjAddr: 0x1CA0, symBinAddr: 0x8C840, symSize: 0x180 }
  - { offset: 0x310091, size: 0x8, addend: 0x0, symName: __ZN6VSTGUI13CRockerSwitchC1ERKNS_5CRectEPNS_16IControlListenerEiPNS_7CBitmapEi, symObjAddr: 0x1E20, symBinAddr: 0x8C9C0, symSize: 0x180 }
  - { offset: 0x3102D7, size: 0x8, addend: 0x0, symName: __ZN6VSTGUI13CRockerSwitchC2ERKNS_5CRectEPNS_16IControlListenerEiPNS_7CBitmapERKNS_6CPointEi, symObjAddr: 0x1FA0, symBinAddr: 0x8CB40, symSize: 0x180 }
  - { offset: 0x31047E, size: 0x8, addend: 0x0, symName: __ZN6VSTGUI13CRockerSwitchC1ERKNS_5CRectEPNS_16IControlListenerEiPNS_7CBitmapERKNS_6CPointEi, symObjAddr: 0x2120, symBinAddr: 0x8CCC0, symSize: 0x190 }
  - { offset: 0x310696, size: 0x8, addend: 0x0, symName: __ZN6VSTGUI13CRockerSwitchC2ERKNS_5CRectEPNS_16IControlListenerEidPNS_7CBitmapERKNS_6CPointEi, symObjAddr: 0x22B0, symBinAddr: 0x8CE50, symSize: 0x170 }
  - { offset: 0x310830, size: 0x8, addend: 0x0, symName: __ZN6VSTGUI13CRockerSwitchC1ERKNS_5CRectEPNS_16IControlListenerEidPNS_7CBitmapERKNS_6CPointEi, symObjAddr: 0x2420, symBinAddr: 0x8CFC0, symSize: 0x170 }
  - { offset: 0x310A5A, size: 0x8, addend: 0x0, symName: __ZN6VSTGUI13CRockerSwitchC2ERKS0_, symObjAddr: 0x2590, symBinAddr: 0x8D130, symSize: 0xE0 }
  - { offset: 0x310B67, size: 0x8, addend: 0x0, symName: __ZN6VSTGUI13CRockerSwitchC1ERKS0_, symObjAddr: 0x2670, symBinAddr: 0x8D210, symSize: 0xC0 }
  - { offset: 0x310C72, size: 0x8, addend: 0x0, symName: __ZN6VSTGUI13CRockerSwitchD2Ev, symObjAddr: 0x2730, symBinAddr: 0x8D2D0, symSize: 0x80 }
  - { offset: 0x310D03, size: 0x8, addend: 0x0, symName: __ZN6VSTGUI13CRockerSwitchD1Ev, symObjAddr: 0x27F0, symBinAddr: 0x8D350, symSize: 0x70 }
  - { offset: 0x310DA3, size: 0x8, addend: 0x0, symName: __ZThn24_N6VSTGUI13CRockerSwitchD1Ev, symObjAddr: 0x2860, symBinAddr: 0x8D3C0, symSize: 0x70 }
  - { offset: 0x310E2B, size: 0x8, addend: 0x0, symName: __ZThn64_N6VSTGUI13CRockerSwitchD1Ev, symObjAddr: 0x28D0, symBinAddr: 0x8D430, symSize: 0x70 }
  - { offset: 0x310EB2, size: 0x8, addend: 0x0, symName: __ZN6VSTGUI13CRockerSwitchD0Ev, symObjAddr: 0x2940, symBinAddr: 0x8D4A0, symSize: 0x70 }
  - { offset: 0x310F62, size: 0x8, addend: 0x0, symName: __ZThn24_N6VSTGUI13CRockerSwitchD0Ev, symObjAddr: 0x29B0, symBinAddr: 0x8D510, symSize: 0x80 }
  - { offset: 0x311002, size: 0x8, addend: 0x0, symName: __ZThn64_N6VSTGUI13CRockerSwitchD0Ev, symObjAddr: 0x2A30, symBinAddr: 0x8D590, symSize: 0x80 }
  - { offset: 0x3110E7, size: 0x8, addend: 0x0, symName: __ZN6VSTGUI13CRockerSwitch4drawEPNS_12CDrawContextE, symObjAddr: 0x2AB0, symBinAddr: 0x8D610, symSize: 0x1C0 }
  - { offset: 0x3112F4, size: 0x8, addend: 0x0, symName: __ZN6VSTGUI13CRockerSwitch11onMouseDownERNS_6CPointERKNS_12CButtonStateE, symObjAddr: 0x2C70, symBinAddr: 0x8D7D0, symSize: 0x60 }
  - { offset: 0x311358, size: 0x8, addend: 0x0, symName: __ZN6VSTGUI13CRockerSwitch9onMouseUpERNS_6CPointERKNS_12CButtonStateE, symObjAddr: 0x2CD0, symBinAddr: 0x8D830, symSize: 0x90 }
  - { offset: 0x311406, size: 0x8, addend: 0x0, symName: __ZN6VSTGUI13CRockerSwitch13onMouseCancelEv, symObjAddr: 0x2D60, symBinAddr: 0x8D8C0, symSize: 0x60 }
  - { offset: 0x311478, size: 0x8, addend: 0x0, symName: __ZN6VSTGUI13CRockerSwitch12onMouseMovedERNS_6CPointERKNS_12CButtonStateE, symObjAddr: 0x2DC0, symBinAddr: 0x8D920, symSize: 0x2A0 }
  - { offset: 0x31158C, size: 0x8, addend: 0x0, symName: __ZN6VSTGUI13CRockerSwitch15onKeyboardEventERNS_13KeyboardEventE, symObjAddr: 0x3060, symBinAddr: 0x8DBC0, symSize: 0x180 }
  - { offset: 0x3116E9, size: 0x8, addend: 0x0, symName: __ZN6VSTGUI13CRockerSwitch17onMouseWheelEventERNS_15MouseWheelEventE, symObjAddr: 0x31E0, symBinAddr: 0x8DD40, symSize: 0xE0 }
  - { offset: 0x3117B1, size: 0x8, addend: 0x0, symName: __ZN6VSTGUI13CRockerSwitch6notifyEPNS_11CBaseObjectEPKc, symObjAddr: 0x32C0, symBinAddr: 0x8DE20, symSize: 0xF0 }
  - { offset: 0x3118E1, size: 0x8, addend: 0x0, symName: __ZN6VSTGUI13CRockerSwitch9sizeToFitEv, symObjAddr: 0x33B0, symBinAddr: 0x8DF10, symSize: 0xD0 }
  - { offset: 0x311A10, size: 0x8, addend: 0x0, symName: __ZN6VSTGUI11CSwitchBaseD1Ev, symObjAddr: 0x36E0, symBinAddr: 0x178E10, symSize: 0x10 }
  - { offset: 0x311A2F, size: 0x8, addend: 0x0, symName: __ZN6VSTGUI11CSwitchBaseD0Ev, symObjAddr: 0x36F0, symBinAddr: 0x178E20, symSize: 0x10 }
  - { offset: 0x311A4E, size: 0x8, addend: 0x0, symName: __ZN6VSTGUI11CSwitchBase16setNumSubPixmapsEi, symObjAddr: 0x3700, symBinAddr: 0x8DFE0, symSize: 0x10 }
  - { offset: 0x311AC8, size: 0x8, addend: 0x0, symName: __ZThn24_N6VSTGUI11CSwitchBaseD1Ev, symObjAddr: 0x3710, symBinAddr: 0x178E30, symSize: 0x10 }
  - { offset: 0x311B16, size: 0x8, addend: 0x0, symName: __ZThn24_N6VSTGUI11CSwitchBaseD0Ev, symObjAddr: 0x3720, symBinAddr: 0x178E40, symSize: 0x10 }
  - { offset: 0x311B4B, size: 0x8, addend: 0x0, symName: __ZThn64_N6VSTGUI11CSwitchBaseD1Ev, symObjAddr: 0x3730, symBinAddr: 0x178E50, symSize: 0x10 }
  - { offset: 0x311B80, size: 0x8, addend: 0x0, symName: __ZThn64_N6VSTGUI11CSwitchBaseD0Ev, symObjAddr: 0x3740, symBinAddr: 0x178E60, symSize: 0x10 }
  - { offset: 0x311BB5, size: 0x8, addend: 0x0, symName: __ZThn64_N6VSTGUI11CSwitchBase16setNumSubPixmapsEi, symObjAddr: 0x3770, symBinAddr: 0x8DFF0, symSize: 0x20 }
  - { offset: 0x311C69, size: 0x8, addend: 0x0, symName: __ZN6VSTGUI15CVerticalSwitchD1Ev, symObjAddr: 0x37A0, symBinAddr: 0x8E010, symSize: 0x20 }
  - { offset: 0x311CD9, size: 0x8, addend: 0x0, symName: __ZN6VSTGUI15CVerticalSwitchD0Ev, symObjAddr: 0x37C0, symBinAddr: 0x8E030, symSize: 0x30 }
  - { offset: 0x311D4F, size: 0x8, addend: 0x0, symName: __ZNK6VSTGUI15CVerticalSwitch7newCopyEv, symObjAddr: 0x37F0, symBinAddr: 0x8E060, symSize: 0x40 }
  - { offset: 0x311D8A, size: 0x8, addend: 0x0, symName: __ZThn24_N6VSTGUI15CVerticalSwitchD1Ev, symObjAddr: 0x3830, symBinAddr: 0x8E0A0, symSize: 0x20 }
  - { offset: 0x311E0E, size: 0x8, addend: 0x0, symName: __ZThn24_N6VSTGUI15CVerticalSwitchD0Ev, symObjAddr: 0x3850, symBinAddr: 0x8E0C0, symSize: 0x30 }
  - { offset: 0x311E97, size: 0x8, addend: 0x0, symName: __ZThn64_N6VSTGUI15CVerticalSwitchD1Ev, symObjAddr: 0x3880, symBinAddr: 0x8E0F0, symSize: 0x20 }
  - { offset: 0x311F02, size: 0x8, addend: 0x0, symName: __ZThn64_N6VSTGUI15CVerticalSwitchD0Ev, symObjAddr: 0x38A0, symBinAddr: 0x8E110, symSize: 0x30 }
  - { offset: 0x311FB1, size: 0x8, addend: 0x0, symName: __ZN6VSTGUI17CHorizontalSwitchD1Ev, symObjAddr: 0x38D0, symBinAddr: 0x8E140, symSize: 0x20 }
  - { offset: 0x312021, size: 0x8, addend: 0x0, symName: __ZN6VSTGUI17CHorizontalSwitchD0Ev, symObjAddr: 0x38F0, symBinAddr: 0x8E160, symSize: 0x30 }
  - { offset: 0x312097, size: 0x8, addend: 0x0, symName: __ZNK6VSTGUI17CHorizontalSwitch7newCopyEv, symObjAddr: 0x3920, symBinAddr: 0x8E190, symSize: 0x40 }
  - { offset: 0x3120D2, size: 0x8, addend: 0x0, symName: __ZThn24_N6VSTGUI17CHorizontalSwitchD1Ev, symObjAddr: 0x3960, symBinAddr: 0x8E1D0, symSize: 0x20 }
  - { offset: 0x312156, size: 0x8, addend: 0x0, symName: __ZThn24_N6VSTGUI17CHorizontalSwitchD0Ev, symObjAddr: 0x3980, symBinAddr: 0x8E1F0, symSize: 0x30 }
  - { offset: 0x3121DF, size: 0x8, addend: 0x0, symName: __ZThn64_N6VSTGUI17CHorizontalSwitchD1Ev, symObjAddr: 0x39B0, symBinAddr: 0x8E220, symSize: 0x20 }
  - { offset: 0x31224A, size: 0x8, addend: 0x0, symName: __ZThn64_N6VSTGUI17CHorizontalSwitchD0Ev, symObjAddr: 0x39D0, symBinAddr: 0x8E240, symSize: 0x30 }
  - { offset: 0x3122FB, size: 0x8, addend: 0x0, symName: __ZNK6VSTGUI13CRockerSwitch7newCopyEv, symObjAddr: 0x3A00, symBinAddr: 0x8E270, symSize: 0xE0 }
  - { offset: 0x3123CB, size: 0x8, addend: 0x0, symName: __ZN6VSTGUI13CRockerSwitch16setNumSubPixmapsEi, symObjAddr: 0x3AE0, symBinAddr: 0x8E350, symSize: 0x10 }
  - { offset: 0x31242C, size: 0x8, addend: 0x0, symName: __ZThn64_N6VSTGUI13CRockerSwitch16setNumSubPixmapsEi, symObjAddr: 0x3AF0, symBinAddr: 0x8E360, symSize: 0x16 }
  - { offset: 0x323CA7, size: 0x8, addend: 0x0, symName: __ZN6VSTGUI9CTextEditC2ERKNS_5CRectEPNS_16IControlListenerEiPKcPNS_7CBitmapEi, symObjAddr: 0x0, symBinAddr: 0x8E380, symSize: 0x190 }
  - { offset: 0x324004, size: 0x8, addend: 0x0, symName: __ZN6VSTGUI12DispatchListIPNS_17ITextEditListenerEED1Ev, symObjAddr: 0x190, symBinAddr: 0x8E510, symSize: 0x40 }
  - { offset: 0x324D54, size: 0x8, addend: 0x0, symName: __ZN6VSTGUI9CTextEditC1ERKNS_5CRectEPNS_16IControlListenerEiPKcPNS_7CBitmapEi, symObjAddr: 0x300, symBinAddr: 0x8E550, symSize: 0x180 }
  - { offset: 0x32517F, size: 0x8, addend: 0x0, symName: __ZN6VSTGUI9CTextEditC2ERKS0_, symObjAddr: 0x480, symBinAddr: 0x8E6D0, symSize: 0x1F0 }
  - { offset: 0x3254E3, size: 0x8, addend: 0x0, symName: __ZN6VSTGUI9CTextEditC1ERKS0_, symObjAddr: 0x670, symBinAddr: 0x8E8C0, symSize: 0x1E0 }
  - { offset: 0x32584A, size: 0x8, addend: 0x0, symName: __ZN6VSTGUI9CTextEditD2Ev, symObjAddr: 0x850, symBinAddr: 0x8EAA0, symSize: 0x150 }
  - { offset: 0x325DE4, size: 0x8, addend: 0x0, symName: __ZN6VSTGUI9CTextEditD1Ev, symObjAddr: 0x9B0, symBinAddr: 0x8EBF0, symSize: 0x20 }
  - { offset: 0x325E34, size: 0x8, addend: 0x0, symName: __ZThn24_N6VSTGUI9CTextEditD1Ev, symObjAddr: 0x9D0, symBinAddr: 0x8EC10, symSize: 0x20 }
  - { offset: 0x325E74, size: 0x8, addend: 0x0, symName: __ZN6VSTGUI9CTextEditD0Ev, symObjAddr: 0x9F0, symBinAddr: 0x8EC30, symSize: 0x30 }
  - { offset: 0x325EE1, size: 0x8, addend: 0x0, symName: __ZThn24_N6VSTGUI9CTextEditD0Ev, symObjAddr: 0xA20, symBinAddr: 0x8EC60, symSize: 0x30 }
  - { offset: 0x325F8C, size: 0x8, addend: 0x0, symName: __ZN6VSTGUI9CTextEdit24setStringToValueFunctionERKNSt3__18functionIFbPKcRfPS0_EEE, symObjAddr: 0xA50, symBinAddr: 0x8EC90, symSize: 0xB0 }
  - { offset: 0x326182, size: 0x8, addend: 0x0, symName: __ZNSt3__110__function12__value_funcIFbPKcRfPN6VSTGUI9CTextEditEEE4swapB8ne180100ERS9_, symObjAddr: 0x25C0, symBinAddr: 0x90300, symSize: 0x140 }
  - { offset: 0x326321, size: 0x8, addend: 0x0, symName: __ZN6VSTGUI9CTextEdit24setStringToValueFunctionEONSt3__18functionIFbPKcRfPS0_EEE, symObjAddr: 0xB00, symBinAddr: 0x8ED40, symSize: 0xB0 }
  - { offset: 0x3263D6, size: 0x8, addend: 0x0, symName: __ZN6VSTGUI9CTextEdit22setImmediateTextChangeEb, symObjAddr: 0xBB0, symBinAddr: 0x8EDF0, symSize: 0x10 }
  - { offset: 0x32640B, size: 0x8, addend: 0x0, symName: __ZN6VSTGUI9CTextEdit14setSecureStyleEb, symObjAddr: 0xBC0, symBinAddr: 0x8EE00, symSize: 0x20 }
  - { offset: 0x326440, size: 0x8, addend: 0x0, symName: __ZNK6VSTGUI9CTextEdit14getSecureStyleEv, symObjAddr: 0xBE0, symBinAddr: 0x8EE20, symSize: 0x10 }
  - { offset: 0x326460, size: 0x8, addend: 0x0, symName: __ZN6VSTGUI9CTextEdit24registerTextEditListenerEPNS_17ITextEditListenerE, symObjAddr: 0xBF0, symBinAddr: 0x8EE30, symSize: 0x30 }
  - { offset: 0x3264AC, size: 0x8, addend: 0x0, symName: __ZN6VSTGUI12DispatchListIPNS_17ITextEditListenerEE3addERKS2_, symObjAddr: 0xC20, symBinAddr: 0x8EE60, symSize: 0x2F0 }
  - { offset: 0x327663, size: 0x8, addend: 0x0, symName: __ZNKSt3__16vectorIPN6VSTGUI17ITextEditListenerENS_9allocatorIS3_EEE20__throw_length_errorB8ne180100Ev, symObjAddr: 0x2700, symBinAddr: 0x90440, symSize: 0x10 }
  - { offset: 0x327698, size: 0x8, addend: 0x0, symName: __ZNKSt3__16vectorINS_4pairIbPN6VSTGUI17ITextEditListenerEEENS_9allocatorIS5_EEE20__throw_length_errorB8ne180100Ev, symObjAddr: 0x27D0, symBinAddr: 0x90450, symSize: 0x10 }
  - { offset: 0x3278B1, size: 0x8, addend: 0x0, symName: __ZN6VSTGUI9CTextEdit26unregisterTextEditListenerEPNS_17ITextEditListenerE, symObjAddr: 0xF10, symBinAddr: 0x8F150, symSize: 0x80 }
  - { offset: 0x327D38, size: 0x8, addend: 0x0, symName: __ZN6VSTGUI9CTextEdit8setValueEf, symObjAddr: 0xF90, symBinAddr: 0x8F1D0, symSize: 0x220 }
  - { offset: 0x328742, size: 0x8, addend: 0x0, symName: __ZN6VSTGUI9CTextEdit7setTextERKNS_10UTF8StringE, symObjAddr: 0x11B0, symBinAddr: 0x8F3F0, symSize: 0x1B0 }
  - { offset: 0x328F17, size: 0x8, addend: 0x0, symName: __ZN6VSTGUI9CTextEdit12valueChangedEv, symObjAddr: 0x1360, symBinAddr: 0x8F5A0, symSize: 0x30 }
  - { offset: 0x328F80, size: 0x8, addend: 0x0, symName: __ZN6VSTGUI9CTextEdit20setPlaceholderStringERKNS_10UTF8StringE, symObjAddr: 0x1390, symBinAddr: 0x8F5D0, symSize: 0x20 }
  - { offset: 0x329073, size: 0x8, addend: 0x0, symName: __ZN6VSTGUI9CTextEdit4drawEPNS_12CDrawContextE, symObjAddr: 0x13B0, symBinAddr: 0x8F5F0, symSize: 0x260 }
  - { offset: 0x329759, size: 0x8, addend: 0x0, symName: __ZN6VSTGUI9CTextEdit11onMouseDownERNS_6CPointERKNS_12CButtonStateE, symObjAddr: 0x1610, symBinAddr: 0x8F850, symSize: 0x60 }
  - { offset: 0x329812, size: 0x8, addend: 0x0, symName: __ZN6VSTGUI9CTextEdit15onKeyboardEventERNS_13KeyboardEventE, symObjAddr: 0x1670, symBinAddr: 0x8F8B0, symSize: 0x80 }
  - { offset: 0x3298F7, size: 0x8, addend: 0x0, symName: __ZNK6VSTGUI9CTextEdit15platformGetFontEv, symObjAddr: 0x16F0, symBinAddr: 0x8F930, symSize: 0xC0 }
  - { offset: 0x3299D8, size: 0x8, addend: 0x0, symName: __ZThn304_NK6VSTGUI9CTextEdit15platformGetFontEv, symObjAddr: 0x17B0, symBinAddr: 0x8F9F0, symSize: 0x20 }
  - { offset: 0x329AE2, size: 0x8, addend: 0x0, symName: __ZNK6VSTGUI9CTextEdit15platformGetSizeEv, symObjAddr: 0x17D0, symBinAddr: 0x8FA10, symSize: 0xB0 }
  - { offset: 0x329C07, size: 0x8, addend: 0x0, symName: __ZThn304_NK6VSTGUI9CTextEdit15platformGetSizeEv, symObjAddr: 0x1880, symBinAddr: 0x8FAC0, symSize: 0xB0 }
  - { offset: 0x329D25, size: 0x8, addend: 0x0, symName: __ZNK6VSTGUI9CTextEdit22platformGetVisibleSizeEv, symObjAddr: 0x1930, symBinAddr: 0x8FB70, symSize: 0xB0 }
  - { offset: 0x329E65, size: 0x8, addend: 0x0, symName: __ZThn304_NK6VSTGUI9CTextEdit22platformGetVisibleSizeEv, symObjAddr: 0x19E0, symBinAddr: 0x8FC20, symSize: 0xC0 }
  - { offset: 0x329F97, size: 0x8, addend: 0x0, symName: __ZN6VSTGUI9CTextEdit18platformLooseFocusEb, symObjAddr: 0x1AA0, symBinAddr: 0x8FCE0, symSize: 0x50 }
  - { offset: 0x32A005, size: 0x8, addend: 0x0, symName: __ZThn304_N6VSTGUI9CTextEdit18platformLooseFocusEb, symObjAddr: 0x1AF0, symBinAddr: 0x8FD30, symSize: 0x70 }
  - { offset: 0x32A061, size: 0x8, addend: 0x0, symName: __ZN6VSTGUI9CTextEdit23platformOnKeyboardEventERNS_13KeyboardEventE, symObjAddr: 0x1B60, symBinAddr: 0x8FDA0, symSize: 0x50 }
  - { offset: 0x32A0D6, size: 0x8, addend: 0x0, symName: __ZThn304_N6VSTGUI9CTextEdit23platformOnKeyboardEventERNS_13KeyboardEventE, symObjAddr: 0x1BB0, symBinAddr: 0x8FDF0, symSize: 0x60 }
  - { offset: 0x32A136, size: 0x8, addend: 0x0, symName: __ZN6VSTGUI9CTextEdit21platformTextDidChangeEv, symObjAddr: 0x1C10, symBinAddr: 0x8FE50, symSize: 0x30 }
  - { offset: 0x32A185, size: 0x8, addend: 0x0, symName: __ZN6VSTGUI9CTextEdit10updateTextEPNS_17IPlatformTextEditE, symObjAddr: 0x1C40, symBinAddr: 0x8FE80, symSize: 0xB0 }
  - { offset: 0x32A3E5, size: 0x8, addend: 0x0, symName: __ZThn304_N6VSTGUI9CTextEdit21platformTextDidChangeEv, symObjAddr: 0x1CF0, symBinAddr: 0x8FF30, symSize: 0x30 }
  - { offset: 0x32A440, size: 0x8, addend: 0x0, symName: __ZN6VSTGUI9CTextEdit24platformIsSecureTextEditEv, symObjAddr: 0x1D20, symBinAddr: 0x8FF60, symSize: 0x10 }
  - { offset: 0x32A496, size: 0x8, addend: 0x0, symName: __ZThn304_N6VSTGUI9CTextEdit24platformIsSecureTextEditEv, symObjAddr: 0x1D30, symBinAddr: 0x8FF70, symSize: 0x10 }
  - { offset: 0x32A4EE, size: 0x8, addend: 0x0, symName: __ZN6VSTGUI9CTextEdit17parentSizeChangedEv, symObjAddr: 0x1D40, symBinAddr: 0x8FF80, symSize: 0x20 }
  - { offset: 0x32A545, size: 0x8, addend: 0x0, symName: __ZN6VSTGUI9CTextEdit11setViewSizeERKNS_5CRectEb, symObjAddr: 0x1D60, symBinAddr: 0x8FFA0, symSize: 0x30 }
  - { offset: 0x32A5F5, size: 0x8, addend: 0x0, symName: __ZN6VSTGUI9CTextEdit22createPlatformTextEditEv, symObjAddr: 0x1D90, symBinAddr: 0x8FFD0, symSize: 0xF0 }
  - { offset: 0x32A823, size: 0x8, addend: 0x0, symName: __ZN6VSTGUI12DispatchListIPNS_17ITextEditListenerEE11postForEachEv, symObjAddr: 0x2850, symBinAddr: 0x90460, symSize: 0x3D0 }
  - { offset: 0x32B71B, size: 0x8, addend: 0x0, symName: __ZNK6VSTGUI9CTextEdit10wantsFocusEv, symObjAddr: 0x1E80, symBinAddr: 0x900C0, symSize: 0x40 }
  - { offset: 0x32B7A7, size: 0x8, addend: 0x0, symName: __ZN6VSTGUI9CTextEdit9takeFocusEv, symObjAddr: 0x1ED0, symBinAddr: 0x90100, symSize: 0x70 }
  - { offset: 0x32B921, size: 0x8, addend: 0x0, symName: __ZN6VSTGUI9CTextEdit10looseFocusEv, symObjAddr: 0x1F40, symBinAddr: 0x90170, symSize: 0x190 }
  - { offset: 0x32C06F, size: 0x8, addend: 0x0, symName: __ZN6VSTGUI12DispatchListIPNS_17ITextEditListenerEE3addEOS2_, symObjAddr: 0x2C20, symBinAddr: 0x90830, symSize: 0x2E6 }
  - { offset: 0x33CC40, size: 0x8, addend: 0x0, symName: __ZNSt3__17getlineB8ne180100IcNS_11char_traitsIcEENS_9allocatorIcEEEERNS_13basic_istreamIT_T0_EES9_RNS_12basic_stringIS6_S7_T1_EES6_, symObjAddr: 0x34D0, symBinAddr: 0x93F00, symSize: 0x150 }
  - { offset: 0x33F03B, size: 0x8, addend: 0x0, symName: __ZN6VSTGUI10CTextLabelC2ERKNS_5CRectEPKcPNS_7CBitmapEi, symObjAddr: 0x0, symBinAddr: 0x90B20, symSize: 0x120 }
  - { offset: 0x33F863, size: 0x8, addend: 0x0, symName: __ZN6VSTGUI10CTextLabelC1ERKNS_5CRectEPKcPNS_7CBitmapEi, symObjAddr: 0x1B0, symBinAddr: 0x90C40, symSize: 0x120 }
  - { offset: 0x33FB3A, size: 0x8, addend: 0x0, symName: __ZN6VSTGUI10CTextLabelC2ERKS0_, symObjAddr: 0x2D0, symBinAddr: 0x90D60, symSize: 0xF0 }
  - { offset: 0x33FC70, size: 0x8, addend: 0x0, symName: __ZN6VSTGUI10CTextLabelC1ERKS0_, symObjAddr: 0x3C0, symBinAddr: 0x90E50, symSize: 0xF0 }
  - { offset: 0x33FE50, size: 0x8, addend: 0x0, symName: __ZN6VSTGUI10CTextLabel25registerTextLabelListenerEPNS_18ITextLabelListenerE, symObjAddr: 0x4B0, symBinAddr: 0x90F40, symSize: 0x60 }
  - { offset: 0x33FF6A, size: 0x8, addend: 0x0, symName: __ZN6VSTGUI12DispatchListIPNS_18ITextLabelListenerEE3addERKS2_, symObjAddr: 0x510, symBinAddr: 0x90FA0, symSize: 0x2F0 }
  - { offset: 0x341121, size: 0x8, addend: 0x0, symName: __ZNKSt3__16vectorIPN6VSTGUI18ITextLabelListenerENS_9allocatorIS3_EEE20__throw_length_errorB8ne180100Ev, symObjAddr: 0x4590, symBinAddr: 0x943E0, symSize: 0x10 }
  - { offset: 0x341156, size: 0x8, addend: 0x0, symName: __ZNKSt3__16vectorINS_4pairIbPN6VSTGUI18ITextLabelListenerEEENS_9allocatorIS5_EEE20__throw_length_errorB8ne180100Ev, symObjAddr: 0x4660, symBinAddr: 0x943F0, symSize: 0x10 }
  - { offset: 0x341180, size: 0x8, addend: 0x0, symName: __ZN6VSTGUI12DispatchListIPNS_18ITextLabelListenerEE11postForEachEv, symObjAddr: 0x4670, symBinAddr: 0x94400, symSize: 0x3D0 }
  - { offset: 0x34136F, size: 0x8, addend: 0x0, symName: __ZN6VSTGUI10CTextLabel27unregisterTextLabelListenerEPNS_18ITextLabelListenerE, symObjAddr: 0x800, symBinAddr: 0x91290, symSize: 0x80 }
  - { offset: 0x34165E, size: 0x8, addend: 0x0, symName: __ZN6VSTGUI10CTextLabel7setTextERKNS_10UTF8StringE, symObjAddr: 0x880, symBinAddr: 0x91310, symSize: 0x70 }
  - { offset: 0x3416AF, size: 0x8, addend: 0x0, symName: __ZN6VSTGUI10CTextLabel22calculateTruncatedTextEv, symObjAddr: 0x8F0, symBinAddr: 0x91380, symSize: 0x280 }
  - { offset: 0x341F48, size: 0x8, addend: 0x0, symName: __ZN6VSTGUI12DispatchListIPNS_18ITextLabelListenerEE11postForEachEv, symObjAddr: 0x4670, symBinAddr: 0x94400, symSize: 0x3D0 }
  - { offset: 0x342E2B, size: 0x8, addend: 0x0, symName: __ZN6VSTGUI10CTextLabel19setTextTruncateModeENS0_16TextTruncateModeE, symObjAddr: 0xB70, symBinAddr: 0x91600, symSize: 0x20 }
  - { offset: 0x342E60, size: 0x8, addend: 0x0, symName: __ZNK6VSTGUI10CTextLabel7getTextEv, symObjAddr: 0xB90, symBinAddr: 0x91620, symSize: 0x10 }
  - { offset: 0x342E87, size: 0x8, addend: 0x0, symName: __ZN6VSTGUI10CTextLabel4drawEPNS_12CDrawContextE, symObjAddr: 0xBA0, symBinAddr: 0x91630, symSize: 0x70 }
  - { offset: 0x343078, size: 0x8, addend: 0x0, symName: __ZN6VSTGUI10CTextLabel9sizeToFitEv, symObjAddr: 0xC10, symBinAddr: 0x916A0, symSize: 0x220 }
  - { offset: 0x3434CB, size: 0x8, addend: 0x0, symName: __ZN6VSTGUI10CTextLabel11setViewSizeERKNS_5CRectEb, symObjAddr: 0xE70, symBinAddr: 0x918C0, symSize: 0x90 }
  - { offset: 0x343561, size: 0x8, addend: 0x0, symName: __ZN6VSTGUI10CTextLabel16drawStyleChangedEv, symObjAddr: 0xF00, symBinAddr: 0x91950, symSize: 0x30 }
  - { offset: 0x343716, size: 0x8, addend: 0x0, symName: __ZN6VSTGUI10CTextLabel12valueChangedEv, symObjAddr: 0xF30, symBinAddr: 0x91980, symSize: 0xF0 }
  - { offset: 0x343CDB, size: 0x8, addend: 0x0, symName: __ZN6VSTGUI19CMultiLineTextLabelC2ERKNS_5CRectE, symObjAddr: 0x1020, symBinAddr: 0x91A70, symSize: 0x60 }
  - { offset: 0x343D50, size: 0x8, addend: 0x0, symName: __ZN6VSTGUI19CMultiLineTextLabelC1ERKNS_5CRectE, symObjAddr: 0x1080, symBinAddr: 0x91AD0, symSize: 0x60 }
  - { offset: 0x343DD3, size: 0x8, addend: 0x0, symName: __ZN6VSTGUI19CMultiLineTextLabel8setValueEf, symObjAddr: 0x10E0, symBinAddr: 0x91B30, symSize: 0xD0 }
  - { offset: 0x3443BB, size: 0x8, addend: 0x0, symName: __ZN6VSTGUI19CMultiLineTextLabel19setTextTruncateModeENS_10CTextLabel16TextTruncateModeE, symObjAddr: 0x11B0, symBinAddr: 0x91C00, symSize: 0x20 }
  - { offset: 0x344520, size: 0x8, addend: 0x0, symName: __ZN6VSTGUI19CMultiLineTextLabel13setLineLayoutENS0_10LineLayoutE, symObjAddr: 0x11D0, symBinAddr: 0x91C20, symSize: 0x80 }
  - { offset: 0x3447EC, size: 0x8, addend: 0x0, symName: __ZN6VSTGUI19CMultiLineTextLabel13setAutoHeightEb, symObjAddr: 0x1250, symBinAddr: 0x91CA0, symSize: 0x60 }
  - { offset: 0x344886, size: 0x8, addend: 0x0, symName: __ZN6VSTGUI19CMultiLineTextLabel16recalculateLinesEPNS_12CDrawContextE, symObjAddr: 0x12B0, symBinAddr: 0x91D00, symSize: 0x8D0 }
  - { offset: 0x3463F1, size: 0x8, addend: 0x0, symName: __ZN6VSTGUI19CMultiLineTextLabel17recalculateHeightEv, symObjAddr: 0x1B80, symBinAddr: 0x925D0, symSize: 0xC0 }
  - { offset: 0x346DF6, size: 0x8, addend: 0x0, symName: __ZNSt3__118basic_stringstreamIcNS_11char_traitsIcEENS_9allocatorIcEEEC1B8ne180100ERKNS_12basic_stringIcS2_S4_EEj, symObjAddr: 0x3390, symBinAddr: 0x93DC0, symSize: 0x140 }
  - { offset: 0x34704C, size: 0x8, addend: 0x0, symName: __ZNSt3__16vectorINS_4pairIN6VSTGUI10UTF8StringEdEENS_9allocatorIS4_EEE24__emplace_back_slow_pathIJS3_RdEEEPS4_DpOT_, symObjAddr: 0x50B0, symBinAddr: 0x94AD0, symSize: 0x1E0 }
  - { offset: 0x34778B, size: 0x8, addend: 0x0, symName: __ZNSt3__16vectorIN6VSTGUI19CMultiLineTextLabel4LineENS_9allocatorIS3_EEE24__emplace_back_slow_pathIJS3_EEEPS3_DpOT_, symObjAddr: 0x4DB0, symBinAddr: 0x947D0, symSize: 0x1D0 }
  - { offset: 0x347DE2, size: 0x8, addend: 0x0, symName: __ZN6VSTGUI19CMultiLineTextLabel17calculateWrapLineEPNS_12CDrawContextERNSt3__14pairINS_10UTF8StringEdEERKPKNS_12IFontPainterEdddRKNS_6CPointERd, symObjAddr: 0x2650, symBinAddr: 0x93080, symSize: 0xD00 }
  - { offset: 0x349D56, size: 0x8, addend: 0x0, symName: __ZN6VSTGUI19CMultiLineTextLabel4LineD1Ev, symObjAddr: 0x3350, symBinAddr: 0x93D80, symSize: 0x40 }
  - { offset: 0x349FE5, size: 0x8, addend: 0x0, symName: __ZNSt3__16vectorINS_4pairIN6VSTGUI10UTF8StringEdEENS_9allocatorIS4_EEED1B8ne180100Ev, symObjAddr: 0x36B0, symBinAddr: 0x94050, symSize: 0x90 }
  - { offset: 0x34A31A, size: 0x8, addend: 0x0, symName: __ZN6VSTGUI19CMultiLineTextLabel19setVerticalCenteredEb, symObjAddr: 0x1C40, symBinAddr: 0x92690, symSize: 0x80 }
  - { offset: 0x34A5BE, size: 0x8, addend: 0x0, symName: __ZN6VSTGUI19CMultiLineTextLabel15getMaxLineWidthEv, symObjAddr: 0x1CC0, symBinAddr: 0x92710, symSize: 0x140 }
  - { offset: 0x34AA5E, size: 0x8, addend: 0x0, symName: __ZN6VSTGUI19CMultiLineTextLabel8drawRectEPNS_12CDrawContextERKNS_5CRectE, symObjAddr: 0x1E00, symBinAddr: 0x92850, symSize: 0x560 }
  - { offset: 0x34B25B, size: 0x8, addend: 0x0, symName: __ZN6VSTGUI19CMultiLineTextLabel9sizeToFitEv, symObjAddr: 0x2380, symBinAddr: 0x92DB0, symSize: 0x10 }
  - { offset: 0x34B2A2, size: 0x8, addend: 0x0, symName: __ZN6VSTGUI19CMultiLineTextLabel7setTextERKNS_10UTF8StringE, symObjAddr: 0x2390, symBinAddr: 0x92DC0, symSize: 0x100 }
  - { offset: 0x34B62A, size: 0x8, addend: 0x0, symName: __ZN6VSTGUI19CMultiLineTextLabel11setViewSizeERKNS_5CRectEb, symObjAddr: 0x2490, symBinAddr: 0x92EC0, symSize: 0x140 }
  - { offset: 0x34BA1E, size: 0x8, addend: 0x0, symName: __ZN6VSTGUI19CMultiLineTextLabel16drawStyleChangedEv, symObjAddr: 0x25D0, symBinAddr: 0x93000, symSize: 0x80 }
  - { offset: 0x34C198, size: 0x8, addend: 0x0, symName: __ZNSt3__16vectorIN6VSTGUI19CMultiLineTextLabel4LineENS_9allocatorIS3_EEE24__emplace_back_slow_pathIJS3_EEEPS3_DpOT_, symObjAddr: 0x4DB0, symBinAddr: 0x947D0, symSize: 0x1D0 }
  - { offset: 0x34C2B2, size: 0x8, addend: 0x0, symName: __ZNSt3__115basic_stringbufIcNS_11char_traitsIcEENS_9allocatorIcEEE15__init_buf_ptrsB8ne180100Ev, symObjAddr: 0x4F90, symBinAddr: 0x949B0, symSize: 0x120 }
  - { offset: 0x34CA68, size: 0x8, addend: 0x0, symName: __ZThn24_N6VSTGUI10CTextLabelD1Ev, symObjAddr: 0x3AD0, symBinAddr: 0x940E0, symSize: 0x20 }
  - { offset: 0x34CAC2, size: 0x8, addend: 0x0, symName: __ZThn24_N6VSTGUI10CTextLabelD0Ev, symObjAddr: 0x3AF0, symBinAddr: 0x94100, symSize: 0x30 }
  - { offset: 0x34CBEF, size: 0x8, addend: 0x0, symName: __ZN6VSTGUI19CMultiLineTextLabelD1Ev, symObjAddr: 0x3B20, symBinAddr: 0x94130, symSize: 0xA0 }
  - { offset: 0x34CF5B, size: 0x8, addend: 0x0, symName: __ZN6VSTGUI19CMultiLineTextLabelD0Ev, symObjAddr: 0x3BC0, symBinAddr: 0x941D0, symSize: 0xB0 }
  - { offset: 0x34D2C4, size: 0x8, addend: 0x0, symName: __ZThn24_N6VSTGUI19CMultiLineTextLabelD1Ev, symObjAddr: 0x3C70, symBinAddr: 0x94280, symSize: 0xB0 }
  - { offset: 0x34D635, size: 0x8, addend: 0x0, symName: __ZThn24_N6VSTGUI19CMultiLineTextLabelD0Ev, symObjAddr: 0x3D20, symBinAddr: 0x94330, symSize: 0xB0 }
  - { offset: 0x34E5DB, size: 0x8, addend: 0x0, symName: __ZNKSt3__16vectorIN6VSTGUI19CMultiLineTextLabel4LineENS_9allocatorIS3_EEE20__throw_length_errorB8ne180100Ev, symObjAddr: 0x4F80, symBinAddr: 0x949A0, symSize: 0x10 }
  - { offset: 0x34E605, size: 0x8, addend: 0x0, symName: __ZNSt3__115basic_stringbufIcNS_11char_traitsIcEENS_9allocatorIcEEE15__init_buf_ptrsB8ne180100Ev, symObjAddr: 0x4F90, symBinAddr: 0x949B0, symSize: 0x120 }
  - { offset: 0x34E90D, size: 0x8, addend: 0x0, symName: __ZNKSt3__16vectorINS_4pairIN6VSTGUI10UTF8StringEdEENS_9allocatorIS4_EEE20__throw_length_errorB8ne180100Ev, symObjAddr: 0x5290, symBinAddr: 0x94CB0, symSize: 0x10 }
  - { offset: 0x357103, size: 0x8, addend: 0x0, symName: __ZN6VSTGUI8CVuMeterC2ERKNS_5CRectEPNS_7CBitmapES5_ii, symObjAddr: 0x0, symBinAddr: 0x94CC0, symSize: 0x130 }
  - { offset: 0x3572A0, size: 0x8, addend: 0x0, symName: __ZN6VSTGUI8CVuMeterC1ERKNS_5CRectEPNS_7CBitmapES5_ii, symObjAddr: 0x130, symBinAddr: 0x94DF0, symSize: 0x120 }
  - { offset: 0x357409, size: 0x8, addend: 0x0, symName: __ZN6VSTGUI8CVuMeterC2ERKS0_, symObjAddr: 0x250, symBinAddr: 0x94F10, symSize: 0xD0 }
  - { offset: 0x357486, size: 0x8, addend: 0x0, symName: __ZN6VSTGUI8CVuMeterC1ERKS0_, symObjAddr: 0x320, symBinAddr: 0x94FE0, symSize: 0xC0 }
  - { offset: 0x3574FB, size: 0x8, addend: 0x0, symName: __ZN6VSTGUI8CVuMeterD2Ev, symObjAddr: 0x3E0, symBinAddr: 0x950A0, symSize: 0x60 }
  - { offset: 0x35757C, size: 0x8, addend: 0x0, symName: __ZN6VSTGUI8CVuMeterD1Ev, symObjAddr: 0x450, symBinAddr: 0x95100, symSize: 0x50 }
  - { offset: 0x357610, size: 0x8, addend: 0x0, symName: __ZThn24_N6VSTGUI8CVuMeterD1Ev, symObjAddr: 0x4A0, symBinAddr: 0x95150, symSize: 0x60 }
  - { offset: 0x35769C, size: 0x8, addend: 0x0, symName: __ZN6VSTGUI8CVuMeterD0Ev, symObjAddr: 0x500, symBinAddr: 0x951B0, symSize: 0x60 }
  - { offset: 0x357740, size: 0x8, addend: 0x0, symName: __ZThn24_N6VSTGUI8CVuMeterD0Ev, symObjAddr: 0x560, symBinAddr: 0x95210, symSize: 0x60 }
  - { offset: 0x3577DD, size: 0x8, addend: 0x0, symName: __ZN6VSTGUI8CVuMeter11setViewSizeERKNS_5CRectEb, symObjAddr: 0x5C0, symBinAddr: 0x95270, symSize: 0x50 }
  - { offset: 0x357866, size: 0x8, addend: 0x0, symName: __ZN6VSTGUI8CVuMeter9sizeToFitEv, symObjAddr: 0x610, symBinAddr: 0x952C0, symSize: 0xB0 }
  - { offset: 0x357922, size: 0x8, addend: 0x0, symName: __ZN6VSTGUI8CVuMeter12setOffBitmapEPNS_7CBitmapE, symObjAddr: 0x6C0, symBinAddr: 0x95370, symSize: 0x40 }
  - { offset: 0x357965, size: 0x8, addend: 0x0, symName: __ZN6VSTGUI8CVuMeter8setDirtyEb, symObjAddr: 0x700, symBinAddr: 0x953B0, symSize: 0x10 }
  - { offset: 0x3579A6, size: 0x8, addend: 0x0, symName: __ZN6VSTGUI8CVuMeter6onIdleEv, symObjAddr: 0x710, symBinAddr: 0x953C0, symSize: 0x30 }
  - { offset: 0x357A68, size: 0x8, addend: 0x0, symName: __ZN6VSTGUI8CVuMeter4drawEPNS_12CDrawContextE, symObjAddr: 0x740, symBinAddr: 0x953F0, symSize: 0x230 }
  - { offset: 0x357D71, size: 0x8, addend: 0x0, symName: __ZNK6VSTGUI8CVuMeter7newCopyEv, symObjAddr: 0xC00, symBinAddr: 0x95620, symSize: 0xF0 }
  - { offset: 0x357E02, size: 0x8, addend: 0x0, symName: __ZN6VSTGUI8CVuMeter20setDecreaseStepValueEf, symObjAddr: 0xCF0, symBinAddr: 0x95710, symSize: 0x10 }
  - { offset: 0x357E29, size: 0x8, addend: 0x0, symName: __ZNK6VSTGUI8CVuMeter11getOnBitmapEv, symObjAddr: 0xD00, symBinAddr: 0x95720, symSize: 0x10 }
  - { offset: 0x357E4E, size: 0x8, addend: 0x0, symName: __ZNK6VSTGUI8CVuMeter12getOffBitmapEv, symObjAddr: 0xD10, symBinAddr: 0x95730, symSize: 0x10 }
  - { offset: 0x357E72, size: 0x8, addend: 0x0, symName: __ZN6VSTGUI8CVuMeter11setOnBitmapEPNS_7CBitmapE, symObjAddr: 0xD20, symBinAddr: 0x95740, symSize: 0x11 }
  - { offset: 0x359D96, size: 0x8, addend: 0x0, symName: __ZN6VSTGUI6CXYPadC2ERKNS_5CRectE, symObjAddr: 0x0, symBinAddr: 0x95760, symSize: 0xE0 }
  - { offset: 0x360F9D, size: 0x8, addend: 0x0, symName: __ZN6VSTGUI6CXYPadC2ERKNS_5CRectE, symObjAddr: 0x0, symBinAddr: 0x95760, symSize: 0xE0 }
  - { offset: 0x36118E, size: 0x8, addend: 0x0, symName: __ZN6VSTGUI6CXYPadC1ERKNS_5CRectE, symObjAddr: 0xE0, symBinAddr: 0x95840, symSize: 0xD0 }
  - { offset: 0x361391, size: 0x8, addend: 0x0, symName: __ZN6VSTGUI6CXYPad15setHandleBitmapEPNS_7CBitmapE, symObjAddr: 0x1B0, symBinAddr: 0x95910, symSize: 0x50 }
  - { offset: 0x36142B, size: 0x8, addend: 0x0, symName: __ZNK6VSTGUI6CXYPad15getHandleBitmapEv, symObjAddr: 0x200, symBinAddr: 0x95960, symSize: 0x10 }
  - { offset: 0x361653, size: 0x8, addend: 0x0, symName: __ZN6VSTGUI6CXYPad4drawEPNS_12CDrawContextE, symObjAddr: 0x210, symBinAddr: 0x95970, symSize: 0x2C0 }
  - { offset: 0x3619D9, size: 0x8, addend: 0x0, symName: __ZN6VSTGUI6CXYPad8drawBackEPNS_12CDrawContextEPNS_7CBitmapE, symObjAddr: 0x4D0, symBinAddr: 0x95C30, symSize: 0x10 }
  - { offset: 0x361A7B, size: 0x8, addend: 0x0, symName: __ZN6VSTGUI6CXYPad16onMouseDownEventERNS_14MouseDownEventE, symObjAddr: 0x4E0, symBinAddr: 0x95C40, symSize: 0xE0 }
  - { offset: 0x361B33, size: 0x8, addend: 0x0, symName: __ZN6VSTGUI6CXYPad11onMouseMoveERNS_20MouseDownUpMoveEventE, symObjAddr: 0x5C0, symBinAddr: 0x95D20, symSize: 0x1B0 }
  - { offset: 0x361DCE, size: 0x8, addend: 0x0, symName: __ZN6VSTGUI6CXYPad14onMouseUpEventERNS_12MouseUpEventE, symObjAddr: 0x770, symBinAddr: 0x95ED0, symSize: 0x30 }
  - { offset: 0x361E3E, size: 0x8, addend: 0x0, symName: __ZN6VSTGUI6CXYPad18onMouseCancelEventERNS_16MouseCancelEventE, symObjAddr: 0x7A0, symBinAddr: 0x95F00, symSize: 0x60 }
  - { offset: 0x361EE4, size: 0x8, addend: 0x0, symName: __ZN6VSTGUI6CXYPad16onMouseMoveEventERNS_14MouseMoveEventE, symObjAddr: 0x800, symBinAddr: 0x95F60, symSize: 0x30 }
  - { offset: 0x361F47, size: 0x8, addend: 0x0, symName: __ZN6VSTGUI6CXYPad11boundValuesERfS1_, symObjAddr: 0x830, symBinAddr: 0x95F90, symSize: 0x40 }
  - { offset: 0x361F99, size: 0x8, addend: 0x0, symName: __ZN6VSTGUI6CXYPad17onMouseWheelEventERNS_15MouseWheelEventE, symObjAddr: 0x870, symBinAddr: 0x95FD0, symSize: 0x1B0 }
  - { offset: 0x362171, size: 0x8, addend: 0x0, symName: __ZN6VSTGUI6CXYPad15onKeyboardEventERNS_13KeyboardEventE, symObjAddr: 0xA20, symBinAddr: 0x96180, symSize: 0x40 }
  - { offset: 0x3621E1, size: 0x8, addend: 0x0, symName: __ZN6VSTGUI6CXYPad15setDefaultValueEf, symObjAddr: 0xA60, symBinAddr: 0x961C0, symSize: 0x30 }
  - { offset: 0x36225A, size: 0x8, addend: 0x0, symName: __ZN6VSTGUI6CXYPad16setDefaultValuesEff, symObjAddr: 0xA90, symBinAddr: 0x961F0, symSize: 0x40 }
  - { offset: 0x362301, size: 0x8, addend: 0x0, symName: __ZN6VSTGUI6CXYPadD1Ev, symObjAddr: 0xDC0, symBinAddr: 0x96230, symSize: 0x70 }
  - { offset: 0x3623E7, size: 0x8, addend: 0x0, symName: __ZN6VSTGUI6CXYPadD0Ev, symObjAddr: 0xE30, symBinAddr: 0x962A0, symSize: 0x70 }
  - { offset: 0x3624C4, size: 0x8, addend: 0x0, symName: __ZN6VSTGUI6CXYPad6setMinEf, symObjAddr: 0xEA0, symBinAddr: 0x96310, symSize: 0x10 }
  - { offset: 0x3624F7, size: 0x8, addend: 0x0, symName: __ZN6VSTGUI6CXYPad6setMaxEf, symObjAddr: 0xEB0, symBinAddr: 0x96320, symSize: 0x10 }
  - { offset: 0x36252A, size: 0x8, addend: 0x0, symName: __ZThn24_N6VSTGUI6CXYPadD1Ev, symObjAddr: 0xEC0, symBinAddr: 0x96330, symSize: 0x70 }
  - { offset: 0x362615, size: 0x8, addend: 0x0, symName: __ZThn24_N6VSTGUI6CXYPadD0Ev, symObjAddr: 0xF30, symBinAddr: 0x963A0, symSize: 0x80 }
  - { offset: 0x3645D3, size: 0x8, addend: 0x0, symName: __ZN6VSTGUI9Layouting9translateENS_14CRowColumnView11LayoutStyleE, symObjAddr: 0x0, symBinAddr: 0x96420, symSize: 0x20 }
  - { offset: 0x364667, size: 0x8, addend: 0x0, symName: __ZN6VSTGUI9Layouting9translateENS_14CRowColumnView11LayoutStyleE, symObjAddr: 0x0, symBinAddr: 0x96420, symSize: 0x20 }
  - { offset: 0x364683, size: 0x8, addend: 0x0, symName: __ZN6VSTGUI9Layouting9translateENS_14CRowColumnView5StyleE, symObjAddr: 0x20, symBinAddr: 0x96440, symSize: 0x10 }
  - { offset: 0x36469F, size: 0x8, addend: 0x0, symName: __ZN6VSTGUI9Layouting17computeRectOffsetERKNS_6CPointES3_NS0_9AlignmentE, symObjAddr: 0x30, symBinAddr: 0x96450, symSize: 0x110 }
  - { offset: 0x364710, size: 0x8, addend: 0x0, symName: __ZN6VSTGUI9Layouting16computeGroupRectERKNS_5CRectERKNSt3__16vectorIS1_NS4_9allocatorIS1_EEEENS0_9AlignmentENS0_5StyleEd, symObjAddr: 0x140, symBinAddr: 0x96560, symSize: 0x3B0 }
  - { offset: 0x36499F, size: 0x8, addend: 0x0, symName: __ZN6VSTGUI9Layouting16computeGroupRectERKNS_14CViewContainerENS0_9AlignmentENS0_5StyleEd, symObjAddr: 0x4F0, symBinAddr: 0x96910, symSize: 0x220 }
  - { offset: 0x369C16, size: 0x8, addend: 0x0, symName: __ZN6VSTGUI14CRowColumnViewC2ERKNS_5CRectENS0_5StyleENS0_11LayoutStyleEdS3_, symObjAddr: 0x710, symBinAddr: 0x96B30, symSize: 0xA0 }
  - { offset: 0x369CC9, size: 0x8, addend: 0x0, symName: __ZN6VSTGUI24CAutoLayoutContainerViewC2ERKNS_5CRectE, symObjAddr: 0x7B0, symBinAddr: 0x96BD0, symSize: 0x30 }
  - { offset: 0x369D1C, size: 0x8, addend: 0x0, symName: __ZN6VSTGUI14CRowColumnViewC1ERKNS_5CRectENS0_5StyleENS0_11LayoutStyleEdS3_, symObjAddr: 0x7E0, symBinAddr: 0x96C00, symSize: 0xA0 }
  - { offset: 0x369DE7, size: 0x8, addend: 0x0, symName: __ZN6VSTGUI14CRowColumnView8setStyleENS0_5StyleE, symObjAddr: 0x880, symBinAddr: 0x96CA0, symSize: 0x40 }
  - { offset: 0x369E47, size: 0x8, addend: 0x0, symName: __ZN6VSTGUI14CRowColumnView10setSpacingEd, symObjAddr: 0x8C0, symBinAddr: 0x96CE0, symSize: 0x40 }
  - { offset: 0x369ECD, size: 0x8, addend: 0x0, symName: __ZN6VSTGUI14CRowColumnView9setMarginERKNS_5CRectE, symObjAddr: 0x900, symBinAddr: 0x96D20, symSize: 0x80 }
  - { offset: 0x369F50, size: 0x8, addend: 0x0, symName: __ZN6VSTGUI14CRowColumnView14setLayoutStyleENS0_11LayoutStyleE, symObjAddr: 0x980, symBinAddr: 0x96DA0, symSize: 0x40 }
  - { offset: 0x369FB4, size: 0x8, addend: 0x0, symName: __ZNK6VSTGUI14CRowColumnView21isAnimateViewResizingEv, symObjAddr: 0x9C0, symBinAddr: 0x96DE0, symSize: 0x10 }
  - { offset: 0x369FD9, size: 0x8, addend: 0x0, symName: __ZN6VSTGUI14CRowColumnView22setAnimateViewResizingEb, symObjAddr: 0x9D0, symBinAddr: 0x96DF0, symSize: 0x20 }
  - { offset: 0x36A043, size: 0x8, addend: 0x0, symName: __ZNK6VSTGUI14CRowColumnView19hideClippedSubviewsEv, symObjAddr: 0x9F0, symBinAddr: 0x96E10, symSize: 0x10 }
  - { offset: 0x36A081, size: 0x8, addend: 0x0, symName: __ZN6VSTGUI14CRowColumnView22setHideClippedSubviewsEb, symObjAddr: 0xA00, symBinAddr: 0x96E20, symSize: 0x20 }
  - { offset: 0x36A1F1, size: 0x8, addend: 0x0, symName: __ZN6VSTGUI14CRowColumnView13resizeSubViewEPNS_5CViewERKNS_5CRectE, symObjAddr: 0xA20, symBinAddr: 0x96E40, symSize: 0x1C0 }
  - { offset: 0x36A478, size: 0x8, addend: 0x0, symName: __ZN6VSTGUI14CRowColumnView19getMaxChildViewSizeERNS_6CPointE, symObjAddr: 0xBE0, symBinAddr: 0x97000, symSize: 0x90 }
  - { offset: 0x36A750, size: 0x8, addend: 0x0, symName: __ZN6VSTGUI14CRowColumnView20layoutViewsEqualSizeEv, symObjAddr: 0xC70, symBinAddr: 0x97090, symSize: 0x480 }
  - { offset: 0x36AE3E, size: 0x8, addend: 0x0, symName: __ZN6VSTGUI14CRowColumnView11layoutViewsEv, symObjAddr: 0x10F0, symBinAddr: 0x97510, symSize: 0xE0 }
  - { offset: 0x36B098, size: 0x8, addend: 0x0, symName: __ZN6VSTGUI14CRowColumnView9sizeToFitEv, symObjAddr: 0x11D0, symBinAddr: 0x975F0, symSize: 0x1D0 }
  - { offset: 0x36B588, size: 0x8, addend: 0x0, symName: __ZN6VSTGUI14CRowColumnView6notifyEPNS_11CBaseObjectEPKc, symObjAddr: 0x13A0, symBinAddr: 0x977C0, symSize: 0x60 }
  - { offset: 0x36B604, size: 0x8, addend: 0x0, symName: __ZN6VSTGUI24CAutoLayoutContainerView8attachedEPNS_5CViewE, symObjAddr: 0x1400, symBinAddr: 0x97820, symSize: 0x40 }
  - { offset: 0x36B66F, size: 0x8, addend: 0x0, symName: __ZN6VSTGUI24CAutoLayoutContainerView11setViewSizeERKNS_5CRectEb, symObjAddr: 0x1440, symBinAddr: 0x97860, symSize: 0x40 }
  - { offset: 0x36B6E5, size: 0x8, addend: 0x0, symName: __ZN6VSTGUI24CAutoLayoutContainerView7addViewEPNS_5CViewES2_, symObjAddr: 0x1480, symBinAddr: 0x978A0, symSize: 0x40 }
  - { offset: 0x36B761, size: 0x8, addend: 0x0, symName: __ZN6VSTGUI24CAutoLayoutContainerView10removeViewEPNS_5CViewEb, symObjAddr: 0x14C0, symBinAddr: 0x978E0, symSize: 0x40 }
  - { offset: 0x36B7DD, size: 0x8, addend: 0x0, symName: __ZN6VSTGUI24CAutoLayoutContainerView16changeViewZOrderEPNS_5CViewEj, symObjAddr: 0x1500, symBinAddr: 0x97920, symSize: 0x40 }
  - { offset: 0x36B859, size: 0x8, addend: 0x0, symName: __ZN6VSTGUI24CAutoLayoutContainerViewD1Ev, symObjAddr: 0x1580, symBinAddr: 0x178E70, symSize: 0x10 }
  - { offset: 0x36B884, size: 0x8, addend: 0x0, symName: __ZN6VSTGUI24CAutoLayoutContainerViewD0Ev, symObjAddr: 0x1590, symBinAddr: 0x178E80, symSize: 0x10 }
  - { offset: 0x36B8F4, size: 0x8, addend: 0x0, symName: __ZN6VSTGUI14CRowColumnViewD1Ev, symObjAddr: 0x1810, symBinAddr: 0x97960, symSize: 0x20 }
  - { offset: 0x36B966, size: 0x8, addend: 0x0, symName: __ZN6VSTGUI14CRowColumnViewD0Ev, symObjAddr: 0x1830, symBinAddr: 0x97980, symSize: 0x30 }
  - { offset: 0x36BA61, size: 0x8, addend: 0x0, symName: __ZNK6VSTGUI14CRowColumnView7newCopyEv, symObjAddr: 0x1860, symBinAddr: 0x979B0, symSize: 0x80 }
  - { offset: 0x376A6E, size: 0x8, addend: 0x0, symName: __ZN6VSTGUI16CScrollContainerC2ERKNS_5CRectES3_, symObjAddr: 0x0, symBinAddr: 0x97A30, symSize: 0x90 }
  - { offset: 0x376B55, size: 0x8, addend: 0x0, symName: __ZN6VSTGUI16CScrollContainerC1ERKNS_5CRectES3_, symObjAddr: 0x90, symBinAddr: 0x97AC0, symSize: 0x80 }
  - { offset: 0x376BFF, size: 0x8, addend: 0x0, symName: __ZN6VSTGUI16CScrollContainerC2ERKS0_, symObjAddr: 0x110, symBinAddr: 0x97B40, symSize: 0x70 }
  - { offset: 0x376C47, size: 0x8, addend: 0x0, symName: __ZN6VSTGUI16CScrollContainerC1ERKS0_, symObjAddr: 0x180, symBinAddr: 0x97BB0, symSize: 0x60 }
  - { offset: 0x376C8D, size: 0x8, addend: 0x0, symName: __ZN6VSTGUI16CScrollContainer16setContainerSizeERKNS_5CRectE, symObjAddr: 0x1E0, symBinAddr: 0x97C10, symSize: 0x30 }
  - { offset: 0x376CD1, size: 0x8, addend: 0x0, symName: __ZN6VSTGUI16CScrollContainer15setScrollOffsetENS_6CPointEb, symObjAddr: 0x210, symBinAddr: 0x97C40, symSize: 0x4C0 }
  - { offset: 0x3772FE, size: 0x8, addend: 0x0, symName: __ZNK6VSTGUI16CScrollContainer7isDirtyEv, symObjAddr: 0x6D0, symBinAddr: 0x98100, symSize: 0xF0 }
  - { offset: 0x3774A3, size: 0x8, addend: 0x0, symName: __ZN6VSTGUI16CScrollContainer14getScrollValueERKNS_6CPointERfS4_, symObjAddr: 0x7D0, symBinAddr: 0x981F0, symSize: 0x190 }
  - { offset: 0x37760B, size: 0x8, addend: 0x0, symName: __ZN6VSTGUI16CScrollContainer13getDropTargetEv, symObjAddr: 0x960, symBinAddr: 0x98380, symSize: 0x80 }
  - { offset: 0x377809, size: 0x8, addend: 0x0, symName: __ZN6VSTGUI16CScrollContainer10onDragMoveENS_6CPointE, symObjAddr: 0xA10, symBinAddr: 0x98400, symSize: 0xA0 }
  - { offset: 0x377948, size: 0x8, addend: 0x0, symName: __ZN6VSTGUI16CScrollContainer8attachedEPNS_5CViewE, symObjAddr: 0xAB0, symBinAddr: 0x984A0, symSize: 0xD0 }
  - { offset: 0x377A96, size: 0x8, addend: 0x0, symName: __ZN6VSTGUI16CScrollContainer6notifyEPNS_11CBaseObjectEPKc, symObjAddr: 0xB80, symBinAddr: 0x98570, symSize: 0x110 }
  - { offset: 0x377C40, size: 0x8, addend: 0x0, symName: __ZN6VSTGUI11CScrollViewC2ERKNS_5CRectES3_idPNS_7CBitmapE, symObjAddr: 0xC90, symBinAddr: 0x98680, symSize: 0x100 }
  - { offset: 0x377D3B, size: 0x8, addend: 0x0, symName: __ZN6VSTGUI11CScrollViewC1ERKNS_5CRectES3_idPNS_7CBitmapE, symObjAddr: 0xD90, symBinAddr: 0x98780, symSize: 0xE0 }
  - { offset: 0x377DEE, size: 0x8, addend: 0x0, symName: __ZN6VSTGUI11CScrollViewC2ERKS0_, symObjAddr: 0xE70, symBinAddr: 0x98860, symSize: 0x150 }
  - { offset: 0x377EB9, size: 0x8, addend: 0x0, symName: __ZN6VSTGUI11CScrollViewC1ERKS0_, symObjAddr: 0xFC0, symBinAddr: 0x989B0, symSize: 0x140 }
  - { offset: 0x377F5E, size: 0x8, addend: 0x0, symName: __ZNK6VSTGUI11CScrollView29calculateOptimalContainerSizeEv, symObjAddr: 0x1100, symBinAddr: 0x98AF0, symSize: 0xC0 }
  - { offset: 0x378051, size: 0x8, addend: 0x0, symName: __ZN6VSTGUI11CScrollView19recalculateSubViewsEv, symObjAddr: 0x11C0, symBinAddr: 0x98BB0, symSize: 0x610 }
  - { offset: 0x3784BE, size: 0x8, addend: 0x0, symName: __ZN6VSTGUI11CScrollView11setViewSizeERKNS_5CRectEb, symObjAddr: 0x17D0, symBinAddr: 0x991C0, symSize: 0x50 }
  - { offset: 0x378528, size: 0x8, addend: 0x0, symName: __ZN6VSTGUI11CScrollView16setAutosizeFlagsEi, symObjAddr: 0x1820, symBinAddr: 0x99210, symSize: 0x40 }
  - { offset: 0x37856F, size: 0x8, addend: 0x0, symName: __ZN6VSTGUI11CScrollView8setStyleEi, symObjAddr: 0x1860, symBinAddr: 0x99250, symSize: 0x50 }
  - { offset: 0x3785C8, size: 0x8, addend: 0x0, symName: __ZN6VSTGUI11CScrollView17setScrollbarWidthEd, symObjAddr: 0x18B0, symBinAddr: 0x992A0, symSize: 0x20 }
  - { offset: 0x378650, size: 0x8, addend: 0x0, symName: __ZN6VSTGUI11CScrollView16setContainerSizeERKNS_5CRectEb, symObjAddr: 0x18D0, symBinAddr: 0x992C0, symSize: 0x3B0 }
  - { offset: 0x3789F9, size: 0x8, addend: 0x0, symName: __ZN6VSTGUI11CScrollView15makeRectVisibleERKNS_5CRectE, symObjAddr: 0x1C80, symBinAddr: 0x99670, symSize: 0x270 }
  - { offset: 0x378B75, size: 0x8, addend: 0x0, symName: __ZN6VSTGUI11CScrollView17resetScrollOffsetEv, symObjAddr: 0x1EF0, symBinAddr: 0x998E0, symSize: 0xB0 }
  - { offset: 0x378C36, size: 0x8, addend: 0x0, symName: __ZNK6VSTGUI11CScrollView15getScrollOffsetEv, symObjAddr: 0x1FA0, symBinAddr: 0x99990, symSize: 0x10 }
  - { offset: 0x378C7C, size: 0x8, addend: 0x0, symName: __ZN6VSTGUI11CScrollView7addViewEPNS_5CViewES2_, symObjAddr: 0x1FB0, symBinAddr: 0x999A0, symSize: 0x20 }
  - { offset: 0x378CDF, size: 0x8, addend: 0x0, symName: __ZN6VSTGUI11CScrollView10removeViewEPNS_5CViewEb, symObjAddr: 0x1FD0, symBinAddr: 0x999C0, symSize: 0x20 }
  - { offset: 0x378D4E, size: 0x8, addend: 0x0, symName: __ZN6VSTGUI11CScrollView9removeAllEb, symObjAddr: 0x1FF0, symBinAddr: 0x999E0, symSize: 0x20 }
  - { offset: 0x378DA7, size: 0x8, addend: 0x0, symName: __ZNK6VSTGUI11CScrollView10getNbViewsEv, symObjAddr: 0x2010, symBinAddr: 0x99A00, symSize: 0x20 }
  - { offset: 0x378DDD, size: 0x8, addend: 0x0, symName: __ZNK6VSTGUI11CScrollView7getViewEj, symObjAddr: 0x2030, symBinAddr: 0x99A20, symSize: 0x20 }
  - { offset: 0x378E2A, size: 0x8, addend: 0x0, symName: __ZN6VSTGUI11CScrollView16changeViewZOrderEPNS_5CViewEj, symObjAddr: 0x2050, symBinAddr: 0x99A40, symSize: 0x20 }
  - { offset: 0x378E8D, size: 0x8, addend: 0x0, symName: __ZN6VSTGUI11CScrollView15setTransparencyEb, symObjAddr: 0x2070, symBinAddr: 0x99A60, symSize: 0x10 }
  - { offset: 0x378ED0, size: 0x8, addend: 0x0, symName: __ZN6VSTGUI11CScrollView18setBackgroundColorERKNS_6CColorE, symObjAddr: 0x2080, symBinAddr: 0x99A70, symSize: 0x10 }
  - { offset: 0x378F3A, size: 0x8, addend: 0x0, symName: __ZN6VSTGUI11CScrollView12valueChangedEPNS_8CControlE, symObjAddr: 0x2090, symBinAddr: 0x99A80, symSize: 0x110 }
  - { offset: 0x379098, size: 0x8, addend: 0x0, symName: __ZThn32_N6VSTGUI11CScrollView12valueChangedEPNS_8CControlE, symObjAddr: 0x21A0, symBinAddr: 0x99B90, symSize: 0x10 }
  - { offset: 0x3790C6, size: 0x8, addend: 0x0, symName: __ZN6VSTGUI11CScrollView18drawBackgroundRectEPNS_12CDrawContextERKNS_5CRectE, symObjAddr: 0x21B0, symBinAddr: 0x99BA0, symSize: 0x60 }
  - { offset: 0x37915B, size: 0x8, addend: 0x0, symName: __ZN6VSTGUI11CScrollView17onMouseWheelEventERNS_15MouseWheelEventE, symObjAddr: 0x2210, symBinAddr: 0x99C00, symSize: 0x70 }
  - { offset: 0x3791B4, size: 0x8, addend: 0x0, symName: __ZN6VSTGUI11CScrollView6notifyEPNS_11CBaseObjectEPKc, symObjAddr: 0x2280, symBinAddr: 0x99C70, symSize: 0xE0 }
  - { offset: 0x37930A, size: 0x8, addend: 0x0, symName: __ZN6VSTGUI11CScrollView15viewSizeChangedEPNS_5CViewERKNS_5CRectE, symObjAddr: 0x2360, symBinAddr: 0x99D50, symSize: 0x50 }
  - { offset: 0x379383, size: 0x8, addend: 0x0, symName: __ZThn40_N6VSTGUI11CScrollView15viewSizeChangedEPNS_5CViewERKNS_5CRectE, symObjAddr: 0x23B0, symBinAddr: 0x99DA0, symSize: 0x50 }
  - { offset: 0x3793D1, size: 0x8, addend: 0x0, symName: __ZN6VSTGUI11CScrollView14viewWillDeleteEPNS_5CViewE, symObjAddr: 0x2400, symBinAddr: 0x99DF0, symSize: 0x30 }
  - { offset: 0x379420, size: 0x8, addend: 0x0, symName: __ZThn40_N6VSTGUI11CScrollView14viewWillDeleteEPNS_5CViewE, symObjAddr: 0x2430, symBinAddr: 0x99E20, symSize: 0x30 }
  - { offset: 0x379478, size: 0x8, addend: 0x0, symName: __ZN6VSTGUI16CScrollContainerD1Ev, symObjAddr: 0x2700, symBinAddr: 0x99E50, symSize: 0x20 }
  - { offset: 0x3794CD, size: 0x8, addend: 0x0, symName: __ZN6VSTGUI16CScrollContainerD0Ev, symObjAddr: 0x2720, symBinAddr: 0x99E70, symSize: 0x30 }
  - { offset: 0x379555, size: 0x8, addend: 0x0, symName: __ZNK6VSTGUI16CScrollContainer7newCopyEv, symObjAddr: 0x2750, symBinAddr: 0x99EA0, symSize: 0x80 }
  - { offset: 0x3795F6, size: 0x8, addend: 0x0, symName: __ZThn32_N6VSTGUI11CScrollViewD1Ev, symObjAddr: 0x2860, symBinAddr: 0x99F20, symSize: 0x20 }
  - { offset: 0x37965E, size: 0x8, addend: 0x0, symName: __ZThn32_N6VSTGUI11CScrollViewD0Ev, symObjAddr: 0x2880, symBinAddr: 0x99F40, symSize: 0x30 }
  - { offset: 0x3796CB, size: 0x8, addend: 0x0, symName: __ZThn40_N6VSTGUI11CScrollViewD1Ev, symObjAddr: 0x2900, symBinAddr: 0x99F70, symSize: 0x20 }
  - { offset: 0x37971A, size: 0x8, addend: 0x0, symName: __ZThn40_N6VSTGUI11CScrollViewD0Ev, symObjAddr: 0x2920, symBinAddr: 0x99F90, symSize: 0x30 }
  - { offset: 0x379787, size: 0x8, addend: 0x0, symName: __ZN6VSTGUI19ViewListenerAdapterD1Ev, symObjAddr: 0x29C0, symBinAddr: 0x99FC0, symSize: 0x10 }
  - { offset: 0x3797B2, size: 0x8, addend: 0x0, symName: __ZN6VSTGUI19ViewListenerAdapterD0Ev, symObjAddr: 0x29D0, symBinAddr: 0x99FD0, symSize: 0x10 }
  - { offset: 0x3797DD, size: 0x8, addend: 0x0, symName: __ZN6VSTGUI19ViewListenerAdapter14viewWillDeleteEPNS_5CViewE, symObjAddr: 0x29F0, symBinAddr: 0x99FE0, symSize: 0x10 }
  - { offset: 0x379829, size: 0x8, addend: 0x0, symName: __ZN6VSTGUI16CScrollContainer10DropTarget11onDragEnterENS_13DragEventDataE, symObjAddr: 0x2A70, symBinAddr: 0x99FF0, symSize: 0x10 }
  - { offset: 0x3798DA, size: 0x8, addend: 0x0, symName: __ZN6VSTGUI16CScrollContainer10DropTarget10onDragMoveENS_13DragEventDataE, symObjAddr: 0x2A80, symBinAddr: 0x9A000, symSize: 0xD0 }
  - { offset: 0x379A35, size: 0x8, addend: 0x0, symName: __ZN6VSTGUI16CScrollContainer10DropTarget11onDragLeaveENS_13DragEventDataE, symObjAddr: 0x2B50, symBinAddr: 0x9A0D0, symSize: 0x10 }
  - { offset: 0x379A95, size: 0x8, addend: 0x0, symName: __ZN6VSTGUI16CScrollContainer10DropTarget6onDropENS_13DragEventDataE, symObjAddr: 0x2B60, symBinAddr: 0x9A0E0, symSize: 0x10 }
  - { offset: 0x379B32, size: 0x8, addend: 0x0, symName: __ZN6VSTGUI16CScrollContainer10DropTargetD1Ev, symObjAddr: 0x2B70, symBinAddr: 0x9A0F0, symSize: 0x40 }
  - { offset: 0x379BBF, size: 0x8, addend: 0x0, symName: __ZN6VSTGUI16CScrollContainer10DropTargetD0Ev, symObjAddr: 0x2BB0, symBinAddr: 0x9A130, symSize: 0x50 }
  - { offset: 0x379C4A, size: 0x8, addend: 0x0, symName: __ZThn8_N6VSTGUI16CScrollContainer10DropTargetD1Ev, symObjAddr: 0x2C00, symBinAddr: 0x9A180, symSize: 0x40 }
  - { offset: 0x379CE3, size: 0x8, addend: 0x0, symName: __ZThn8_N6VSTGUI16CScrollContainer10DropTargetD0Ev, symObjAddr: 0x2C40, symBinAddr: 0x9A1C0, symSize: 0x52 }
  - { offset: 0x37BC40, size: 0x8, addend: 0x0, symName: __ZN6VSTGUI20CShadowViewContainerC2ERKNS_5CRectE, symObjAddr: 0x0, symBinAddr: 0x9A220, symSize: 0xB0 }
  - { offset: 0x37BC71, size: 0x8, addend: 0x0, symName: __ZN6VSTGUIL12kBlackCColorE, symObjAddr: 0x2099, symBinAddr: 0x17E0A8, symSize: 0x0 }
  - { offset: 0x37F8D1, size: 0x8, addend: 0x0, symName: __ZN6VSTGUIL13boxesForGaussILm3EEENSt3__15arrayIiXT_EEEd, symObjAddr: 0xAF0, symBinAddr: 0x9AD10, symSize: 0xB0 }
  - { offset: 0x38473F, size: 0x8, addend: 0x0, symName: __ZN6VSTGUI20CShadowViewContainerC2ERKNS_5CRectE, symObjAddr: 0x0, symBinAddr: 0x9A220, symSize: 0xB0 }
  - { offset: 0x384819, size: 0x8, addend: 0x0, symName: __ZN6VSTGUI20CShadowViewContainerC1ERKNS_5CRectE, symObjAddr: 0xB0, symBinAddr: 0x9A2D0, symSize: 0x90 }
  - { offset: 0x3848AD, size: 0x8, addend: 0x0, symName: __ZN6VSTGUI20CShadowViewContainerC2ERKS0_, symObjAddr: 0x140, symBinAddr: 0x9A360, symSize: 0xC0 }
  - { offset: 0x38496C, size: 0x8, addend: 0x0, symName: __ZN6VSTGUI20CShadowViewContainerC1ERKS0_, symObjAddr: 0x200, symBinAddr: 0x9A420, symSize: 0xA0 }
  - { offset: 0x3849EE, size: 0x8, addend: 0x0, symName: __ZN6VSTGUI20CShadowViewContainerD2Ev, symObjAddr: 0x2A0, symBinAddr: 0x9A4C0, symSize: 0x10 }
  - { offset: 0x384A43, size: 0x8, addend: 0x0, symName: __ZN6VSTGUI20CShadowViewContainerD1Ev, symObjAddr: 0x2B0, symBinAddr: 0x9A4D0, symSize: 0x20 }
  - { offset: 0x384A99, size: 0x8, addend: 0x0, symName: __ZThn32_N6VSTGUI20CShadowViewContainerD1Ev, symObjAddr: 0x2D0, symBinAddr: 0x9A4F0, symSize: 0x20 }
  - { offset: 0x384AE8, size: 0x8, addend: 0x0, symName: __ZThn40_N6VSTGUI20CShadowViewContainerD1Ev, symObjAddr: 0x2F0, symBinAddr: 0x9A510, symSize: 0x20 }
  - { offset: 0x384B36, size: 0x8, addend: 0x0, symName: __ZN6VSTGUI20CShadowViewContainerD0Ev, symObjAddr: 0x310, symBinAddr: 0x9A530, symSize: 0x30 }
  - { offset: 0x384BAA, size: 0x8, addend: 0x0, symName: __ZThn32_N6VSTGUI20CShadowViewContainerD0Ev, symObjAddr: 0x340, symBinAddr: 0x9A560, symSize: 0x30 }
  - { offset: 0x384C17, size: 0x8, addend: 0x0, symName: __ZThn40_N6VSTGUI20CShadowViewContainerD0Ev, symObjAddr: 0x370, symBinAddr: 0x9A590, symSize: 0x30 }
  - { offset: 0x384C84, size: 0x8, addend: 0x0, symName: __ZN6VSTGUI20CShadowViewContainer12beforeDeleteEv, symObjAddr: 0x3A0, symBinAddr: 0x9A5C0, symSize: 0x20 }
  - { offset: 0x384CAD, size: 0x8, addend: 0x0, symName: __ZN6VSTGUI20CShadowViewContainer7removedEPNS_5CViewE, symObjAddr: 0x3C0, symBinAddr: 0x9A5E0, symSize: 0x40 }
  - { offset: 0x384D13, size: 0x8, addend: 0x0, symName: __ZN6VSTGUI20CShadowViewContainer8attachedEPNS_5CViewE, symObjAddr: 0x400, symBinAddr: 0x9A620, symSize: 0x50 }
  - { offset: 0x384D78, size: 0x8, addend: 0x0, symName: __ZN6VSTGUI20CShadowViewContainer16invalidateShadowEv, symObjAddr: 0x450, symBinAddr: 0x9A670, symSize: 0x20 }
  - { offset: 0x384DAB, size: 0x8, addend: 0x0, symName: __ZN6VSTGUI20CShadowViewContainer20onScaleFactorChangedEPNS_6CFrameEd, symObjAddr: 0x470, symBinAddr: 0x9A690, symSize: 0x20 }
  - { offset: 0x384E34, size: 0x8, addend: 0x0, symName: __ZThn32_N6VSTGUI20CShadowViewContainer20onScaleFactorChangedEPNS_6CFrameEd, symObjAddr: 0x490, symBinAddr: 0x9A6B0, symSize: 0x20 }
  - { offset: 0x384EB3, size: 0x8, addend: 0x0, symName: __ZN6VSTGUI20CShadowViewContainer15setShadowOffsetERKNS_6CPointE, symObjAddr: 0x4B0, symBinAddr: 0x9A6D0, symSize: 0x40 }
  - { offset: 0x384F2C, size: 0x8, addend: 0x0, symName: __ZN6VSTGUI20CShadowViewContainer18setShadowIntensityEf, symObjAddr: 0x4F0, symBinAddr: 0x9A710, symSize: 0x20 }
  - { offset: 0x384F6D, size: 0x8, addend: 0x0, symName: __ZN6VSTGUI20CShadowViewContainer17setShadowBlurSizeEd, symObjAddr: 0x510, symBinAddr: 0x9A730, symSize: 0x30 }
  - { offset: 0x384FCA, size: 0x8, addend: 0x0, symName: __ZN6VSTGUI20CShadowViewContainer6notifyEPNS_11CBaseObjectEPKc, symObjAddr: 0x540, symBinAddr: 0x9A760, symSize: 0x50 }
  - { offset: 0x3852E8, size: 0x8, addend: 0x0, symName: __ZN6VSTGUI20CShadowViewContainer8drawRectEPNS_12CDrawContextERKNS_5CRectE, symObjAddr: 0x590, symBinAddr: 0x9A7B0, symSize: 0x560 }
  - { offset: 0x385903, size: 0x8, addend: 0x0, symName: __ZN6VSTGUI20CShadowViewContainer18drawBackgroundRectEPNS_12CDrawContextERKNS_5CRectE, symObjAddr: 0xBA0, symBinAddr: 0x9ADC0, symSize: 0x70 }
  - { offset: 0x385988, size: 0x8, addend: 0x0, symName: __ZN6VSTGUI20CShadowViewContainer11setViewSizeERKNS_5CRectEb, symObjAddr: 0xC10, symBinAddr: 0x9AE30, symSize: 0xF0 }
  - { offset: 0x385ADC, size: 0x8, addend: 0x0, symName: __ZN6VSTGUI20CShadowViewContainer22viewContainerViewAddedEPNS_14CViewContainerEPNS_5CViewE, symObjAddr: 0xD00, symBinAddr: 0x9AF20, symSize: 0x50 }
  - { offset: 0x385B77, size: 0x8, addend: 0x0, symName: __ZThn40_N6VSTGUI20CShadowViewContainer22viewContainerViewAddedEPNS_14CViewContainerEPNS_5CViewE, symObjAddr: 0xD50, symBinAddr: 0x9AF70, symSize: 0x50 }
  - { offset: 0x385BF1, size: 0x8, addend: 0x0, symName: __ZN6VSTGUI20CShadowViewContainer24viewContainerViewRemovedEPNS_14CViewContainerEPNS_5CViewE, symObjAddr: 0xDA0, symBinAddr: 0x9AFC0, symSize: 0x50 }
  - { offset: 0x385C8C, size: 0x8, addend: 0x0, symName: __ZThn40_N6VSTGUI20CShadowViewContainer24viewContainerViewRemovedEPNS_14CViewContainerEPNS_5CViewE, symObjAddr: 0xDF0, symBinAddr: 0x9B010, symSize: 0x50 }
  - { offset: 0x385D06, size: 0x8, addend: 0x0, symName: __ZN6VSTGUI20CShadowViewContainer30viewContainerViewZOrderChangedEPNS_14CViewContainerEPNS_5CViewE, symObjAddr: 0xE40, symBinAddr: 0x9B060, symSize: 0x50 }
  - { offset: 0x385DA1, size: 0x8, addend: 0x0, symName: __ZThn40_N6VSTGUI20CShadowViewContainer30viewContainerViewZOrderChangedEPNS_14CViewContainerEPNS_5CViewE, symObjAddr: 0xE90, symBinAddr: 0x9B0B0, symSize: 0x50 }
  - { offset: 0x385E41, size: 0x8, addend: 0x0, symName: __ZNK6VSTGUI20CShadowViewContainer7newCopyEv, symObjAddr: 0x1190, symBinAddr: 0x9B100, symSize: 0xD0 }
  - { offset: 0x38B839, size: 0x8, addend: 0x0, symName: __ZN6VSTGUI17getViewControllerEPKNS_5CViewEb, symObjAddr: 0x2CB0, symBinAddr: 0x9DB60, symSize: 0x7E }
  - { offset: 0x3915D1, size: 0x8, addend: 0x0, symName: __ZN6VSTGUI10CSplitViewC2ERKNS_5CRectENS0_5StyleEdPNS_25ISplitViewSeparatorDrawerE, symObjAddr: 0x0, symBinAddr: 0x9B1D0, symSize: 0x70 }
  - { offset: 0x391667, size: 0x8, addend: 0x0, symName: __ZN6VSTGUI10CSplitViewC1ERKNS_5CRectENS0_5StyleEdPNS_25ISplitViewSeparatorDrawerE, symObjAddr: 0x70, symBinAddr: 0x9B240, symSize: 0x70 }
  - { offset: 0x3916EC, size: 0x8, addend: 0x0, symName: __ZN6VSTGUI10CSplitView8setStyleENS0_5StyleE, symObjAddr: 0xE0, symBinAddr: 0x9B2B0, symSize: 0x10 }
  - { offset: 0x391721, size: 0x8, addend: 0x0, symName: __ZN6VSTGUI10CSplitView15setResizeMethodENS0_12ResizeMethodE, symObjAddr: 0xF0, symBinAddr: 0x9B2C0, symSize: 0x10 }
  - { offset: 0x3918D2, size: 0x8, addend: 0x0, symName: __ZN6VSTGUI10CSplitView17setSeparatorWidthEd, symObjAddr: 0x100, symBinAddr: 0x9B2D0, symSize: 0x140 }
  - { offset: 0x391B89, size: 0x8, addend: 0x0, symName: __ZN6VSTGUI10CSplitView23requestNewSeparatorSizeEPNS_23CSplitViewSeparatorViewERKNS_5CRectE, symObjAddr: 0x240, symBinAddr: 0x9B410, symSize: 0x770 }
  - { offset: 0x3929FF, size: 0x8, addend: 0x0, symName: __ZN6VSTGUI10CSplitView15resizeFirstViewENS_6CPointE, symObjAddr: 0x9B0, symBinAddr: 0x9BB80, symSize: 0x350 }
  - { offset: 0x393569, size: 0x8, addend: 0x0, symName: __ZN6VSTGUI10CSplitView16resizeSecondViewENS_6CPointE, symObjAddr: 0xD60, symBinAddr: 0x9BED0, symSize: 0x2F0 }
  - { offset: 0x393DEC, size: 0x8, addend: 0x0, symName: __ZN6VSTGUI10CSplitView14resizeLastViewENS_6CPointE, symObjAddr: 0x1050, symBinAddr: 0x9C1C0, symSize: 0x310 }
  - { offset: 0x3949A1, size: 0x8, addend: 0x0, symName: __ZN6VSTGUI10CSplitView16resizeViewsEqualENS_6CPointE, symObjAddr: 0x1360, symBinAddr: 0x9C4D0, symSize: 0x460 }
  - { offset: 0x395419, size: 0x8, addend: 0x0, symName: __ZN6VSTGUI10CSplitView11setViewSizeERKNS_5CRectEb, symObjAddr: 0x17C0, symBinAddr: 0x9C930, symSize: 0x120 }
  - { offset: 0x395613, size: 0x8, addend: 0x0, symName: __ZN6VSTGUI10CSplitView7addViewEPNS_5CViewES2_, symObjAddr: 0x18E0, symBinAddr: 0x9CA50, symSize: 0x2D0 }
  - { offset: 0x395ADB, size: 0x8, addend: 0x0, symName: __ZN6VSTGUI23CSplitViewSeparatorViewC1ERKNS_5CRectENS_10CSplitView5StyleEi, symObjAddr: 0x1BB0, symBinAddr: 0x9CD20, symSize: 0x90 }
  - { offset: 0x395B74, size: 0x8, addend: 0x0, symName: __ZN6VSTGUI10CSplitView10removeViewEPNS_5CViewEb, symObjAddr: 0x1C40, symBinAddr: 0x9CDB0, symSize: 0x1B0 }
  - { offset: 0x396004, size: 0x8, addend: 0x0, symName: __ZN6VSTGUI10CSplitView9removeAllEb, symObjAddr: 0x1DF0, symBinAddr: 0x9CF60, symSize: 0x10 }
  - { offset: 0x396047, size: 0x8, addend: 0x0, symName: __ZN6VSTGUI10CSplitView9sizeToFitEv, symObjAddr: 0x1E00, symBinAddr: 0x9CF70, symSize: 0x10 }
  - { offset: 0x39606C, size: 0x8, addend: 0x0, symName: __ZN6VSTGUI10CSplitView14storeViewSizesEv, symObjAddr: 0x1E10, symBinAddr: 0x9CF80, symSize: 0x1A0 }
  - { offset: 0x396323, size: 0x8, addend: 0x0, symName: __ZN6VSTGUI10CSplitView7removedEPNS_5CViewE, symObjAddr: 0x1FB0, symBinAddr: 0x9D120, symSize: 0x30 }
  - { offset: 0x396373, size: 0x8, addend: 0x0, symName: __ZN6VSTGUI10CSplitView8attachedEPNS_5CViewE, symObjAddr: 0x1FE0, symBinAddr: 0x9D150, symSize: 0x2E0 }
  - { offset: 0x3967AA, size: 0x8, addend: 0x0, symName: __ZN6VSTGUI10CSplitView9getDrawerEv, symObjAddr: 0x22C0, symBinAddr: 0x9D430, symSize: 0x60 }
  - { offset: 0x396831, size: 0x8, addend: 0x0, symName: __ZN6VSTGUI10CSplitView18addViewToSeparatorEiPNS_5CViewE, symObjAddr: 0x2320, symBinAddr: 0x9D490, symSize: 0xF0 }
  - { offset: 0x396A01, size: 0x8, addend: 0x0, symName: __ZN6VSTGUI23CSplitViewSeparatorViewC2ERKNS_5CRectENS_10CSplitView5StyleEi, symObjAddr: 0x2410, symBinAddr: 0x9D580, symSize: 0xA0 }
  - { offset: 0x396AF4, size: 0x8, addend: 0x0, symName: __ZN6VSTGUI23CSplitViewSeparatorView8drawRectEPNS_12CDrawContextERKNS_5CRectE, symObjAddr: 0x24B0, symBinAddr: 0x9D620, symSize: 0xC0 }
  - { offset: 0x396BFB, size: 0x8, addend: 0x0, symName: __ZN6VSTGUI23CSplitViewSeparatorView15hitTestSubViewsERKNS_6CPointERKNS_5EventE, symObjAddr: 0x2570, symBinAddr: 0x9D6E0, symSize: 0x20 }
  - { offset: 0x396C7B, size: 0x8, addend: 0x0, symName: __ZN6VSTGUI23CSplitViewSeparatorView16onMouseDownEventERNS_14MouseDownEventE, symObjAddr: 0x2590, symBinAddr: 0x9D700, symSize: 0x90 }
  - { offset: 0x396D25, size: 0x8, addend: 0x0, symName: __ZN6VSTGUI23CSplitViewSeparatorView10mouseMovedERNS_10MouseEventE, symObjAddr: 0x2620, symBinAddr: 0x9D790, symSize: 0x1C0 }
  - { offset: 0x397251, size: 0x8, addend: 0x0, symName: __ZN6VSTGUI23CSplitViewSeparatorView14onMouseUpEventERNS_12MouseUpEventE, symObjAddr: 0x27E0, symBinAddr: 0x9D950, symSize: 0x50 }
  - { offset: 0x397310, size: 0x8, addend: 0x0, symName: __ZN6VSTGUI23CSplitViewSeparatorView16onMouseMoveEventERNS_14MouseMoveEventE, symObjAddr: 0x2830, symBinAddr: 0x9D9A0, symSize: 0x30 }
  - { offset: 0x397358, size: 0x8, addend: 0x0, symName: __ZN6VSTGUI23CSplitViewSeparatorView17onMouseEnterEventERNS_15MouseEnterEventE, symObjAddr: 0x2860, symBinAddr: 0x9D9D0, symSize: 0x60 }
  - { offset: 0x3973E8, size: 0x8, addend: 0x0, symName: __ZN6VSTGUI23CSplitViewSeparatorView16onMouseExitEventERNS_14MouseExitEventE, symObjAddr: 0x28C0, symBinAddr: 0x9DA30, symSize: 0x40 }
  - { offset: 0x39748D, size: 0x8, addend: 0x0, symName: __ZN6VSTGUI23CSplitViewSeparatorView7removedEPNS_5CViewE, symObjAddr: 0x2900, symBinAddr: 0x9DA70, symSize: 0x50 }
  - { offset: 0x39750B, size: 0x8, addend: 0x0, symName: __ZN6VSTGUI10CSplitViewD1Ev, symObjAddr: 0x2C00, symBinAddr: 0x9DAC0, symSize: 0x20 }
  - { offset: 0x397560, size: 0x8, addend: 0x0, symName: __ZN6VSTGUI10CSplitViewD0Ev, symObjAddr: 0x2C20, symBinAddr: 0x9DAE0, symSize: 0x30 }
  - { offset: 0x3975E5, size: 0x8, addend: 0x0, symName: __ZN6VSTGUI23CSplitViewSeparatorViewD1Ev, symObjAddr: 0x2C50, symBinAddr: 0x9DB10, symSize: 0x20 }
  - { offset: 0x39763B, size: 0x8, addend: 0x0, symName: __ZN6VSTGUI23CSplitViewSeparatorViewD0Ev, symObjAddr: 0x2C70, symBinAddr: 0x9DB30, symSize: 0x30 }
  - { offset: 0x39DE82, size: 0x8, addend: 0x0, symName: __ZN6VSTGUI4trimERKNS_10UTF8StringENS_11TrimOptionsE, symObjAddr: 0x1440, symBinAddr: 0x9EE60, symSize: 0x480 }
  - { offset: 0x39EA04, size: 0x8, addend: 0x0, symName: __ZN6VSTGUI7isSpaceEDi, symObjAddr: 0x13C0, symBinAddr: 0x9EDE0, symSize: 0x80 }
  - { offset: 0x39EA73, size: 0x8, addend: 0x0, symName: __ZN6VSTGUI6String13newWithStringEPKc, symObjAddr: 0x18C0, symBinAddr: 0x9F2E0, symSize: 0x40 }
  - { offset: 0x39EAFB, size: 0x8, addend: 0x0, symName: __ZN6VSTGUI6String4freeEPc, symObjAddr: 0x1900, symBinAddr: 0x9F320, symSize: 0x20 }
  - { offset: 0x39F14C, size: 0x8, addend: 0x0, symName: __ZNK6VSTGUI14UTF8StringView8toDoubleEj, symObjAddr: 0x0, symBinAddr: 0x9DBE0, symSize: 0x250 }
  - { offset: 0x39FAD1, size: 0x8, addend: 0x0, symName: __ZNSt3__119basic_istringstreamIcNS_11char_traitsIcEENS_9allocatorIcEEEC1B8ne180100ERKNS_12basic_stringIcS2_S4_EEj, symObjAddr: 0x250, symBinAddr: 0x9DE30, symSize: 0x120 }
  - { offset: 0x39FD22, size: 0x8, addend: 0x0, symName: __ZNSt3__119basic_istringstreamIcNS_11char_traitsIcEENS_9allocatorIcEEED1Ev, symObjAddr: 0x370, symBinAddr: 0x9DF50, symSize: 0x80 }
  - { offset: 0x3A012D, size: 0x8, addend: 0x0, symName: __ZNK6VSTGUI14UTF8StringView9toIntegerEv, symObjAddr: 0x3F0, symBinAddr: 0x9DFD0, symSize: 0x250 }
  - { offset: 0x3A0B05, size: 0x8, addend: 0x0, symName: __ZN6VSTGUI10UTF8StringC2EPKc, symObjAddr: 0x640, symBinAddr: 0x9E220, symSize: 0x50 }
  - { offset: 0x3A0CAD, size: 0x8, addend: 0x0, symName: __ZN6VSTGUI10UTF8StringC1EPKc, symObjAddr: 0x690, symBinAddr: 0x9E270, symSize: 0x50 }
  - { offset: 0x3A0ED7, size: 0x8, addend: 0x0, symName: __ZN6VSTGUI10UTF8StringC2ERKNSt3__112basic_stringIcNS1_11char_traitsIcEENS1_9allocatorIcEEEE, symObjAddr: 0x6E0, symBinAddr: 0x9E2C0, symSize: 0x40 }
  - { offset: 0x3A1307, size: 0x8, addend: 0x0, symName: __ZN6VSTGUI10UTF8StringC2EONSt3__112basic_stringIcNS1_11char_traitsIcEENS1_9allocatorIcEEEE, symObjAddr: 0x760, symBinAddr: 0x9E300, symSize: 0x50 }
  - { offset: 0x3A1428, size: 0x8, addend: 0x0, symName: __ZN6VSTGUI10UTF8StringaSEONSt3__112basic_stringIcNS1_11char_traitsIcEENS1_9allocatorIcEEEE, symObjAddr: 0x7B0, symBinAddr: 0x9E350, symSize: 0x60 }
  - { offset: 0x3A15F5, size: 0x8, addend: 0x0, symName: __ZN6VSTGUI10UTF8StringC1EONSt3__112basic_stringIcNS1_11char_traitsIcEENS1_9allocatorIcEEEE, symObjAddr: 0x810, symBinAddr: 0x9E3B0, symSize: 0x50 }
  - { offset: 0x3A177C, size: 0x8, addend: 0x0, symName: __ZN6VSTGUI10UTF8StringC2ERKS0_, symObjAddr: 0x860, symBinAddr: 0x9E400, symSize: 0x80 }
  - { offset: 0x3A1966, size: 0x8, addend: 0x0, symName: __ZN6VSTGUI10UTF8StringaSERKS0_, symObjAddr: 0x8E0, symBinAddr: 0x9E480, symSize: 0x50 }
  - { offset: 0x3A19EF, size: 0x8, addend: 0x0, symName: __ZN6VSTGUI10UTF8StringC1ERKS0_, symObjAddr: 0x930, symBinAddr: 0x9E4D0, symSize: 0x10 }
  - { offset: 0x3A1A77, size: 0x8, addend: 0x0, symName: __ZN6VSTGUI10UTF8StringC2EOS0_, symObjAddr: 0x940, symBinAddr: 0x9E4E0, symSize: 0x60 }
  - { offset: 0x3A1B98, size: 0x8, addend: 0x0, symName: __ZN6VSTGUI10UTF8StringaSEOS0_, symObjAddr: 0x9A0, symBinAddr: 0x9E540, symSize: 0x60 }
  - { offset: 0x3A1D66, size: 0x8, addend: 0x0, symName: __ZN6VSTGUI10UTF8StringC1EOS0_, symObjAddr: 0xA00, symBinAddr: 0x9E5A0, symSize: 0x60 }
  - { offset: 0x3A1F1E, size: 0x8, addend: 0x0, symName: __ZN6VSTGUI10UTF8StringaSERKNSt3__112basic_stringIcNS1_11char_traitsIcEENS1_9allocatorIcEEEE, symObjAddr: 0xA60, symBinAddr: 0x9E600, symSize: 0xC0 }
  - { offset: 0x3A2186, size: 0x8, addend: 0x0, symName: __ZNK6VSTGUI10UTF8StringeqEPKc, symObjAddr: 0xB20, symBinAddr: 0x9E6C0, symSize: 0x80 }
  - { offset: 0x3A23B8, size: 0x8, addend: 0x0, symName: __ZNK6VSTGUI10UTF8StringneEPKc, symObjAddr: 0xBA0, symBinAddr: 0x9E740, symSize: 0x80 }
  - { offset: 0x3A25E9, size: 0x8, addend: 0x0, symName: __ZNK6VSTGUI10UTF8StringeqERKS0_, symObjAddr: 0xC20, symBinAddr: 0x9E7C0, symSize: 0x90 }
  - { offset: 0x3A2755, size: 0x8, addend: 0x0, symName: __ZNK6VSTGUI10UTF8StringneERKS0_, symObjAddr: 0xCB0, symBinAddr: 0x9E850, symSize: 0xA0 }
  - { offset: 0x3A294E, size: 0x8, addend: 0x0, symName: __ZN6VSTGUI10UTF8StringpLERKS0_, symObjAddr: 0xE80, symBinAddr: 0x9E8F0, symSize: 0x70 }
  - { offset: 0x3A2AA6, size: 0x8, addend: 0x0, symName: __ZN6VSTGUI10UTF8StringpLEc, symObjAddr: 0xEF0, symBinAddr: 0x9E960, symSize: 0x40 }
  - { offset: 0x3A2B3F, size: 0x8, addend: 0x0, symName: __ZN6VSTGUI10UTF8StringpLEPKc, symObjAddr: 0xF30, symBinAddr: 0x9E9A0, symSize: 0x40 }
  - { offset: 0x3A2C34, size: 0x8, addend: 0x0, symName: __ZN6VSTGUI10UTF8StringplERKS0_, symObjAddr: 0xF70, symBinAddr: 0x9E9E0, symSize: 0xC0 }
  - { offset: 0x3A30B7, size: 0x8, addend: 0x0, symName: __ZN6VSTGUI10UTF8StringplEc, symObjAddr: 0x1070, symBinAddr: 0x9EAA0, symSize: 0xA0 }
  - { offset: 0x3A3390, size: 0x8, addend: 0x0, symName: __ZN6VSTGUI10UTF8StringplEPKc, symObjAddr: 0x1110, symBinAddr: 0x9EB40, symSize: 0xA0 }
  - { offset: 0x3A3657, size: 0x8, addend: 0x0, symName: __ZN6VSTGUI10UTF8String6assignEPKc, symObjAddr: 0x11B0, symBinAddr: 0x9EBE0, symSize: 0xB0 }
  - { offset: 0x3A38FA, size: 0x8, addend: 0x0, symName: __ZN6VSTGUI10UTF8String5clearEv, symObjAddr: 0x1260, symBinAddr: 0x9EC90, symSize: 0x60 }
  - { offset: 0x3A3A28, size: 0x8, addend: 0x0, symName: __ZNK6VSTGUI10UTF8String4copyEPcm, symObjAddr: 0x12C0, symBinAddr: 0x9ECF0, symSize: 0x30 }
  - { offset: 0x3A3B60, size: 0x8, addend: 0x0, symName: __ZNK6VSTGUI10UTF8String17getPlatformStringEv, symObjAddr: 0x1300, symBinAddr: 0x9ED20, symSize: 0x70 }
  - { offset: 0x3A3D0E, size: 0x8, addend: 0x0, symName: __ZNK6VSTGUI10UTF8String5beginEv, symObjAddr: 0x1370, symBinAddr: 0x9ED90, symSize: 0x20 }
  - { offset: 0x3A3E02, size: 0x8, addend: 0x0, symName: __ZNK6VSTGUI10UTF8String3endEv, symObjAddr: 0x1390, symBinAddr: 0x9EDB0, symSize: 0x30 }
  - { offset: 0x3A4322, size: 0x8, addend: 0x0, symName: __ZTv0_n24_NSt3__119basic_istringstreamIcNS_11char_traitsIcEENS_9allocatorIcEEED1Ev, symObjAddr: 0x1920, symBinAddr: 0x9F340, symSize: 0x90 }
  - { offset: 0x3A44C8, size: 0x8, addend: 0x0, symName: __ZNSt3__119basic_istringstreamIcNS_11char_traitsIcEENS_9allocatorIcEEED0Ev, symObjAddr: 0x19B0, symBinAddr: 0x9F3D0, symSize: 0x80 }
  - { offset: 0x3A4692, size: 0x8, addend: 0x0, symName: __ZTv0_n24_NSt3__119basic_istringstreamIcNS_11char_traitsIcEENS_9allocatorIcEEED0Ev, symObjAddr: 0x1A30, symBinAddr: 0x9F450, symSize: 0xA0 }
  - { offset: 0x3AB4A6, size: 0x8, addend: 0x0, symName: __ZN6VSTGUI15CTooltipSupportC2EPNS_6CFrameEj, symObjAddr: 0x0, symBinAddr: 0x9F4F0, symSize: 0x110 }
  - { offset: 0x3AB757, size: 0x8, addend: 0x0, symName: __ZN6VSTGUI15CTooltipSupportC1EPNS_6CFrameEj, symObjAddr: 0x150, symBinAddr: 0x9F600, symSize: 0xE0 }
  - { offset: 0x3AB998, size: 0x8, addend: 0x0, symName: __ZN6VSTGUI15CTooltipSupportD2Ev, symObjAddr: 0x230, symBinAddr: 0x9F6E0, symSize: 0x90 }
  - { offset: 0x3ABA93, size: 0x8, addend: 0x0, symName: __ZN6VSTGUI15CTooltipSupportD1Ev, symObjAddr: 0x2D0, symBinAddr: 0x9F770, symSize: 0x20 }
  - { offset: 0x3ABAE3, size: 0x8, addend: 0x0, symName: __ZN6VSTGUI15CTooltipSupportD0Ev, symObjAddr: 0x2F0, symBinAddr: 0x9F790, symSize: 0x30 }
  - { offset: 0x3ABB7D, size: 0x8, addend: 0x0, symName: __ZN6VSTGUI15CTooltipSupport14onMouseEnteredEPNS_5CViewE, symObjAddr: 0x320, symBinAddr: 0x9F7C0, symSize: 0xC0 }
  - { offset: 0x3ABC7E, size: 0x8, addend: 0x0, symName: __ZN6VSTGUI15CTooltipSupport13onMouseExitedEPNS_5CViewE, symObjAddr: 0x3E0, symBinAddr: 0x9F880, symSize: 0xB0 }
  - { offset: 0x3ABD80, size: 0x8, addend: 0x0, symName: __ZN6VSTGUI15CTooltipSupport11hideTooltipEv, symObjAddr: 0x490, symBinAddr: 0x9F930, symSize: 0x40 }
  - { offset: 0x3ABDFD, size: 0x8, addend: 0x0, symName: __ZN6VSTGUI15CTooltipSupport12onMouseMovedERKNS_6CPointE, symObjAddr: 0x4D0, symBinAddr: 0x9F970, symSize: 0xD0 }
  - { offset: 0x3ABEAB, size: 0x8, addend: 0x0, symName: __ZN6VSTGUI15CTooltipSupport11onMouseDownERKNS_6CPointE, symObjAddr: 0x5A0, symBinAddr: 0x9FA40, symSize: 0x60 }
  - { offset: 0x3AC12A, size: 0x8, addend: 0x0, symName: __ZN6VSTGUI15CTooltipSupport11showTooltipEv, symObjAddr: 0x600, symBinAddr: 0x9FAA0, symSize: 0x1E0 }
  - { offset: 0x3AC467, size: 0x8, addend: 0x0, symName: __ZN6VSTGUI15CTooltipSupport6notifyEPNS_11CBaseObjectEPKc, symObjAddr: 0x7E0, symBinAddr: 0x9FC80, symSize: 0xB0 }
  - { offset: 0x3AC57D, size: 0x8, addend: 0x0, symName: __ZNK6VSTGUI15CTooltipSupport7newCopyEv, symObjAddr: 0x950, symBinAddr: 0x9FD30, symSize: 0x8 }
  - { offset: 0x3AE479, size: 0x8, addend: 0x0, symName: __ZN6VSTGUI13CViewInternal15IdleViewUpdater9gInstanceE, symObjAddr: 0x1216B0, symBinAddr: 0x1F7708, symSize: 0x0 }
  - { offset: 0x3B282C, size: 0x8, addend: 0x0, symName: __ZN6VSTGUI13kDegreeSymbolE, symObjAddr: 0x8580, symBinAddr: 0x1D06C8, symSize: 0x0 }
  - { offset: 0x3B2846, size: 0x8, addend: 0x0, symName: __ZN6VSTGUI15kInfiniteSymbolE, symObjAddr: 0x8588, symBinAddr: 0x1D06D0, symSize: 0x0 }
  - { offset: 0x3B2860, size: 0x8, addend: 0x0, symName: __ZN6VSTGUI16kCopyrightSymbolE, symObjAddr: 0x8590, symBinAddr: 0x1D06D8, symSize: 0x0 }
  - { offset: 0x3B287A, size: 0x8, addend: 0x0, symName: __ZN6VSTGUI16kTrademarkSymbolE, symObjAddr: 0x8598, symBinAddr: 0x1D06E0, symSize: 0x0 }
  - { offset: 0x3B2894, size: 0x8, addend: 0x0, symName: __ZN6VSTGUI17kRegisteredSymbolE, symObjAddr: 0x85A0, symBinAddr: 0x1D06E8, symSize: 0x0 }
  - { offset: 0x3B28AE, size: 0x8, addend: 0x0, symName: __ZN6VSTGUI12kMicroSymbolE, symObjAddr: 0x85A8, symBinAddr: 0x1D06F0, symSize: 0x0 }
  - { offset: 0x3B28C8, size: 0x8, addend: 0x0, symName: __ZN6VSTGUI18kPerthousandSymbolE, symObjAddr: 0x85B0, symBinAddr: 0x1D06F8, symSize: 0x0 }
  - { offset: 0x3B28E2, size: 0x8, addend: 0x0, symName: __ZN6VSTGUI19kMsgViewSizeChangedE, symObjAddr: 0x85B8, symBinAddr: 0x1D0700, symSize: 0x0 }
  - { offset: 0x3B28F6, size: 0x8, addend: 0x0, symName: __ZN6VSTGUI5CView28kDirtyCallAlwaysOnMainThreadE, symObjAddr: 0x1216B8, symBinAddr: 0x1F7710, symSize: 0x0 }
  - { offset: 0x3CE8DF, size: 0x8, addend: 0x0, symName: __ZN6VSTGUI5CView8idleRateE, symObjAddr: 0x85C0, symBinAddr: 0x1D0708, symSize: 0x0 }
  - { offset: 0x3CE906, size: 0x8, addend: 0x0, symName: __ZN6VSTGUI13CViewInternal15IdleViewUpdaterC2Ev, symObjAddr: 0x5970, symBinAddr: 0xA53A0, symSize: 0x160 }
  - { offset: 0x3CF109, size: 0x8, addend: 0x0, symName: __ZNSt3__110unique_ptrIN6VSTGUI13CViewInternal15IdleViewUpdaterENS_14default_deleteIS3_EEED1B8ne180100Ev, symObjAddr: 0x0, symBinAddr: 0x9FD40, symSize: 0x10 }
  - { offset: 0x3CF169, size: 0x8, addend: 0x0, symName: __ZNSt3__110unique_ptrIN6VSTGUI13CViewInternal15IdleViewUpdaterENS_14default_deleteIS3_EEE5resetB8ne180100EPS3_, symObjAddr: 0x5CE0, symBinAddr: 0xA5630, symSize: 0xB0 }
  - { offset: 0x3CF8F3, size: 0x8, addend: 0x0, symName: __ZN6VSTGUI5CViewC2ERKNS_5CRectE, symObjAddr: 0x10, symBinAddr: 0x9FD50, symSize: 0xD0 }
  - { offset: 0x3CFCD4, size: 0x8, addend: 0x0, symName: __ZNSt3__110unique_ptrIN6VSTGUI5CView4ImplENS_14default_deleteIS3_EEED1B8ne180100Ev, symObjAddr: 0xE0, symBinAddr: 0x9FE20, symSize: 0x40 }
  - { offset: 0x3CFDE9, size: 0x8, addend: 0x0, symName: __ZN6VSTGUI5CView4ImplD2Ev, symObjAddr: 0x5F80, symBinAddr: 0xA56E0, symSize: 0x140 }
  - { offset: 0x3D0C2E, size: 0x8, addend: 0x0, symName: __ZN6VSTGUI5CView11setViewFlagEib, symObjAddr: 0x120, symBinAddr: 0x9FE60, symSize: 0x20 }
  - { offset: 0x3D0CA3, size: 0x8, addend: 0x0, symName: __ZN6VSTGUI5CViewC1ERKNS_5CRectE, symObjAddr: 0x140, symBinAddr: 0x9FE80, symSize: 0xA0 }
  - { offset: 0x3D1121, size: 0x8, addend: 0x0, symName: __ZN6VSTGUI5CViewC2ERKS0_, symObjAddr: 0x1E0, symBinAddr: 0x9FF20, symSize: 0x170 }
  - { offset: 0x3D1718, size: 0x8, addend: 0x0, symName: __ZNK6VSTGUI5CView16getMouseableAreaEv, symObjAddr: 0x350, symBinAddr: 0xA0090, symSize: 0x1A0 }
  - { offset: 0x3D1A7E, size: 0x8, addend: 0x0, symName: __ZNK6VSTGUI5CView14getHitTestPathEv, symObjAddr: 0x6A0, symBinAddr: 0xA03E0, symSize: 0x1B0 }
  - { offset: 0x3D1D50, size: 0x8, addend: 0x0, symName: __ZN6VSTGUI5CView14setHitTestPathEPNS_13CGraphicsPathE, symObjAddr: 0x4F0, symBinAddr: 0xA0230, symSize: 0x1B0 }
  - { offset: 0x3D2045, size: 0x8, addend: 0x0, symName: __ZNK6VSTGUI5CView13getBackgroundEv, symObjAddr: 0x850, symBinAddr: 0xA0590, symSize: 0x1C0 }
  - { offset: 0x3D2348, size: 0x8, addend: 0x0, symName: __ZNK6VSTGUI5CView21getDisabledBackgroundEv, symObjAddr: 0xA10, symBinAddr: 0xA0750, symSize: 0x1C0 }
  - { offset: 0x3D264B, size: 0x8, addend: 0x0, symName: __ZN6VSTGUI5CView12setAttributeEmjPKv, symObjAddr: 0xBD0, symBinAddr: 0xA0910, symSize: 0x280 }
  - { offset: 0x3D2F8B, size: 0x8, addend: 0x0, symName: __ZNSt3__112__hash_tableINS_17__hash_value_typeImNS_10unique_ptrIN6VSTGUI13CViewInternal14AttributeEntryENS_14default_deleteIS5_EEEEEENS_22__unordered_map_hasherImS9_NS_4hashImEENS_8equal_toImEELb1EEENS_21__unordered_map_equalImS9_SE_SC_Lb1EEENS_9allocatorIS9_EEE14__erase_uniqueImEEmRKT_, symObjAddr: 0x7D10, symBinAddr: 0xA6910, symSize: 0x1F0 }
  - { offset: 0x3D38BF, size: 0x8, addend: 0x0, symName: __ZNSt3__112__hash_tableINS_17__hash_value_typeImNS_10unique_ptrIN6VSTGUI13CViewInternal14AttributeEntryENS_14default_deleteIS5_EEEEEENS_22__unordered_map_hasherImS9_NS_4hashImEENS_8equal_toImEELb1EEENS_21__unordered_map_equalImS9_SE_SC_Lb1EEENS_9allocatorIS9_EEE25__emplace_unique_key_argsImJRKmS8_EEENS_4pairINS_15__hash_iteratorIPNS_11__hash_nodeIS9_PvEEEEbEERKT_DpOT0_, symObjAddr: 0x75E0, symBinAddr: 0xA63F0, symSize: 0x4C0 }
  - { offset: 0x3D40EA, size: 0x8, addend: 0x0, symName: __ZNSt3__110unique_ptrIN6VSTGUI13CViewInternal14AttributeEntryENS_14default_deleteIS3_EEED1B8ne180100Ev, symObjAddr: 0x4170, symBinAddr: 0xA3E20, symSize: 0x40 }
  - { offset: 0x3D422E, size: 0x8, addend: 0x0, symName: __ZN6VSTGUI5CViewC1ERKS0_, symObjAddr: 0xE50, symBinAddr: 0xA0B90, symSize: 0x140 }
  - { offset: 0x3D481D, size: 0x8, addend: 0x0, symName: __ZN6VSTGUI5CViewD2Ev, symObjAddr: 0xF90, symBinAddr: 0xA0CD0, symSize: 0x50 }
  - { offset: 0x3D4924, size: 0x8, addend: 0x0, symName: __ZN6VSTGUI5CViewD1Ev, symObjAddr: 0xFE0, symBinAddr: 0xA0D20, symSize: 0x40 }
  - { offset: 0x3D4A38, size: 0x8, addend: 0x0, symName: __ZN6VSTGUI5CViewD0Ev, symObjAddr: 0x1020, symBinAddr: 0xA0D60, symSize: 0x50 }
  - { offset: 0x3D4B8D, size: 0x8, addend: 0x0, symName: __ZN6VSTGUI5CView12beforeDeleteEv, symObjAddr: 0x1070, symBinAddr: 0xA0DB0, symSize: 0x410 }
  - { offset: 0x3D5919, size: 0x8, addend: 0x0, symName: __ZN6VSTGUI12DispatchListIPNS_13IViewListenerEE11postForEachEv, symObjAddr: 0x60C0, symBinAddr: 0xA5820, symSize: 0x3D0 }
  - { offset: 0x3D67FD, size: 0x8, addend: 0x0, symName: __ZN6VSTGUI5CView13setDropTargetERKNS_13SharedPointerINS_11IDropTargetEEE, symObjAddr: 0x1480, symBinAddr: 0xA11C0, symSize: 0x340 }
  - { offset: 0x3D6ED7, size: 0x8, addend: 0x0, symName: __ZN6VSTGUI5CView16setMouseableAreaERKNS_5CRectE, symObjAddr: 0x17F0, symBinAddr: 0xA1500, symSize: 0x1C0 }
  - { offset: 0x3D7217, size: 0x8, addend: 0x0, symName: __ZN6VSTGUI5CView15removeAttributeEm, symObjAddr: 0x19B0, symBinAddr: 0xA16C0, symSize: 0x1A0 }
  - { offset: 0x3D7431, size: 0x8, addend: 0x0, symName: __ZNK6VSTGUI5CView16getMouseableAreaERNS_5CRectE, symObjAddr: 0x1B50, symBinAddr: 0xA1860, symSize: 0x40 }
  - { offset: 0x3D7486, size: 0x8, addend: 0x0, symName: __ZNK6VSTGUI5CView11hasViewFlagEi, symObjAddr: 0x1B90, symBinAddr: 0xA18A0, symSize: 0x10 }
  - { offset: 0x3D74FF, size: 0x8, addend: 0x0, symName: __ZN6VSTGUI5CView15setMouseEnabledEb, symObjAddr: 0x1BA0, symBinAddr: 0xA18B0, symSize: 0x150 }
  - { offset: 0x3D7A87, size: 0x8, addend: 0x0, symName: __ZN6VSTGUI12DispatchListIPNS_18IViewMouseListenerEE11postForEachEv, symObjAddr: 0x6820, symBinAddr: 0xA5C10, symSize: 0x3D0 }
  - { offset: 0x3D897F, size: 0x8, addend: 0x0, symName: __ZN6VSTGUI5CView15setTransparencyEb, symObjAddr: 0x1CF0, symBinAddr: 0xA1A00, symSize: 0x40 }
  - { offset: 0x3D8AB1, size: 0x8, addend: 0x0, symName: __ZN6VSTGUI5CView13setWantsFocusEb, symObjAddr: 0x1D30, symBinAddr: 0xA1A40, symSize: 0x20 }
  - { offset: 0x3D8E99, size: 0x8, addend: 0x0, symName: __ZN6VSTGUI5CView12setWantsIdleEb, symObjAddr: 0x1D50, symBinAddr: 0xA1A60, symSize: 0x110 }
  - { offset: 0x3D9673, size: 0x8, addend: 0x0, symName: __ZN6VSTGUI5CView8setDirtyEb, symObjAddr: 0x1E60, symBinAddr: 0xA1B70, symSize: 0x80 }
  - { offset: 0x3D985E, size: 0x8, addend: 0x0, symName: __ZNK6VSTGUI5CView13getParentViewEv, symObjAddr: 0x1EE0, symBinAddr: 0xA1BF0, symSize: 0x10 }
  - { offset: 0x3D989D, size: 0x8, addend: 0x0, symName: __ZNK6VSTGUI5CView11getViewSizeEv, symObjAddr: 0x1EF0, symBinAddr: 0xA1C00, symSize: 0x10 }
  - { offset: 0x3D98F1, size: 0x8, addend: 0x0, symName: __ZN6VSTGUI5CView15setSubviewStateEb, symObjAddr: 0x1F00, symBinAddr: 0xA1C10, symSize: 0x60 }
  - { offset: 0x3D9A40, size: 0x8, addend: 0x0, symName: __ZN6VSTGUI5CView8attachedEPS0_, symObjAddr: 0x1F60, symBinAddr: 0xA1C70, symSize: 0x180 }
  - { offset: 0x3DA0D7, size: 0x8, addend: 0x0, symName: __ZNK6VSTGUI5CView8getFrameEv, symObjAddr: 0x20E0, symBinAddr: 0xA1DF0, symSize: 0x10 }
  - { offset: 0x3DA117, size: 0x8, addend: 0x0, symName: __ZN6VSTGUI5CView7removedEPS0_, symObjAddr: 0x20F0, symBinAddr: 0xA1E00, symSize: 0x110 }
  - { offset: 0x3DA5B5, size: 0x8, addend: 0x0, symName: __ZN6VSTGUI5CView16onMouseDownEventERNS_14MouseDownEventE, symObjAddr: 0x2200, symBinAddr: 0xA1F10, symSize: 0x50 }
  - { offset: 0x3DA639, size: 0x8, addend: 0x0, symName: __ZN6VSTGUI5CView16onMouseMoveEventERNS_14MouseMoveEventE, symObjAddr: 0x2250, symBinAddr: 0xA1F60, symSize: 0x50 }
  - { offset: 0x3DA6E1, size: 0x8, addend: 0x0, symName: __ZN6VSTGUI5CView14onMouseUpEventERNS_12MouseUpEventE, symObjAddr: 0x22A0, symBinAddr: 0xA1FB0, symSize: 0x50 }
  - { offset: 0x3DA78D, size: 0x8, addend: 0x0, symName: __ZN6VSTGUI5CView18onMouseCancelEventERNS_16MouseCancelEventE, symObjAddr: 0x22F0, symBinAddr: 0xA2000, symSize: 0x30 }
  - { offset: 0x3DA803, size: 0x8, addend: 0x0, symName: __ZN6VSTGUI5CView17onMouseEnterEventERNS_15MouseEnterEventE, symObjAddr: 0x2320, symBinAddr: 0xA2030, symSize: 0x50 }
  - { offset: 0x3DA8AF, size: 0x8, addend: 0x0, symName: __ZN6VSTGUI5CView16onMouseExitEventERNS_14MouseExitEventE, symObjAddr: 0x2370, symBinAddr: 0xA2080, symSize: 0x50 }
  - { offset: 0x3DA97F, size: 0x8, addend: 0x0, symName: __ZN6VSTGUI5CView17onMouseWheelEventERNS_15MouseWheelEventE, symObjAddr: 0x23C0, symBinAddr: 0xA20D0, symSize: 0xC0 }
  - { offset: 0x3DAAA9, size: 0x8, addend: 0x0, symName: __ZN6VSTGUI5CView15onKeyboardEventERNS_13KeyboardEventE, symObjAddr: 0x2480, symBinAddr: 0xA2190, symSize: 0x90 }
  - { offset: 0x3DAB6B, size: 0x8, addend: 0x0, symName: __ZN6VSTGUI5CView18onZoomGestureEventERNS_16ZoomGestureEventE, symObjAddr: 0x2510, symBinAddr: 0xA2220, symSize: 0x10 }
  - { offset: 0x3DABCE, size: 0x8, addend: 0x0, symName: __ZN6VSTGUI5CView13dispatchEventERNS_5EventE, symObjAddr: 0x2520, symBinAddr: 0xA2230, symSize: 0x190 }
  - { offset: 0x3DAF82, size: 0x8, addend: 0x0, symName: __ZN6VSTGUI12DispatchListIPNS_18IViewEventListenerEE11postForEachEv, symObjAddr: 0x6F00, symBinAddr: 0xA6000, symSize: 0x3D0 }
  - { offset: 0x3DBE66, size: 0x8, addend: 0x0, symName: __ZN6VSTGUI5CView11onMouseDownERNS_6CPointERKNS_12CButtonStateE, symObjAddr: 0x26B0, symBinAddr: 0xA23C0, symSize: 0x10 }
  - { offset: 0x3DBEA3, size: 0x8, addend: 0x0, symName: __ZN6VSTGUI5CView9onMouseUpERNS_6CPointERKNS_12CButtonStateE, symObjAddr: 0x26C0, symBinAddr: 0xA23D0, symSize: 0x10 }
  - { offset: 0x3DBEE0, size: 0x8, addend: 0x0, symName: __ZN6VSTGUI5CView12onMouseMovedERNS_6CPointERKNS_12CButtonStateE, symObjAddr: 0x26D0, symBinAddr: 0xA23E0, symSize: 0x10 }
  - { offset: 0x3DBF1D, size: 0x8, addend: 0x0, symName: __ZN6VSTGUI5CView13onMouseCancelEv, symObjAddr: 0x26E0, symBinAddr: 0xA23F0, symSize: 0x10 }
  - { offset: 0x3DBF8A, size: 0x8, addend: 0x0, symName: __ZN6VSTGUI5CView7hitTestERKNS_6CPointERKNS_5EventE, symObjAddr: 0x26F0, symBinAddr: 0xA2400, symSize: 0x60 }
  - { offset: 0x3DC0F2, size: 0x8, addend: 0x0, symName: __ZN6VSTGUI5CView7hitTestERKNS_6CPointERKNS_12CButtonStateE, symObjAddr: 0x2750, symBinAddr: 0xA2460, symSize: 0x90 }
  - { offset: 0x3DC240, size: 0x8, addend: 0x0, symName: __ZNK6VSTGUI5CView12frameToLocalERNS_6CPointE, symObjAddr: 0x27E0, symBinAddr: 0xA24F0, symSize: 0x30 }
  - { offset: 0x3DC2A5, size: 0x8, addend: 0x0, symName: __ZNK6VSTGUI5CView12localToFrameERNS_6CPointE, symObjAddr: 0x2810, symBinAddr: 0xA2520, symSize: 0x30 }
  - { offset: 0x3DC905, size: 0x8, addend: 0x0, symName: __ZNK6VSTGUI5CView18getGlobalTransformEb, symObjAddr: 0x2840, symBinAddr: 0xA2550, symSize: 0x2F0 }
  - { offset: 0x3DD245, size: 0x8, addend: 0x0, symName: __ZN6VSTGUI5CView11invalidRectERKNS_5CRectE, symObjAddr: 0x2B90, symBinAddr: 0xA2840, symSize: 0x60 }
  - { offset: 0x3DD38D, size: 0x8, addend: 0x0, symName: __ZN6VSTGUI5CView4drawEPNS_12CDrawContextE, symObjAddr: 0x2BF0, symBinAddr: 0xA28A0, symSize: 0xA0 }
  - { offset: 0x3DD69A, size: 0x8, addend: 0x0, symName: __ZNK6VSTGUI5CView17getDrawBackgroundEv, symObjAddr: 0x2C90, symBinAddr: 0xA2940, symSize: 0x30 }
  - { offset: 0x3DD7A4, size: 0x8, addend: 0x0, symName: __ZN6VSTGUI5CView7onWheelERKNS_6CPointERKNS_15CMouseWheelAxisERKfRKNS_12CButtonStateE, symObjAddr: 0x2CC0, symBinAddr: 0xA2970, symSize: 0x10 }
  - { offset: 0x3DD7F9, size: 0x8, addend: 0x0, symName: __ZN6VSTGUI5CView9onKeyDownER10VstKeyCode, symObjAddr: 0x2CD0, symBinAddr: 0xA2980, symSize: 0x10 }
  - { offset: 0x3DD82A, size: 0x8, addend: 0x0, symName: __ZN6VSTGUI5CView7onKeyUpER10VstKeyCode, symObjAddr: 0x2CE0, symBinAddr: 0xA2990, symSize: 0x10 }
  - { offset: 0x3DD85B, size: 0x8, addend: 0x0, symName: __ZN6VSTGUI5CView6doDragEPNS_12IDataPackageERKNS_6CPointEPNS_7CBitmapE, symObjAddr: 0x2CF0, symBinAddr: 0xA29A0, symSize: 0x60 }
  - { offset: 0x3DD930, size: 0x8, addend: 0x0, symName: __ZN6VSTGUI5CView6doDragERKNS_15DragDescriptionERKNS_13SharedPointerINS_13IDragCallbackEEE, symObjAddr: 0x2D50, symBinAddr: 0xA2A00, symSize: 0x20 }
  - { offset: 0x3DD9CD, size: 0x8, addend: 0x0, symName: __ZN6VSTGUI5CView6notifyEPNS_11CBaseObjectEPKc, symObjAddr: 0x2D70, symBinAddr: 0xA2A20, symSize: 0x10 }
  - { offset: 0x3DDA0A, size: 0x8, addend: 0x0, symName: __ZN6VSTGUI5CView10looseFocusEv, symObjAddr: 0x2D80, symBinAddr: 0xA2A30, symSize: 0x90 }
  - { offset: 0x3DDC31, size: 0x8, addend: 0x0, symName: __ZN6VSTGUI5CView9takeFocusEv, symObjAddr: 0x2E10, symBinAddr: 0xA2AC0, symSize: 0x90 }
  - { offset: 0x3DDE79, size: 0x8, addend: 0x0, symName: __ZN6VSTGUI5CView11setViewSizeERKNS_5CRectEb, symObjAddr: 0x2EA0, symBinAddr: 0xA2B50, symSize: 0x140 }
  - { offset: 0x3DE284, size: 0x8, addend: 0x0, symName: __ZNK6VSTGUI5CView18getVisibleViewSizeEv, symObjAddr: 0x2FE0, symBinAddr: 0xA2C90, symSize: 0x40 }
  - { offset: 0x3DE368, size: 0x8, addend: 0x0, symName: __ZN6VSTGUI5CView10setVisibleEb, symObjAddr: 0x3020, symBinAddr: 0xA2CD0, symSize: 0x50 }
  - { offset: 0x3DE520, size: 0x8, addend: 0x0, symName: __ZN6VSTGUI5CView25setAlphaValueNoInvalidateEf, symObjAddr: 0x3070, symBinAddr: 0xA2D20, symSize: 0x1A0 }
  - { offset: 0x3DE8D2, size: 0x8, addend: 0x0, symName: __ZN6VSTGUI5CView13setAlphaValueEf, symObjAddr: 0x3210, symBinAddr: 0xA2EC0, symSize: 0x370 }
  - { offset: 0x3DEF61, size: 0x8, addend: 0x0, symName: __ZNK6VSTGUI5CView13getAlphaValueEv, symObjAddr: 0x3580, symBinAddr: 0xA3230, symSize: 0x190 }
  - { offset: 0x3DF278, size: 0x8, addend: 0x0, symName: __ZN6VSTGUI5CView16setAutosizeFlagsEi, symObjAddr: 0x3710, symBinAddr: 0xA33C0, symSize: 0x10 }
  - { offset: 0x3DF2CF, size: 0x8, addend: 0x0, symName: __ZNK6VSTGUI5CView16getAutosizeFlagsEv, symObjAddr: 0x3720, symBinAddr: 0xA33D0, symSize: 0x10 }
  - { offset: 0x3DF317, size: 0x8, addend: 0x0, symName: __ZN6VSTGUI5CView14setParentFrameEPNS_6CFrameE, symObjAddr: 0x3730, symBinAddr: 0xA33E0, symSize: 0x10 }
  - { offset: 0x3DF36E, size: 0x8, addend: 0x0, symName: __ZN6VSTGUI5CView13setParentViewEPS0_, symObjAddr: 0x3740, symBinAddr: 0xA33F0, symSize: 0x10 }
  - { offset: 0x3DF3C5, size: 0x8, addend: 0x0, symName: __ZNK6VSTGUI5CView9getEditorEv, symObjAddr: 0x3750, symBinAddr: 0xA3400, symSize: 0x20 }
  - { offset: 0x3DF44E, size: 0x8, addend: 0x0, symName: __ZN6VSTGUI5CView13setBackgroundEPNS_7CBitmapE, symObjAddr: 0x3770, symBinAddr: 0xA3420, symSize: 0x370 }
  - { offset: 0x3DFB8D, size: 0x8, addend: 0x0, symName: __ZN6VSTGUI5CView21setDisabledBackgroundEPNS_7CBitmapE, symObjAddr: 0x3AE0, symBinAddr: 0xA3790, symSize: 0x370 }
  - { offset: 0x3E0268, size: 0x8, addend: 0x0, symName: __ZNK6VSTGUI5CView16getAttributeSizeEmRj, symObjAddr: 0x3E50, symBinAddr: 0xA3B00, symSize: 0x180 }
  - { offset: 0x3E048E, size: 0x8, addend: 0x0, symName: __ZNK6VSTGUI5CView12getAttributeEmjPvRj, symObjAddr: 0x3FD0, symBinAddr: 0xA3C80, symSize: 0x1A0 }
  - { offset: 0x3E06E7, size: 0x8, addend: 0x0, symName: __ZN6VSTGUI5CView12addAnimationEPKcPNS_9Animation16IAnimationTargetEPNS3_15ITimingFunctionEPNS_11CBaseObjectE, symObjAddr: 0x41B0, symBinAddr: 0xA3E60, symSize: 0x90 }
  - { offset: 0x3E0939, size: 0x8, addend: 0x0, symName: __ZN6VSTGUI5CView12addAnimationEPKcPNS_9Animation16IAnimationTargetEPNS3_15ITimingFunctionERKNSt3__18functionIFvPS0_S2_S5_EEEb, symObjAddr: 0x4240, symBinAddr: 0xA3EF0, symSize: 0x170 }
  - { offset: 0x3E0C7D, size: 0x8, addend: 0x0, symName: __ZN6VSTGUI5CView15removeAnimationEPKc, symObjAddr: 0x43B0, symBinAddr: 0xA4060, symSize: 0x40 }
  - { offset: 0x3E0CF6, size: 0x8, addend: 0x0, symName: __ZN6VSTGUI5CView19removeAllAnimationsEv, symObjAddr: 0x43F0, symBinAddr: 0xA40A0, symSize: 0x40 }
  - { offset: 0x3E0E17, size: 0x8, addend: 0x0, symName: __ZN6VSTGUI5CView20registerViewListenerEPNS_13IViewListenerE, symObjAddr: 0x4430, symBinAddr: 0xA40E0, symSize: 0x60 }
  - { offset: 0x3E0F7D, size: 0x8, addend: 0x0, symName: __ZN6VSTGUI12DispatchListIPNS_13IViewListenerEE3addERKS2_, symObjAddr: 0x4490, symBinAddr: 0xA4140, symSize: 0x2F0 }
  - { offset: 0x3E21EA, size: 0x8, addend: 0x0, symName: __ZNKSt3__16vectorIPN6VSTGUI13IViewListenerENS_9allocatorIS3_EEE20__throw_length_errorB8ne180100Ev, symObjAddr: 0x6780, symBinAddr: 0xA5BF0, symSize: 0x10 }
  - { offset: 0x3E221F, size: 0x8, addend: 0x0, symName: __ZNKSt3__16vectorINS_4pairIbPN6VSTGUI13IViewListenerEEENS_9allocatorIS5_EEE20__throw_length_errorB8ne180100Ev, symObjAddr: 0x6810, symBinAddr: 0xA5C00, symSize: 0x10 }
  - { offset: 0x3E2249, size: 0x8, addend: 0x0, symName: __ZN6VSTGUI12DispatchListIPNS_18IViewMouseListenerEE11postForEachEv, symObjAddr: 0x6820, symBinAddr: 0xA5C10, symSize: 0x3D0 }
  - { offset: 0x3E2446, size: 0x8, addend: 0x0, symName: __ZN6VSTGUI5CView22unregisterViewListenerEPNS_13IViewListenerE, symObjAddr: 0x4780, symBinAddr: 0xA4430, symSize: 0x80 }
  - { offset: 0x3E2823, size: 0x8, addend: 0x0, symName: __ZN6VSTGUI5CView25registerViewEventListenerEPNS_18IViewEventListenerE, symObjAddr: 0x4800, symBinAddr: 0xA44B0, symSize: 0x60 }
  - { offset: 0x3E2989, size: 0x8, addend: 0x0, symName: __ZN6VSTGUI12DispatchListIPNS_18IViewEventListenerEE3addERKS2_, symObjAddr: 0x4860, symBinAddr: 0xA4510, symSize: 0x2F0 }
  - { offset: 0x3E3BDD, size: 0x8, addend: 0x0, symName: __ZNKSt3__16vectorIPN6VSTGUI18IViewEventListenerENS_9allocatorIS3_EEE20__throw_length_errorB8ne180100Ev, symObjAddr: 0x75C0, symBinAddr: 0xA63D0, symSize: 0x10 }
  - { offset: 0x3E3C07, size: 0x8, addend: 0x0, symName: __ZNKSt3__16vectorINS_4pairIbPN6VSTGUI18IViewEventListenerEEENS_9allocatorIS5_EEE20__throw_length_errorB8ne180100Ev, symObjAddr: 0x75D0, symBinAddr: 0xA63E0, symSize: 0x10 }
  - { offset: 0x3E3C12, size: 0x8, addend: 0x0, symName: __ZNKSt3__16vectorINS_4pairIbPN6VSTGUI18IViewEventListenerEEENS_9allocatorIS5_EEE20__throw_length_errorB8ne180100Ev, symObjAddr: 0x75D0, symBinAddr: 0xA63E0, symSize: 0x10 }
  - { offset: 0x3E3C3C, size: 0x8, addend: 0x0, symName: __ZNSt3__112__hash_tableINS_17__hash_value_typeImNS_10unique_ptrIN6VSTGUI13CViewInternal14AttributeEntryENS_14default_deleteIS5_EEEEEENS_22__unordered_map_hasherImS9_NS_4hashImEENS_8equal_toImEELb1EEENS_21__unordered_map_equalImS9_SE_SC_Lb1EEENS_9allocatorIS9_EEE25__emplace_unique_key_argsImJRKmS8_EEENS_4pairINS_15__hash_iteratorIPNS_11__hash_nodeIS9_PvEEEEbEERKT_DpOT0_, symObjAddr: 0x75E0, symBinAddr: 0xA63F0, symSize: 0x4C0 }
  - { offset: 0x3E3E3B, size: 0x8, addend: 0x0, symName: __ZN6VSTGUI5CView27unregisterViewEventListenerEPNS_18IViewEventListenerE, symObjAddr: 0x4B50, symBinAddr: 0xA4800, symSize: 0x80 }
  - { offset: 0x3E421D, size: 0x8, addend: 0x0, symName: __ZN6VSTGUI5CView25registerViewMouseListenerEPNS_18IViewMouseListenerE, symObjAddr: 0x4BD0, symBinAddr: 0xA4880, symSize: 0x60 }
  - { offset: 0x3E4383, size: 0x8, addend: 0x0, symName: __ZN6VSTGUI12DispatchListIPNS_18IViewMouseListenerEE3addERKS2_, symObjAddr: 0x4C30, symBinAddr: 0xA48E0, symSize: 0x2F0 }
  - { offset: 0x3E55DC, size: 0x8, addend: 0x0, symName: __ZNKSt3__16vectorIPN6VSTGUI18IViewMouseListenerENS_9allocatorIS3_EEE20__throw_length_errorB8ne180100Ev, symObjAddr: 0x6EE0, symBinAddr: 0xA5FE0, symSize: 0x10 }
  - { offset: 0x3E5606, size: 0x8, addend: 0x0, symName: __ZNKSt3__16vectorINS_4pairIbPN6VSTGUI18IViewMouseListenerEEENS_9allocatorIS5_EEE20__throw_length_errorB8ne180100Ev, symObjAddr: 0x6EF0, symBinAddr: 0xA5FF0, symSize: 0x10 }
  - { offset: 0x3E5611, size: 0x8, addend: 0x0, symName: __ZNKSt3__16vectorINS_4pairIbPN6VSTGUI18IViewMouseListenerEEENS_9allocatorIS5_EEE20__throw_length_errorB8ne180100Ev, symObjAddr: 0x6EF0, symBinAddr: 0xA5FF0, symSize: 0x10 }
  - { offset: 0x3E563B, size: 0x8, addend: 0x0, symName: __ZN6VSTGUI12DispatchListIPNS_18IViewEventListenerEE11postForEachEv, symObjAddr: 0x6F00, symBinAddr: 0xA6000, symSize: 0x3D0 }
  - { offset: 0x3E5838, size: 0x8, addend: 0x0, symName: __ZN6VSTGUI5CView27unregisterViewMouseListenerEPNS_18IViewMouseListenerE, symObjAddr: 0x4F20, symBinAddr: 0xA4BD0, symSize: 0x80 }
  - { offset: 0x3E5B4D, size: 0x8, addend: 0x0, symName: __ZN6VSTGUI5CView17callMouseListenerENS0_17MouseListenerCallENS_6CPointENS_12CButtonStateE, symObjAddr: 0x4FA0, symBinAddr: 0xA4C50, symSize: 0x1C0 }
  - { offset: 0x3E5FFB, size: 0x8, addend: 0x0, symName: __ZN6VSTGUI5CView30callMouseListenerEnteredExitedEb, symObjAddr: 0x5160, symBinAddr: 0xA4E10, symSize: 0xA0 }
  - { offset: 0x3E6225, size: 0x8, addend: 0x0, symName: __ZN6VSTGUI5CView13getDropTargetEv, symObjAddr: 0x5200, symBinAddr: 0xA4EB0, symSize: 0x1D0 }
  - { offset: 0x3E65C3, size: 0x8, addend: 0x0, symName: __ZN6VSTGUI5CView14setTooltipTextEPKc, symObjAddr: 0x53D0, symBinAddr: 0xA5080, symSize: 0x190 }
  - { offset: 0x3E684B, size: 0x8, addend: 0x0, symName: __ZN6VSTGUI20CDragContainerHelperC2EPNS_12IDataPackageE, symObjAddr: 0x5560, symBinAddr: 0xA5210, symSize: 0x40 }
  - { offset: 0x3E68B1, size: 0x8, addend: 0x0, symName: __ZN6VSTGUI20CDragContainerHelperC1EPNS_12IDataPackageE, symObjAddr: 0x55A0, symBinAddr: 0xA5250, symSize: 0x40 }
  - { offset: 0x3E6967, size: 0x8, addend: 0x0, symName: __ZN6VSTGUI20CDragContainerHelper5firstERiS1_, symObjAddr: 0x55E0, symBinAddr: 0xA5290, symSize: 0x70 }
  - { offset: 0x3E6A06, size: 0x8, addend: 0x0, symName: __ZN6VSTGUI20CDragContainerHelper4nextERiS1_, symObjAddr: 0x5650, symBinAddr: 0xA5300, symSize: 0x60 }
  - { offset: 0x3E6A64, size: 0x8, addend: 0x0, symName: __ZNK6VSTGUI20CDragContainerHelper7getTypeEi, symObjAddr: 0x56B0, symBinAddr: 0xA5360, symSize: 0x30 }
  - { offset: 0x3E6AD4, size: 0x8, addend: 0x0, symName: __ZNK6VSTGUI20CDragContainerHelper8getCountEv, symObjAddr: 0x56E0, symBinAddr: 0xA5390, symSize: 0x10 }
  - { offset: 0x3E72A8, size: 0x8, addend: 0x0, symName: __ZNSt3__110__function6__funcIZN6VSTGUI13CViewInternal15IdleViewUpdaterC1EvEUlPNS2_12CVSTGUITimerEE_NS_9allocatorIS7_EEFvS6_EED1Ev, symObjAddr: 0x5B70, symBinAddr: 0xA5500, symSize: 0x10 }
  - { offset: 0x3E72D3, size: 0x8, addend: 0x0, symName: __ZNSt3__110__function6__funcIZN6VSTGUI13CViewInternal15IdleViewUpdaterC1EvEUlPNS2_12CVSTGUITimerEE_NS_9allocatorIS7_EEFvS6_EED0Ev, symObjAddr: 0x5B80, symBinAddr: 0xA5510, symSize: 0x10 }
  - { offset: 0x3E74CE, size: 0x8, addend: 0x0, symName: __ZNKSt3__110__function6__funcIZN6VSTGUI13CViewInternal15IdleViewUpdaterC1EvEUlPNS2_12CVSTGUITimerEE_NS_9allocatorIS7_EEFvS6_EE7__cloneEv, symObjAddr: 0x5B90, symBinAddr: 0xA5520, symSize: 0x30 }
  - { offset: 0x3E77F2, size: 0x8, addend: 0x0, symName: __ZNKSt3__110__function6__funcIZN6VSTGUI13CViewInternal15IdleViewUpdaterC1EvEUlPNS2_12CVSTGUITimerEE_NS_9allocatorIS7_EEFvS6_EE7__cloneEPNS0_6__baseISA_EE, symObjAddr: 0x5BC0, symBinAddr: 0xA5550, symSize: 0x20 }
  - { offset: 0x3E7971, size: 0x8, addend: 0x0, symName: __ZNSt3__110__function6__funcIZN6VSTGUI13CViewInternal15IdleViewUpdaterC1EvEUlPNS2_12CVSTGUITimerEE_NS_9allocatorIS7_EEFvS6_EE7destroyEv, symObjAddr: 0x5BE0, symBinAddr: 0xA5570, symSize: 0x10 }
  - { offset: 0x3E79C2, size: 0x8, addend: 0x0, symName: __ZNSt3__110__function6__funcIZN6VSTGUI13CViewInternal15IdleViewUpdaterC1EvEUlPNS2_12CVSTGUITimerEE_NS_9allocatorIS7_EEFvS6_EE18destroy_deallocateEv, symObjAddr: 0x5BF0, symBinAddr: 0xA5580, symSize: 0x10 }
  - { offset: 0x3E7B82, size: 0x8, addend: 0x0, symName: __ZNSt3__110__function6__funcIZN6VSTGUI13CViewInternal15IdleViewUpdaterC1EvEUlPNS2_12CVSTGUITimerEE_NS_9allocatorIS7_EEFvS6_EEclEOS6_, symObjAddr: 0x5C00, symBinAddr: 0xA5590, symSize: 0x70 }
  - { offset: 0x3E7D7D, size: 0x8, addend: 0x0, symName: __ZNKSt3__110__function6__funcIZN6VSTGUI13CViewInternal15IdleViewUpdaterC1EvEUlPNS2_12CVSTGUITimerEE_NS_9allocatorIS7_EEFvS6_EE6targetERKSt9type_info, symObjAddr: 0x5C70, symBinAddr: 0xA5600, symSize: 0x20 }
  - { offset: 0x3E7DF1, size: 0x8, addend: 0x0, symName: __ZNKSt3__110__function6__funcIZN6VSTGUI13CViewInternal15IdleViewUpdaterC1EvEUlPNS2_12CVSTGUITimerEE_NS_9allocatorIS7_EEFvS6_EE11target_typeEv, symObjAddr: 0x5C90, symBinAddr: 0xA5620, symSize: 0x10 }
  - { offset: 0x3EA907, size: 0x8, addend: 0x0, symName: __ZNSt3__110unique_ptrINS_11__hash_nodeINS_17__hash_value_typeImNS0_IN6VSTGUI13CViewInternal14AttributeEntryENS_14default_deleteIS5_EEEEEEPvEENS_22__hash_node_destructorINS_9allocatorISB_EEEEED1B8ne180100Ev, symObjAddr: 0x7AA0, symBinAddr: 0xA68B0, symSize: 0x60 }
  - { offset: 0x3EAD60, size: 0x8, addend: 0x0, symName: __ZNSt3__112__hash_tableINS_17__hash_value_typeImNS_10unique_ptrIN6VSTGUI13CViewInternal14AttributeEntryENS_14default_deleteIS5_EEEEEENS_22__unordered_map_hasherImS9_NS_4hashImEENS_8equal_toImEELb1EEENS_21__unordered_map_equalImS9_SE_SC_Lb1EEENS_9allocatorIS9_EEE6removeENS_21__hash_const_iteratorIPNS_11__hash_nodeIS9_PvEEEE, symObjAddr: 0x7F00, symBinAddr: 0xA6B00, symSize: 0x1E7 }
  - { offset: 0x3ECFAE, size: 0x8, addend: 0x0, symName: __ZN6VSTGUI14kMsgLooseFocusE, symObjAddr: 0x6FC8, symBinAddr: 0x1D0710, symSize: 0x0 }
  - { offset: 0x3FD0B4, size: 0x8, addend: 0x0, symName: __ZN6VSTGUI14CViewContainer23dispatchEventToSubViewsERNS_5EventE, symObjAddr: 0x3970, symBinAddr: 0xAA660, symSize: 0x260 }
  - { offset: 0x3FD57D, size: 0x8, addend: 0x0, symName: __ZN6VSTGUI14CViewContainer16onMouseDownEventERNS_14MouseDownEventE, symObjAddr: 0x3BF0, symBinAddr: 0xAA8E0, symSize: 0x3C0 }
  - { offset: 0x3FDD04, size: 0x8, addend: 0x0, symName: __ZN6VSTGUI14CViewContainer16onMouseMoveEventERNS_14MouseMoveEventE, symObjAddr: 0x3FB0, symBinAddr: 0xAACA0, symSize: 0x250 }
  - { offset: 0x3FE1A6, size: 0x8, addend: 0x0, symName: __ZN6VSTGUI14CViewContainer14onMouseUpEventERNS_12MouseUpEventE, symObjAddr: 0x4200, symBinAddr: 0xAAEF0, symSize: 0x230 }
  - { offset: 0x3FEA07, size: 0x8, addend: 0x0, symName: __ZN6VSTGUI14CViewContainerC2ERKNS_5CRectE, symObjAddr: 0x0, symBinAddr: 0xA6D10, symSize: 0x100 }
  - { offset: 0x3FED97, size: 0x8, addend: 0x0, symName: __ZNKSt3__114default_deleteIN6VSTGUI14CViewContainer4ImplEEclB8ne180100EPS3_, symObjAddr: 0x5EF0, symBinAddr: 0xAC8E0, symSize: 0xC0 }
  - { offset: 0x3FF318, size: 0x8, addend: 0x0, symName: __ZN6VSTGUI14CViewContainerC1ERKNS_5CRectE, symObjAddr: 0x100, symBinAddr: 0xA6E10, symSize: 0x100 }
  - { offset: 0x3FF72C, size: 0x8, addend: 0x0, symName: __ZN6VSTGUI14CViewContainerC2ERKS0_, symObjAddr: 0x200, symBinAddr: 0xA6F10, symSize: 0x190 }
  - { offset: 0x3FFBF8, size: 0x8, addend: 0x0, symName: __ZNK6VSTGUI14CViewContainer12getTransformEv, symObjAddr: 0x390, symBinAddr: 0xA70A0, symSize: 0x10 }
  - { offset: 0x3FFC38, size: 0x8, addend: 0x0, symName: __ZN6VSTGUI14CViewContainerC1ERKS0_, symObjAddr: 0x3A0, symBinAddr: 0xA70B0, symSize: 0x1A0 }
  - { offset: 0x400146, size: 0x8, addend: 0x0, symName: __ZN6VSTGUI14CViewContainerD2Ev, symObjAddr: 0x540, symBinAddr: 0xA7250, symSize: 0x90 }
  - { offset: 0x40027F, size: 0x8, addend: 0x0, symName: __ZN6VSTGUI14CViewContainerD1Ev, symObjAddr: 0x5E0, symBinAddr: 0xA72E0, symSize: 0x80 }
  - { offset: 0x4003C0, size: 0x8, addend: 0x0, symName: __ZN6VSTGUI14CViewContainerD0Ev, symObjAddr: 0x660, symBinAddr: 0xA7360, symSize: 0x90 }
  - { offset: 0x40054D, size: 0x8, addend: 0x0, symName: __ZN6VSTGUI14CViewContainer12beforeDeleteEv, symObjAddr: 0x6F0, symBinAddr: 0xA73F0, symSize: 0x80 }
  - { offset: 0x4005E3, size: 0x8, addend: 0x0, symName: __ZN6VSTGUI14CViewContainer9removeAllEb, symObjAddr: 0x770, symBinAddr: 0xA7470, symSize: 0x1C0 }
  - { offset: 0x400DE4, size: 0x8, addend: 0x0, symName: __ZN6VSTGUI12DispatchListIPNS_22IViewContainerListenerEE11postForEachEv, symObjAddr: 0x6090, symBinAddr: 0xAC9C0, symSize: 0x3D0 }
  - { offset: 0x401CC8, size: 0x8, addend: 0x0, symName: __ZN6VSTGUI14CViewContainer29registerViewContainerListenerEPNS_22IViewContainerListenerE, symObjAddr: 0x930, symBinAddr: 0xA7630, symSize: 0x20 }
  - { offset: 0x401D32, size: 0x8, addend: 0x0, symName: __ZN6VSTGUI12DispatchListIPNS_22IViewContainerListenerEE3addERKS2_, symObjAddr: 0x950, symBinAddr: 0xA7650, symSize: 0x2F0 }
  - { offset: 0x402F9F, size: 0x8, addend: 0x0, symName: __ZNKSt3__16vectorIPN6VSTGUI22IViewContainerListenerENS_9allocatorIS3_EEE20__throw_length_errorB8ne180100Ev, symObjAddr: 0x5FB0, symBinAddr: 0xAC9A0, symSize: 0x10 }
  - { offset: 0x402FD4, size: 0x8, addend: 0x0, symName: __ZNKSt3__16vectorINS_4pairIbPN6VSTGUI22IViewContainerListenerEEENS_9allocatorIS5_EEE20__throw_length_errorB8ne180100Ev, symObjAddr: 0x6080, symBinAddr: 0xAC9B0, symSize: 0x10 }
  - { offset: 0x402FFE, size: 0x8, addend: 0x0, symName: __ZN6VSTGUI12DispatchListIPNS_22IViewContainerListenerEE11postForEachEv, symObjAddr: 0x6090, symBinAddr: 0xAC9C0, symSize: 0x3D0 }
  - { offset: 0x4031FB, size: 0x8, addend: 0x0, symName: __ZN6VSTGUI14CViewContainer31unregisterViewContainerListenerEPNS_22IViewContainerListenerE, symObjAddr: 0xC40, symBinAddr: 0xA7940, symSize: 0x80 }
  - { offset: 0x4034EA, size: 0x8, addend: 0x0, symName: __ZN6VSTGUI14CViewContainer17parentSizeChangedEv, symObjAddr: 0xCC0, symBinAddr: 0xA79C0, symSize: 0x40 }
  - { offset: 0x4037A6, size: 0x8, addend: 0x0, symName: __ZN6VSTGUI14CViewContainer16setMouseDownViewEPNS_5CViewE, symObjAddr: 0xD00, symBinAddr: 0xA7A00, symSize: 0x110 }
  - { offset: 0x403A4C, size: 0x8, addend: 0x0, symName: __ZNK6VSTGUI14CViewContainer16getMouseDownViewEv, symObjAddr: 0xE10, symBinAddr: 0xA7B10, symSize: 0x50 }
  - { offset: 0x403AB1, size: 0x8, addend: 0x0, symName: __ZN6VSTGUI14CViewContainer18clearMouseDownViewEv, symObjAddr: 0xE60, symBinAddr: 0xA7B60, symSize: 0x10 }
  - { offset: 0x403B43, size: 0x8, addend: 0x0, symName: __ZNK6VSTGUI14CViewContainer17getLastDrawnFocusEv, symObjAddr: 0xE70, symBinAddr: 0xA7B70, symSize: 0x60 }
  - { offset: 0x403C57, size: 0x8, addend: 0x0, symName: __ZN6VSTGUI14CViewContainer17setLastDrawnFocusENS_5CRectE, symObjAddr: 0xED0, symBinAddr: 0xA7BD0, symSize: 0x40 }
  - { offset: 0x403CCC, size: 0x8, addend: 0x0, symName: __ZNK6VSTGUI14CViewContainer11getChildrenEv, symObjAddr: 0xF10, symBinAddr: 0xA7C10, symSize: 0x10 }
  - { offset: 0x403D33, size: 0x8, addend: 0x0, symName: __ZN6VSTGUI14CViewContainer12setTransformERKNS_18CGraphicsTransformE, symObjAddr: 0xF20, symBinAddr: 0xA7C20, symSize: 0xF0 }
  - { offset: 0x403F9C, size: 0x8, addend: 0x0, symName: __ZN6VSTGUI14CViewContainer20setAutosizingEnabledEb, symObjAddr: 0x1010, symBinAddr: 0xA7D10, symSize: 0x20 }
  - { offset: 0x40411F, size: 0x8, addend: 0x0, symName: __ZN6VSTGUI14CViewContainer11setViewSizeERKNS_5CRectEb, symObjAddr: 0x1030, symBinAddr: 0xA7D30, symSize: 0x500 }
  - { offset: 0x4046DE, size: 0x8, addend: 0x0, symName: __ZNK6VSTGUI14CViewContainer14getVisibleSizeERKNS_5CRectE, symObjAddr: 0x1530, symBinAddr: 0xA8230, symSize: 0x2B0 }
  - { offset: 0x404891, size: 0x8, addend: 0x0, symName: __ZN6VSTGUI14CViewContainer9sizeToFitEv, symObjAddr: 0x17E0, symBinAddr: 0xA84E0, symSize: 0x1E0 }
  - { offset: 0x404A7A, size: 0x8, addend: 0x0, symName: __ZN6VSTGUI14CViewContainer18setBackgroundColorERKNS_6CColorE, symObjAddr: 0x19C0, symBinAddr: 0xA86C0, symSize: 0x70 }
  - { offset: 0x404B6B, size: 0x8, addend: 0x0, symName: __ZNK6VSTGUI14CViewContainer18getBackgroundColorEv, symObjAddr: 0x1A30, symBinAddr: 0xA8730, symSize: 0x20 }
  - { offset: 0x404C53, size: 0x8, addend: 0x0, symName: __ZN6VSTGUI14CViewContainer19setBackgroundOffsetERKNS_6CPointE, symObjAddr: 0x1A50, symBinAddr: 0xA8750, symSize: 0x50 }
  - { offset: 0x404D52, size: 0x8, addend: 0x0, symName: __ZNK6VSTGUI14CViewContainer19getBackgroundOffsetEv, symObjAddr: 0x1AA0, symBinAddr: 0xA87A0, symSize: 0x50 }
  - { offset: 0x404E07, size: 0x8, addend: 0x0, symName: __ZN6VSTGUI14CViewContainer27setBackgroundColorDrawStyleENS_10CDrawStyleE, symObjAddr: 0x1AF0, symBinAddr: 0xA87F0, symSize: 0x30 }
  - { offset: 0x404E72, size: 0x8, addend: 0x0, symName: __ZNK6VSTGUI14CViewContainer27getBackgroundColorDrawStyleEv, symObjAddr: 0x1B20, symBinAddr: 0xA8820, symSize: 0x10 }
  - { offset: 0x404F56, size: 0x8, addend: 0x0, symName: __ZN6VSTGUI14CViewContainer6notifyEPNS_11CBaseObjectEPKc, symObjAddr: 0x1B30, symBinAddr: 0xA8830, symSize: 0x180 }
  - { offset: 0x40567B, size: 0x8, addend: 0x0, symName: __ZN6VSTGUI14CViewContainer7addViewEPNS_5CViewES2_, symObjAddr: 0x1CB0, symBinAddr: 0xA89B0, symSize: 0x200 }
  - { offset: 0x405FB1, size: 0x8, addend: 0x0, symName: __ZN6VSTGUI14CViewContainer7addViewEPNS_5CViewERKNS_5CRectEb, symObjAddr: 0x1EB0, symBinAddr: 0xA8BB0, symSize: 0x60 }
  - { offset: 0x406057, size: 0x8, addend: 0x0, symName: __ZN6VSTGUI14CViewContainer10removeViewEPNS_5CViewEb, symObjAddr: 0x1F10, symBinAddr: 0xA8C10, symSize: 0x1A0 }
  - { offset: 0x406623, size: 0x8, addend: 0x0, symName: __ZNK6VSTGUI14CViewContainer7isChildEPNS_5CViewE, symObjAddr: 0x20B0, symBinAddr: 0xA8DB0, symSize: 0x20 }
  - { offset: 0x40668E, size: 0x8, addend: 0x0, symName: __ZNK6VSTGUI14CViewContainer7isChildEPNS_5CViewEb, symObjAddr: 0x20D0, symBinAddr: 0xA8DD0, symSize: 0xD0 }
  - { offset: 0x406929, size: 0x8, addend: 0x0, symName: __ZNK6VSTGUI14CViewContainer11hasChildrenEv, symObjAddr: 0x21A0, symBinAddr: 0xA8EA0, symSize: 0x20 }
  - { offset: 0x4069C7, size: 0x8, addend: 0x0, symName: __ZNK6VSTGUI14CViewContainer10getNbViewsEv, symObjAddr: 0x21C0, symBinAddr: 0xA8EC0, symSize: 0x10 }
  - { offset: 0x406A30, size: 0x8, addend: 0x0, symName: __ZNK6VSTGUI14CViewContainer7getViewEj, symObjAddr: 0x21D0, symBinAddr: 0xA8ED0, symSize: 0x90 }
  - { offset: 0x406B5F, size: 0x8, addend: 0x0, symName: __ZN6VSTGUI14CViewContainer16changeViewZOrderEPNS_5CViewEj, symObjAddr: 0x2260, symBinAddr: 0xA8F60, symSize: 0x1E0 }
  - { offset: 0x4072FD, size: 0x8, addend: 0x0, symName: __ZN6VSTGUI14CViewContainer20invalidateDirtyViewsEv, symObjAddr: 0x2440, symBinAddr: 0xA9140, symSize: 0x100 }
  - { offset: 0x4074DF, size: 0x8, addend: 0x0, symName: __ZN6VSTGUI14CViewContainer7invalidEv, symObjAddr: 0x2550, symBinAddr: 0xA9240, symSize: 0x70 }
  - { offset: 0x407560, size: 0x8, addend: 0x0, symName: __ZN6VSTGUI14CViewContainer11invalidRectERKNS_5CRectE, symObjAddr: 0x25C0, symBinAddr: 0xA92B0, symSize: 0x230 }
  - { offset: 0x40771D, size: 0x8, addend: 0x0, symName: __ZN6VSTGUI14CViewContainer4drawEPNS_12CDrawContextE, symObjAddr: 0x27F0, symBinAddr: 0xA94E0, symSize: 0x30 }
  - { offset: 0x407766, size: 0x8, addend: 0x0, symName: __ZN6VSTGUI14CViewContainer8drawRectEPNS_12CDrawContextERKNS_5CRectE, symObjAddr: 0x2820, symBinAddr: 0xA9510, symSize: 0xB60 }
  - { offset: 0x408343, size: 0x8, addend: 0x0, symName: __ZN6VSTGUI14CViewContainer18drawBackgroundRectEPNS_12CDrawContextERKNS_5CRectE, symObjAddr: 0x3380, symBinAddr: 0xAA070, symSize: 0x390 }
  - { offset: 0x4088DC, size: 0x8, addend: 0x0, symName: __ZN6VSTGUI14CViewContainer15checkUpdateRectEPNS_5CViewERKNS_5CRectE, symObjAddr: 0x3710, symBinAddr: 0xAA400, symSize: 0x50 }
  - { offset: 0x408A41, size: 0x8, addend: 0x0, symName: __ZN6VSTGUI14CViewContainer15hitTestSubViewsERKNS_6CPointERKNS_5EventE, symObjAddr: 0x3760, symBinAddr: 0xAA450, symSize: 0x200 }
  - { offset: 0x408DB9, size: 0x8, addend: 0x0, symName: __ZN6VSTGUI14CViewContainer7onWheelERKNS_6CPointERKNS_15CMouseWheelAxisERKfRKNS_12CButtonStateE, symObjAddr: 0x3960, symBinAddr: 0xAA650, symSize: 0x10 }
  - { offset: 0x408EA9, size: 0x8, addend: 0x0, symName: __ZN6VSTGUI14CViewContainer17onMouseWheelEventERNS_15MouseWheelEventE, symObjAddr: 0x3BD0, symBinAddr: 0xAA8C0, symSize: 0x10 }
  - { offset: 0x408EFD, size: 0x8, addend: 0x0, symName: __ZN6VSTGUI14CViewContainer18onZoomGestureEventERNS_16ZoomGestureEventE, symObjAddr: 0x3BE0, symBinAddr: 0xAA8D0, symSize: 0x10 }
  - { offset: 0x4092CD, size: 0x8, addend: 0x0, symName: __ZN6VSTGUI14CViewContainer18onMouseCancelEventERNS_16MouseCancelEventE, symObjAddr: 0x4430, symBinAddr: 0xAB120, symSize: 0xD0 }
  - { offset: 0x409736, size: 0x8, addend: 0x0, symName: __ZN6VSTGUI14CViewContainer13getDropTargetEv, symObjAddr: 0x4500, symBinAddr: 0xAB1F0, symSize: 0x130 }
  - { offset: 0x4099D5, size: 0x8, addend: 0x0, symName: __ZN6VSTGUI14CViewContainer10looseFocusEv, symObjAddr: 0x4630, symBinAddr: 0xAB320, symSize: 0x10 }
  - { offset: 0x4099FD, size: 0x8, addend: 0x0, symName: __ZN6VSTGUI14CViewContainer9takeFocusEv, symObjAddr: 0x4640, symBinAddr: 0xAB330, symSize: 0x10 }
  - { offset: 0x409A25, size: 0x8, addend: 0x0, symName: __ZN6VSTGUI14CViewContainer20advanceNextFocusViewEPNS_5CViewEb, symObjAddr: 0x4650, symBinAddr: 0xAB340, symSize: 0x310 }
  - { offset: 0x409E27, size: 0x8, addend: 0x0, symName: __ZNK6VSTGUI14CViewContainer7isDirtyEv, symObjAddr: 0x4960, symBinAddr: 0xAB650, symSize: 0x130 }
  - { offset: 0x40A002, size: 0x8, addend: 0x0, symName: __ZNK6VSTGUI14CViewContainer9getViewAtERKNS_6CPointERKNS_14GetViewOptionsE, symObjAddr: 0x4A90, symBinAddr: 0xAB780, symSize: 0x2A0 }
  - { offset: 0x40A626, size: 0x8, addend: 0x0, symName: __ZNK6VSTGUI14CViewContainer10getViewsAtERKNS_6CPointERNSt3__14listINS_13SharedPointerINS_5CViewEEENS4_9allocatorIS8_EEEERKNS_14GetViewOptionsE, symObjAddr: 0x4D30, symBinAddr: 0xABA20, symSize: 0x2D0 }
  - { offset: 0x40AD59, size: 0x8, addend: 0x0, symName: __ZNK6VSTGUI14CViewContainer14getContainerAtERKNS_6CPointERKNS_14GetViewOptionsE, symObjAddr: 0x5000, symBinAddr: 0xABCF0, symSize: 0x270 }
  - { offset: 0x40B185, size: 0x8, addend: 0x0, symName: __ZNK6VSTGUI14CViewContainer12frameToLocalERNS_6CPointE, symObjAddr: 0x5270, symBinAddr: 0xABF60, symSize: 0x70 }
  - { offset: 0x40B21D, size: 0x8, addend: 0x0, symName: __ZNK6VSTGUI14CViewContainer12localToFrameERNS_6CPointE, symObjAddr: 0x52E0, symBinAddr: 0xABFD0, symSize: 0x70 }
  - { offset: 0x40B2B5, size: 0x8, addend: 0x0, symName: __ZN6VSTGUI14CViewContainer7removedEPNS_5CViewE, symObjAddr: 0x5350, symBinAddr: 0xAC040, symSize: 0x70 }
  - { offset: 0x40B3D4, size: 0x8, addend: 0x0, symName: __ZN6VSTGUI14CViewContainer8attachedEPNS_5CViewE, symObjAddr: 0x53C0, symBinAddr: 0xAC0B0, symSize: 0x90 }
  - { offset: 0x40B4FF, size: 0x8, addend: 0x0, symName: __ZN6VSTGUI24CViewContainerDropTarget11onDragEnterENS_13DragEventDataE, symObjAddr: 0x5750, symBinAddr: 0xAC140, symSize: 0x10 }
  - { offset: 0x40B549, size: 0x8, addend: 0x0, symName: __ZN6VSTGUI24CViewContainerDropTarget10onDragMoveENS_13DragEventDataE, symObjAddr: 0x5760, symBinAddr: 0xAC150, symSize: 0x280 }
  - { offset: 0x40B953, size: 0x8, addend: 0x0, symName: __ZN6VSTGUI24CViewContainerDropTarget11onDragLeaveENS_13DragEventDataE, symObjAddr: 0x59E0, symBinAddr: 0xAC3D0, symSize: 0x1A0 }
  - { offset: 0x40BAF6, size: 0x8, addend: 0x0, symName: __ZN6VSTGUI24CViewContainerDropTarget6onDropENS_13DragEventDataE, symObjAddr: 0x5B80, symBinAddr: 0xAC570, symSize: 0x1D0 }
  - { offset: 0x40BD2B, size: 0x8, addend: 0x0, symName: __ZN6VSTGUI24CViewContainerDropTargetD1Ev, symObjAddr: 0x5D50, symBinAddr: 0xAC740, symSize: 0x60 }
  - { offset: 0x40BDF3, size: 0x8, addend: 0x0, symName: __ZN6VSTGUI24CViewContainerDropTargetD0Ev, symObjAddr: 0x5DB0, symBinAddr: 0xAC7A0, symSize: 0x70 }
  - { offset: 0x40BEB9, size: 0x8, addend: 0x0, symName: __ZThn8_N6VSTGUI24CViewContainerDropTargetD1Ev, symObjAddr: 0x5E20, symBinAddr: 0xAC810, symSize: 0x60 }
  - { offset: 0x40BF8D, size: 0x8, addend: 0x0, symName: __ZThn8_N6VSTGUI24CViewContainerDropTargetD0Ev, symObjAddr: 0x5E80, symBinAddr: 0xAC870, symSize: 0x70 }
  - { offset: 0x40EAA9, size: 0x8, addend: 0x0, symName: __ZN6VSTGUI12CVSTGUITimer9kMsgTimerE, symObjAddr: 0x11C8, symBinAddr: 0x1D0718, symSize: 0x0 }
  - { offset: 0x411227, size: 0x8, addend: 0x0, symName: __ZN6VSTGUI12CVSTGUITimerC1EPNS_11CBaseObjectEjb, symObjAddr: 0x1F0, symBinAddr: 0xACF80, symSize: 0x150 }
  - { offset: 0x411E4A, size: 0x8, addend: 0x0, symName: __ZN6VSTGUI12CVSTGUITimerC2EPNS_11CBaseObjectEjb, symObjAddr: 0x0, symBinAddr: 0xACD90, symSize: 0x180 }
  - { offset: 0x4122F5, size: 0x8, addend: 0x0, symName: __ZNSt3__110__function12__value_funcIFvPN6VSTGUI12CVSTGUITimerEEE4swapB8ne180100ERS6_, symObjAddr: 0xCE0, symBinAddr: 0xAD9A0, symSize: 0x140 }
  - { offset: 0x412440, size: 0x8, addend: 0x0, symName: __ZN6VSTGUI12CVSTGUITimerC2EPNS_11CBaseObjectEjb.cold.1, symObjAddr: 0xE20, symBinAddr: 0x178E90, symSize: 0x30 }
  - { offset: 0x4124CA, size: 0x8, addend: 0x0, symName: __ZN6VSTGUI12CVSTGUITimer5startEv, symObjAddr: 0x180, symBinAddr: 0xACF10, symSize: 0x70 }
  - { offset: 0x41264A, size: 0x8, addend: 0x0, symName: __ZN6VSTGUI12CVSTGUITimerC2ERKNSt3__18functionIFvPS0_EEEjb, symObjAddr: 0x340, symBinAddr: 0xAD0D0, symSize: 0x150 }
  - { offset: 0x4128DC, size: 0x8, addend: 0x0, symName: __ZN6VSTGUI12CVSTGUITimerC2ERKNSt3__18functionIFvPS0_EEEjb.cold.1, symObjAddr: 0xE80, symBinAddr: 0x178EC0, symSize: 0x30 }
  - { offset: 0x41294E, size: 0x8, addend: 0x0, symName: __ZN6VSTGUI12CVSTGUITimerC1ERKNSt3__18functionIFvPS0_EEEjb, symObjAddr: 0x490, symBinAddr: 0xAD220, symSize: 0x110 }
  - { offset: 0x412C79, size: 0x8, addend: 0x0, symName: __ZN6VSTGUI12CVSTGUITimerC2EONSt3__18functionIFvPS0_EEEjb, symObjAddr: 0x5A0, symBinAddr: 0xAD330, symSize: 0x140 }
  - { offset: 0x412F47, size: 0x8, addend: 0x0, symName: __ZN6VSTGUI12CVSTGUITimerC1EONSt3__18functionIFvPS0_EEEjb, symObjAddr: 0x6E0, symBinAddr: 0xAD470, symSize: 0x100 }
  - { offset: 0x4131AC, size: 0x8, addend: 0x0, symName: __ZN6VSTGUI12CVSTGUITimerC1EONSt3__18functionIFvPS0_EEEjb.cold.1, symObjAddr: 0xF10, symBinAddr: 0x178EF0, symSize: 0x28 }
  - { offset: 0x41321D, size: 0x8, addend: 0x0, symName: __ZN6VSTGUI12CVSTGUITimerD2Ev, symObjAddr: 0x7E0, symBinAddr: 0xAD570, symSize: 0x60 }
  - { offset: 0x413310, size: 0x8, addend: 0x0, symName: __ZN6VSTGUI12CVSTGUITimerD1Ev, symObjAddr: 0x840, symBinAddr: 0xAD5D0, symSize: 0x60 }
  - { offset: 0x413409, size: 0x8, addend: 0x0, symName: __ZN6VSTGUI12CVSTGUITimerD0Ev, symObjAddr: 0x8A0, symBinAddr: 0xAD630, symSize: 0x60 }
  - { offset: 0x413563, size: 0x8, addend: 0x0, symName: __ZN6VSTGUI12CVSTGUITimer12beforeDeleteEv, symObjAddr: 0x900, symBinAddr: 0xAD690, symSize: 0x40 }
  - { offset: 0x4135F9, size: 0x8, addend: 0x0, symName: __ZN6VSTGUI12CVSTGUITimer4stopEv, symObjAddr: 0x940, symBinAddr: 0xAD6D0, symSize: 0x50 }
  - { offset: 0x413678, size: 0x8, addend: 0x0, symName: __ZN6VSTGUI12CVSTGUITimer11setFireTimeEj, symObjAddr: 0x990, symBinAddr: 0xAD720, symSize: 0xB0 }
  - { offset: 0x413949, size: 0x8, addend: 0x0, symName: __ZN6VSTGUI12CVSTGUITimer4fireEv, symObjAddr: 0xA40, symBinAddr: 0xAD7D0, symSize: 0x70 }
  - { offset: 0x413B6F, size: 0x8, addend: 0x0, symName: __ZThn16_N6VSTGUI12CVSTGUITimer4fireEv, symObjAddr: 0xAB0, symBinAddr: 0xAD840, symSize: 0x70 }
  - { offset: 0x413D7E, size: 0x8, addend: 0x0, symName: __ZNK6VSTGUI12CVSTGUITimer7newCopyEv, symObjAddr: 0xBE0, symBinAddr: 0xAD8B0, symSize: 0x10 }
  - { offset: 0x413DA3, size: 0x8, addend: 0x0, symName: '__ZNSt3__110__function6__funcIZN6VSTGUI12CVSTGUITimerC1EPNS2_11CBaseObjectEjbE3$_0NS_9allocatorIS6_EEFvPS3_EED1Ev', symObjAddr: 0xC00, symBinAddr: 0xAD8C0, symSize: 0x10 }
  - { offset: 0x413DCB, size: 0x8, addend: 0x0, symName: '__ZNSt3__110__function6__funcIZN6VSTGUI12CVSTGUITimerC1EPNS2_11CBaseObjectEjbE3$_0NS_9allocatorIS6_EEFvPS3_EED0Ev', symObjAddr: 0xC10, symBinAddr: 0xAD8D0, symSize: 0x10 }
  - { offset: 0x413FCB, size: 0x8, addend: 0x0, symName: '__ZNKSt3__110__function6__funcIZN6VSTGUI12CVSTGUITimerC1EPNS2_11CBaseObjectEjbE3$_0NS_9allocatorIS6_EEFvPS3_EE7__cloneEv', symObjAddr: 0xC20, symBinAddr: 0xAD8E0, symSize: 0x30 }
  - { offset: 0x4142B0, size: 0x8, addend: 0x0, symName: '__ZNKSt3__110__function6__funcIZN6VSTGUI12CVSTGUITimerC1EPNS2_11CBaseObjectEjbE3$_0NS_9allocatorIS6_EEFvPS3_EE7__cloneEPNS0_6__baseISA_EE', symObjAddr: 0xC50, symBinAddr: 0xAD910, symSize: 0x20 }
  - { offset: 0x4143BA, size: 0x8, addend: 0x0, symName: '__ZNSt3__110__function6__funcIZN6VSTGUI12CVSTGUITimerC1EPNS2_11CBaseObjectEjbE3$_0NS_9allocatorIS6_EEFvPS3_EE7destroyEv', symObjAddr: 0xC70, symBinAddr: 0xAD930, symSize: 0x10 }
  - { offset: 0x414408, size: 0x8, addend: 0x0, symName: '__ZNSt3__110__function6__funcIZN6VSTGUI12CVSTGUITimerC1EPNS2_11CBaseObjectEjbE3$_0NS_9allocatorIS6_EEFvPS3_EE18destroy_deallocateEv', symObjAddr: 0xC80, symBinAddr: 0xAD940, symSize: 0x10 }
  - { offset: 0x414557, size: 0x8, addend: 0x0, symName: '__ZNSt3__110__function6__funcIZN6VSTGUI12CVSTGUITimerC1EPNS2_11CBaseObjectEjbE3$_0NS_9allocatorIS6_EEFvPS3_EEclEOS9_', symObjAddr: 0xC90, symBinAddr: 0xAD950, symSize: 0x20 }
  - { offset: 0x414641, size: 0x8, addend: 0x0, symName: '__ZNKSt3__110__function6__funcIZN6VSTGUI12CVSTGUITimerC1EPNS2_11CBaseObjectEjbE3$_0NS_9allocatorIS6_EEFvPS3_EE6targetERKSt9type_info', symObjAddr: 0xCB0, symBinAddr: 0xAD970, symSize: 0x20 }
  - { offset: 0x4146B5, size: 0x8, addend: 0x0, symName: '__ZNKSt3__110__function6__funcIZN6VSTGUI12CVSTGUITimerC1EPNS2_11CBaseObjectEjbE3$_0NS_9allocatorIS6_EEFvPS3_EE11target_typeEv', symObjAddr: 0xCD0, symBinAddr: 0xAD990, symSize: 0x10 }
  - { offset: 0x416684, size: 0x8, addend: 0x0, symName: __ZN6VSTGUI12EventPrivateL7counterE, symObjAddr: 0xA4F8, symBinAddr: 0x1D2240, symSize: 0x0 }
  - { offset: 0x416725, size: 0x8, addend: 0x0, symName: __ZN6VSTGUI29buttonStateFromEventModifiersERKNS_9ModifiersE, symObjAddr: 0xB0, symBinAddr: 0xADB80, symSize: 0x30 }
  - { offset: 0x4167CE, size: 0x8, addend: 0x0, symName: __ZN6VSTGUI25buttonStateFromMouseEventERKNS_10MouseEventE, symObjAddr: 0xE0, symBinAddr: 0xADBB0, symSize: 0x60 }
  - { offset: 0x4168FA, size: 0x8, addend: 0x0, symName: __ZN6VSTGUI12toVstKeyCodeERKNS_13KeyboardEventE, symObjAddr: 0x140, symBinAddr: 0xADC10, symSize: 0x3C }
  - { offset: 0x417557, size: 0x8, addend: 0x0, symName: __ZN6VSTGUI5EventC2Ev, symObjAddr: 0x0, symBinAddr: 0xADAE0, symSize: 0x50 }
  - { offset: 0x417617, size: 0x8, addend: 0x0, symName: __ZN6VSTGUI5EventC1Ev, symObjAddr: 0x60, symBinAddr: 0xADB30, symSize: 0x50 }
  - { offset: 0x419628, size: 0x8, addend: 0x0, symName: __ZN6VSTGUI23FileResourceInputStream6createERKNSt3__112basic_stringIcNS1_11char_traitsIcEENS1_9allocatorIcEEEE, symObjAddr: 0x0, symBinAddr: 0xADC50, symSize: 0x60 }
  - { offset: 0x41C8E2, size: 0x8, addend: 0x0, symName: __ZN6VSTGUI23FileResourceInputStream6createERKNSt3__112basic_stringIcNS1_11char_traitsIcEENS1_9allocatorIcEEEE, symObjAddr: 0x0, symBinAddr: 0xADC50, symSize: 0x60 }
  - { offset: 0x41C9F1, size: 0x8, addend: 0x0, symName: __ZN6VSTGUI23FileResourceInputStreamC1EP7__sFILE, symObjAddr: 0x60, symBinAddr: 0xADCB0, symSize: 0x20 }
  - { offset: 0x41CA3A, size: 0x8, addend: 0x0, symName: __ZN6VSTGUI23FileResourceInputStreamD2Ev, symObjAddr: 0xA0, symBinAddr: 0xADCD0, symSize: 0x20 }
  - { offset: 0x41CA95, size: 0x8, addend: 0x0, symName: __ZN6VSTGUI23FileResourceInputStreamD1Ev, symObjAddr: 0xC0, symBinAddr: 0xADCF0, symSize: 0x20 }
