---
triple:          'x86_64-apple-darwin'
binary-path:     '/Users/noahlynaugh/Desktop/Coding/Studio_PLND/Digital-Effect-Controller/DEC/VST_Plugin/vst3sdk/build/VST3/Release/mda-vst3.vst3/Contents/MacOS/mda-vst3'
relocations:
  - { offset: 0x26, size: 0x8, addend: 0x0, symName: __ZN9Steinberg3Vst3mda18AmbienceControllerC2Ev, symObjAddr: 0x0, symBinAddr: 0x14E0, symSize: 0x70 }
  - { offset: 0xF7E4, size: 0x8, addend: 0x0, symName: __ZN9Steinberg3Vst3mda18AmbienceControllerC2Ev, symObjAddr: 0x0, symBinAddr: 0x14E0, symSize: 0x70 }
  - { offset: 0xF843, size: 0x8, addend: 0x0, symName: __ZN9Steinberg3Vst3mda18AmbienceControllerD2Ev, symObjAddr: 0xE0, symBinAddr: 0x1550, symSize: 0x10 }
  - { offset: 0xF898, size: 0x8, addend: 0x0, symName: __ZN9Steinberg3Vst3mda18AmbienceControllerD1Ev, symObjAddr: 0xF0, symBinAddr: 0x1560, symSize: 0x10 }
  - { offset: 0xF909, size: 0x8, addend: 0x0, symName: __ZN9Steinberg3Vst3mda18AmbienceControllerD0Ev, symObjAddr: 0x100, symBinAddr: 0x1570, symSize: 0x20 }
  - { offset: 0xFA35, size: 0x8, addend: 0x0, symName: __ZN9Steinberg3Vst3mda18AmbienceController10initializeEPNS_8FUnknownE, symObjAddr: 0x120, symBinAddr: 0x1590, symSize: 0x3A0 }
  - { offset: 0xFFDD, size: 0x8, addend: 0x0, symName: __ZThn16_N9Steinberg3Vst3mda18AmbienceController10initializeEPNS_8FUnknownE, symObjAddr: 0x4C0, symBinAddr: 0x1930, symSize: 0x10 }
  - { offset: 0x10008, size: 0x8, addend: 0x0, symName: __ZThn48_N9Steinberg3Vst3mda18AmbienceController10initializeEPNS_8FUnknownE, symObjAddr: 0x4D0, symBinAddr: 0x1940, symSize: 0x10 }
  - { offset: 0x10033, size: 0x8, addend: 0x0, symName: __ZN9Steinberg3Vst3mda18AmbienceController9terminateEv, symObjAddr: 0x4E0, symBinAddr: 0x1950, symSize: 0x10 }
  - { offset: 0x10068, size: 0x8, addend: 0x0, symName: __ZThn16_N9Steinberg3Vst3mda18AmbienceController9terminateEv, symObjAddr: 0x4F0, symBinAddr: 0x1960, symSize: 0x10 }
  - { offset: 0x10099, size: 0x8, addend: 0x0, symName: __ZThn48_N9Steinberg3Vst3mda18AmbienceController9terminateEv, symObjAddr: 0x500, symBinAddr: 0x1970, symSize: 0x10 }
  - { offset: 0x10110, size: 0x8, addend: 0x0, symName: __ZN9Steinberg3Vst3mda14BaseController6addRefEv, symObjAddr: 0x510, symBinAddr: 0x1980, symSize: 0x10 }
  - { offset: 0x101C0, size: 0x8, addend: 0x0, symName: __ZN9Steinberg3Vst3mda14BaseController7releaseEv, symObjAddr: 0x520, symBinAddr: 0x1990, symSize: 0x10 }
  - { offset: 0x10234, size: 0x8, addend: 0x0, symName: __ZNK9Steinberg3Vst17EditControllerEx13isAEv, symObjAddr: 0x530, symBinAddr: 0x19A0, symSize: 0x10 }
  - { offset: 0x10257, size: 0x8, addend: 0x0, symName: __ZNK9Steinberg3Vst17EditControllerEx13isAEPKc, symObjAddr: 0x540, symBinAddr: 0x19B0, symSize: 0x10 }
  - { offset: 0x1034E, size: 0x8, addend: 0x0, symName: __ZNK9Steinberg3Vst17EditControllerEx18isTypeOfEPKcb, symObjAddr: 0x550, symBinAddr: 0x19C0, symSize: 0x90 }
  - { offset: 0x104F4, size: 0x8, addend: 0x0, symName: __ZN9Steinberg7FObject10updateDoneEi, symObjAddr: 0x5E0, symBinAddr: 0x1A50, symSize: 0x10 }
  - { offset: 0x10520, size: 0x8, addend: 0x0, symName: __ZN9Steinberg7FObject15isEqualInstanceEPNS_8FUnknownE, symObjAddr: 0x5F0, symBinAddr: 0x1A60, symSize: 0x10 }
  - { offset: 0x10550, size: 0x8, addend: 0x0, symName: __ZN9Steinberg3Vst14EditController10createViewEPKc, symObjAddr: 0x600, symBinAddr: 0x1A70, symSize: 0x10 }
  - { offset: 0x1057C, size: 0x8, addend: 0x0, symName: __ZN9Steinberg3Vst14EditController11setKnobModeEi, symObjAddr: 0x610, symBinAddr: 0x1A80, symSize: 0x20 }
  - { offset: 0x105A2, size: 0x8, addend: 0x0, symName: __ZN9Steinberg3Vst14EditController8openHelpEh, symObjAddr: 0x630, symBinAddr: 0x1AA0, symSize: 0x10 }
  - { offset: 0x105CE, size: 0x8, addend: 0x0, symName: __ZN9Steinberg3Vst14EditController12openAboutBoxEh, symObjAddr: 0x640, symBinAddr: 0x1AB0, symSize: 0x10 }
  - { offset: 0x105FA, size: 0x8, addend: 0x0, symName: __ZN9Steinberg3Vst14EditController15editorDestroyedEPNS0_10EditorViewE, symObjAddr: 0x650, symBinAddr: 0x1AC0, symSize: 0x10 }
  - { offset: 0x10626, size: 0x8, addend: 0x0, symName: __ZN9Steinberg3Vst14EditController14editorAttachedEPNS0_10EditorViewE, symObjAddr: 0x660, symBinAddr: 0x1AD0, symSize: 0x10 }
  - { offset: 0x10652, size: 0x8, addend: 0x0, symName: __ZN9Steinberg3Vst14EditController13editorRemovedEPNS0_10EditorViewE, symObjAddr: 0x670, symBinAddr: 0x1AE0, symSize: 0x10 }
  - { offset: 0x1067E, size: 0x8, addend: 0x0, symName: __ZN9Steinberg3Vst14EditController18getParameterObjectEj, symObjAddr: 0x680, symBinAddr: 0x1AF0, symSize: 0x10 }
  - { offset: 0x106C9, size: 0x8, addend: 0x0, symName: __ZN9Steinberg3Vst17EditControllerEx112getUnitCountEv, symObjAddr: 0x690, symBinAddr: 0x1B00, symSize: 0x20 }
  - { offset: 0x10708, size: 0x8, addend: 0x0, symName: __ZN9Steinberg3Vst17EditControllerEx115getSelectedUnitEv, symObjAddr: 0x6B0, symBinAddr: 0x1B20, symSize: 0x10 }
  - { offset: 0x10727, size: 0x8, addend: 0x0, symName: __ZN9Steinberg3Vst17EditControllerEx110selectUnitEi, symObjAddr: 0x6C0, symBinAddr: 0x1B30, symSize: 0x10 }
  - { offset: 0x1074D, size: 0x8, addend: 0x0, symName: __ZN9Steinberg3Vst17EditControllerEx112getUnitByBusEiiiiRi, symObjAddr: 0x6D0, symBinAddr: 0x1B40, symSize: 0x10 }
  - { offset: 0x107A2, size: 0x8, addend: 0x0, symName: __ZN9Steinberg3Vst17EditControllerEx118setUnitProgramDataEiiPNS_8IBStreamE, symObjAddr: 0x6E0, symBinAddr: 0x1B50, symSize: 0x10 }
  - { offset: 0x107F7, size: 0x8, addend: 0x0, symName: __ZThn16_N9Steinberg3Vst3mda14BaseController6addRefEv, symObjAddr: 0x6F0, symBinAddr: 0x1B60, symSize: 0x10 }
  - { offset: 0x10891, size: 0x8, addend: 0x0, symName: __ZThn16_N9Steinberg3Vst3mda14BaseController7releaseEv, symObjAddr: 0x700, symBinAddr: 0x1B70, symSize: 0x10 }
  - { offset: 0x10917, size: 0x8, addend: 0x0, symName: __ZThn24_N9Steinberg3Vst3mda14BaseController6addRefEv, symObjAddr: 0x710, symBinAddr: 0x1B80, symSize: 0x10 }
  - { offset: 0x1099D, size: 0x8, addend: 0x0, symName: __ZThn24_N9Steinberg3Vst3mda14BaseController7releaseEv, symObjAddr: 0x720, symBinAddr: 0x1B90, symSize: 0x10 }
  - { offset: 0x10A23, size: 0x8, addend: 0x0, symName: __ZThn48_N9Steinberg3Vst3mda14BaseController6addRefEv, symObjAddr: 0x730, symBinAddr: 0x1BA0, symSize: 0x10 }
  - { offset: 0x10AA9, size: 0x8, addend: 0x0, symName: __ZThn48_N9Steinberg3Vst3mda14BaseController7releaseEv, symObjAddr: 0x740, symBinAddr: 0x1BB0, symSize: 0x10 }
  - { offset: 0x10B2F, size: 0x8, addend: 0x0, symName: __ZThn48_N9Steinberg3Vst14EditController10createViewEPKc, symObjAddr: 0x750, symBinAddr: 0x1BC0, symSize: 0x10 }
  - { offset: 0x10B44, size: 0x8, addend: 0x0, symName: __ZThn56_N9Steinberg3Vst3mda14BaseController6addRefEv, symObjAddr: 0x760, symBinAddr: 0x1BD0, symSize: 0x10 }
  - { offset: 0x10BCA, size: 0x8, addend: 0x0, symName: __ZThn56_N9Steinberg3Vst3mda14BaseController7releaseEv, symObjAddr: 0x770, symBinAddr: 0x1BE0, symSize: 0x10 }
  - { offset: 0x10C6F, size: 0x8, addend: 0x0, symName: __ZThn56_N9Steinberg3Vst14EditController11setKnobModeEi, symObjAddr: 0x780, symBinAddr: 0x1BF0, symSize: 0x20 }
  - { offset: 0x10CA9, size: 0x8, addend: 0x0, symName: __ZThn56_N9Steinberg3Vst14EditController8openHelpEh, symObjAddr: 0x7A0, symBinAddr: 0x1C10, symSize: 0x10 }
  - { offset: 0x10CBE, size: 0x8, addend: 0x0, symName: __ZThn56_N9Steinberg3Vst14EditController12openAboutBoxEh, symObjAddr: 0x7B0, symBinAddr: 0x1C20, symSize: 0x10 }
  - { offset: 0x10CD3, size: 0x8, addend: 0x0, symName: __ZThn112_N9Steinberg3Vst3mda14BaseController6addRefEv, symObjAddr: 0x7C0, symBinAddr: 0x1C30, symSize: 0x10 }
  - { offset: 0x10D59, size: 0x8, addend: 0x0, symName: __ZThn112_N9Steinberg3Vst3mda14BaseController7releaseEv, symObjAddr: 0x7D0, symBinAddr: 0x1C40, symSize: 0x10 }
  - { offset: 0x10DF3, size: 0x8, addend: 0x0, symName: __ZThn112_N9Steinberg3Vst17EditControllerEx112getUnitCountEv, symObjAddr: 0x7E0, symBinAddr: 0x1C50, symSize: 0x20 }
  - { offset: 0x10E5B, size: 0x8, addend: 0x0, symName: __ZThn112_N9Steinberg3Vst17EditControllerEx115getSelectedUnitEv, symObjAddr: 0x800, symBinAddr: 0x1C70, symSize: 0x10 }
  - { offset: 0x10EB1, size: 0x8, addend: 0x0, symName: __ZThn112_N9Steinberg3Vst17EditControllerEx110selectUnitEi, symObjAddr: 0x810, symBinAddr: 0x1C80, symSize: 0x10 }
  - { offset: 0x10EEE, size: 0x8, addend: 0x0, symName: __ZThn112_N9Steinberg3Vst17EditControllerEx112getUnitByBusEiiiiRi, symObjAddr: 0x820, symBinAddr: 0x1C90, symSize: 0x10 }
  - { offset: 0x10F05, size: 0x8, addend: 0x0, symName: __ZThn112_N9Steinberg3Vst17EditControllerEx118setUnitProgramDataEiiPNS_8IBStreamE, symObjAddr: 0x830, symBinAddr: 0x1CA0, symSize: 0x10 }
  - { offset: 0x10F1B, size: 0x8, addend: 0x0, symName: __ZThn200_N9Steinberg3Vst3mda14BaseController6addRefEv, symObjAddr: 0x840, symBinAddr: 0x1CB0, symSize: 0x20 }
  - { offset: 0x10FA1, size: 0x8, addend: 0x0, symName: __ZThn200_N9Steinberg3Vst3mda14BaseController7releaseEv, symObjAddr: 0x860, symBinAddr: 0x1CD0, symSize: 0x11 }
  - { offset: 0x13359, size: 0x8, addend: 0x0, symName: __ZN9Steinberg3Vst3mda17AmbienceProcessorC2Ev, symObjAddr: 0x0, symBinAddr: 0x1CF0, symSize: 0xE0 }
  - { offset: 0x1559A, size: 0x8, addend: 0x0, symName: __ZN9Steinberg3Vst3mda18AmbienceController3uidE, symObjAddr: 0x14C0, symBinAddr: 0x668D0, symSize: 0x0 }
  - { offset: 0x1AAF0, size: 0x8, addend: 0x0, symName: __ZN9Steinberg3Vst3mda17AmbienceProcessorC2Ev, symObjAddr: 0x0, symBinAddr: 0x1CF0, symSize: 0xE0 }
  - { offset: 0x1AB5F, size: 0x8, addend: 0x0, symName: __ZN9Steinberg3Vst3mda27SampleAccurateBaseProcessorD2Ev, symObjAddr: 0xE0, symBinAddr: 0x1DD0, symSize: 0x80 }
  - { offset: 0x1ADDC, size: 0x8, addend: 0x0, symName: __ZN9Steinberg3Vst3mda17AmbienceProcessorC1Ev, symObjAddr: 0x160, symBinAddr: 0x1E50, symSize: 0x140 }
  - { offset: 0x1AFB9, size: 0x8, addend: 0x0, symName: __ZN9Steinberg3Vst3mda17AmbienceProcessorD1Ev, symObjAddr: 0x320, symBinAddr: 0x1F90, symSize: 0x80 }
  - { offset: 0x1B15B, size: 0x8, addend: 0x0, symName: __ZN9Steinberg3Vst3mda17AmbienceProcessorD0Ev, symObjAddr: 0x3A0, symBinAddr: 0x2010, symSize: 0x90 }
  - { offset: 0x1B3B2, size: 0x8, addend: 0x0, symName: __ZN9Steinberg3Vst3mda17AmbienceProcessor10initializeEPNS_8FUnknownE, symObjAddr: 0x430, symBinAddr: 0x20A0, symSize: 0x160 }
  - { offset: 0x1B55A, size: 0x8, addend: 0x0, symName: __ZThn16_N9Steinberg3Vst3mda17AmbienceProcessor10initializeEPNS_8FUnknownE, symObjAddr: 0x590, symBinAddr: 0x2200, symSize: 0x10 }
  - { offset: 0x1B585, size: 0x8, addend: 0x0, symName: __ZThn48_N9Steinberg3Vst3mda17AmbienceProcessor10initializeEPNS_8FUnknownE, symObjAddr: 0x5A0, symBinAddr: 0x2210, symSize: 0x10 }
  - { offset: 0x1B5B0, size: 0x8, addend: 0x0, symName: __ZN9Steinberg3Vst3mda17AmbienceProcessor9terminateEv, symObjAddr: 0x5B0, symBinAddr: 0x2220, symSize: 0x70 }
  - { offset: 0x1B5E7, size: 0x8, addend: 0x0, symName: __ZThn16_N9Steinberg3Vst3mda17AmbienceProcessor9terminateEv, symObjAddr: 0x620, symBinAddr: 0x2290, symSize: 0x80 }
  - { offset: 0x1B613, size: 0x8, addend: 0x0, symName: __ZThn48_N9Steinberg3Vst3mda17AmbienceProcessor9terminateEv, symObjAddr: 0x6A0, symBinAddr: 0x2310, symSize: 0x80 }
  - { offset: 0x1B655, size: 0x8, addend: 0x0, symName: __ZN9Steinberg3Vst3mda17AmbienceProcessor9setActiveEh, symObjAddr: 0x720, symBinAddr: 0x2390, symSize: 0x70 }
  - { offset: 0x1B69B, size: 0x8, addend: 0x0, symName: __ZN9Steinberg3Vst3mda17AmbienceProcessor12clearBuffersEv, symObjAddr: 0x790, symBinAddr: 0x2400, symSize: 0x60 }
  - { offset: 0x1B6DD, size: 0x8, addend: 0x0, symName: __ZThn48_N9Steinberg3Vst3mda17AmbienceProcessor9setActiveEh, symObjAddr: 0x7F0, symBinAddr: 0x2460, symSize: 0x80 }
  - { offset: 0x1B730, size: 0x8, addend: 0x0, symName: __ZN9Steinberg3Vst3mda17AmbienceProcessor12doProcessingERNS0_11ProcessDataE, symObjAddr: 0x870, symBinAddr: 0x24E0, symSize: 0x350 }
  - { offset: 0x1B8CF, size: 0x8, addend: 0x0, symName: __ZN9Steinberg3Vst3mda17AmbienceProcessor11recalculateEv, symObjAddr: 0xBC0, symBinAddr: 0x2830, symSize: 0xE0 }
  - { offset: 0x1B95E, size: 0x8, addend: 0x0, symName: __ZN9Steinberg3Vst11AudioEffect14queryInterfaceEPKcPPv, symObjAddr: 0xCA0, symBinAddr: 0x2910, symSize: 0xF0 }
  - { offset: 0x1BB8D, size: 0x8, addend: 0x0, symName: __ZN9Steinberg3Vst11AudioEffect6addRefEv, symObjAddr: 0xD90, symBinAddr: 0x2A00, symSize: 0x10 }
  - { offset: 0x1BC0C, size: 0x8, addend: 0x0, symName: __ZN9Steinberg3Vst11AudioEffect7releaseEv, symObjAddr: 0xDA0, symBinAddr: 0x2A10, symSize: 0x10 }
  - { offset: 0x1BC63, size: 0x8, addend: 0x0, symName: __ZN9Steinberg7FObject6updateEPNS_8FUnknownEi, symObjAddr: 0xDB0, symBinAddr: 0x2A20, symSize: 0x10 }
  - { offset: 0x1BC98, size: 0x8, addend: 0x0, symName: __ZNK9Steinberg3Vst11AudioEffect3isAEv, symObjAddr: 0xDC0, symBinAddr: 0x2A30, symSize: 0x10 }
  - { offset: 0x1BCBB, size: 0x8, addend: 0x0, symName: __ZNK9Steinberg3Vst11AudioEffect3isAEPKc, symObjAddr: 0xDD0, symBinAddr: 0x2A40, symSize: 0x10 }
  - { offset: 0x1BDB1, size: 0x8, addend: 0x0, symName: __ZNK9Steinberg3Vst11AudioEffect8isTypeOfEPKcb, symObjAddr: 0xDE0, symBinAddr: 0x2A50, symSize: 0x90 }
  - { offset: 0x1BF53, size: 0x8, addend: 0x0, symName: __ZN9Steinberg3Vst11AudioEffect17getLatencySamplesEv, symObjAddr: 0xE90, symBinAddr: 0x2AE0, symSize: 0x10 }
  - { offset: 0x1BF76, size: 0x8, addend: 0x0, symName: __ZN9Steinberg3Vst11AudioEffect14getTailSamplesEv, symObjAddr: 0xEA0, symBinAddr: 0x2AF0, symSize: 0x10 }
  - { offset: 0x1BF99, size: 0x8, addend: 0x0, symName: __ZN9Steinberg3Vst3mda9Processor10preProcessEv, symObjAddr: 0xEB0, symBinAddr: 0x2B00, symSize: 0x10 }
  - { offset: 0x1BFBC, size: 0x8, addend: 0x0, symName: __ZN9Steinberg3Vst3mda9Processor12processEventERKNS0_5EventE, symObjAddr: 0xEC0, symBinAddr: 0x2B10, symSize: 0x10 }
  - { offset: 0x1BFE8, size: 0x8, addend: 0x0, symName: __ZNK9Steinberg3Vst3mda9Processor10hasProgramEv, symObjAddr: 0xED0, symBinAddr: 0x2B20, symSize: 0x10 }
  - { offset: 0x1C00B, size: 0x8, addend: 0x0, symName: __ZNK9Steinberg3Vst3mda9Processor17getCurrentProgramEv, symObjAddr: 0xEE0, symBinAddr: 0x2B30, symSize: 0x10 }
  - { offset: 0x1C02E, size: 0x8, addend: 0x0, symName: __ZNK9Steinberg3Vst3mda9Processor14getNumProgramsEv, symObjAddr: 0xEF0, symBinAddr: 0x2B40, symSize: 0x10 }
  - { offset: 0x1C051, size: 0x8, addend: 0x0, symName: __ZN9Steinberg3Vst3mda9Processor17setCurrentProgramEj, symObjAddr: 0xF00, symBinAddr: 0x2B50, symSize: 0x10 }
  - { offset: 0x1C07D, size: 0x8, addend: 0x0, symName: __ZN9Steinberg3Vst3mda9Processor27setCurrentProgramNormalizedEd, symObjAddr: 0xF10, symBinAddr: 0x2B60, symSize: 0x10 }
  - { offset: 0x1C0A9, size: 0x8, addend: 0x0, symName: __ZNK9Steinberg3Vst3mda17AmbienceProcessor15getVst2UniqueIdEv, symObjAddr: 0xF20, symBinAddr: 0x2B70, symSize: 0x10 }
  - { offset: 0x1C0CC, size: 0x8, addend: 0x0, symName: __ZThn16_N9Steinberg3Vst11AudioEffect14queryInterfaceEPKcPPv, symObjAddr: 0xF30, symBinAddr: 0x2B80, symSize: 0x10 }
  - { offset: 0x1C117, size: 0x8, addend: 0x0, symName: __ZThn16_N9Steinberg3Vst11AudioEffect6addRefEv, symObjAddr: 0xF40, symBinAddr: 0x2B90, symSize: 0x10 }
  - { offset: 0x1C194, size: 0x8, addend: 0x0, symName: __ZThn16_N9Steinberg3Vst11AudioEffect7releaseEv, symObjAddr: 0xF50, symBinAddr: 0x2BA0, symSize: 0x10 }
  - { offset: 0x1C1FD, size: 0x8, addend: 0x0, symName: __ZThn24_N9Steinberg3Vst11AudioEffect14queryInterfaceEPKcPPv, symObjAddr: 0xF60, symBinAddr: 0x2BB0, symSize: 0x10 }
  - { offset: 0x1C22F, size: 0x8, addend: 0x0, symName: __ZThn24_N9Steinberg3Vst11AudioEffect6addRefEv, symObjAddr: 0xF70, symBinAddr: 0x2BC0, symSize: 0x10 }
  - { offset: 0x1C298, size: 0x8, addend: 0x0, symName: __ZThn24_N9Steinberg3Vst11AudioEffect7releaseEv, symObjAddr: 0xF80, symBinAddr: 0x2BD0, symSize: 0x10 }
  - { offset: 0x1C301, size: 0x8, addend: 0x0, symName: __ZThn48_N9Steinberg3Vst11AudioEffect14queryInterfaceEPKcPPv, symObjAddr: 0xF90, symBinAddr: 0x2BE0, symSize: 0x10 }
  - { offset: 0x1C333, size: 0x8, addend: 0x0, symName: __ZThn48_N9Steinberg3Vst11AudioEffect6addRefEv, symObjAddr: 0xFA0, symBinAddr: 0x2BF0, symSize: 0x10 }
  - { offset: 0x1C39C, size: 0x8, addend: 0x0, symName: __ZThn48_N9Steinberg3Vst11AudioEffect7releaseEv, symObjAddr: 0xFB0, symBinAddr: 0x2C00, symSize: 0x10 }
  - { offset: 0x1C405, size: 0x8, addend: 0x0, symName: __ZThn272_N9Steinberg3Vst11AudioEffect14queryInterfaceEPKcPPv, symObjAddr: 0xFC0, symBinAddr: 0x2C10, symSize: 0x20 }
  - { offset: 0x1C437, size: 0x8, addend: 0x0, symName: __ZThn272_N9Steinberg3Vst11AudioEffect6addRefEv, symObjAddr: 0xFE0, symBinAddr: 0x2C30, symSize: 0x20 }
  - { offset: 0x1C4A0, size: 0x8, addend: 0x0, symName: __ZThn272_N9Steinberg3Vst11AudioEffect7releaseEv, symObjAddr: 0x1000, symBinAddr: 0x2C50, symSize: 0x20 }
  - { offset: 0x1C509, size: 0x8, addend: 0x0, symName: __ZThn272_N9Steinberg3Vst11AudioEffect17getLatencySamplesEv, symObjAddr: 0x1020, symBinAddr: 0x2C70, symSize: 0x10 }
  - { offset: 0x1C51E, size: 0x8, addend: 0x0, symName: __ZThn272_N9Steinberg3Vst11AudioEffect14getTailSamplesEv, symObjAddr: 0x1030, symBinAddr: 0x2C80, symSize: 0x10 }
  - { offset: 0x1C533, size: 0x8, addend: 0x0, symName: __ZThn280_N9Steinberg3Vst11AudioEffect14queryInterfaceEPKcPPv, symObjAddr: 0x1040, symBinAddr: 0x2C90, symSize: 0x20 }
  - { offset: 0x1C565, size: 0x8, addend: 0x0, symName: __ZThn280_N9Steinberg3Vst11AudioEffect6addRefEv, symObjAddr: 0x1060, symBinAddr: 0x2CB0, symSize: 0x20 }
  - { offset: 0x1C5CE, size: 0x8, addend: 0x0, symName: __ZThn280_N9Steinberg3Vst11AudioEffect7releaseEv, symObjAddr: 0x1080, symBinAddr: 0x2CD0, symSize: 0x11 }
  - { offset: 0x1E475, size: 0x8, addend: 0x0, symName: __ZN9Steinberg3Vst3mda18BandistoControllerC2Ev, symObjAddr: 0x0, symBinAddr: 0x2CF0, symSize: 0x70 }
  - { offset: 0x28827, size: 0x8, addend: 0x0, symName: __ZN9Steinberg3Vst3mda18BandistoControllerC2Ev, symObjAddr: 0x0, symBinAddr: 0x2CF0, symSize: 0x70 }
  - { offset: 0x288A0, size: 0x8, addend: 0x0, symName: __ZN9Steinberg3Vst3mda18BandistoControllerD1Ev, symObjAddr: 0xF0, symBinAddr: 0x2D60, symSize: 0x10 }
  - { offset: 0x28911, size: 0x8, addend: 0x0, symName: __ZN9Steinberg3Vst3mda18BandistoControllerD0Ev, symObjAddr: 0x100, symBinAddr: 0x2D70, symSize: 0x20 }
  - { offset: 0x28A9E, size: 0x8, addend: 0x0, symName: __ZN9Steinberg3Vst3mda18BandistoController10initializeEPNS_8FUnknownE, symObjAddr: 0x120, symBinAddr: 0x2D90, symSize: 0x920 }
  - { offset: 0x29ADF, size: 0x8, addend: 0x0, symName: __ZThn16_N9Steinberg3Vst3mda18BandistoController10initializeEPNS_8FUnknownE, symObjAddr: 0xA40, symBinAddr: 0x36B0, symSize: 0x10 }
  - { offset: 0x29B0A, size: 0x8, addend: 0x0, symName: __ZThn48_N9Steinberg3Vst3mda18BandistoController10initializeEPNS_8FUnknownE, symObjAddr: 0xA50, symBinAddr: 0x36C0, symSize: 0x10 }
  - { offset: 0x29B35, size: 0x8, addend: 0x0, symName: __ZN9Steinberg3Vst3mda18BandistoController9terminateEv, symObjAddr: 0xA60, symBinAddr: 0x36D0, symSize: 0x10 }
  - { offset: 0x29B6A, size: 0x8, addend: 0x0, symName: __ZThn16_N9Steinberg3Vst3mda18BandistoController9terminateEv, symObjAddr: 0xA70, symBinAddr: 0x36E0, symSize: 0x10 }
  - { offset: 0x29B9B, size: 0x8, addend: 0x0, symName: __ZThn48_N9Steinberg3Vst3mda18BandistoController9terminateEv, symObjAddr: 0xA80, symBinAddr: 0x36F0, symSize: 0x10 }
  - { offset: 0x29BFC, size: 0x8, addend: 0x0, symName: __ZN9Steinberg3Vst3mda18BandistoController21getParamStringByValueEjdPDs, symObjAddr: 0xA90, symBinAddr: 0x3700, symSize: 0x130 }
  - { offset: 0x29D07, size: 0x8, addend: 0x0, symName: __ZThn48_N9Steinberg3Vst3mda18BandistoController21getParamStringByValueEjdPDs, symObjAddr: 0xBC0, symBinAddr: 0x3830, symSize: 0x10 }
  - { offset: 0x29D40, size: 0x8, addend: 0x0, symName: __ZN9Steinberg3Vst3mda18BandistoController21getParamValueByStringEjPDsRd, symObjAddr: 0xBD0, symBinAddr: 0x3840, symSize: 0x20 }
  - { offset: 0x29DAB, size: 0x8, addend: 0x0, symName: __ZThn48_N9Steinberg3Vst3mda18BandistoController21getParamValueByStringEjPDsRd, symObjAddr: 0xBF0, symBinAddr: 0x3860, symSize: 0x20 }
  - { offset: 0x2BC6D, size: 0x8, addend: 0x0, symName: __ZN9Steinberg3Vst3mda17BandistoProcessorC2Ev, symObjAddr: 0x0, symBinAddr: 0x3880, symSize: 0xD0 }
  - { offset: 0x2C3E6, size: 0x8, addend: 0x0, symName: __ZN9Steinberg3Vst3mda18BandistoController3uidE, symObjAddr: 0x12D0, symBinAddr: 0x66A10, symSize: 0x0 }
  - { offset: 0x2DF15, size: 0x8, addend: 0x0, symName: __ZN9Steinberg3Vst3mda17BandistoProcessorC2Ev, symObjAddr: 0x0, symBinAddr: 0x3880, symSize: 0xD0 }
  - { offset: 0x2E175, size: 0x8, addend: 0x0, symName: __ZN9Steinberg3Vst3mda17BandistoProcessorC1Ev, symObjAddr: 0x150, symBinAddr: 0x3950, symSize: 0x130 }
  - { offset: 0x2E3E5, size: 0x8, addend: 0x0, symName: __ZN9Steinberg3Vst3mda17BandistoProcessor10initializeEPNS_8FUnknownE, symObjAddr: 0x280, symBinAddr: 0x3A80, symSize: 0x120 }
  - { offset: 0x2E58D, size: 0x8, addend: 0x0, symName: __ZThn16_N9Steinberg3Vst3mda17BandistoProcessor10initializeEPNS_8FUnknownE, symObjAddr: 0x3A0, symBinAddr: 0x3BA0, symSize: 0x10 }
  - { offset: 0x2E5B8, size: 0x8, addend: 0x0, symName: __ZThn48_N9Steinberg3Vst3mda17BandistoProcessor10initializeEPNS_8FUnknownE, symObjAddr: 0x3B0, symBinAddr: 0x3BB0, symSize: 0x10 }
  - { offset: 0x2E5E3, size: 0x8, addend: 0x0, symName: __ZN9Steinberg3Vst3mda17BandistoProcessor12doProcessingERNS0_11ProcessDataE, symObjAddr: 0x3C0, symBinAddr: 0x3BC0, symSize: 0x240 }
  - { offset: 0x2E7D6, size: 0x8, addend: 0x0, symName: __ZN9Steinberg3Vst3mda17BandistoProcessor11recalculateEv, symObjAddr: 0x600, symBinAddr: 0x3E00, symSize: 0x350 }
  - { offset: 0x2E88C, size: 0x8, addend: 0x0, symName: __ZN9Steinberg3Vst3mda17BandistoProcessorD1Ev, symObjAddr: 0xA70, symBinAddr: 0x4150, symSize: 0x80 }
  - { offset: 0x2EA2E, size: 0x8, addend: 0x0, symName: __ZN9Steinberg3Vst3mda17BandistoProcessorD0Ev, symObjAddr: 0xAF0, symBinAddr: 0x41D0, symSize: 0x90 }
  - { offset: 0x2EBEE, size: 0x8, addend: 0x0, symName: __ZNK9Steinberg3Vst3mda17BandistoProcessor15getVst2UniqueIdEv, symObjAddr: 0xCE0, symBinAddr: 0x4260, symSize: 0x10 }
  - { offset: 0x30A40, size: 0x8, addend: 0x0, symName: __ZN9Steinberg3Vst3mda14BaseControllerC2Ev, symObjAddr: 0x0, symBinAddr: 0x4270, symSize: 0xA0 }
  - { offset: 0x30A67, size: 0x8, addend: 0x0, symName: __ZN9Steinberg3Vst3mda14BaseController19kMicroSecondsStringE, symObjAddr: 0x1210, symBinAddr: 0x66A48, symSize: 0x0 }
  - { offset: 0x40A21, size: 0x8, addend: 0x0, symName: __ZN9Steinberg3Vst3mda14BaseControllerC2Ev, symObjAddr: 0x0, symBinAddr: 0x4270, symSize: 0xA0 }
  - { offset: 0x40BC2, size: 0x8, addend: 0x0, symName: __ZN9Steinberg3Vst3mda14BaseController10initializeEPNS_8FUnknownE, symObjAddr: 0x140, symBinAddr: 0x4310, symSize: 0x1D0 }
  - { offset: 0x40E9A, size: 0x8, addend: 0x0, symName: __ZThn16_N9Steinberg3Vst3mda14BaseController10initializeEPNS_8FUnknownE, symObjAddr: 0x310, symBinAddr: 0x44E0, symSize: 0x10 }
  - { offset: 0x40EC5, size: 0x8, addend: 0x0, symName: __ZThn48_N9Steinberg3Vst3mda14BaseController10initializeEPNS_8FUnknownE, symObjAddr: 0x320, symBinAddr: 0x44F0, symSize: 0x10 }
  - { offset: 0x40EF0, size: 0x8, addend: 0x0, symName: __ZN9Steinberg3Vst3mda14BaseController19getProgramListCountEv, symObjAddr: 0x330, symBinAddr: 0x4500, symSize: 0x20 }
  - { offset: 0x40F27, size: 0x8, addend: 0x0, symName: __ZThn112_N9Steinberg3Vst3mda14BaseController19getProgramListCountEv, symObjAddr: 0x350, symBinAddr: 0x4520, symSize: 0x20 }
  - { offset: 0x40F5A, size: 0x8, addend: 0x0, symName: __ZN9Steinberg3Vst3mda14BaseController18getProgramListInfoEiRNS0_15ProgramListInfoE, symObjAddr: 0x370, symBinAddr: 0x4540, symSize: 0x90 }
  - { offset: 0x4105A, size: 0x8, addend: 0x0, symName: __ZThn112_N9Steinberg3Vst3mda14BaseController18getProgramListInfoEiRNS0_15ProgramListInfoE, symObjAddr: 0x400, symBinAddr: 0x45D0, symSize: 0x90 }
  - { offset: 0x4111A, size: 0x8, addend: 0x0, symName: __ZN9Steinberg3Vst3mda14BaseController14getProgramNameEiiPDs, symObjAddr: 0x490, symBinAddr: 0x4660, symSize: 0x70 }
  - { offset: 0x41209, size: 0x8, addend: 0x0, symName: __ZThn112_N9Steinberg3Vst3mda14BaseController14getProgramNameEiiPDs, symObjAddr: 0x500, symBinAddr: 0x46D0, symSize: 0x70 }
  - { offset: 0x412B5, size: 0x8, addend: 0x0, symName: __ZN9Steinberg3Vst3mda14BaseController6notifyEPNS0_8IMessageE, symObjAddr: 0x570, symBinAddr: 0x4740, symSize: 0x70 }
  - { offset: 0x4135E, size: 0x8, addend: 0x0, symName: __ZThn24_N9Steinberg3Vst3mda14BaseController6notifyEPNS0_8IMessageE, symObjAddr: 0x5E0, symBinAddr: 0x47B0, symSize: 0x70 }
  - { offset: 0x41939, size: 0x8, addend: 0x0, symName: __ZN9Steinberg3Vst3mda14BaseController17setComponentStateEPNS_8IBStreamE, symObjAddr: 0x650, symBinAddr: 0x4820, symSize: 0x380 }
  - { offset: 0x422E2, size: 0x8, addend: 0x0, symName: __ZN4VST38OptionalINS_10Vst2xStateEED1Ev, symObjAddr: 0x9D0, symBinAddr: 0x4BA0, symSize: 0xA0 }
  - { offset: 0x4298F, size: 0x8, addend: 0x0, symName: __ZThn48_N9Steinberg3Vst3mda14BaseController17setComponentStateEPNS_8IBStreamE, symObjAddr: 0xA70, symBinAddr: 0x4C40, symSize: 0x10 }
  - { offset: 0x429BA, size: 0x8, addend: 0x0, symName: __ZN9Steinberg3Vst3mda14BaseController27getMidiControllerAssignmentEissRj, symObjAddr: 0xA80, symBinAddr: 0x4C50, symSize: 0x30 }
  - { offset: 0x42A34, size: 0x8, addend: 0x0, symName: __ZThn200_N9Steinberg3Vst3mda14BaseController27getMidiControllerAssignmentEissRj, symObjAddr: 0xAB0, symBinAddr: 0x4C80, symSize: 0x30 }
  - { offset: 0x42A7E, size: 0x8, addend: 0x0, symName: __ZN9Steinberg3Vst3mda14BaseController14queryInterfaceEPKcPPv, symObjAddr: 0xAE0, symBinAddr: 0x4CB0, symSize: 0x50 }
  - { offset: 0x42B09, size: 0x8, addend: 0x0, symName: __ZN9Steinberg3Vst17EditControllerEx114queryInterfaceEPKcPPv, symObjAddr: 0xB30, symBinAddr: 0x4D00, symSize: 0xF0 }
  - { offset: 0x42D99, size: 0x8, addend: 0x0, symName: __ZThn16_N9Steinberg3Vst3mda14BaseController14queryInterfaceEPKcPPv, symObjAddr: 0xC20, symBinAddr: 0x4DF0, symSize: 0x50 }
  - { offset: 0x42E1F, size: 0x8, addend: 0x0, symName: __ZThn24_N9Steinberg3Vst3mda14BaseController14queryInterfaceEPKcPPv, symObjAddr: 0xC70, symBinAddr: 0x4E40, symSize: 0x50 }
  - { offset: 0x42EA5, size: 0x8, addend: 0x0, symName: __ZThn48_N9Steinberg3Vst3mda14BaseController14queryInterfaceEPKcPPv, symObjAddr: 0xCC0, symBinAddr: 0x4E90, symSize: 0x50 }
  - { offset: 0x42F2B, size: 0x8, addend: 0x0, symName: __ZThn56_N9Steinberg3Vst3mda14BaseController14queryInterfaceEPKcPPv, symObjAddr: 0xD10, symBinAddr: 0x4EE0, symSize: 0x50 }
  - { offset: 0x42FB1, size: 0x8, addend: 0x0, symName: __ZThn112_N9Steinberg3Vst3mda14BaseController14queryInterfaceEPKcPPv, symObjAddr: 0xD60, symBinAddr: 0x4F30, symSize: 0x50 }
  - { offset: 0x43037, size: 0x8, addend: 0x0, symName: __ZThn200_N9Steinberg3Vst3mda14BaseController14queryInterfaceEPKcPPv, symObjAddr: 0xDB0, symBinAddr: 0x4F80, symSize: 0x50 }
  - { offset: 0x430DC, size: 0x8, addend: 0x0, symName: __ZN9Steinberg3Vst3mda14BaseControllerD1Ev, symObjAddr: 0xE20, symBinAddr: 0x4FD0, symSize: 0x10 }
  - { offset: 0x43131, size: 0x8, addend: 0x0, symName: __ZN9Steinberg3Vst3mda14BaseControllerD0Ev, symObjAddr: 0xE30, symBinAddr: 0x4FE0, symSize: 0x20 }
  - { offset: 0x5252C, size: 0x8, addend: 0x0, symName: __ZNSt3__120__throw_length_errorB8ne180100EPKc, symObjAddr: 0x2BE0, symBinAddr: 0x7690, symSize: 0x50 }
  - { offset: 0x53A53, size: 0x8, addend: 0x0, symName: __ZSt28__throw_bad_array_new_lengthB8ne180100v, symObjAddr: 0x2C60, symBinAddr: 0x7710, symSize: 0x40 }
  - { offset: 0x5486D, size: 0x8, addend: 0x0, symName: __ZN9Steinberg3Vst3mda9ProcessorC2Ev, symObjAddr: 0x0, symBinAddr: 0x5000, symSize: 0x90 }
  - { offset: 0x5491B, size: 0x8, addend: 0x0, symName: __ZN9Steinberg3Vst3mda9ProcessorD2Ev, symObjAddr: 0x90, symBinAddr: 0x5090, symSize: 0xB0 }
  - { offset: 0x549DE, size: 0x8, addend: 0x0, symName: __ZN9Steinberg3Vst11RTTransferTINSt3__16vectorIdNS2_9allocatorIdEEEENS2_14default_deleteIS6_EEE8clear_uiEv, symObjAddr: 0x2B20, symBinAddr: 0x75D0, symSize: 0xB0 }
  - { offset: 0x550C1, size: 0x8, addend: 0x0, symName: __ZN9Steinberg3Vst9ComponentD2Ev, symObjAddr: 0x2930, symBinAddr: 0x73E0, symSize: 0x1F0 }
  - { offset: 0x55700, size: 0x8, addend: 0x0, symName: __ZN9Steinberg3Vst3mda9ProcessorD1Ev, symObjAddr: 0x150, symBinAddr: 0x5150, symSize: 0x10 }
  - { offset: 0x55727, size: 0x8, addend: 0x0, symName: __ZN9Steinberg3Vst3mda9ProcessorD0Ev, symObjAddr: 0x160, symBinAddr: 0x5160, symSize: 0x10 }
  - { offset: 0x5577C, size: 0x8, addend: 0x0, symName: __ZN9Steinberg3Vst3mda9Processor18checkStateTransferEv, symObjAddr: 0x170, symBinAddr: 0x5170, symSize: 0x110 }
  - { offset: 0x55BA0, size: 0x8, addend: 0x0, symName: __ZN9Steinberg3Vst3mda9Processor7processERNS0_11ProcessDataE, symObjAddr: 0x280, symBinAddr: 0x5280, symSize: 0x200 }
  - { offset: 0x55FA6, size: 0x8, addend: 0x0, symName: __ZN9Steinberg3Vst3mda9Processor13processEventsEPNS0_10IEventListE, symObjAddr: 0x480, symBinAddr: 0x5480, symSize: 0x90 }
  - { offset: 0x56050, size: 0x8, addend: 0x0, symName: __ZThn272_N9Steinberg3Vst3mda9Processor7processERNS0_11ProcessDataE, symObjAddr: 0x510, symBinAddr: 0x5510, symSize: 0x20 }
  - { offset: 0x5607B, size: 0x8, addend: 0x0, symName: __ZN9Steinberg3Vst3mda9Processor15setupProcessingERNS0_12ProcessSetupE, symObjAddr: 0x530, symBinAddr: 0x5530, symSize: 0x80 }
  - { offset: 0x5611B, size: 0x8, addend: 0x0, symName: __ZThn272_N9Steinberg3Vst3mda9Processor15setupProcessingERNS0_12ProcessSetupE, symObjAddr: 0x5B0, symBinAddr: 0x55B0, symSize: 0x70 }
  - { offset: 0x561AD, size: 0x8, addend: 0x0, symName: __ZN9Steinberg3Vst3mda9Processor16bypassProcessingERNS0_11ProcessDataE, symObjAddr: 0x620, symBinAddr: 0x5620, symSize: 0x5F0 }
  - { offset: 0x5630B, size: 0x8, addend: 0x0, symName: __ZN9Steinberg3Vst3mda9Processor12checkSilenceERNS0_11ProcessDataE, symObjAddr: 0xC10, symBinAddr: 0x5C10, symSize: 0x1B0 }
  - { offset: 0x563B0, size: 0x8, addend: 0x0, symName: __ZN9Steinberg3Vst3mda9Processor23processParameterChangesEPNS0_17IParameterChangesE, symObjAddr: 0xDC0, symBinAddr: 0x5DC0, symSize: 0x110 }
  - { offset: 0x5651C, size: 0x8, addend: 0x0, symName: __ZN9Steinberg3Vst3mda9Processor9setBypassEbi, symObjAddr: 0xED0, symBinAddr: 0x5ED0, symSize: 0x30 }
  - { offset: 0x5655C, size: 0x8, addend: 0x0, symName: __ZN9Steinberg3Vst3mda9Processor12setParameterEjdi, symObjAddr: 0xF00, symBinAddr: 0x5F00, symSize: 0x20 }
  - { offset: 0x565A7, size: 0x8, addend: 0x0, symName: __ZN9Steinberg3Vst3mda9Processor15allocParametersEi, symObjAddr: 0xF20, symBinAddr: 0x5F20, symSize: 0x40 }
  - { offset: 0x565D1, size: 0x8, addend: 0x0, symName: __ZN9Steinberg3Vst3mda9Processor18setBusArrangementsEPyiS3_i, symObjAddr: 0xF60, symBinAddr: 0x5F60, symSize: 0x80 }
  - { offset: 0x566AF, size: 0x8, addend: 0x0, symName: __ZThn272_N9Steinberg3Vst3mda9Processor18setBusArrangementsEPyiS3_i, symObjAddr: 0xFE0, symBinAddr: 0x5FE0, symSize: 0x80 }
  - { offset: 0x5674E, size: 0x8, addend: 0x0, symName: __ZN9Steinberg3Vst3mda9Processor9setActiveEh, symObjAddr: 0x1060, symBinAddr: 0x6060, symSize: 0x80 }
  - { offset: 0x5680B, size: 0x8, addend: 0x0, symName: __ZThn48_N9Steinberg3Vst3mda9Processor9setActiveEh, symObjAddr: 0x10E0, symBinAddr: 0x60E0, symSize: 0x90 }
  - { offset: 0x5751E, size: 0x8, addend: 0x0, symName: __ZN9Steinberg3Vst3mda9Processor8setStateEPNS_8IBStreamE, symObjAddr: 0x1170, symBinAddr: 0x6170, symSize: 0x610 }
  - { offset: 0x589A2, size: 0x8, addend: 0x0, symName: __ZNKSt3__16vectorIdNS_9allocatorIdEEE20__throw_length_errorB8ne180100Ev, symObjAddr: 0x2BD0, symBinAddr: 0x7680, symSize: 0x10 }
  - { offset: 0x589CB, size: 0x8, addend: 0x0, symName: __ZNSt3__120__throw_length_errorB8ne180100EPKc, symObjAddr: 0x2BE0, symBinAddr: 0x7690, symSize: 0x50 }
  - { offset: 0x58DC4, size: 0x8, addend: 0x0, symName: __ZNSt3__110unique_ptrINS_6vectorIdNS_9allocatorIdEEEENS_14default_deleteIS4_EEED1B8ne180100Ev, symObjAddr: 0x1780, symBinAddr: 0x6780, symSize: 0x40 }
  - { offset: 0x58F8A, size: 0x8, addend: 0x0, symName: __ZThn48_N9Steinberg3Vst3mda9Processor8setStateEPNS_8IBStreamE, symObjAddr: 0x1860, symBinAddr: 0x67C0, symSize: 0x10 }
  - { offset: 0x59146, size: 0x8, addend: 0x0, symName: __ZN9Steinberg3Vst3mda9Processor8getStateEPNS_8IBStreamE, symObjAddr: 0x1870, symBinAddr: 0x67D0, symSize: 0x2F0 }
  - { offset: 0x59FA9, size: 0x8, addend: 0x0, symName: __ZNSt3__16vectorIN4VST312Vst2xProgramENS_9allocatorIS2_EEE8__appendEm, symObjAddr: 0x2CA0, symBinAddr: 0x7750, symSize: 0x2A0 }
  - { offset: 0x5AA47, size: 0x8, addend: 0x0, symName: __ZNSt3__16vectorIfNS_9allocatorIfEEE8__appendEm, symObjAddr: 0x2F50, symBinAddr: 0x7A00, symSize: 0x200 }
  - { offset: 0x5B39C, size: 0x8, addend: 0x0, symName: __ZThn48_N9Steinberg3Vst3mda9Processor8getStateEPNS_8IBStreamE, symObjAddr: 0x1C00, symBinAddr: 0x6AC0, symSize: 0x10 }
  - { offset: 0x5B537, size: 0x8, addend: 0x0, symName: __ZN9Steinberg3Vst3mda27SampleAccurateBaseProcessorC2Ev, symObjAddr: 0x1C10, symBinAddr: 0x6AD0, symSize: 0xE0 }
  - { offset: 0x5B76B, size: 0x8, addend: 0x0, symName: __ZNSt3__16vectorINS_4pairIbN9Steinberg3Vst14SampleAccurate9ParameterEEENS_9allocatorIS6_EEE8__appendEm, symObjAddr: 0x3160, symBinAddr: 0x7C10, symSize: 0x1B0 }
  - { offset: 0x5BEEE, size: 0x8, addend: 0x0, symName: __ZN9Steinberg3Vst3mda27SampleAccurateBaseProcessor15allocParametersEi, symObjAddr: 0x1CF0, symBinAddr: 0x6BB0, symSize: 0x80 }
  - { offset: 0x5C221, size: 0x8, addend: 0x0, symName: __ZN9Steinberg3Vst3mda27SampleAccurateBaseProcessor7processERNS0_11ProcessDataE, symObjAddr: 0x1D70, symBinAddr: 0x6C30, symSize: 0x4D0 }
  - { offset: 0x5CA04, size: 0x8, addend: 0x0, symName: __ZN9Steinberg3Vst3mda27SampleAccurateBaseProcessor23processParameterChangesEPNS0_17IParameterChangesE, symObjAddr: 0x2240, symBinAddr: 0x7100, symSize: 0x2B0 }
  - { offset: 0x5CCCC, size: 0x8, addend: 0x0, symName: __ZN9Steinberg3Vst17ProcessDataSlicer7processILNS0_19SymbolicSampleSizesE1EZNS0_3mda27SampleAccurateBaseProcessor7processILS3_1EEEvRNS0_11ProcessDataEEUlS8_E_EEvS8_T0_, symObjAddr: 0x3950, symBinAddr: 0x8400, symSize: 0x370 }
  - { offset: 0x5CEF6, size: 0x8, addend: 0x0, symName: __ZN9Steinberg3Vst17ProcessDataSlicer7processILNS0_19SymbolicSampleSizesE0EZNS0_3mda27SampleAccurateBaseProcessor7processILS3_0EEEvRNS0_11ProcessDataEEUlS8_E_EEvS8_T0_, symObjAddr: 0x3320, symBinAddr: 0x7DD0, symSize: 0x370 }
  - { offset: 0x5D1A7, size: 0x8, addend: 0x0, symName: __ZThn272_N9Steinberg3Vst3mda27SampleAccurateBaseProcessor7processERNS0_11ProcessDataE, symObjAddr: 0x24F0, symBinAddr: 0x73B0, symSize: 0x20 }
  - { offset: 0x5D1EE, size: 0x8, addend: 0x0, symName: __ZN9Steinberg3Vst3mda9Processor11recalculateEv, symObjAddr: 0x2740, symBinAddr: 0x73D0, symSize: 0x10 }
  - { offset: 0x5D211, size: 0x8, addend: 0x0, symName: __ZN9Steinberg3Vst3mda27SampleAccurateBaseProcessorD1Ev, symObjAddr: 0x2910, symBinAddr: 0x66070, symSize: 0x10 }
  - { offset: 0x5D23A, size: 0x8, addend: 0x0, symName: __ZN9Steinberg3Vst3mda27SampleAccurateBaseProcessorD0Ev, symObjAddr: 0x2920, symBinAddr: 0x66080, symSize: 0x10 }
  - { offset: 0x5D425, size: 0x8, addend: 0x0, symName: __ZNSt12length_errorC1B8ne180100EPKc, symObjAddr: 0x2C30, symBinAddr: 0x76E0, symSize: 0x30 }
  - { offset: 0x5D9D0, size: 0x8, addend: 0x0, symName: __ZNKSt3__16vectorIN4VST312Vst2xProgramENS_9allocatorIS2_EEE20__throw_length_errorB8ne180100Ev, symObjAddr: 0x2F40, symBinAddr: 0x79F0, symSize: 0x10 }
  - { offset: 0x5D9F9, size: 0x8, addend: 0x0, symName: __ZNSt3__16vectorIfNS_9allocatorIfEEE8__appendEm, symObjAddr: 0x2F50, symBinAddr: 0x7A00, symSize: 0x200 }
  - { offset: 0x5DD4F, size: 0x8, addend: 0x0, symName: __ZNKSt3__16vectorIfNS_9allocatorIfEEE20__throw_length_errorB8ne180100Ev, symObjAddr: 0x3150, symBinAddr: 0x7C00, symSize: 0x10 }
  - { offset: 0x5DD78, size: 0x8, addend: 0x0, symName: __ZNSt3__16vectorINS_4pairIbN9Steinberg3Vst14SampleAccurate9ParameterEEENS_9allocatorIS6_EEE8__appendEm, symObjAddr: 0x3160, symBinAddr: 0x7C10, symSize: 0x1B0 }
  - { offset: 0x5E1FE, size: 0x8, addend: 0x0, symName: __ZNKSt3__16vectorINS_4pairIbN9Steinberg3Vst14SampleAccurate9ParameterEEENS_9allocatorIS6_EEE20__throw_length_errorB8ne180100Ev, symObjAddr: 0x3310, symBinAddr: 0x7DC0, symSize: 0x10 }
  - { offset: 0x5E227, size: 0x8, addend: 0x0, symName: __ZN9Steinberg3Vst17ProcessDataSlicer7processILNS0_19SymbolicSampleSizesE0EZNS0_3mda27SampleAccurateBaseProcessor7processILS3_0EEEvRNS0_11ProcessDataEEUlS8_E_EEvS8_T0_, symObjAddr: 0x3320, symBinAddr: 0x7DD0, symSize: 0x370 }
  - { offset: 0x5E2A8, size: 0x8, addend: 0x0, symName: __ZZN9Steinberg3Vst3mda27SampleAccurateBaseProcessor7processILNS0_19SymbolicSampleSizesE0EEEvRNS0_11ProcessDataEENKUlS6_E_clES6_, symObjAddr: 0x3690, symBinAddr: 0x8140, symSize: 0x2C0 }
  - { offset: 0x5E689, size: 0x8, addend: 0x0, symName: __ZZN9Steinberg3Vst3mda27SampleAccurateBaseProcessor7processILNS0_19SymbolicSampleSizesE1EEEvRNS0_11ProcessDataEENKUlS6_E_clES6_, symObjAddr: 0x3CC0, symBinAddr: 0x8770, symSize: 0x2B8 }
  - { offset: 0x607D5, size: 0x8, addend: 0x0, symName: __ZN9Steinberg3Vst3mda17BeatBoxControllerC2Ev, symObjAddr: 0x0, symBinAddr: 0x8A30, symSize: 0x70 }
  - { offset: 0x6A989, size: 0x8, addend: 0x0, symName: __ZN9Steinberg3Vst3mda17BeatBoxControllerC2Ev, symObjAddr: 0x0, symBinAddr: 0x8A30, symSize: 0x70 }
  - { offset: 0x6AA02, size: 0x8, addend: 0x0, symName: __ZN9Steinberg3Vst3mda17BeatBoxControllerD1Ev, symObjAddr: 0xF0, symBinAddr: 0x8AA0, symSize: 0x10 }
  - { offset: 0x6AA73, size: 0x8, addend: 0x0, symName: __ZN9Steinberg3Vst3mda17BeatBoxControllerD0Ev, symObjAddr: 0x100, symBinAddr: 0x8AB0, symSize: 0x20 }
  - { offset: 0x6AC2E, size: 0x8, addend: 0x0, symName: __ZN9Steinberg3Vst3mda17BeatBoxController10initializeEPNS_8FUnknownE, symObjAddr: 0x120, symBinAddr: 0x8AD0, symSize: 0xC50 }
  - { offset: 0x6C291, size: 0x8, addend: 0x0, symName: __ZThn16_N9Steinberg3Vst3mda17BeatBoxController10initializeEPNS_8FUnknownE, symObjAddr: 0xD70, symBinAddr: 0x9720, symSize: 0x10 }
  - { offset: 0x6C2BC, size: 0x8, addend: 0x0, symName: __ZThn48_N9Steinberg3Vst3mda17BeatBoxController10initializeEPNS_8FUnknownE, symObjAddr: 0xD80, symBinAddr: 0x9730, symSize: 0x10 }
  - { offset: 0x6C2E7, size: 0x8, addend: 0x0, symName: __ZN9Steinberg3Vst3mda17BeatBoxController9terminateEv, symObjAddr: 0xD90, symBinAddr: 0x9740, symSize: 0x10 }
  - { offset: 0x6C31C, size: 0x8, addend: 0x0, symName: __ZThn16_N9Steinberg3Vst3mda17BeatBoxController9terminateEv, symObjAddr: 0xDA0, symBinAddr: 0x9750, symSize: 0x10 }
  - { offset: 0x6C34D, size: 0x8, addend: 0x0, symName: __ZThn48_N9Steinberg3Vst3mda17BeatBoxController9terminateEv, symObjAddr: 0xDB0, symBinAddr: 0x9760, symSize: 0x10 }
  - { offset: 0x6C37E, size: 0x8, addend: 0x0, symName: __ZN9Steinberg3Vst3mda17BeatBoxController21getParamStringByValueEjdPDs, symObjAddr: 0xDC0, symBinAddr: 0x9770, symSize: 0x10 }
  - { offset: 0x6C3E9, size: 0x8, addend: 0x0, symName: __ZThn48_N9Steinberg3Vst3mda17BeatBoxController21getParamStringByValueEjdPDs, symObjAddr: 0xDD0, symBinAddr: 0x9780, symSize: 0x10 }
  - { offset: 0x6C42F, size: 0x8, addend: 0x0, symName: __ZN9Steinberg3Vst3mda17BeatBoxController21getParamValueByStringEjPDsRd, symObjAddr: 0xDE0, symBinAddr: 0x9790, symSize: 0x10 }
  - { offset: 0x6C49A, size: 0x8, addend: 0x0, symName: __ZThn48_N9Steinberg3Vst3mda17BeatBoxController21getParamValueByStringEjPDsRd, symObjAddr: 0xDF0, symBinAddr: 0x97A0, symSize: 0x10 }
  - { offset: 0x6E338, size: 0x8, addend: 0x0, symName: __ZN9Steinberg3Vst3mda16BeatBoxProcessorC2Ev, symObjAddr: 0x0, symBinAddr: 0x97B0, symSize: 0x110 }
  - { offset: 0x6EC4F, size: 0x8, addend: 0x0, symName: __ZN9Steinberg3Vst3mda17BeatBoxController3uidE, symObjAddr: 0x1D10, symBinAddr: 0x66D00, symSize: 0x0 }
  - { offset: 0x707E0, size: 0x8, addend: 0x0, symName: __ZN9Steinberg3Vst3mda16BeatBoxProcessorC2Ev, symObjAddr: 0x0, symBinAddr: 0x97B0, symSize: 0x110 }
  - { offset: 0x70A41, size: 0x8, addend: 0x0, symName: __ZN9Steinberg3Vst3mda16BeatBoxProcessorC1Ev, symObjAddr: 0x190, symBinAddr: 0x98C0, symSize: 0x170 }
  - { offset: 0x70CB0, size: 0x8, addend: 0x0, symName: __ZN9Steinberg3Vst3mda16BeatBoxProcessor10initializeEPNS_8FUnknownE, symObjAddr: 0x300, symBinAddr: 0x9A30, symSize: 0x140 }
  - { offset: 0x70E58, size: 0x8, addend: 0x0, symName: __ZThn16_N9Steinberg3Vst3mda16BeatBoxProcessor10initializeEPNS_8FUnknownE, symObjAddr: 0x440, symBinAddr: 0x9B70, symSize: 0x10 }
  - { offset: 0x70E83, size: 0x8, addend: 0x0, symName: __ZThn48_N9Steinberg3Vst3mda16BeatBoxProcessor10initializeEPNS_8FUnknownE, symObjAddr: 0x450, symBinAddr: 0x9B80, symSize: 0x10 }
  - { offset: 0x70EC7, size: 0x8, addend: 0x0, symName: __ZN9Steinberg3Vst3mda16BeatBoxProcessor9setActiveEh, symObjAddr: 0x460, symBinAddr: 0x9B90, symSize: 0x4E0 }
  - { offset: 0x71014, size: 0x8, addend: 0x0, symName: __ZThn48_N9Steinberg3Vst3mda16BeatBoxProcessor9setActiveEh, symObjAddr: 0x940, symBinAddr: 0xA070, symSize: 0x10 }
  - { offset: 0x7103F, size: 0x8, addend: 0x0, symName: __ZN9Steinberg3Vst3mda16BeatBoxProcessor12doProcessingERNS0_11ProcessDataE, symObjAddr: 0x950, symBinAddr: 0xA080, symSize: 0x5A0 }
  - { offset: 0x712FF, size: 0x8, addend: 0x0, symName: __ZN9Steinberg3Vst3mda16BeatBoxProcessor11recalculateEv, symObjAddr: 0xEF0, symBinAddr: 0xA620, symSize: 0x420 }
  - { offset: 0x713EE, size: 0x8, addend: 0x0, symName: __ZN9Steinberg3Vst3mda16BeatBoxProcessorD1Ev, symObjAddr: 0x1430, symBinAddr: 0xAA40, symSize: 0x80 }
  - { offset: 0x71590, size: 0x8, addend: 0x0, symName: __ZN9Steinberg3Vst3mda16BeatBoxProcessorD0Ev, symObjAddr: 0x14B0, symBinAddr: 0xAAC0, symSize: 0x90 }
  - { offset: 0x71750, size: 0x8, addend: 0x0, symName: __ZNK9Steinberg3Vst3mda16BeatBoxProcessor15getVst2UniqueIdEv, symObjAddr: 0x16A0, symBinAddr: 0xAB50, symSize: 0x10 }
  - { offset: 0x73596, size: 0x8, addend: 0x0, symName: __ZN9Steinberg3Vst3mda15ComboControllerC2Ev, symObjAddr: 0x0, symBinAddr: 0xAB60, symSize: 0x70 }
  - { offset: 0x7D69B, size: 0x8, addend: 0x0, symName: __ZN9Steinberg3Vst3mda15ComboControllerC2Ev, symObjAddr: 0x0, symBinAddr: 0xAB60, symSize: 0x70 }
  - { offset: 0x7D714, size: 0x8, addend: 0x0, symName: __ZN9Steinberg3Vst3mda15ComboControllerD1Ev, symObjAddr: 0xF0, symBinAddr: 0xABD0, symSize: 0x10 }
  - { offset: 0x7D786, size: 0x8, addend: 0x0, symName: __ZN9Steinberg3Vst3mda15ComboControllerD0Ev, symObjAddr: 0x100, symBinAddr: 0xABE0, symSize: 0x20 }
  - { offset: 0x7D912, size: 0x8, addend: 0x0, symName: __ZN9Steinberg3Vst3mda15ComboController10initializeEPNS_8FUnknownE, symObjAddr: 0x120, symBinAddr: 0xAC00, symSize: 0x7A0 }
  - { offset: 0x7E6A9, size: 0x8, addend: 0x0, symName: __ZThn16_N9Steinberg3Vst3mda15ComboController10initializeEPNS_8FUnknownE, symObjAddr: 0x8C0, symBinAddr: 0xB3A0, symSize: 0x10 }
  - { offset: 0x7E6D4, size: 0x8, addend: 0x0, symName: __ZThn48_N9Steinberg3Vst3mda15ComboController10initializeEPNS_8FUnknownE, symObjAddr: 0x8D0, symBinAddr: 0xB3B0, symSize: 0x10 }
  - { offset: 0x7E6FF, size: 0x8, addend: 0x0, symName: __ZN9Steinberg3Vst3mda15ComboController9terminateEv, symObjAddr: 0x8E0, symBinAddr: 0xB3C0, symSize: 0x10 }
  - { offset: 0x7E734, size: 0x8, addend: 0x0, symName: __ZThn16_N9Steinberg3Vst3mda15ComboController9terminateEv, symObjAddr: 0x8F0, symBinAddr: 0xB3D0, symSize: 0x10 }
  - { offset: 0x7E765, size: 0x8, addend: 0x0, symName: __ZThn48_N9Steinberg3Vst3mda15ComboController9terminateEv, symObjAddr: 0x900, symBinAddr: 0xB3E0, symSize: 0x10 }
  - { offset: 0x805EE, size: 0x8, addend: 0x0, symName: __ZN9Steinberg3Vst3mda14ComboProcessorC2Ev, symObjAddr: 0x0, symBinAddr: 0xB3F0, symSize: 0xE0 }
  - { offset: 0x80E80, size: 0x8, addend: 0x0, symName: __ZN9Steinberg3Vst3mda15ComboController3uidE, symObjAddr: 0x2200, symBinAddr: 0x66F90, symSize: 0x0 }
  - { offset: 0x829E9, size: 0x8, addend: 0x0, symName: __ZN9Steinberg3Vst3mda14ComboProcessorC2Ev, symObjAddr: 0x0, symBinAddr: 0xB3F0, symSize: 0xE0 }
  - { offset: 0x82C49, size: 0x8, addend: 0x0, symName: __ZN9Steinberg3Vst3mda14ComboProcessorC1Ev, symObjAddr: 0x160, symBinAddr: 0xB4D0, symSize: 0x140 }
  - { offset: 0x82E26, size: 0x8, addend: 0x0, symName: __ZN9Steinberg3Vst3mda14ComboProcessorD1Ev, symObjAddr: 0x320, symBinAddr: 0xB610, symSize: 0x80 }
  - { offset: 0x82FC8, size: 0x8, addend: 0x0, symName: __ZN9Steinberg3Vst3mda14ComboProcessorD0Ev, symObjAddr: 0x3A0, symBinAddr: 0xB690, symSize: 0x90 }
  - { offset: 0x8321F, size: 0x8, addend: 0x0, symName: __ZN9Steinberg3Vst3mda14ComboProcessor10initializeEPNS_8FUnknownE, symObjAddr: 0x430, symBinAddr: 0xB720, symSize: 0x150 }
  - { offset: 0x833C7, size: 0x8, addend: 0x0, symName: __ZThn16_N9Steinberg3Vst3mda14ComboProcessor10initializeEPNS_8FUnknownE, symObjAddr: 0x580, symBinAddr: 0xB870, symSize: 0x10 }
  - { offset: 0x833F2, size: 0x8, addend: 0x0, symName: __ZThn48_N9Steinberg3Vst3mda14ComboProcessor10initializeEPNS_8FUnknownE, symObjAddr: 0x590, symBinAddr: 0xB880, symSize: 0x10 }
  - { offset: 0x8341D, size: 0x8, addend: 0x0, symName: __ZN9Steinberg3Vst3mda14ComboProcessor9terminateEv, symObjAddr: 0x5A0, symBinAddr: 0xB890, symSize: 0x50 }
  - { offset: 0x83454, size: 0x8, addend: 0x0, symName: __ZThn16_N9Steinberg3Vst3mda14ComboProcessor9terminateEv, symObjAddr: 0x5F0, symBinAddr: 0xB8E0, symSize: 0x50 }
  - { offset: 0x83480, size: 0x8, addend: 0x0, symName: __ZThn48_N9Steinberg3Vst3mda14ComboProcessor9terminateEv, symObjAddr: 0x640, symBinAddr: 0xB930, symSize: 0x50 }
  - { offset: 0x834C2, size: 0x8, addend: 0x0, symName: __ZN9Steinberg3Vst3mda14ComboProcessor9setActiveEh, symObjAddr: 0x690, symBinAddr: 0xB980, symSize: 0x80 }
  - { offset: 0x83508, size: 0x8, addend: 0x0, symName: __ZN9Steinberg3Vst3mda14ComboProcessor12clearBuffersEv, symObjAddr: 0x710, symBinAddr: 0xBA00, symSize: 0x70 }
  - { offset: 0x8354A, size: 0x8, addend: 0x0, symName: __ZThn48_N9Steinberg3Vst3mda14ComboProcessor9setActiveEh, symObjAddr: 0x780, symBinAddr: 0xBA70, symSize: 0x90 }
  - { offset: 0x8359D, size: 0x8, addend: 0x0, symName: __ZN9Steinberg3Vst3mda14ComboProcessor12doProcessingERNS0_11ProcessDataE, symObjAddr: 0x810, symBinAddr: 0xBB00, symSize: 0x860 }
  - { offset: 0x83805, size: 0x8, addend: 0x0, symName: __ZN9Steinberg3Vst3mda14ComboProcessor10filterFreqEf, symObjAddr: 0x1070, symBinAddr: 0xC360, symSize: 0x60 }
  - { offset: 0x838C7, size: 0x8, addend: 0x0, symName: __ZN9Steinberg3Vst3mda14ComboProcessor11recalculateEv, symObjAddr: 0x10D0, symBinAddr: 0xC3C0, symSize: 0x6F0 }
  - { offset: 0x83BF4, size: 0x8, addend: 0x0, symName: __ZNK9Steinberg3Vst3mda14ComboProcessor15getVst2UniqueIdEv, symObjAddr: 0x1A40, symBinAddr: 0xCAB0, symSize: 0x10 }
  - { offset: 0x85A46, size: 0x8, addend: 0x0, symName: __ZN9Steinberg3Vst3mda14DX10ControllerC2Ev, symObjAddr: 0x0, symBinAddr: 0xCAC0, symSize: 0x70 }
  - { offset: 0x85A82, size: 0x8, addend: 0x0, symName: __ZN9Steinberg3Vst3mdaL11presetNamesE, symObjAddr: 0x1820, symBinAddr: 0x73220, symSize: 0x0 }
  - { offset: 0x8FC15, size: 0x8, addend: 0x0, symName: __ZN9Steinberg3Vst3mda14DX10ControllerC2Ev, symObjAddr: 0x0, symBinAddr: 0xCAC0, symSize: 0x70 }
  - { offset: 0x8FC8E, size: 0x8, addend: 0x0, symName: __ZN9Steinberg3Vst3mda14DX10ControllerD1Ev, symObjAddr: 0xF0, symBinAddr: 0xCB30, symSize: 0x10 }
  - { offset: 0x8FCFF, size: 0x8, addend: 0x0, symName: __ZN9Steinberg3Vst3mda14DX10ControllerD0Ev, symObjAddr: 0x100, symBinAddr: 0xCB40, symSize: 0x20 }
  - { offset: 0x8FE8C, size: 0x8, addend: 0x0, symName: __ZN9Steinberg3Vst3mda14DX10Controller10initializeEPNS_8FUnknownE, symObjAddr: 0x120, symBinAddr: 0xCB60, symSize: 0xCB0 }
  - { offset: 0x917E7, size: 0x8, addend: 0x0, symName: __ZThn16_N9Steinberg3Vst3mda14DX10Controller10initializeEPNS_8FUnknownE, symObjAddr: 0xDD0, symBinAddr: 0xD810, symSize: 0x10 }
  - { offset: 0x91812, size: 0x8, addend: 0x0, symName: __ZThn48_N9Steinberg3Vst3mda14DX10Controller10initializeEPNS_8FUnknownE, symObjAddr: 0xDE0, symBinAddr: 0xD820, symSize: 0x10 }
  - { offset: 0x9183D, size: 0x8, addend: 0x0, symName: __ZN9Steinberg3Vst3mda14DX10Controller9terminateEv, symObjAddr: 0xDF0, symBinAddr: 0xD830, symSize: 0x10 }
  - { offset: 0x91872, size: 0x8, addend: 0x0, symName: __ZThn16_N9Steinberg3Vst3mda14DX10Controller9terminateEv, symObjAddr: 0xE00, symBinAddr: 0xD840, symSize: 0x10 }
  - { offset: 0x918A3, size: 0x8, addend: 0x0, symName: __ZThn48_N9Steinberg3Vst3mda14DX10Controller9terminateEv, symObjAddr: 0xE10, symBinAddr: 0xD850, symSize: 0x10 }
  - { offset: 0x918ED, size: 0x8, addend: 0x0, symName: __ZN9Steinberg3Vst3mda14DX10Controller18setParamNormalizedEjd, symObjAddr: 0xE20, symBinAddr: 0xD860, symSize: 0x210 }
  - { offset: 0x919C3, size: 0x8, addend: 0x0, symName: __ZThn48_N9Steinberg3Vst3mda14DX10Controller18setParamNormalizedEjd, symObjAddr: 0x1030, symBinAddr: 0xDA70, symSize: 0x10 }
  - { offset: 0x919F5, size: 0x8, addend: 0x0, symName: __ZN9Steinberg3Vst3mda14DX10Controller21getParamStringByValueEjdPDs, symObjAddr: 0x1040, symBinAddr: 0xDA80, symSize: 0x10 }
  - { offset: 0x91A60, size: 0x8, addend: 0x0, symName: __ZThn48_N9Steinberg3Vst3mda14DX10Controller21getParamStringByValueEjdPDs, symObjAddr: 0x1050, symBinAddr: 0xDA90, symSize: 0x10 }
  - { offset: 0x938EB, size: 0x8, addend: 0x0, symName: __ZN9Steinberg3Vst3mda13DX10ProcessorC2Ev, symObjAddr: 0x0, symBinAddr: 0xDAA0, symSize: 0xF0 }
  - { offset: 0x93912, size: 0x8, addend: 0x0, symName: __ZN9Steinberg3Vst3mda13DX10Processor13programParamsE, symObjAddr: 0x2030, symBinAddr: 0x8B810, symSize: 0x0 }
  - { offset: 0x965B3, size: 0x8, addend: 0x0, symName: __ZN9Steinberg3Vst3mda14DX10Controller3uidE, symObjAddr: 0x2BA0, symBinAddr: 0x67170, symSize: 0x0 }
  - { offset: 0x96653, size: 0x8, addend: 0x0, symName: __ZN9Steinberg3Vst3mda13DX10ProcessorC2Ev, symObjAddr: 0x0, symBinAddr: 0xDAA0, symSize: 0xF0 }
  - { offset: 0x968F1, size: 0x8, addend: 0x0, symName: __ZN9Steinberg3Vst3mda13DX10ProcessorC1Ev, symObjAddr: 0x170, symBinAddr: 0xDB90, symSize: 0x150 }
  - { offset: 0x96B0C, size: 0x8, addend: 0x0, symName: __ZN9Steinberg3Vst3mda13DX10ProcessorD1Ev, symObjAddr: 0x340, symBinAddr: 0xDCE0, symSize: 0x80 }
  - { offset: 0x96CAE, size: 0x8, addend: 0x0, symName: __ZN9Steinberg3Vst3mda13DX10ProcessorD0Ev, symObjAddr: 0x3C0, symBinAddr: 0xDD60, symSize: 0x90 }
  - { offset: 0x96F05, size: 0x8, addend: 0x0, symName: __ZN9Steinberg3Vst3mda13DX10Processor10initializeEPNS_8FUnknownE, symObjAddr: 0x450, symBinAddr: 0xDDF0, symSize: 0x2D0 }
  - { offset: 0x97104, size: 0x8, addend: 0x0, symName: __ZThn16_N9Steinberg3Vst3mda13DX10Processor10initializeEPNS_8FUnknownE, symObjAddr: 0x720, symBinAddr: 0xE0C0, symSize: 0x10 }
  - { offset: 0x9712F, size: 0x8, addend: 0x0, symName: __ZThn48_N9Steinberg3Vst3mda13DX10Processor10initializeEPNS_8FUnknownE, symObjAddr: 0x730, symBinAddr: 0xE0D0, symSize: 0x10 }
  - { offset: 0x9715A, size: 0x8, addend: 0x0, symName: __ZN9Steinberg3Vst3mda13DX10Processor9terminateEv, symObjAddr: 0x740, symBinAddr: 0xE0E0, symSize: 0x10 }
  - { offset: 0x9718F, size: 0x8, addend: 0x0, symName: __ZThn16_N9Steinberg3Vst3mda13DX10Processor9terminateEv, symObjAddr: 0x750, symBinAddr: 0xE0F0, symSize: 0x10 }
  - { offset: 0x971C0, size: 0x8, addend: 0x0, symName: __ZThn48_N9Steinberg3Vst3mda13DX10Processor9terminateEv, symObjAddr: 0x760, symBinAddr: 0xE100, symSize: 0x10 }
  - { offset: 0x97205, size: 0x8, addend: 0x0, symName: __ZN9Steinberg3Vst3mda13DX10Processor9setActiveEh, symObjAddr: 0x770, symBinAddr: 0xE110, symSize: 0x30 }
  - { offset: 0x9726D, size: 0x8, addend: 0x0, symName: __ZThn48_N9Steinberg3Vst3mda13DX10Processor9setActiveEh, symObjAddr: 0x7A0, symBinAddr: 0xE140, symSize: 0x30 }
  - { offset: 0x972C3, size: 0x8, addend: 0x0, symName: __ZN9Steinberg3Vst3mda13DX10Processor12setParameterEjdi, symObjAddr: 0x7D0, symBinAddr: 0xE170, symSize: 0x130 }
  - { offset: 0x97350, size: 0x8, addend: 0x0, symName: __ZN9Steinberg3Vst3mda13DX10Processor17setCurrentProgramEj, symObjAddr: 0x900, symBinAddr: 0xE2A0, symSize: 0x10 }
  - { offset: 0x97382, size: 0x8, addend: 0x0, symName: __ZN9Steinberg3Vst3mda13DX10Processor27setCurrentProgramNormalizedEd, symObjAddr: 0x910, symBinAddr: 0xE2B0, symSize: 0x30 }
  - { offset: 0x97406, size: 0x8, addend: 0x0, symName: __ZN9Steinberg3Vst3mda13DX10Processor12doProcessingERNS0_11ProcessDataE, symObjAddr: 0x940, symBinAddr: 0xE2E0, symSize: 0x6E0 }
  - { offset: 0x97561, size: 0x8, addend: 0x0, symName: __ZN9Steinberg3Vst3mda13DX10Processor9noteEventERKNS0_5EventE, symObjAddr: 0x1020, symBinAddr: 0xE9C0, symSize: 0x630 }
  - { offset: 0x9768F, size: 0x8, addend: 0x0, symName: __ZN9Steinberg3Vst3mda13DX10Processor10preProcessEv, symObjAddr: 0x1650, symBinAddr: 0xEFF0, symSize: 0x30 }
  - { offset: 0x976F5, size: 0x8, addend: 0x0, symName: __ZN9Steinberg3Vst3mda13DX10Processor12processEventERKNS0_5EventE, symObjAddr: 0x1680, symBinAddr: 0xF020, symSize: 0x90 }
  - { offset: 0x97789, size: 0x8, addend: 0x0, symName: __ZN9Steinberg3Vst3mda13DX10Processor11recalculateEv, symObjAddr: 0x1710, symBinAddr: 0xF0B0, symSize: 0x330 }
  - { offset: 0x97812, size: 0x8, addend: 0x0, symName: __ZN9Steinberg3Vst3mda13DX10Processor12checkSilenceERNS0_11ProcessDataE, symObjAddr: 0x1C50, symBinAddr: 0xF3E0, symSize: 0x10 }
  - { offset: 0x9783E, size: 0x8, addend: 0x0, symName: __ZNK9Steinberg3Vst3mda13DX10Processor10hasProgramEv, symObjAddr: 0x1C60, symBinAddr: 0xF3F0, symSize: 0x10 }
  - { offset: 0x97861, size: 0x8, addend: 0x0, symName: __ZNK9Steinberg3Vst3mda13DX10Processor17getCurrentProgramEv, symObjAddr: 0x1C70, symBinAddr: 0xF400, symSize: 0x10 }
  - { offset: 0x97884, size: 0x8, addend: 0x0, symName: __ZNK9Steinberg3Vst3mda13DX10Processor14getNumProgramsEv, symObjAddr: 0x1C80, symBinAddr: 0xF410, symSize: 0x10 }
  - { offset: 0x978A7, size: 0x8, addend: 0x0, symName: __ZNK9Steinberg3Vst3mda13DX10Processor15getVst2UniqueIdEv, symObjAddr: 0x1C90, symBinAddr: 0xF420, symSize: 0x10 }
  - { offset: 0x99728, size: 0x8, addend: 0x0, symName: __ZN9Steinberg3Vst3mda17DeEsserControllerC2Ev, symObjAddr: 0x0, symBinAddr: 0xF430, symSize: 0x70 }
  - { offset: 0xA3816, size: 0x8, addend: 0x0, symName: __ZN9Steinberg3Vst3mda17DeEsserControllerC2Ev, symObjAddr: 0x0, symBinAddr: 0xF430, symSize: 0x70 }
  - { offset: 0xA388F, size: 0x8, addend: 0x0, symName: __ZN9Steinberg3Vst3mda17DeEsserControllerD1Ev, symObjAddr: 0xF0, symBinAddr: 0xF4A0, symSize: 0x10 }
  - { offset: 0xA3900, size: 0x8, addend: 0x0, symName: __ZN9Steinberg3Vst3mda17DeEsserControllerD0Ev, symObjAddr: 0x100, symBinAddr: 0xF4B0, symSize: 0x20 }
  - { offset: 0xA3A2C, size: 0x8, addend: 0x0, symName: __ZN9Steinberg3Vst3mda17DeEsserController10initializeEPNS_8FUnknownE, symObjAddr: 0x120, symBinAddr: 0xF4D0, symSize: 0x2E0 }
  - { offset: 0xA3E68, size: 0x8, addend: 0x0, symName: __ZThn16_N9Steinberg3Vst3mda17DeEsserController10initializeEPNS_8FUnknownE, symObjAddr: 0x400, symBinAddr: 0xF7B0, symSize: 0x10 }
  - { offset: 0xA3E93, size: 0x8, addend: 0x0, symName: __ZThn48_N9Steinberg3Vst3mda17DeEsserController10initializeEPNS_8FUnknownE, symObjAddr: 0x410, symBinAddr: 0xF7C0, symSize: 0x10 }
  - { offset: 0xA3EBE, size: 0x8, addend: 0x0, symName: __ZN9Steinberg3Vst3mda17DeEsserController9terminateEv, symObjAddr: 0x420, symBinAddr: 0xF7D0, symSize: 0x10 }
  - { offset: 0xA3EF3, size: 0x8, addend: 0x0, symName: __ZThn16_N9Steinberg3Vst3mda17DeEsserController9terminateEv, symObjAddr: 0x430, symBinAddr: 0xF7E0, symSize: 0x10 }
  - { offset: 0xA3F24, size: 0x8, addend: 0x0, symName: __ZThn48_N9Steinberg3Vst3mda17DeEsserController9terminateEv, symObjAddr: 0x440, symBinAddr: 0xF7F0, symSize: 0x10 }
  - { offset: 0xA5DA8, size: 0x8, addend: 0x0, symName: __ZN9Steinberg3Vst3mda16DeEsserProcessorC2Ev, symObjAddr: 0x0, symBinAddr: 0xF800, symSize: 0xD0 }
  - { offset: 0xA64D9, size: 0x8, addend: 0x0, symName: __ZN9Steinberg3Vst3mda17DeEsserController3uidE, symObjAddr: 0x1010, symBinAddr: 0x67220, symSize: 0x0 }
  - { offset: 0xA8025, size: 0x8, addend: 0x0, symName: __ZN9Steinberg3Vst3mda16DeEsserProcessorC2Ev, symObjAddr: 0x0, symBinAddr: 0xF800, symSize: 0xD0 }
  - { offset: 0xA8285, size: 0x8, addend: 0x0, symName: __ZN9Steinberg3Vst3mda16DeEsserProcessorC1Ev, symObjAddr: 0x150, symBinAddr: 0xF8D0, symSize: 0x130 }
  - { offset: 0xA8462, size: 0x8, addend: 0x0, symName: __ZN9Steinberg3Vst3mda16DeEsserProcessorD1Ev, symObjAddr: 0x300, symBinAddr: 0xFA00, symSize: 0x80 }
  - { offset: 0xA8604, size: 0x8, addend: 0x0, symName: __ZN9Steinberg3Vst3mda16DeEsserProcessorD0Ev, symObjAddr: 0x380, symBinAddr: 0xFA80, symSize: 0x90 }
  - { offset: 0xA885B, size: 0x8, addend: 0x0, symName: __ZN9Steinberg3Vst3mda16DeEsserProcessor10initializeEPNS_8FUnknownE, symObjAddr: 0x410, symBinAddr: 0xFB10, symSize: 0x110 }
  - { offset: 0xA8A03, size: 0x8, addend: 0x0, symName: __ZThn16_N9Steinberg3Vst3mda16DeEsserProcessor10initializeEPNS_8FUnknownE, symObjAddr: 0x520, symBinAddr: 0xFC20, symSize: 0x10 }
  - { offset: 0xA8A2E, size: 0x8, addend: 0x0, symName: __ZThn48_N9Steinberg3Vst3mda16DeEsserProcessor10initializeEPNS_8FUnknownE, symObjAddr: 0x530, symBinAddr: 0xFC30, symSize: 0x10 }
  - { offset: 0xA8A59, size: 0x8, addend: 0x0, symName: __ZN9Steinberg3Vst3mda16DeEsserProcessor9terminateEv, symObjAddr: 0x540, symBinAddr: 0xFC40, symSize: 0x10 }
  - { offset: 0xA8A8E, size: 0x8, addend: 0x0, symName: __ZThn16_N9Steinberg3Vst3mda16DeEsserProcessor9terminateEv, symObjAddr: 0x550, symBinAddr: 0xFC50, symSize: 0x10 }
  - { offset: 0xA8ABF, size: 0x8, addend: 0x0, symName: __ZThn48_N9Steinberg3Vst3mda16DeEsserProcessor9terminateEv, symObjAddr: 0x560, symBinAddr: 0xFC60, symSize: 0x10 }
  - { offset: 0xA8AF0, size: 0x8, addend: 0x0, symName: __ZN9Steinberg3Vst3mda16DeEsserProcessor9setActiveEh, symObjAddr: 0x570, symBinAddr: 0xFC70, symSize: 0x20 }
  - { offset: 0xA8B37, size: 0x8, addend: 0x0, symName: __ZThn48_N9Steinberg3Vst3mda16DeEsserProcessor9setActiveEh, symObjAddr: 0x590, symBinAddr: 0xFC90, symSize: 0x30 }
  - { offset: 0xA8B68, size: 0x8, addend: 0x0, symName: __ZN9Steinberg3Vst3mda16DeEsserProcessor12doProcessingERNS0_11ProcessDataE, symObjAddr: 0x5C0, symBinAddr: 0xFCC0, symSize: 0x1B0 }
  - { offset: 0xA8CDF, size: 0x8, addend: 0x0, symName: __ZN9Steinberg3Vst3mda16DeEsserProcessor11recalculateEv, symObjAddr: 0x770, symBinAddr: 0xFE70, symSize: 0xA0 }
  - { offset: 0xA8D6A, size: 0x8, addend: 0x0, symName: __ZNK9Steinberg3Vst3mda16DeEsserProcessor15getVst2UniqueIdEv, symObjAddr: 0xA90, symBinAddr: 0xFF10, symSize: 0x10 }
  - { offset: 0xAABBC, size: 0x8, addend: 0x0, symName: __ZN9Steinberg3Vst3mda17DegradeControllerC2Ev, symObjAddr: 0x0, symBinAddr: 0xFF20, symSize: 0x70 }
  - { offset: 0xB4D59, size: 0x8, addend: 0x0, symName: __ZN9Steinberg3Vst3mda17DegradeControllerC2Ev, symObjAddr: 0x0, symBinAddr: 0xFF20, symSize: 0x70 }
  - { offset: 0xB4DD2, size: 0x8, addend: 0x0, symName: __ZN9Steinberg3Vst3mda17DegradeControllerD1Ev, symObjAddr: 0xF0, symBinAddr: 0xFF90, symSize: 0x10 }
  - { offset: 0xB4E43, size: 0x8, addend: 0x0, symName: __ZN9Steinberg3Vst3mda17DegradeControllerD0Ev, symObjAddr: 0x100, symBinAddr: 0xFFA0, symSize: 0x20 }
  - { offset: 0xB4F6F, size: 0x8, addend: 0x0, symName: __ZN9Steinberg3Vst3mda17DegradeController10initializeEPNS_8FUnknownE, symObjAddr: 0x120, symBinAddr: 0xFFC0, symSize: 0x490 }
  - { offset: 0xB5786, size: 0x8, addend: 0x0, symName: __ZThn16_N9Steinberg3Vst3mda17DegradeController10initializeEPNS_8FUnknownE, symObjAddr: 0x5B0, symBinAddr: 0x10450, symSize: 0x10 }
  - { offset: 0xB57B1, size: 0x8, addend: 0x0, symName: __ZThn48_N9Steinberg3Vst3mda17DegradeController10initializeEPNS_8FUnknownE, symObjAddr: 0x5C0, symBinAddr: 0x10460, symSize: 0x10 }
  - { offset: 0xB57DC, size: 0x8, addend: 0x0, symName: __ZN9Steinberg3Vst3mda17DegradeController9terminateEv, symObjAddr: 0x5D0, symBinAddr: 0x10470, symSize: 0x10 }
  - { offset: 0xB5811, size: 0x8, addend: 0x0, symName: __ZThn16_N9Steinberg3Vst3mda17DegradeController9terminateEv, symObjAddr: 0x5E0, symBinAddr: 0x10480, symSize: 0x10 }
  - { offset: 0xB5842, size: 0x8, addend: 0x0, symName: __ZThn48_N9Steinberg3Vst3mda17DegradeController9terminateEv, symObjAddr: 0x5F0, symBinAddr: 0x10490, symSize: 0x10 }
  - { offset: 0xB58A8, size: 0x8, addend: 0x0, symName: __ZN9Steinberg3Vst3mda17DegradeController21getParamStringByValueEjdPDs, symObjAddr: 0x600, symBinAddr: 0x104A0, symSize: 0x150 }
  - { offset: 0xB59E4, size: 0x8, addend: 0x0, symName: __ZThn48_N9Steinberg3Vst3mda17DegradeController21getParamStringByValueEjdPDs, symObjAddr: 0x750, symBinAddr: 0x105F0, symSize: 0x10 }
  - { offset: 0xB5A1D, size: 0x8, addend: 0x0, symName: __ZN9Steinberg3Vst3mda17DegradeController21getParamValueByStringEjPDsRd, symObjAddr: 0x760, symBinAddr: 0x10600, symSize: 0x10 }
  - { offset: 0xB5A88, size: 0x8, addend: 0x0, symName: __ZThn48_N9Steinberg3Vst3mda17DegradeController21getParamValueByStringEjPDsRd, symObjAddr: 0x770, symBinAddr: 0x10610, symSize: 0x10 }
  - { offset: 0xB7921, size: 0x8, addend: 0x0, symName: __ZN9Steinberg3Vst3mda16DegradeProcessorC2Ev, symObjAddr: 0x0, symBinAddr: 0x10620, symSize: 0xD0 }
  - { offset: 0xB8123, size: 0x8, addend: 0x0, symName: __ZN9Steinberg3Vst3mda17DegradeController3uidE, symObjAddr: 0x1530, symBinAddr: 0x67330, symSize: 0x0 }
  - { offset: 0xB9CA9, size: 0x8, addend: 0x0, symName: __ZN9Steinberg3Vst3mda16DegradeProcessorC2Ev, symObjAddr: 0x0, symBinAddr: 0x10620, symSize: 0xD0 }
  - { offset: 0xB9F09, size: 0x8, addend: 0x0, symName: __ZN9Steinberg3Vst3mda16DegradeProcessorC1Ev, symObjAddr: 0x150, symBinAddr: 0x106F0, symSize: 0x130 }
  - { offset: 0xBA0E6, size: 0x8, addend: 0x0, symName: __ZN9Steinberg3Vst3mda16DegradeProcessorD1Ev, symObjAddr: 0x300, symBinAddr: 0x10820, symSize: 0x80 }
  - { offset: 0xBA288, size: 0x8, addend: 0x0, symName: __ZN9Steinberg3Vst3mda16DegradeProcessorD0Ev, symObjAddr: 0x380, symBinAddr: 0x108A0, symSize: 0x90 }
  - { offset: 0xBA4DF, size: 0x8, addend: 0x0, symName: __ZN9Steinberg3Vst3mda16DegradeProcessor10initializeEPNS_8FUnknownE, symObjAddr: 0x410, symBinAddr: 0x10930, symSize: 0x110 }
  - { offset: 0xBA687, size: 0x8, addend: 0x0, symName: __ZThn16_N9Steinberg3Vst3mda16DegradeProcessor10initializeEPNS_8FUnknownE, symObjAddr: 0x520, symBinAddr: 0x10A40, symSize: 0x10 }
  - { offset: 0xBA6B2, size: 0x8, addend: 0x0, symName: __ZThn48_N9Steinberg3Vst3mda16DegradeProcessor10initializeEPNS_8FUnknownE, symObjAddr: 0x530, symBinAddr: 0x10A50, symSize: 0x10 }
  - { offset: 0xBA6DD, size: 0x8, addend: 0x0, symName: __ZN9Steinberg3Vst3mda16DegradeProcessor9terminateEv, symObjAddr: 0x540, symBinAddr: 0x10A60, symSize: 0x10 }
  - { offset: 0xBA712, size: 0x8, addend: 0x0, symName: __ZThn16_N9Steinberg3Vst3mda16DegradeProcessor9terminateEv, symObjAddr: 0x550, symBinAddr: 0x10A70, symSize: 0x10 }
  - { offset: 0xBA743, size: 0x8, addend: 0x0, symName: __ZThn48_N9Steinberg3Vst3mda16DegradeProcessor9terminateEv, symObjAddr: 0x560, symBinAddr: 0x10A80, symSize: 0x10 }
  - { offset: 0xBA774, size: 0x8, addend: 0x0, symName: __ZN9Steinberg3Vst3mda16DegradeProcessor9setActiveEh, symObjAddr: 0x570, symBinAddr: 0x10A90, symSize: 0x30 }
  - { offset: 0xBA7BD, size: 0x8, addend: 0x0, symName: __ZThn48_N9Steinberg3Vst3mda16DegradeProcessor9setActiveEh, symObjAddr: 0x5A0, symBinAddr: 0x10AC0, symSize: 0x40 }
  - { offset: 0xBA7F2, size: 0x8, addend: 0x0, symName: __ZN9Steinberg3Vst3mda16DegradeProcessor12doProcessingERNS0_11ProcessDataE, symObjAddr: 0x5E0, symBinAddr: 0x10B00, symSize: 0x430 }
  - { offset: 0xBAA16, size: 0x8, addend: 0x0, symName: __ZN9Steinberg3Vst3mda16DegradeProcessor10filterFreqEf, symObjAddr: 0xA10, symBinAddr: 0x10F30, symSize: 0x60 }
  - { offset: 0xBAABF, size: 0x8, addend: 0x0, symName: __ZN9Steinberg3Vst3mda16DegradeProcessor11recalculateEv, symObjAddr: 0xA70, symBinAddr: 0x10F90, symSize: 0x230 }
  - { offset: 0xBABBE, size: 0x8, addend: 0x0, symName: __ZNK9Steinberg3Vst3mda16DegradeProcessor15getVst2UniqueIdEv, symObjAddr: 0xF20, symBinAddr: 0x111C0, symSize: 0x10 }
  - { offset: 0xBCA10, size: 0x8, addend: 0x0, symName: __ZN9Steinberg3Vst3mda15DelayControllerC2Ev, symObjAddr: 0x0, symBinAddr: 0x111D0, symSize: 0x70 }
  - { offset: 0xC6B68, size: 0x8, addend: 0x0, symName: __ZN9Steinberg3Vst3mda15DelayControllerC2Ev, symObjAddr: 0x0, symBinAddr: 0x111D0, symSize: 0x70 }
  - { offset: 0xC6BE1, size: 0x8, addend: 0x0, symName: __ZN9Steinberg3Vst3mda15DelayControllerD1Ev, symObjAddr: 0xF0, symBinAddr: 0x11240, symSize: 0x10 }
  - { offset: 0xC6C52, size: 0x8, addend: 0x0, symName: __ZN9Steinberg3Vst3mda15DelayControllerD0Ev, symObjAddr: 0x100, symBinAddr: 0x11250, symSize: 0x20 }
  - { offset: 0xC6D7E, size: 0x8, addend: 0x0, symName: __ZN9Steinberg3Vst3mda15DelayController10initializeEPNS_8FUnknownE, symObjAddr: 0x120, symBinAddr: 0x11270, symSize: 0x4C0 }
  - { offset: 0xC75B1, size: 0x8, addend: 0x0, symName: __ZThn16_N9Steinberg3Vst3mda15DelayController10initializeEPNS_8FUnknownE, symObjAddr: 0x5E0, symBinAddr: 0x11730, symSize: 0x10 }
  - { offset: 0xC75DC, size: 0x8, addend: 0x0, symName: __ZThn48_N9Steinberg3Vst3mda15DelayController10initializeEPNS_8FUnknownE, symObjAddr: 0x5F0, symBinAddr: 0x11740, symSize: 0x10 }
  - { offset: 0xC7607, size: 0x8, addend: 0x0, symName: __ZN9Steinberg3Vst3mda15DelayController9terminateEv, symObjAddr: 0x600, symBinAddr: 0x11750, symSize: 0x10 }
  - { offset: 0xC763C, size: 0x8, addend: 0x0, symName: __ZThn16_N9Steinberg3Vst3mda15DelayController9terminateEv, symObjAddr: 0x610, symBinAddr: 0x11760, symSize: 0x10 }
  - { offset: 0xC766D, size: 0x8, addend: 0x0, symName: __ZThn48_N9Steinberg3Vst3mda15DelayController9terminateEv, symObjAddr: 0x620, symBinAddr: 0x11770, symSize: 0x10 }
  - { offset: 0xC76D3, size: 0x8, addend: 0x0, symName: __ZN9Steinberg3Vst3mda15DelayController21getParamStringByValueEjdPDs, symObjAddr: 0x630, symBinAddr: 0x11780, symSize: 0x1A0 }
  - { offset: 0xC77F3, size: 0x8, addend: 0x0, symName: __ZThn48_N9Steinberg3Vst3mda15DelayController21getParamStringByValueEjdPDs, symObjAddr: 0x7D0, symBinAddr: 0x11920, symSize: 0x10 }
  - { offset: 0xC782C, size: 0x8, addend: 0x0, symName: __ZN9Steinberg3Vst3mda15DelayController21getParamValueByStringEjPDsRd, symObjAddr: 0x7E0, symBinAddr: 0x11930, symSize: 0x10 }
  - { offset: 0xC7897, size: 0x8, addend: 0x0, symName: __ZThn48_N9Steinberg3Vst3mda15DelayController21getParamValueByStringEjPDsRd, symObjAddr: 0x7F0, symBinAddr: 0x11940, symSize: 0x10 }
  - { offset: 0xC9730, size: 0x8, addend: 0x0, symName: __ZN9Steinberg3Vst3mda14DelayProcessorC2Ev, symObjAddr: 0x0, symBinAddr: 0x11950, symSize: 0xE0 }
  - { offset: 0xC9E99, size: 0x8, addend: 0x0, symName: __ZN9Steinberg3Vst3mda15DelayController3uidE, symObjAddr: 0x1260, symBinAddr: 0x67450, symSize: 0x0 }
  - { offset: 0xCB9E5, size: 0x8, addend: 0x0, symName: __ZN9Steinberg3Vst3mda14DelayProcessorC2Ev, symObjAddr: 0x0, symBinAddr: 0x11950, symSize: 0xE0 }
  - { offset: 0xCBC45, size: 0x8, addend: 0x0, symName: __ZN9Steinberg3Vst3mda14DelayProcessorC1Ev, symObjAddr: 0x160, symBinAddr: 0x11A30, symSize: 0x140 }
  - { offset: 0xCBE22, size: 0x8, addend: 0x0, symName: __ZN9Steinberg3Vst3mda14DelayProcessorD1Ev, symObjAddr: 0x320, symBinAddr: 0x11B70, symSize: 0x80 }
  - { offset: 0xCBFC4, size: 0x8, addend: 0x0, symName: __ZN9Steinberg3Vst3mda14DelayProcessorD0Ev, symObjAddr: 0x3A0, symBinAddr: 0x11BF0, symSize: 0x90 }
  - { offset: 0xCC21B, size: 0x8, addend: 0x0, symName: __ZN9Steinberg3Vst3mda14DelayProcessor10initializeEPNS_8FUnknownE, symObjAddr: 0x430, symBinAddr: 0x11C80, symSize: 0x140 }
  - { offset: 0xCC3C3, size: 0x8, addend: 0x0, symName: __ZThn16_N9Steinberg3Vst3mda14DelayProcessor10initializeEPNS_8FUnknownE, symObjAddr: 0x570, symBinAddr: 0x11DC0, symSize: 0x10 }
  - { offset: 0xCC3EE, size: 0x8, addend: 0x0, symName: __ZThn48_N9Steinberg3Vst3mda14DelayProcessor10initializeEPNS_8FUnknownE, symObjAddr: 0x580, symBinAddr: 0x11DD0, symSize: 0x10 }
  - { offset: 0xCC419, size: 0x8, addend: 0x0, symName: __ZN9Steinberg3Vst3mda14DelayProcessor9terminateEv, symObjAddr: 0x590, symBinAddr: 0x11DE0, symSize: 0x40 }
  - { offset: 0xCC450, size: 0x8, addend: 0x0, symName: __ZThn16_N9Steinberg3Vst3mda14DelayProcessor9terminateEv, symObjAddr: 0x5D0, symBinAddr: 0x11E20, symSize: 0x40 }
  - { offset: 0xCC47C, size: 0x8, addend: 0x0, symName: __ZThn48_N9Steinberg3Vst3mda14DelayProcessor9terminateEv, symObjAddr: 0x610, symBinAddr: 0x11E60, symSize: 0x40 }
  - { offset: 0xCC4A8, size: 0x8, addend: 0x0, symName: __ZN9Steinberg3Vst3mda14DelayProcessor9setActiveEh, symObjAddr: 0x650, symBinAddr: 0x11EA0, symSize: 0x40 }
  - { offset: 0xCC4F3, size: 0x8, addend: 0x0, symName: __ZThn48_N9Steinberg3Vst3mda14DelayProcessor9setActiveEh, symObjAddr: 0x690, symBinAddr: 0x11EE0, symSize: 0x40 }
  - { offset: 0xCC528, size: 0x8, addend: 0x0, symName: __ZN9Steinberg3Vst3mda14DelayProcessor12doProcessingERNS0_11ProcessDataE, symObjAddr: 0x6D0, symBinAddr: 0x11F20, symSize: 0x1A0 }
  - { offset: 0xCC6AD, size: 0x8, addend: 0x0, symName: __ZN9Steinberg3Vst3mda14DelayProcessor11recalculateEv, symObjAddr: 0x870, symBinAddr: 0x120C0, symSize: 0x1D0 }
  - { offset: 0xCC720, size: 0x8, addend: 0x0, symName: __ZNK9Steinberg3Vst3mda14DelayProcessor15getVst2UniqueIdEv, symObjAddr: 0xCC0, symBinAddr: 0x12290, symSize: 0x10 }
  - { offset: 0xCE572, size: 0x8, addend: 0x0, symName: __ZN9Steinberg3Vst3mda16DetuneControllerC2Ev, symObjAddr: 0x0, symBinAddr: 0x122A0, symSize: 0x70 }
  - { offset: 0xD86BC, size: 0x8, addend: 0x0, symName: __ZN9Steinberg3Vst3mda16DetuneControllerC2Ev, symObjAddr: 0x0, symBinAddr: 0x122A0, symSize: 0x70 }
  - { offset: 0xD8735, size: 0x8, addend: 0x0, symName: __ZN9Steinberg3Vst3mda16DetuneControllerD1Ev, symObjAddr: 0xF0, symBinAddr: 0x12310, symSize: 0x10 }
  - { offset: 0xD87A6, size: 0x8, addend: 0x0, symName: __ZN9Steinberg3Vst3mda16DetuneControllerD0Ev, symObjAddr: 0x100, symBinAddr: 0x12320, symSize: 0x20 }
  - { offset: 0xD88D2, size: 0x8, addend: 0x0, symName: __ZN9Steinberg3Vst3mda16DetuneController10initializeEPNS_8FUnknownE, symObjAddr: 0x120, symBinAddr: 0x12340, symSize: 0x350 }
  - { offset: 0xD8E5E, size: 0x8, addend: 0x0, symName: __ZThn16_N9Steinberg3Vst3mda16DetuneController10initializeEPNS_8FUnknownE, symObjAddr: 0x470, symBinAddr: 0x12690, symSize: 0x10 }
  - { offset: 0xD8E89, size: 0x8, addend: 0x0, symName: __ZThn48_N9Steinberg3Vst3mda16DetuneController10initializeEPNS_8FUnknownE, symObjAddr: 0x480, symBinAddr: 0x126A0, symSize: 0x10 }
  - { offset: 0xD8EB4, size: 0x8, addend: 0x0, symName: __ZN9Steinberg3Vst3mda16DetuneController9terminateEv, symObjAddr: 0x490, symBinAddr: 0x126B0, symSize: 0x10 }
  - { offset: 0xD8EE9, size: 0x8, addend: 0x0, symName: __ZThn16_N9Steinberg3Vst3mda16DetuneController9terminateEv, symObjAddr: 0x4A0, symBinAddr: 0x126C0, symSize: 0x10 }
  - { offset: 0xD8F1A, size: 0x8, addend: 0x0, symName: __ZThn48_N9Steinberg3Vst3mda16DetuneController9terminateEv, symObjAddr: 0x4B0, symBinAddr: 0x126D0, symSize: 0x10 }
  - { offset: 0xD8F4B, size: 0x8, addend: 0x0, symName: __ZN9Steinberg3Vst3mda16DetuneController21getParamStringByValueEjdPDs, symObjAddr: 0x4C0, symBinAddr: 0x126E0, symSize: 0x10 }
  - { offset: 0xD8FB6, size: 0x8, addend: 0x0, symName: __ZThn48_N9Steinberg3Vst3mda16DetuneController21getParamStringByValueEjdPDs, symObjAddr: 0x4D0, symBinAddr: 0x126F0, symSize: 0x10 }
  - { offset: 0xD8FFC, size: 0x8, addend: 0x0, symName: __ZN9Steinberg3Vst3mda16DetuneController21getParamValueByStringEjPDsRd, symObjAddr: 0x4E0, symBinAddr: 0x12700, symSize: 0x10 }
  - { offset: 0xD9067, size: 0x8, addend: 0x0, symName: __ZThn48_N9Steinberg3Vst3mda16DetuneController21getParamValueByStringEjPDsRd, symObjAddr: 0x4F0, symBinAddr: 0x12710, symSize: 0x10 }
  - { offset: 0xDAF00, size: 0x8, addend: 0x0, symName: __ZN9Steinberg3Vst3mda15DetuneProcessorC2Ev, symObjAddr: 0x0, symBinAddr: 0x12720, symSize: 0xE0 }
  - { offset: 0xDB669, size: 0x8, addend: 0x0, symName: __ZN9Steinberg3Vst3mda16DetuneController3uidE, symObjAddr: 0x1480, symBinAddr: 0x67550, symSize: 0x0 }
  - { offset: 0xDD198, size: 0x8, addend: 0x0, symName: __ZN9Steinberg3Vst3mda15DetuneProcessorC2Ev, symObjAddr: 0x0, symBinAddr: 0x12720, symSize: 0xE0 }
  - { offset: 0xDD3F9, size: 0x8, addend: 0x0, symName: __ZN9Steinberg3Vst3mda15DetuneProcessorC1Ev, symObjAddr: 0x160, symBinAddr: 0x12800, symSize: 0x140 }
  - { offset: 0xDD5D5, size: 0x8, addend: 0x0, symName: __ZN9Steinberg3Vst3mda15DetuneProcessorD1Ev, symObjAddr: 0x320, symBinAddr: 0x12940, symSize: 0x80 }
  - { offset: 0xDD777, size: 0x8, addend: 0x0, symName: __ZN9Steinberg3Vst3mda15DetuneProcessorD0Ev, symObjAddr: 0x3A0, symBinAddr: 0x129C0, symSize: 0x90 }
  - { offset: 0xDD9CE, size: 0x8, addend: 0x0, symName: __ZN9Steinberg3Vst3mda15DetuneProcessor10initializeEPNS_8FUnknownE, symObjAddr: 0x430, symBinAddr: 0x12A50, symSize: 0x130 }
  - { offset: 0xDDB76, size: 0x8, addend: 0x0, symName: __ZThn16_N9Steinberg3Vst3mda15DetuneProcessor10initializeEPNS_8FUnknownE, symObjAddr: 0x560, symBinAddr: 0x12B80, symSize: 0x10 }
  - { offset: 0xDDBA1, size: 0x8, addend: 0x0, symName: __ZThn48_N9Steinberg3Vst3mda15DetuneProcessor10initializeEPNS_8FUnknownE, symObjAddr: 0x570, symBinAddr: 0x12B90, symSize: 0x10 }
  - { offset: 0xDDBCC, size: 0x8, addend: 0x0, symName: __ZN9Steinberg3Vst3mda15DetuneProcessor9terminateEv, symObjAddr: 0x580, symBinAddr: 0x12BA0, symSize: 0x50 }
  - { offset: 0xDDC03, size: 0x8, addend: 0x0, symName: __ZThn16_N9Steinberg3Vst3mda15DetuneProcessor9terminateEv, symObjAddr: 0x5D0, symBinAddr: 0x12BF0, symSize: 0x50 }
  - { offset: 0xDDC2F, size: 0x8, addend: 0x0, symName: __ZThn48_N9Steinberg3Vst3mda15DetuneProcessor9terminateEv, symObjAddr: 0x620, symBinAddr: 0x12C40, symSize: 0x50 }
  - { offset: 0xDDC5B, size: 0x8, addend: 0x0, symName: __ZN9Steinberg3Vst3mda15DetuneProcessor9setActiveEh, symObjAddr: 0x670, symBinAddr: 0x12C90, symSize: 0x50 }
  - { offset: 0xDDCA6, size: 0x8, addend: 0x0, symName: __ZThn48_N9Steinberg3Vst3mda15DetuneProcessor9setActiveEh, symObjAddr: 0x6C0, symBinAddr: 0x12CE0, symSize: 0x50 }
  - { offset: 0xDDCDB, size: 0x8, addend: 0x0, symName: __ZN9Steinberg3Vst3mda15DetuneProcessor12doProcessingERNS0_11ProcessDataE, symObjAddr: 0x710, symBinAddr: 0x12D30, symSize: 0x260 }
  - { offset: 0xDDE55, size: 0x8, addend: 0x0, symName: __ZN9Steinberg3Vst3mda15DetuneProcessor11recalculateEv, symObjAddr: 0x970, symBinAddr: 0x12F90, symSize: 0x2E0 }
  - { offset: 0xDDF2D, size: 0x8, addend: 0x0, symName: __ZNK9Steinberg3Vst3mda15DetuneProcessor15getVst2UniqueIdEv, symObjAddr: 0xED0, symBinAddr: 0x13270, symSize: 0x10 }
  - { offset: 0xDFD7F, size: 0x8, addend: 0x0, symName: __ZN9Steinberg3Vst3mda16DitherControllerC2Ev, symObjAddr: 0x0, symBinAddr: 0x13280, symSize: 0x70 }
  - { offset: 0xE9ED5, size: 0x8, addend: 0x0, symName: __ZN9Steinberg3Vst3mda16DitherControllerC2Ev, symObjAddr: 0x0, symBinAddr: 0x13280, symSize: 0x70 }
  - { offset: 0xE9F4E, size: 0x8, addend: 0x0, symName: __ZN9Steinberg3Vst3mda16DitherControllerD1Ev, symObjAddr: 0xF0, symBinAddr: 0x132F0, symSize: 0x10 }
  - { offset: 0xE9FC0, size: 0x8, addend: 0x0, symName: __ZN9Steinberg3Vst3mda16DitherControllerD0Ev, symObjAddr: 0x100, symBinAddr: 0x13300, symSize: 0x20 }
  - { offset: 0xEA14C, size: 0x8, addend: 0x0, symName: __ZN9Steinberg3Vst3mda16DitherController10initializeEPNS_8FUnknownE, symObjAddr: 0x120, symBinAddr: 0x13320, symSize: 0x550 }
  - { offset: 0xEAADD, size: 0x8, addend: 0x0, symName: __ZThn16_N9Steinberg3Vst3mda16DitherController10initializeEPNS_8FUnknownE, symObjAddr: 0x670, symBinAddr: 0x13870, symSize: 0x10 }
  - { offset: 0xEAB08, size: 0x8, addend: 0x0, symName: __ZThn48_N9Steinberg3Vst3mda16DitherController10initializeEPNS_8FUnknownE, symObjAddr: 0x680, symBinAddr: 0x13880, symSize: 0x10 }
  - { offset: 0xEAB33, size: 0x8, addend: 0x0, symName: __ZN9Steinberg3Vst3mda16DitherController9terminateEv, symObjAddr: 0x690, symBinAddr: 0x13890, symSize: 0x10 }
  - { offset: 0xEAB68, size: 0x8, addend: 0x0, symName: __ZThn16_N9Steinberg3Vst3mda16DitherController9terminateEv, symObjAddr: 0x6A0, symBinAddr: 0x138A0, symSize: 0x10 }
  - { offset: 0xEAB99, size: 0x8, addend: 0x0, symName: __ZThn48_N9Steinberg3Vst3mda16DitherController9terminateEv, symObjAddr: 0x6B0, symBinAddr: 0x138B0, symSize: 0x10 }
  - { offset: 0xEABFA, size: 0x8, addend: 0x0, symName: __ZN9Steinberg3Vst3mda16DitherController21getParamStringByValueEjdPDs, symObjAddr: 0x6C0, symBinAddr: 0x138C0, symSize: 0x90 }
  - { offset: 0xEACEE, size: 0x8, addend: 0x0, symName: __ZThn48_N9Steinberg3Vst3mda16DitherController21getParamStringByValueEjdPDs, symObjAddr: 0x750, symBinAddr: 0x13950, symSize: 0xA0 }
  - { offset: 0xEAD98, size: 0x8, addend: 0x0, symName: __ZN9Steinberg3Vst3mda16DitherController21getParamValueByStringEjPDsRd, symObjAddr: 0x7F0, symBinAddr: 0x139F0, symSize: 0x10 }
  - { offset: 0xEAE03, size: 0x8, addend: 0x0, symName: __ZThn48_N9Steinberg3Vst3mda16DitherController21getParamValueByStringEjPDsRd, symObjAddr: 0x800, symBinAddr: 0x13A00, symSize: 0x10 }
  - { offset: 0xECCA1, size: 0x8, addend: 0x0, symName: __ZN9Steinberg3Vst3mda15DitherProcessorC2Ev, symObjAddr: 0x0, symBinAddr: 0x13A10, symSize: 0xD0 }
  - { offset: 0xED40A, size: 0x8, addend: 0x0, symName: __ZN9Steinberg3Vst3mda16DitherController3uidE, symObjAddr: 0x1170, symBinAddr: 0x675F0, symSize: 0x0 }
  - { offset: 0xEEF39, size: 0x8, addend: 0x0, symName: __ZN9Steinberg3Vst3mda15DitherProcessorC2Ev, symObjAddr: 0x0, symBinAddr: 0x13A10, symSize: 0xD0 }
  - { offset: 0xEF19A, size: 0x8, addend: 0x0, symName: __ZN9Steinberg3Vst3mda15DitherProcessorC1Ev, symObjAddr: 0x150, symBinAddr: 0x13AE0, symSize: 0x130 }
  - { offset: 0xEF376, size: 0x8, addend: 0x0, symName: __ZN9Steinberg3Vst3mda15DitherProcessorD1Ev, symObjAddr: 0x300, symBinAddr: 0x13C10, symSize: 0x80 }
  - { offset: 0xEF518, size: 0x8, addend: 0x0, symName: __ZN9Steinberg3Vst3mda15DitherProcessorD0Ev, symObjAddr: 0x380, symBinAddr: 0x13C90, symSize: 0x90 }
  - { offset: 0xEF76F, size: 0x8, addend: 0x0, symName: __ZN9Steinberg3Vst3mda15DitherProcessor10initializeEPNS_8FUnknownE, symObjAddr: 0x410, symBinAddr: 0x13D20, symSize: 0x120 }
  - { offset: 0xEF917, size: 0x8, addend: 0x0, symName: __ZThn16_N9Steinberg3Vst3mda15DitherProcessor10initializeEPNS_8FUnknownE, symObjAddr: 0x530, symBinAddr: 0x13E40, symSize: 0x10 }
  - { offset: 0xEF942, size: 0x8, addend: 0x0, symName: __ZThn48_N9Steinberg3Vst3mda15DitherProcessor10initializeEPNS_8FUnknownE, symObjAddr: 0x540, symBinAddr: 0x13E50, symSize: 0x10 }
  - { offset: 0xEF96D, size: 0x8, addend: 0x0, symName: __ZN9Steinberg3Vst3mda15DitherProcessor9terminateEv, symObjAddr: 0x550, symBinAddr: 0x13E60, symSize: 0x10 }
  - { offset: 0xEF9A2, size: 0x8, addend: 0x0, symName: __ZThn16_N9Steinberg3Vst3mda15DitherProcessor9terminateEv, symObjAddr: 0x560, symBinAddr: 0x13E70, symSize: 0x10 }
  - { offset: 0xEF9D3, size: 0x8, addend: 0x0, symName: __ZThn48_N9Steinberg3Vst3mda15DitherProcessor9terminateEv, symObjAddr: 0x570, symBinAddr: 0x13E80, symSize: 0x10 }
  - { offset: 0xEFA04, size: 0x8, addend: 0x0, symName: __ZN9Steinberg3Vst3mda15DitherProcessor9setActiveEh, symObjAddr: 0x580, symBinAddr: 0x13E90, symSize: 0x10 }
  - { offset: 0xEFA4B, size: 0x8, addend: 0x0, symName: __ZThn48_N9Steinberg3Vst3mda15DitherProcessor9setActiveEh, symObjAddr: 0x590, symBinAddr: 0x13EA0, symSize: 0x10 }
  - { offset: 0xEFA7C, size: 0x8, addend: 0x0, symName: __ZN9Steinberg3Vst3mda15DitherProcessor12doProcessingERNS0_11ProcessDataE, symObjAddr: 0x5A0, symBinAddr: 0x13EB0, symSize: 0x280 }
  - { offset: 0xEFC27, size: 0x8, addend: 0x0, symName: __ZN9Steinberg3Vst3mda15DitherProcessor11recalculateEv, symObjAddr: 0x820, symBinAddr: 0x14130, symSize: 0x140 }
  - { offset: 0xEFC8B, size: 0x8, addend: 0x0, symName: __ZNK9Steinberg3Vst3mda15DitherProcessor15getVst2UniqueIdEv, symObjAddr: 0xBE0, symBinAddr: 0x14270, symSize: 0x10 }
  - { offset: 0xF1AD1, size: 0x8, addend: 0x0, symName: __ZN9Steinberg3Vst3mda18DubDelayControllerC2Ev, symObjAddr: 0x0, symBinAddr: 0x14280, symSize: 0x70 }
  - { offset: 0xFBC5D, size: 0x8, addend: 0x0, symName: __ZN9Steinberg3Vst3mda18DubDelayControllerC2Ev, symObjAddr: 0x0, symBinAddr: 0x14280, symSize: 0x70 }
  - { offset: 0xFBCD6, size: 0x8, addend: 0x0, symName: __ZN9Steinberg3Vst3mda18DubDelayControllerD1Ev, symObjAddr: 0xF0, symBinAddr: 0x142F0, symSize: 0x10 }
  - { offset: 0xFBD47, size: 0x8, addend: 0x0, symName: __ZN9Steinberg3Vst3mda18DubDelayControllerD0Ev, symObjAddr: 0x100, symBinAddr: 0x14300, symSize: 0x20 }
  - { offset: 0xFBE73, size: 0x8, addend: 0x0, symName: __ZN9Steinberg3Vst3mda18DubDelayController10initializeEPNS_8FUnknownE, symObjAddr: 0x120, symBinAddr: 0x14320, symSize: 0x590 }
  - { offset: 0xFC7E8, size: 0x8, addend: 0x0, symName: __ZThn16_N9Steinberg3Vst3mda18DubDelayController10initializeEPNS_8FUnknownE, symObjAddr: 0x6B0, symBinAddr: 0x148B0, symSize: 0x10 }
  - { offset: 0xFC813, size: 0x8, addend: 0x0, symName: __ZThn48_N9Steinberg3Vst3mda18DubDelayController10initializeEPNS_8FUnknownE, symObjAddr: 0x6C0, symBinAddr: 0x148C0, symSize: 0x10 }
  - { offset: 0xFC83E, size: 0x8, addend: 0x0, symName: __ZN9Steinberg3Vst3mda18DubDelayController9terminateEv, symObjAddr: 0x6D0, symBinAddr: 0x148D0, symSize: 0x10 }
  - { offset: 0xFC873, size: 0x8, addend: 0x0, symName: __ZThn16_N9Steinberg3Vst3mda18DubDelayController9terminateEv, symObjAddr: 0x6E0, symBinAddr: 0x148E0, symSize: 0x10 }
  - { offset: 0xFC8A4, size: 0x8, addend: 0x0, symName: __ZThn48_N9Steinberg3Vst3mda18DubDelayController9terminateEv, symObjAddr: 0x6F0, symBinAddr: 0x148F0, symSize: 0x10 }
  - { offset: 0xFC90A, size: 0x8, addend: 0x0, symName: __ZN9Steinberg3Vst3mda18DubDelayController21getParamStringByValueEjdPDs, symObjAddr: 0x700, symBinAddr: 0x14900, symSize: 0xE0 }
  - { offset: 0xFCA00, size: 0x8, addend: 0x0, symName: __ZThn48_N9Steinberg3Vst3mda18DubDelayController21getParamStringByValueEjdPDs, symObjAddr: 0x7E0, symBinAddr: 0x149E0, symSize: 0x10 }
  - { offset: 0xFCA39, size: 0x8, addend: 0x0, symName: __ZN9Steinberg3Vst3mda18DubDelayController21getParamValueByStringEjPDsRd, symObjAddr: 0x7F0, symBinAddr: 0x149F0, symSize: 0x10 }
  - { offset: 0xFCAA4, size: 0x8, addend: 0x0, symName: __ZThn48_N9Steinberg3Vst3mda18DubDelayController21getParamValueByStringEjPDsRd, symObjAddr: 0x800, symBinAddr: 0x14A00, symSize: 0x10 }
  - { offset: 0xFE945, size: 0x8, addend: 0x0, symName: __ZN9Steinberg3Vst3mda17DubDelayProcessorC2Ev, symObjAddr: 0x0, symBinAddr: 0x14A10, symSize: 0xD0 }
  - { offset: 0xFF0F4, size: 0x8, addend: 0x0, symName: __ZN9Steinberg3Vst3mda18DubDelayController3uidE, symObjAddr: 0x1490, symBinAddr: 0x676C0, symSize: 0x0 }
  - { offset: 0x100C7A, size: 0x8, addend: 0x0, symName: __ZN9Steinberg3Vst3mda17DubDelayProcessorC2Ev, symObjAddr: 0x0, symBinAddr: 0x14A10, symSize: 0xD0 }
  - { offset: 0x100EDA, size: 0x8, addend: 0x0, symName: __ZN9Steinberg3Vst3mda17DubDelayProcessorC1Ev, symObjAddr: 0x150, symBinAddr: 0x14AE0, symSize: 0x130 }
  - { offset: 0x1010B7, size: 0x8, addend: 0x0, symName: __ZN9Steinberg3Vst3mda17DubDelayProcessorD1Ev, symObjAddr: 0x300, symBinAddr: 0x14C10, symSize: 0x80 }
  - { offset: 0x101259, size: 0x8, addend: 0x0, symName: __ZN9Steinberg3Vst3mda17DubDelayProcessorD0Ev, symObjAddr: 0x380, symBinAddr: 0x14C90, symSize: 0x90 }
  - { offset: 0x1014B0, size: 0x8, addend: 0x0, symName: __ZN9Steinberg3Vst3mda17DubDelayProcessor10initializeEPNS_8FUnknownE, symObjAddr: 0x410, symBinAddr: 0x14D20, symSize: 0x170 }
  - { offset: 0x101658, size: 0x8, addend: 0x0, symName: __ZThn16_N9Steinberg3Vst3mda17DubDelayProcessor10initializeEPNS_8FUnknownE, symObjAddr: 0x580, symBinAddr: 0x14E90, symSize: 0x10 }
  - { offset: 0x101683, size: 0x8, addend: 0x0, symName: __ZThn48_N9Steinberg3Vst3mda17DubDelayProcessor10initializeEPNS_8FUnknownE, symObjAddr: 0x590, symBinAddr: 0x14EA0, symSize: 0x10 }
  - { offset: 0x1016AE, size: 0x8, addend: 0x0, symName: __ZN9Steinberg3Vst3mda17DubDelayProcessor9terminateEv, symObjAddr: 0x5A0, symBinAddr: 0x14EB0, symSize: 0x40 }
  - { offset: 0x1016E5, size: 0x8, addend: 0x0, symName: __ZThn16_N9Steinberg3Vst3mda17DubDelayProcessor9terminateEv, symObjAddr: 0x5E0, symBinAddr: 0x14EF0, symSize: 0x40 }
  - { offset: 0x101711, size: 0x8, addend: 0x0, symName: __ZThn48_N9Steinberg3Vst3mda17DubDelayProcessor9terminateEv, symObjAddr: 0x620, symBinAddr: 0x14F30, symSize: 0x40 }
  - { offset: 0x10173D, size: 0x8, addend: 0x0, symName: __ZN9Steinberg3Vst3mda17DubDelayProcessor9setActiveEh, symObjAddr: 0x660, symBinAddr: 0x14F70, symSize: 0x10 }
  - { offset: 0x101784, size: 0x8, addend: 0x0, symName: __ZThn48_N9Steinberg3Vst3mda17DubDelayProcessor9setActiveEh, symObjAddr: 0x670, symBinAddr: 0x14F80, symSize: 0x10 }
  - { offset: 0x1017B5, size: 0x8, addend: 0x0, symName: __ZN9Steinberg3Vst3mda17DubDelayProcessor12doProcessingERNS0_11ProcessDataE, symObjAddr: 0x680, symBinAddr: 0x14F90, symSize: 0x3B0 }
  - { offset: 0x1019C6, size: 0x8, addend: 0x0, symName: __ZN9Steinberg3Vst3mda17DubDelayProcessor11recalculateEv, symObjAddr: 0xA30, symBinAddr: 0x15340, symSize: 0x210 }
  - { offset: 0x101A98, size: 0x8, addend: 0x0, symName: __ZNK9Steinberg3Vst3mda17DubDelayProcessor15getVst2UniqueIdEv, symObjAddr: 0xEC0, symBinAddr: 0x15550, symSize: 0x10 }
  - { offset: 0x1038F2, size: 0x8, addend: 0x0, symName: __ZN9Steinberg3Vst3mda18DynamicsControllerC2Ev, symObjAddr: 0x0, symBinAddr: 0x15560, symSize: 0x70 }
  - { offset: 0x10DA75, size: 0x8, addend: 0x0, symName: __ZN9Steinberg3Vst3mda18DynamicsControllerC2Ev, symObjAddr: 0x0, symBinAddr: 0x15560, symSize: 0x70 }
  - { offset: 0x10DAEE, size: 0x8, addend: 0x0, symName: __ZN9Steinberg3Vst3mda18DynamicsControllerD1Ev, symObjAddr: 0xF0, symBinAddr: 0x155D0, symSize: 0x10 }
  - { offset: 0x10DB5F, size: 0x8, addend: 0x0, symName: __ZN9Steinberg3Vst3mda18DynamicsControllerD0Ev, symObjAddr: 0x100, symBinAddr: 0x155E0, symSize: 0x20 }
  - { offset: 0x10DCEC, size: 0x8, addend: 0x0, symName: __ZN9Steinberg3Vst3mda18DynamicsController10initializeEPNS_8FUnknownE, symObjAddr: 0x120, symBinAddr: 0x15600, symSize: 0x740 }
  - { offset: 0x10EA3A, size: 0x8, addend: 0x0, symName: __ZThn16_N9Steinberg3Vst3mda18DynamicsController10initializeEPNS_8FUnknownE, symObjAddr: 0x860, symBinAddr: 0x15D40, symSize: 0x10 }
  - { offset: 0x10EA65, size: 0x8, addend: 0x0, symName: __ZThn48_N9Steinberg3Vst3mda18DynamicsController10initializeEPNS_8FUnknownE, symObjAddr: 0x870, symBinAddr: 0x15D50, symSize: 0x10 }
  - { offset: 0x10EA90, size: 0x8, addend: 0x0, symName: __ZN9Steinberg3Vst3mda18DynamicsController9terminateEv, symObjAddr: 0x880, symBinAddr: 0x15D60, symSize: 0x10 }
  - { offset: 0x10EAC5, size: 0x8, addend: 0x0, symName: __ZThn16_N9Steinberg3Vst3mda18DynamicsController9terminateEv, symObjAddr: 0x890, symBinAddr: 0x15D70, symSize: 0x10 }
  - { offset: 0x10EAF6, size: 0x8, addend: 0x0, symName: __ZThn48_N9Steinberg3Vst3mda18DynamicsController9terminateEv, symObjAddr: 0x8A0, symBinAddr: 0x15D80, symSize: 0x10 }
  - { offset: 0x10EB27, size: 0x8, addend: 0x0, symName: __ZN9Steinberg3Vst3mda18DynamicsController21getParamStringByValueEjdPDs, symObjAddr: 0x8B0, symBinAddr: 0x15D90, symSize: 0x10 }
  - { offset: 0x10EB92, size: 0x8, addend: 0x0, symName: __ZThn48_N9Steinberg3Vst3mda18DynamicsController21getParamStringByValueEjdPDs, symObjAddr: 0x8C0, symBinAddr: 0x15DA0, symSize: 0x10 }
  - { offset: 0x10EBD8, size: 0x8, addend: 0x0, symName: __ZN9Steinberg3Vst3mda18DynamicsController21getParamValueByStringEjPDsRd, symObjAddr: 0x8D0, symBinAddr: 0x15DB0, symSize: 0x10 }
  - { offset: 0x10EC43, size: 0x8, addend: 0x0, symName: __ZThn48_N9Steinberg3Vst3mda18DynamicsController21getParamValueByStringEjPDsRd, symObjAddr: 0x8E0, symBinAddr: 0x15DC0, symSize: 0x10 }
  - { offset: 0x110ADC, size: 0x8, addend: 0x0, symName: __ZN9Steinberg3Vst3mda17DynamicsProcessorC2Ev, symObjAddr: 0x0, symBinAddr: 0x15DD0, symSize: 0xD0 }
  - { offset: 0x11128E, size: 0x8, addend: 0x0, symName: __ZN9Steinberg3Vst3mda18DynamicsController3uidE, symObjAddr: 0x14D0, symBinAddr: 0x677C0, symSize: 0x0 }
  - { offset: 0x112DBD, size: 0x8, addend: 0x0, symName: __ZN9Steinberg3Vst3mda17DynamicsProcessorC2Ev, symObjAddr: 0x0, symBinAddr: 0x15DD0, symSize: 0xD0 }
  - { offset: 0x11301D, size: 0x8, addend: 0x0, symName: __ZN9Steinberg3Vst3mda17DynamicsProcessorC1Ev, symObjAddr: 0x150, symBinAddr: 0x15EA0, symSize: 0x130 }
  - { offset: 0x1131FA, size: 0x8, addend: 0x0, symName: __ZN9Steinberg3Vst3mda17DynamicsProcessorD1Ev, symObjAddr: 0x300, symBinAddr: 0x15FD0, symSize: 0x80 }
  - { offset: 0x11339C, size: 0x8, addend: 0x0, symName: __ZN9Steinberg3Vst3mda17DynamicsProcessorD0Ev, symObjAddr: 0x380, symBinAddr: 0x16050, symSize: 0x90 }
  - { offset: 0x1135F3, size: 0x8, addend: 0x0, symName: __ZN9Steinberg3Vst3mda17DynamicsProcessor10initializeEPNS_8FUnknownE, symObjAddr: 0x410, symBinAddr: 0x160E0, symSize: 0x130 }
  - { offset: 0x11379B, size: 0x8, addend: 0x0, symName: __ZThn16_N9Steinberg3Vst3mda17DynamicsProcessor10initializeEPNS_8FUnknownE, symObjAddr: 0x540, symBinAddr: 0x16210, symSize: 0x10 }
  - { offset: 0x1137C6, size: 0x8, addend: 0x0, symName: __ZThn48_N9Steinberg3Vst3mda17DynamicsProcessor10initializeEPNS_8FUnknownE, symObjAddr: 0x550, symBinAddr: 0x16220, symSize: 0x10 }
  - { offset: 0x1137F1, size: 0x8, addend: 0x0, symName: __ZN9Steinberg3Vst3mda17DynamicsProcessor9terminateEv, symObjAddr: 0x560, symBinAddr: 0x16230, symSize: 0x10 }
  - { offset: 0x113826, size: 0x8, addend: 0x0, symName: __ZThn16_N9Steinberg3Vst3mda17DynamicsProcessor9terminateEv, symObjAddr: 0x570, symBinAddr: 0x16240, symSize: 0x10 }
  - { offset: 0x113857, size: 0x8, addend: 0x0, symName: __ZThn48_N9Steinberg3Vst3mda17DynamicsProcessor9terminateEv, symObjAddr: 0x580, symBinAddr: 0x16250, symSize: 0x10 }
  - { offset: 0x113888, size: 0x8, addend: 0x0, symName: __ZN9Steinberg3Vst3mda17DynamicsProcessor9setActiveEh, symObjAddr: 0x590, symBinAddr: 0x16260, symSize: 0x10 }
  - { offset: 0x1138CF, size: 0x8, addend: 0x0, symName: __ZThn48_N9Steinberg3Vst3mda17DynamicsProcessor9setActiveEh, symObjAddr: 0x5A0, symBinAddr: 0x16270, symSize: 0x10 }
  - { offset: 0x113900, size: 0x8, addend: 0x0, symName: __ZN9Steinberg3Vst3mda17DynamicsProcessor12checkSilenceERNS0_11ProcessDataE, symObjAddr: 0x5B0, symBinAddr: 0x16280, symSize: 0x10 }
  - { offset: 0x11392A, size: 0x8, addend: 0x0, symName: __ZN9Steinberg3Vst3mda17DynamicsProcessor12doProcessingERNS0_11ProcessDataE, symObjAddr: 0x5C0, symBinAddr: 0x16290, symSize: 0x3B0 }
  - { offset: 0x113AAA, size: 0x8, addend: 0x0, symName: __ZN9Steinberg3Vst3mda17DynamicsProcessor11recalculateEv, symObjAddr: 0x970, symBinAddr: 0x16640, symSize: 0x2C0 }
  - { offset: 0x113C21, size: 0x8, addend: 0x0, symName: __ZNK9Steinberg3Vst3mda17DynamicsProcessor15getVst2UniqueIdEv, symObjAddr: 0xEB0, symBinAddr: 0x16900, symSize: 0x10 }
  - { offset: 0x115A73, size: 0x8, addend: 0x0, symName: __ZN9Steinberg3Vst3mda16EPianoControllerC2Ev, symObjAddr: 0x0, symBinAddr: 0x16910, symSize: 0x70 }
  - { offset: 0x11FC36, size: 0x8, addend: 0x0, symName: __ZN9Steinberg3Vst3mda16EPianoControllerC2Ev, symObjAddr: 0x0, symBinAddr: 0x16910, symSize: 0x70 }
  - { offset: 0x11FCAF, size: 0x8, addend: 0x0, symName: __ZN9Steinberg3Vst3mda16EPianoControllerD1Ev, symObjAddr: 0xF0, symBinAddr: 0x16980, symSize: 0x10 }
  - { offset: 0x11FD20, size: 0x8, addend: 0x0, symName: __ZN9Steinberg3Vst3mda16EPianoControllerD0Ev, symObjAddr: 0x100, symBinAddr: 0x16990, symSize: 0x20 }
  - { offset: 0x11FEAD, size: 0x8, addend: 0x0, symName: __ZN9Steinberg3Vst3mda16EPianoController10initializeEPNS_8FUnknownE, symObjAddr: 0x120, symBinAddr: 0x169B0, symSize: 0xD40 }
  - { offset: 0x121615, size: 0x8, addend: 0x0, symName: __ZThn16_N9Steinberg3Vst3mda16EPianoController10initializeEPNS_8FUnknownE, symObjAddr: 0xE60, symBinAddr: 0x176F0, symSize: 0x10 }
  - { offset: 0x121640, size: 0x8, addend: 0x0, symName: __ZThn48_N9Steinberg3Vst3mda16EPianoController10initializeEPNS_8FUnknownE, symObjAddr: 0xE70, symBinAddr: 0x17700, symSize: 0x10 }
  - { offset: 0x12166B, size: 0x8, addend: 0x0, symName: __ZN9Steinberg3Vst3mda16EPianoController9terminateEv, symObjAddr: 0xE80, symBinAddr: 0x17710, symSize: 0x10 }
  - { offset: 0x1216A0, size: 0x8, addend: 0x0, symName: __ZThn16_N9Steinberg3Vst3mda16EPianoController9terminateEv, symObjAddr: 0xE90, symBinAddr: 0x17720, symSize: 0x10 }
  - { offset: 0x1216D1, size: 0x8, addend: 0x0, symName: __ZThn48_N9Steinberg3Vst3mda16EPianoController9terminateEv, symObjAddr: 0xEA0, symBinAddr: 0x17730, symSize: 0x10 }
  - { offset: 0x12171B, size: 0x8, addend: 0x0, symName: __ZN9Steinberg3Vst3mda16EPianoController18setParamNormalizedEjd, symObjAddr: 0xEB0, symBinAddr: 0x17740, symSize: 0x1B0 }
  - { offset: 0x1217F1, size: 0x8, addend: 0x0, symName: __ZThn48_N9Steinberg3Vst3mda16EPianoController18setParamNormalizedEjd, symObjAddr: 0x1060, symBinAddr: 0x178F0, symSize: 0x10 }
  - { offset: 0x121853, size: 0x8, addend: 0x0, symName: __ZN9Steinberg3Vst3mda16EPianoController21getParamStringByValueEjdPDs, symObjAddr: 0x1070, symBinAddr: 0x17900, symSize: 0x180 }
  - { offset: 0x121A6B, size: 0x8, addend: 0x0, symName: __ZThn48_N9Steinberg3Vst3mda16EPianoController21getParamStringByValueEjdPDs, symObjAddr: 0x11F0, symBinAddr: 0x17A80, symSize: 0x10 }
  - { offset: 0x121AA4, size: 0x8, addend: 0x0, symName: __ZN9Steinberg3Vst3mda16EPianoController21getParamValueByStringEjPDsRd, symObjAddr: 0x1200, symBinAddr: 0x17A90, symSize: 0x20 }
  - { offset: 0x121B0F, size: 0x8, addend: 0x0, symName: __ZThn48_N9Steinberg3Vst3mda16EPianoController21getParamValueByStringEjPDsRd, symObjAddr: 0x1220, symBinAddr: 0x17AB0, symSize: 0x30 }
  - { offset: 0x1239AE, size: 0x8, addend: 0x0, symName: __ZN9Steinberg3Vst3mda15EPianoProcessorC2Ev, symObjAddr: 0x0, symBinAddr: 0x17AE0, symSize: 0xF0 }
  - { offset: 0x1239C8, size: 0x8, addend: 0x0, symName: _epianoData, symObjAddr: 0x2B20, symBinAddr: 0x8C010, symSize: 0x0 }
  - { offset: 0x123A09, size: 0x8, addend: 0x0, symName: __ZN9Steinberg3Vst3mda15EPianoProcessor13programParamsE, symObjAddr: 0xD0F50, symBinAddr: 0x15A440, symSize: 0x0 }
  - { offset: 0x126723, size: 0x8, addend: 0x0, symName: __ZN9Steinberg3Vst3mda16EPianoController3uidE, symObjAddr: 0xD13B0, symBinAddr: 0x679E0, symSize: 0x0 }
  - { offset: 0x1267C3, size: 0x8, addend: 0x0, symName: __ZN9Steinberg3Vst3mda15EPianoProcessorC2Ev, symObjAddr: 0x0, symBinAddr: 0x17AE0, symSize: 0xF0 }
  - { offset: 0x126A61, size: 0x8, addend: 0x0, symName: __ZN9Steinberg3Vst3mda15EPianoProcessorC1Ev, symObjAddr: 0x170, symBinAddr: 0x17BD0, symSize: 0x150 }
  - { offset: 0x126C7C, size: 0x8, addend: 0x0, symName: __ZN9Steinberg3Vst3mda15EPianoProcessorD1Ev, symObjAddr: 0x340, symBinAddr: 0x17D20, symSize: 0x80 }
  - { offset: 0x126E1E, size: 0x8, addend: 0x0, symName: __ZN9Steinberg3Vst3mda15EPianoProcessorD0Ev, symObjAddr: 0x3C0, symBinAddr: 0x17DA0, symSize: 0x90 }
  - { offset: 0x127075, size: 0x8, addend: 0x0, symName: __ZN9Steinberg3Vst3mda15EPianoProcessor10initializeEPNS_8FUnknownE, symObjAddr: 0x450, symBinAddr: 0x17E30, symSize: 0xF50 }
  - { offset: 0x1272CA, size: 0x8, addend: 0x0, symName: __ZThn16_N9Steinberg3Vst3mda15EPianoProcessor10initializeEPNS_8FUnknownE, symObjAddr: 0x13A0, symBinAddr: 0x18D80, symSize: 0x10 }
  - { offset: 0x1272F5, size: 0x8, addend: 0x0, symName: __ZThn48_N9Steinberg3Vst3mda15EPianoProcessor10initializeEPNS_8FUnknownE, symObjAddr: 0x13B0, symBinAddr: 0x18D90, symSize: 0x10 }
  - { offset: 0x127320, size: 0x8, addend: 0x0, symName: __ZN9Steinberg3Vst3mda15EPianoProcessor9terminateEv, symObjAddr: 0x13C0, symBinAddr: 0x18DA0, symSize: 0x10 }
  - { offset: 0x127355, size: 0x8, addend: 0x0, symName: __ZThn16_N9Steinberg3Vst3mda15EPianoProcessor9terminateEv, symObjAddr: 0x13D0, symBinAddr: 0x18DB0, symSize: 0x10 }
  - { offset: 0x127386, size: 0x8, addend: 0x0, symName: __ZThn48_N9Steinberg3Vst3mda15EPianoProcessor9terminateEv, symObjAddr: 0x13E0, symBinAddr: 0x18DC0, symSize: 0x10 }
  - { offset: 0x1273E4, size: 0x8, addend: 0x0, symName: __ZN9Steinberg3Vst3mda15EPianoProcessor9setActiveEh, symObjAddr: 0x13F0, symBinAddr: 0x18DD0, symSize: 0xB0 }
  - { offset: 0x127499, size: 0x8, addend: 0x0, symName: __ZThn48_N9Steinberg3Vst3mda15EPianoProcessor9setActiveEh, symObjAddr: 0x14A0, symBinAddr: 0x18E80, symSize: 0xB0 }
  - { offset: 0x12753F, size: 0x8, addend: 0x0, symName: __ZN9Steinberg3Vst3mda15EPianoProcessor12setParameterEjdi, symObjAddr: 0x1550, symBinAddr: 0x18F30, symSize: 0x1C0 }
  - { offset: 0x127634, size: 0x8, addend: 0x0, symName: __ZN9Steinberg3Vst3mda15EPianoProcessor17setCurrentProgramEj, symObjAddr: 0x1710, symBinAddr: 0x190F0, symSize: 0x10 }
  - { offset: 0x127666, size: 0x8, addend: 0x0, symName: __ZN9Steinberg3Vst3mda15EPianoProcessor27setCurrentProgramNormalizedEd, symObjAddr: 0x1720, symBinAddr: 0x19100, symSize: 0x30 }
  - { offset: 0x12770E, size: 0x8, addend: 0x0, symName: __ZN9Steinberg3Vst3mda15EPianoProcessor12doProcessingERNS0_11ProcessDataE, symObjAddr: 0x1750, symBinAddr: 0x19130, symSize: 0x4B0 }
  - { offset: 0x12789D, size: 0x8, addend: 0x0, symName: __ZN9Steinberg3Vst3mda15EPianoProcessor9noteEventERKNS0_5EventE, symObjAddr: 0x1C00, symBinAddr: 0x195E0, symSize: 0x530 }
  - { offset: 0x127A05, size: 0x8, addend: 0x0, symName: __ZN9Steinberg3Vst3mda15EPianoProcessor10preProcessEv, symObjAddr: 0x2130, symBinAddr: 0x19B10, symSize: 0x30 }
  - { offset: 0x127A6B, size: 0x8, addend: 0x0, symName: __ZN9Steinberg3Vst3mda15EPianoProcessor12processEventERKNS0_5EventE, symObjAddr: 0x2160, symBinAddr: 0x19B40, symSize: 0x90 }
  - { offset: 0x127AE6, size: 0x8, addend: 0x0, symName: __ZN9Steinberg3Vst3mda15EPianoProcessor11recalculateEv, symObjAddr: 0x21F0, symBinAddr: 0x19BD0, symSize: 0x250 }
  - { offset: 0x127B43, size: 0x8, addend: 0x0, symName: __ZNK9Steinberg3Vst3mda15EPianoProcessor10hasProgramEv, symObjAddr: 0x2650, symBinAddr: 0x19E20, symSize: 0x10 }
  - { offset: 0x127B66, size: 0x8, addend: 0x0, symName: __ZNK9Steinberg3Vst3mda15EPianoProcessor17getCurrentProgramEv, symObjAddr: 0x2660, symBinAddr: 0x19E30, symSize: 0x10 }
  - { offset: 0x127B89, size: 0x8, addend: 0x0, symName: __ZNK9Steinberg3Vst3mda15EPianoProcessor14getNumProgramsEv, symObjAddr: 0x2670, symBinAddr: 0x19E40, symSize: 0x10 }
  - { offset: 0x127BAC, size: 0x8, addend: 0x0, symName: __ZNK9Steinberg3Vst3mda15EPianoProcessor15getVst2UniqueIdEv, symObjAddr: 0x2680, symBinAddr: 0x19E50, symSize: 0x10 }
  - { offset: 0x129A32, size: 0x8, addend: 0x0, symName: __ZN9Steinberg3Vst3mda15ImageControllerC2Ev, symObjAddr: 0x0, symBinAddr: 0x19E60, symSize: 0x70 }
  - { offset: 0x133B35, size: 0x8, addend: 0x0, symName: __ZN9Steinberg3Vst3mda15ImageControllerC2Ev, symObjAddr: 0x0, symBinAddr: 0x19E60, symSize: 0x70 }
  - { offset: 0x133BAE, size: 0x8, addend: 0x0, symName: __ZN9Steinberg3Vst3mda15ImageControllerD1Ev, symObjAddr: 0xF0, symBinAddr: 0x19ED0, symSize: 0x10 }
  - { offset: 0x133C1F, size: 0x8, addend: 0x0, symName: __ZN9Steinberg3Vst3mda15ImageControllerD0Ev, symObjAddr: 0x100, symBinAddr: 0x19EE0, symSize: 0x20 }
  - { offset: 0x133DAC, size: 0x8, addend: 0x0, symName: __ZN9Steinberg3Vst3mda15ImageController10initializeEPNS_8FUnknownE, symObjAddr: 0x120, symBinAddr: 0x19F00, symSize: 0x660 }
  - { offset: 0x1348A2, size: 0x8, addend: 0x0, symName: __ZThn16_N9Steinberg3Vst3mda15ImageController10initializeEPNS_8FUnknownE, symObjAddr: 0x780, symBinAddr: 0x1A560, symSize: 0x10 }
  - { offset: 0x1348CD, size: 0x8, addend: 0x0, symName: __ZThn48_N9Steinberg3Vst3mda15ImageController10initializeEPNS_8FUnknownE, symObjAddr: 0x790, symBinAddr: 0x1A570, symSize: 0x10 }
  - { offset: 0x1348F8, size: 0x8, addend: 0x0, symName: __ZN9Steinberg3Vst3mda15ImageController9terminateEv, symObjAddr: 0x7A0, symBinAddr: 0x1A580, symSize: 0x10 }
  - { offset: 0x13492D, size: 0x8, addend: 0x0, symName: __ZThn16_N9Steinberg3Vst3mda15ImageController9terminateEv, symObjAddr: 0x7B0, symBinAddr: 0x1A590, symSize: 0x10 }
  - { offset: 0x13495E, size: 0x8, addend: 0x0, symName: __ZThn48_N9Steinberg3Vst3mda15ImageController9terminateEv, symObjAddr: 0x7C0, symBinAddr: 0x1A5A0, symSize: 0x10 }
  - { offset: 0x1367E7, size: 0x8, addend: 0x0, symName: __ZN9Steinberg3Vst3mda14ImageProcessorC2Ev, symObjAddr: 0x0, symBinAddr: 0x1A5B0, symSize: 0xD0 }
  - { offset: 0x136EE0, size: 0x8, addend: 0x0, symName: __ZN9Steinberg3Vst3mda15ImageController3uidE, symObjAddr: 0x11A0, symBinAddr: 0x67B00, symSize: 0x0 }
  - { offset: 0x1389E7, size: 0x8, addend: 0x0, symName: __ZN9Steinberg3Vst3mda14ImageProcessorC2Ev, symObjAddr: 0x0, symBinAddr: 0x1A5B0, symSize: 0xD0 }
  - { offset: 0x138C47, size: 0x8, addend: 0x0, symName: __ZN9Steinberg3Vst3mda14ImageProcessorC1Ev, symObjAddr: 0x150, symBinAddr: 0x1A680, symSize: 0x130 }
  - { offset: 0x138E24, size: 0x8, addend: 0x0, symName: __ZN9Steinberg3Vst3mda14ImageProcessorD1Ev, symObjAddr: 0x300, symBinAddr: 0x1A7B0, symSize: 0x80 }
  - { offset: 0x138FC6, size: 0x8, addend: 0x0, symName: __ZN9Steinberg3Vst3mda14ImageProcessorD0Ev, symObjAddr: 0x380, symBinAddr: 0x1A830, symSize: 0x90 }
  - { offset: 0x13921D, size: 0x8, addend: 0x0, symName: __ZN9Steinberg3Vst3mda14ImageProcessor10initializeEPNS_8FUnknownE, symObjAddr: 0x410, symBinAddr: 0x1A8C0, symSize: 0x110 }
  - { offset: 0x1393C5, size: 0x8, addend: 0x0, symName: __ZThn16_N9Steinberg3Vst3mda14ImageProcessor10initializeEPNS_8FUnknownE, symObjAddr: 0x520, symBinAddr: 0x1A9D0, symSize: 0x10 }
  - { offset: 0x1393F0, size: 0x8, addend: 0x0, symName: __ZThn48_N9Steinberg3Vst3mda14ImageProcessor10initializeEPNS_8FUnknownE, symObjAddr: 0x530, symBinAddr: 0x1A9E0, symSize: 0x10 }
  - { offset: 0x13941B, size: 0x8, addend: 0x0, symName: __ZN9Steinberg3Vst3mda14ImageProcessor9terminateEv, symObjAddr: 0x540, symBinAddr: 0x1A9F0, symSize: 0x10 }
  - { offset: 0x139450, size: 0x8, addend: 0x0, symName: __ZThn16_N9Steinberg3Vst3mda14ImageProcessor9terminateEv, symObjAddr: 0x550, symBinAddr: 0x1AA00, symSize: 0x10 }
  - { offset: 0x139481, size: 0x8, addend: 0x0, symName: __ZThn48_N9Steinberg3Vst3mda14ImageProcessor9terminateEv, symObjAddr: 0x560, symBinAddr: 0x1AA10, symSize: 0x10 }
  - { offset: 0x1394B2, size: 0x8, addend: 0x0, symName: __ZN9Steinberg3Vst3mda14ImageProcessor9setActiveEh, symObjAddr: 0x570, symBinAddr: 0x1AA20, symSize: 0x10 }
  - { offset: 0x1394F9, size: 0x8, addend: 0x0, symName: __ZThn48_N9Steinberg3Vst3mda14ImageProcessor9setActiveEh, symObjAddr: 0x580, symBinAddr: 0x1AA30, symSize: 0x10 }
  - { offset: 0x13952A, size: 0x8, addend: 0x0, symName: __ZN9Steinberg3Vst3mda14ImageProcessor12doProcessingERNS0_11ProcessDataE, symObjAddr: 0x590, symBinAddr: 0x1AA40, symSize: 0x1B0 }
  - { offset: 0x139623, size: 0x8, addend: 0x0, symName: __ZN9Steinberg3Vst3mda14ImageProcessor11recalculateEv, symObjAddr: 0x740, symBinAddr: 0x1ABF0, symSize: 0x240 }
  - { offset: 0x1396A5, size: 0x8, addend: 0x0, symName: __ZNK9Steinberg3Vst3mda14ImageProcessor15getVst2UniqueIdEv, symObjAddr: 0xC00, symBinAddr: 0x1AE30, symSize: 0x10 }
  - { offset: 0x13B4F7, size: 0x8, addend: 0x0, symName: __ZN9Steinberg3Vst3mda14JX10ControllerC2Ev, symObjAddr: 0x0, symBinAddr: 0x1AE40, symSize: 0x70 }
  - { offset: 0x1456CD, size: 0x8, addend: 0x0, symName: __ZN9Steinberg3Vst3mda14JX10ControllerC2Ev, symObjAddr: 0x0, symBinAddr: 0x1AE40, symSize: 0x70 }
  - { offset: 0x145746, size: 0x8, addend: 0x0, symName: __ZN9Steinberg3Vst3mda14JX10ControllerD1Ev, symObjAddr: 0xF0, symBinAddr: 0x1AEB0, symSize: 0x10 }
  - { offset: 0x1457B7, size: 0x8, addend: 0x0, symName: __ZN9Steinberg3Vst3mda14JX10ControllerD0Ev, symObjAddr: 0x100, symBinAddr: 0x1AEC0, symSize: 0x20 }
  - { offset: 0x145944, size: 0x8, addend: 0x0, symName: __ZN9Steinberg3Vst3mda14JX10Controller10initializeEPNS_8FUnknownE, symObjAddr: 0x120, symBinAddr: 0x1AEE0, symSize: 0x2420 }
  - { offset: 0x14A77E, size: 0x8, addend: 0x0, symName: __ZThn16_N9Steinberg3Vst3mda14JX10Controller10initializeEPNS_8FUnknownE, symObjAddr: 0x2540, symBinAddr: 0x1D300, symSize: 0x10 }
  - { offset: 0x14A7A9, size: 0x8, addend: 0x0, symName: __ZThn48_N9Steinberg3Vst3mda14JX10Controller10initializeEPNS_8FUnknownE, symObjAddr: 0x2550, symBinAddr: 0x1D310, symSize: 0x10 }
  - { offset: 0x14A7D4, size: 0x8, addend: 0x0, symName: __ZN9Steinberg3Vst3mda14JX10Controller9terminateEv, symObjAddr: 0x2560, symBinAddr: 0x1D320, symSize: 0x10 }
  - { offset: 0x14A809, size: 0x8, addend: 0x0, symName: __ZThn16_N9Steinberg3Vst3mda14JX10Controller9terminateEv, symObjAddr: 0x2570, symBinAddr: 0x1D330, symSize: 0x10 }
  - { offset: 0x14A83A, size: 0x8, addend: 0x0, symName: __ZThn48_N9Steinberg3Vst3mda14JX10Controller9terminateEv, symObjAddr: 0x2580, symBinAddr: 0x1D340, symSize: 0x10 }
  - { offset: 0x14A884, size: 0x8, addend: 0x0, symName: __ZN9Steinberg3Vst3mda14JX10Controller18setParamNormalizedEjd, symObjAddr: 0x2590, symBinAddr: 0x1D350, symSize: 0x2D0 }
  - { offset: 0x14A95A, size: 0x8, addend: 0x0, symName: __ZThn48_N9Steinberg3Vst3mda14JX10Controller18setParamNormalizedEjd, symObjAddr: 0x2860, symBinAddr: 0x1D620, symSize: 0x10 }
  - { offset: 0x14A98C, size: 0x8, addend: 0x0, symName: __ZN9Steinberg3Vst3mda14JX10Controller21getParamStringByValueEjdPDs, symObjAddr: 0x2870, symBinAddr: 0x1D630, symSize: 0x10 }
  - { offset: 0x14A9F7, size: 0x8, addend: 0x0, symName: __ZThn48_N9Steinberg3Vst3mda14JX10Controller21getParamStringByValueEjdPDs, symObjAddr: 0x2880, symBinAddr: 0x1D640, symSize: 0x10 }
  - { offset: 0x14AA3D, size: 0x8, addend: 0x0, symName: __ZN9Steinberg3Vst3mda14JX10Controller21getParamValueByStringEjPDsRd, symObjAddr: 0x2890, symBinAddr: 0x1D650, symSize: 0x10 }
  - { offset: 0x14AAA8, size: 0x8, addend: 0x0, symName: __ZThn48_N9Steinberg3Vst3mda14JX10Controller21getParamValueByStringEjPDsRd, symObjAddr: 0x28A0, symBinAddr: 0x1D660, symSize: 0x10 }
  - { offset: 0x14C933, size: 0x8, addend: 0x0, symName: __ZN9Steinberg3Vst3mda13JX10ProcessorC2Ev, symObjAddr: 0x0, symBinAddr: 0x1D670, symSize: 0xF0 }
  - { offset: 0x14C956, size: 0x8, addend: 0x0, symName: __ZN9Steinberg3Vst3mda13JX10Processor13programParamsE, symObjAddr: 0x3460, symBinAddr: 0x15A530, symSize: 0x0 }
  - { offset: 0x14F866, size: 0x8, addend: 0x0, symName: __ZN9Steinberg3Vst3mda14JX10Controller3uidE, symObjAddr: 0x4B50, symBinAddr: 0x67CF0, symSize: 0x0 }
  - { offset: 0x14F906, size: 0x8, addend: 0x0, symName: __ZN9Steinberg3Vst3mda13JX10ProcessorC2Ev, symObjAddr: 0x0, symBinAddr: 0x1D670, symSize: 0xF0 }
  - { offset: 0x14FBA4, size: 0x8, addend: 0x0, symName: __ZN9Steinberg3Vst3mda13JX10ProcessorC1Ev, symObjAddr: 0x170, symBinAddr: 0x1D760, symSize: 0x150 }
  - { offset: 0x14FDBF, size: 0x8, addend: 0x0, symName: __ZN9Steinberg3Vst3mda13JX10ProcessorD1Ev, symObjAddr: 0x340, symBinAddr: 0x1D8B0, symSize: 0x80 }
  - { offset: 0x14FF61, size: 0x8, addend: 0x0, symName: __ZN9Steinberg3Vst3mda13JX10ProcessorD0Ev, symObjAddr: 0x3C0, symBinAddr: 0x1D930, symSize: 0x90 }
  - { offset: 0x1501B8, size: 0x8, addend: 0x0, symName: __ZN9Steinberg3Vst3mda13JX10Processor10initializeEPNS_8FUnknownE, symObjAddr: 0x450, symBinAddr: 0x1D9C0, symSize: 0x690 }
  - { offset: 0x1503B7, size: 0x8, addend: 0x0, symName: __ZThn16_N9Steinberg3Vst3mda13JX10Processor10initializeEPNS_8FUnknownE, symObjAddr: 0xAE0, symBinAddr: 0x1E050, symSize: 0x10 }
  - { offset: 0x1503E2, size: 0x8, addend: 0x0, symName: __ZThn48_N9Steinberg3Vst3mda13JX10Processor10initializeEPNS_8FUnknownE, symObjAddr: 0xAF0, symBinAddr: 0x1E060, symSize: 0x10 }
  - { offset: 0x15040D, size: 0x8, addend: 0x0, symName: __ZN9Steinberg3Vst3mda13JX10Processor9terminateEv, symObjAddr: 0xB00, symBinAddr: 0x1E070, symSize: 0x10 }
  - { offset: 0x150442, size: 0x8, addend: 0x0, symName: __ZThn16_N9Steinberg3Vst3mda13JX10Processor9terminateEv, symObjAddr: 0xB10, symBinAddr: 0x1E080, symSize: 0x10 }
  - { offset: 0x150473, size: 0x8, addend: 0x0, symName: __ZThn48_N9Steinberg3Vst3mda13JX10Processor9terminateEv, symObjAddr: 0xB20, symBinAddr: 0x1E090, symSize: 0x10 }
  - { offset: 0x1504DD, size: 0x8, addend: 0x0, symName: __ZN9Steinberg3Vst3mda13JX10Processor9setActiveEh, symObjAddr: 0xB30, symBinAddr: 0x1E0A0, symSize: 0x1B0 }
  - { offset: 0x1505C3, size: 0x8, addend: 0x0, symName: __ZN9Steinberg3Vst3mda13JX10Processor10clearVoiceERNS2_5VOICEE, symObjAddr: 0xCE0, symBinAddr: 0x1E250, symSize: 0x40 }
  - { offset: 0x1505E9, size: 0x8, addend: 0x0, symName: __ZThn48_N9Steinberg3Vst3mda13JX10Processor9setActiveEh, symObjAddr: 0xD20, symBinAddr: 0x1E290, symSize: 0x10 }
  - { offset: 0x150614, size: 0x8, addend: 0x0, symName: __ZN9Steinberg3Vst3mda13JX10Processor12setParameterEjdi, symObjAddr: 0xD30, symBinAddr: 0x1E2A0, symSize: 0x230 }
  - { offset: 0x1506A1, size: 0x8, addend: 0x0, symName: __ZN9Steinberg3Vst3mda13JX10Processor17setCurrentProgramEj, symObjAddr: 0xF60, symBinAddr: 0x1E4D0, symSize: 0x10 }
  - { offset: 0x1506D3, size: 0x8, addend: 0x0, symName: __ZN9Steinberg3Vst3mda13JX10Processor27setCurrentProgramNormalizedEd, symObjAddr: 0xF70, symBinAddr: 0x1E4E0, symSize: 0x30 }
  - { offset: 0x150757, size: 0x8, addend: 0x0, symName: __ZN9Steinberg3Vst3mda13JX10Processor12doProcessingERNS0_11ProcessDataE, symObjAddr: 0xFA0, symBinAddr: 0x1E510, symSize: 0xC00 }
  - { offset: 0x150AE5, size: 0x8, addend: 0x0, symName: __ZN9Steinberg3Vst3mda13JX10Processor9noteEventERKNS0_5EventE, symObjAddr: 0x1BA0, symBinAddr: 0x1F110, symSize: 0xBC0 }
  - { offset: 0x150CD0, size: 0x8, addend: 0x0, symName: __ZN9Steinberg3Vst3mda13JX10Processor10preProcessEv, symObjAddr: 0x2760, symBinAddr: 0x1FCD0, symSize: 0x30 }
  - { offset: 0x150D36, size: 0x8, addend: 0x0, symName: __ZN9Steinberg3Vst3mda13JX10Processor12processEventERKNS0_5EventE, symObjAddr: 0x2790, symBinAddr: 0x1FD00, symSize: 0x90 }
  - { offset: 0x150DCA, size: 0x8, addend: 0x0, symName: __ZN9Steinberg3Vst3mda13JX10Processor11recalculateEv, symObjAddr: 0x2820, symBinAddr: 0x1FD90, symSize: 0x5B0 }
  - { offset: 0x150E9E, size: 0x8, addend: 0x0, symName: __ZNK9Steinberg3Vst3mda13JX10Processor10hasProgramEv, symObjAddr: 0x2FE0, symBinAddr: 0x20340, symSize: 0x10 }
  - { offset: 0x150EC1, size: 0x8, addend: 0x0, symName: __ZNK9Steinberg3Vst3mda13JX10Processor17getCurrentProgramEv, symObjAddr: 0x2FF0, symBinAddr: 0x20350, symSize: 0x10 }
  - { offset: 0x150EE4, size: 0x8, addend: 0x0, symName: __ZNK9Steinberg3Vst3mda13JX10Processor14getNumProgramsEv, symObjAddr: 0x3000, symBinAddr: 0x20360, symSize: 0x10 }
  - { offset: 0x150F07, size: 0x8, addend: 0x0, symName: __ZNK9Steinberg3Vst3mda13JX10Processor15getVst2UniqueIdEv, symObjAddr: 0x3010, symBinAddr: 0x20370, symSize: 0x10 }
  - { offset: 0x152D81, size: 0x8, addend: 0x0, symName: __ZN9Steinberg3Vst3mda16LeslieControllerC2Ev, symObjAddr: 0x0, symBinAddr: 0x20380, symSize: 0x70 }
  - { offset: 0x15CF1B, size: 0x8, addend: 0x0, symName: __ZN9Steinberg3Vst3mda16LeslieControllerC2Ev, symObjAddr: 0x0, symBinAddr: 0x20380, symSize: 0x70 }
  - { offset: 0x15CF94, size: 0x8, addend: 0x0, symName: __ZN9Steinberg3Vst3mda16LeslieControllerD1Ev, symObjAddr: 0xF0, symBinAddr: 0x203F0, symSize: 0x10 }
  - { offset: 0x15D006, size: 0x8, addend: 0x0, symName: __ZN9Steinberg3Vst3mda16LeslieControllerD0Ev, symObjAddr: 0x100, symBinAddr: 0x20400, symSize: 0x20 }
  - { offset: 0x15D192, size: 0x8, addend: 0x0, symName: __ZN9Steinberg3Vst3mda16LeslieController10initializeEPNS_8FUnknownE, symObjAddr: 0x120, symBinAddr: 0x20420, symSize: 0x850 }
  - { offset: 0x15DFCB, size: 0x8, addend: 0x0, symName: __ZThn16_N9Steinberg3Vst3mda16LeslieController10initializeEPNS_8FUnknownE, symObjAddr: 0x970, symBinAddr: 0x20C70, symSize: 0x10 }
  - { offset: 0x15DFF6, size: 0x8, addend: 0x0, symName: __ZThn48_N9Steinberg3Vst3mda16LeslieController10initializeEPNS_8FUnknownE, symObjAddr: 0x980, symBinAddr: 0x20C80, symSize: 0x10 }
  - { offset: 0x15E021, size: 0x8, addend: 0x0, symName: __ZN9Steinberg3Vst3mda16LeslieController9terminateEv, symObjAddr: 0x990, symBinAddr: 0x20C90, symSize: 0x10 }
  - { offset: 0x15E056, size: 0x8, addend: 0x0, symName: __ZThn16_N9Steinberg3Vst3mda16LeslieController9terminateEv, symObjAddr: 0x9A0, symBinAddr: 0x20CA0, symSize: 0x10 }
  - { offset: 0x15E087, size: 0x8, addend: 0x0, symName: __ZThn48_N9Steinberg3Vst3mda16LeslieController9terminateEv, symObjAddr: 0x9B0, symBinAddr: 0x20CB0, symSize: 0x10 }
  - { offset: 0x15E0E8, size: 0x8, addend: 0x0, symName: __ZN9Steinberg3Vst3mda16LeslieController21getParamStringByValueEjdPDs, symObjAddr: 0x9C0, symBinAddr: 0x20CC0, symSize: 0x90 }
  - { offset: 0x15E203, size: 0x8, addend: 0x0, symName: __ZThn48_N9Steinberg3Vst3mda16LeslieController21getParamStringByValueEjdPDs, symObjAddr: 0xA50, symBinAddr: 0x20D50, symSize: 0x90 }
  - { offset: 0x15E2D4, size: 0x8, addend: 0x0, symName: __ZN9Steinberg3Vst3mda16LeslieController21getParamValueByStringEjPDsRd, symObjAddr: 0xAE0, symBinAddr: 0x20DE0, symSize: 0x10 }
  - { offset: 0x15E33F, size: 0x8, addend: 0x0, symName: __ZThn48_N9Steinberg3Vst3mda16LeslieController21getParamValueByStringEjPDsRd, symObjAddr: 0xAF0, symBinAddr: 0x20DF0, symSize: 0x10 }
  - { offset: 0x1601DD, size: 0x8, addend: 0x0, symName: __ZN9Steinberg3Vst3mda15LeslieProcessorC2Ev, symObjAddr: 0x0, symBinAddr: 0x20E00, symSize: 0xD0 }
  - { offset: 0x160A34, size: 0x8, addend: 0x0, symName: __ZN9Steinberg3Vst3mda16LeslieController3uidE, symObjAddr: 0x1860, symBinAddr: 0x67E40, symSize: 0x0 }
  - { offset: 0x1625C5, size: 0x8, addend: 0x0, symName: __ZN9Steinberg3Vst3mda15LeslieProcessorC2Ev, symObjAddr: 0x0, symBinAddr: 0x20E00, symSize: 0xD0 }
  - { offset: 0x162825, size: 0x8, addend: 0x0, symName: __ZN9Steinberg3Vst3mda15LeslieProcessorC1Ev, symObjAddr: 0x150, symBinAddr: 0x20ED0, symSize: 0x130 }
  - { offset: 0x162A02, size: 0x8, addend: 0x0, symName: __ZN9Steinberg3Vst3mda15LeslieProcessorD1Ev, symObjAddr: 0x300, symBinAddr: 0x21000, symSize: 0x80 }
  - { offset: 0x162BA4, size: 0x8, addend: 0x0, symName: __ZN9Steinberg3Vst3mda15LeslieProcessorD0Ev, symObjAddr: 0x380, symBinAddr: 0x21080, symSize: 0x90 }
  - { offset: 0x162DFB, size: 0x8, addend: 0x0, symName: __ZN9Steinberg3Vst3mda15LeslieProcessor10initializeEPNS_8FUnknownE, symObjAddr: 0x410, symBinAddr: 0x21110, symSize: 0x180 }
  - { offset: 0x162FA3, size: 0x8, addend: 0x0, symName: __ZThn16_N9Steinberg3Vst3mda15LeslieProcessor10initializeEPNS_8FUnknownE, symObjAddr: 0x590, symBinAddr: 0x21290, symSize: 0x10 }
  - { offset: 0x162FCE, size: 0x8, addend: 0x0, symName: __ZThn48_N9Steinberg3Vst3mda15LeslieProcessor10initializeEPNS_8FUnknownE, symObjAddr: 0x5A0, symBinAddr: 0x212A0, symSize: 0x10 }
  - { offset: 0x162FF9, size: 0x8, addend: 0x0, symName: __ZN9Steinberg3Vst3mda15LeslieProcessor9terminateEv, symObjAddr: 0x5B0, symBinAddr: 0x212B0, symSize: 0x40 }
  - { offset: 0x163030, size: 0x8, addend: 0x0, symName: __ZThn16_N9Steinberg3Vst3mda15LeslieProcessor9terminateEv, symObjAddr: 0x5F0, symBinAddr: 0x212F0, symSize: 0x40 }
  - { offset: 0x16305C, size: 0x8, addend: 0x0, symName: __ZThn48_N9Steinberg3Vst3mda15LeslieProcessor9terminateEv, symObjAddr: 0x630, symBinAddr: 0x21330, symSize: 0x40 }
  - { offset: 0x163088, size: 0x8, addend: 0x0, symName: __ZN9Steinberg3Vst3mda15LeslieProcessor9setActiveEh, symObjAddr: 0x670, symBinAddr: 0x21370, symSize: 0x40 }
  - { offset: 0x1630D3, size: 0x8, addend: 0x0, symName: __ZThn48_N9Steinberg3Vst3mda15LeslieProcessor9setActiveEh, symObjAddr: 0x6B0, symBinAddr: 0x213B0, symSize: 0x40 }
  - { offset: 0x163108, size: 0x8, addend: 0x0, symName: __ZN9Steinberg3Vst3mda15LeslieProcessor12doProcessingERNS0_11ProcessDataE, symObjAddr: 0x6F0, symBinAddr: 0x213F0, symSize: 0x620 }
  - { offset: 0x16341A, size: 0x8, addend: 0x0, symName: __ZN9Steinberg3Vst3mda15LeslieProcessor11recalculateEv, symObjAddr: 0xD10, symBinAddr: 0x21A10, symSize: 0x290 }
  - { offset: 0x163531, size: 0x8, addend: 0x0, symName: __ZNK9Steinberg3Vst3mda15LeslieProcessor15getVst2UniqueIdEv, symObjAddr: 0x1220, symBinAddr: 0x21CA0, symSize: 0x10 }
  - { offset: 0x165383, size: 0x8, addend: 0x0, symName: __ZN9Steinberg3Vst3mda17LimiterControllerC2Ev, symObjAddr: 0x0, symBinAddr: 0x21CB0, symSize: 0x70 }
  - { offset: 0x16F4AC, size: 0x8, addend: 0x0, symName: __ZN9Steinberg3Vst3mda17LimiterControllerC2Ev, symObjAddr: 0x0, symBinAddr: 0x21CB0, symSize: 0x70 }
  - { offset: 0x16F525, size: 0x8, addend: 0x0, symName: __ZN9Steinberg3Vst3mda17LimiterControllerD1Ev, symObjAddr: 0xF0, symBinAddr: 0x21D20, symSize: 0x10 }
  - { offset: 0x16F596, size: 0x8, addend: 0x0, symName: __ZN9Steinberg3Vst3mda17LimiterControllerD0Ev, symObjAddr: 0x100, symBinAddr: 0x21D30, symSize: 0x20 }
  - { offset: 0x16F77F, size: 0x8, addend: 0x0, symName: __ZN9Steinberg3Vst3mda17LimiterController10initializeEPNS_8FUnknownE, symObjAddr: 0x120, symBinAddr: 0x21D50, symSize: 0x450 }
  - { offset: 0x16FF20, size: 0x8, addend: 0x0, symName: __ZThn16_N9Steinberg3Vst3mda17LimiterController10initializeEPNS_8FUnknownE, symObjAddr: 0x570, symBinAddr: 0x221A0, symSize: 0x10 }
  - { offset: 0x16FF4B, size: 0x8, addend: 0x0, symName: __ZThn48_N9Steinberg3Vst3mda17LimiterController10initializeEPNS_8FUnknownE, symObjAddr: 0x580, symBinAddr: 0x221B0, symSize: 0x10 }
  - { offset: 0x16FF76, size: 0x8, addend: 0x0, symName: __ZN9Steinberg3Vst3mda17LimiterController9terminateEv, symObjAddr: 0x590, symBinAddr: 0x221C0, symSize: 0x10 }
  - { offset: 0x16FFAB, size: 0x8, addend: 0x0, symName: __ZThn16_N9Steinberg3Vst3mda17LimiterController9terminateEv, symObjAddr: 0x5A0, symBinAddr: 0x221D0, symSize: 0x10 }
  - { offset: 0x16FFDC, size: 0x8, addend: 0x0, symName: __ZThn48_N9Steinberg3Vst3mda17LimiterController9terminateEv, symObjAddr: 0x5B0, symBinAddr: 0x221E0, symSize: 0x10 }
  - { offset: 0x17003D, size: 0x8, addend: 0x0, symName: __ZN9Steinberg3Vst3mda17LimiterController21getParamStringByValueEjdPDs, symObjAddr: 0x5C0, symBinAddr: 0x221F0, symSize: 0xF0 }
  - { offset: 0x170179, size: 0x8, addend: 0x0, symName: __ZThn48_N9Steinberg3Vst3mda17LimiterController21getParamStringByValueEjdPDs, symObjAddr: 0x6B0, symBinAddr: 0x222E0, symSize: 0xF0 }
  - { offset: 0x170223, size: 0x8, addend: 0x0, symName: __ZN9Steinberg3Vst3mda17LimiterController21getParamValueByStringEjPDsRd, symObjAddr: 0x7A0, symBinAddr: 0x223D0, symSize: 0x10 }
  - { offset: 0x17028E, size: 0x8, addend: 0x0, symName: __ZThn48_N9Steinberg3Vst3mda17LimiterController21getParamValueByStringEjPDsRd, symObjAddr: 0x7B0, symBinAddr: 0x223E0, symSize: 0x10 }
  - { offset: 0x172134, size: 0x8, addend: 0x0, symName: __ZN9Steinberg3Vst3mda16LimiterProcessorC2Ev, symObjAddr: 0x0, symBinAddr: 0x223F0, symSize: 0xD0 }
  - { offset: 0x17285A, size: 0x8, addend: 0x0, symName: __ZN9Steinberg3Vst3mda17LimiterController3uidE, symObjAddr: 0x1350, symBinAddr: 0x67ED0, symSize: 0x0 }
  - { offset: 0x17437E, size: 0x8, addend: 0x0, symName: __ZN9Steinberg3Vst3mda16LimiterProcessorC2Ev, symObjAddr: 0x0, symBinAddr: 0x223F0, symSize: 0xD0 }
  - { offset: 0x1745DE, size: 0x8, addend: 0x0, symName: __ZN9Steinberg3Vst3mda16LimiterProcessorC1Ev, symObjAddr: 0x150, symBinAddr: 0x224C0, symSize: 0x130 }
  - { offset: 0x1747BB, size: 0x8, addend: 0x0, symName: __ZN9Steinberg3Vst3mda16LimiterProcessorD1Ev, symObjAddr: 0x300, symBinAddr: 0x225F0, symSize: 0x80 }
  - { offset: 0x17495D, size: 0x8, addend: 0x0, symName: __ZN9Steinberg3Vst3mda16LimiterProcessorD0Ev, symObjAddr: 0x380, symBinAddr: 0x22670, symSize: 0x90 }
  - { offset: 0x174BB4, size: 0x8, addend: 0x0, symName: __ZN9Steinberg3Vst3mda16LimiterProcessor10initializeEPNS_8FUnknownE, symObjAddr: 0x410, symBinAddr: 0x22700, symSize: 0x120 }
  - { offset: 0x174D5C, size: 0x8, addend: 0x0, symName: __ZThn16_N9Steinberg3Vst3mda16LimiterProcessor10initializeEPNS_8FUnknownE, symObjAddr: 0x530, symBinAddr: 0x22820, symSize: 0x10 }
  - { offset: 0x174D87, size: 0x8, addend: 0x0, symName: __ZThn48_N9Steinberg3Vst3mda16LimiterProcessor10initializeEPNS_8FUnknownE, symObjAddr: 0x540, symBinAddr: 0x22830, symSize: 0x10 }
  - { offset: 0x174DB2, size: 0x8, addend: 0x0, symName: __ZN9Steinberg3Vst3mda16LimiterProcessor9terminateEv, symObjAddr: 0x550, symBinAddr: 0x22840, symSize: 0x10 }
  - { offset: 0x174DE7, size: 0x8, addend: 0x0, symName: __ZThn16_N9Steinberg3Vst3mda16LimiterProcessor9terminateEv, symObjAddr: 0x560, symBinAddr: 0x22850, symSize: 0x10 }
  - { offset: 0x174E18, size: 0x8, addend: 0x0, symName: __ZThn48_N9Steinberg3Vst3mda16LimiterProcessor9terminateEv, symObjAddr: 0x570, symBinAddr: 0x22860, symSize: 0x10 }
  - { offset: 0x174E49, size: 0x8, addend: 0x0, symName: __ZN9Steinberg3Vst3mda16LimiterProcessor9setActiveEh, symObjAddr: 0x580, symBinAddr: 0x22870, symSize: 0x10 }
  - { offset: 0x174E90, size: 0x8, addend: 0x0, symName: __ZThn48_N9Steinberg3Vst3mda16LimiterProcessor9setActiveEh, symObjAddr: 0x590, symBinAddr: 0x22880, symSize: 0x10 }
  - { offset: 0x174EC1, size: 0x8, addend: 0x0, symName: __ZN9Steinberg3Vst3mda16LimiterProcessor12checkSilenceERNS0_11ProcessDataE, symObjAddr: 0x5A0, symBinAddr: 0x22890, symSize: 0x10 }
  - { offset: 0x174EEB, size: 0x8, addend: 0x0, symName: __ZN9Steinberg3Vst3mda16LimiterProcessor12doProcessingERNS0_11ProcessDataE, symObjAddr: 0x5B0, symBinAddr: 0x228A0, symSize: 0x4C0 }
  - { offset: 0x17501C, size: 0x8, addend: 0x0, symName: __ZN9Steinberg3Vst3mda16LimiterProcessor11recalculateEv, symObjAddr: 0xA70, symBinAddr: 0x22D60, symSize: 0xE0 }
  - { offset: 0x175059, size: 0x8, addend: 0x0, symName: __ZNK9Steinberg3Vst3mda16LimiterProcessor15getVst2UniqueIdEv, symObjAddr: 0xDD0, symBinAddr: 0x22E40, symSize: 0x10 }
  - { offset: 0x176EB3, size: 0x8, addend: 0x0, symName: __ZN9Steinberg3Vst3mda18LoudnessControllerC2Ev, symObjAddr: 0x0, symBinAddr: 0x22E50, symSize: 0x70 }
  - { offset: 0x180FD2, size: 0x8, addend: 0x0, symName: __ZN9Steinberg3Vst3mda18LoudnessControllerC2Ev, symObjAddr: 0x0, symBinAddr: 0x22E50, symSize: 0x70 }
  - { offset: 0x18104B, size: 0x8, addend: 0x0, symName: __ZN9Steinberg3Vst3mda18LoudnessControllerD1Ev, symObjAddr: 0xF0, symBinAddr: 0x22EC0, symSize: 0x10 }
  - { offset: 0x1810BC, size: 0x8, addend: 0x0, symName: __ZN9Steinberg3Vst3mda18LoudnessControllerD0Ev, symObjAddr: 0x100, symBinAddr: 0x22ED0, symSize: 0x20 }
  - { offset: 0x181249, size: 0x8, addend: 0x0, symName: __ZN9Steinberg3Vst3mda18LoudnessController10initializeEPNS_8FUnknownE, symObjAddr: 0x120, symBinAddr: 0x22EF0, symSize: 0x300 }
  - { offset: 0x1817F5, size: 0x8, addend: 0x0, symName: __ZThn16_N9Steinberg3Vst3mda18LoudnessController10initializeEPNS_8FUnknownE, symObjAddr: 0x420, symBinAddr: 0x231F0, symSize: 0x10 }
  - { offset: 0x181820, size: 0x8, addend: 0x0, symName: __ZThn48_N9Steinberg3Vst3mda18LoudnessController10initializeEPNS_8FUnknownE, symObjAddr: 0x430, symBinAddr: 0x23200, symSize: 0x10 }
  - { offset: 0x18184B, size: 0x8, addend: 0x0, symName: __ZN9Steinberg3Vst3mda18LoudnessController9terminateEv, symObjAddr: 0x440, symBinAddr: 0x23210, symSize: 0x10 }
  - { offset: 0x181880, size: 0x8, addend: 0x0, symName: __ZThn16_N9Steinberg3Vst3mda18LoudnessController9terminateEv, symObjAddr: 0x450, symBinAddr: 0x23220, symSize: 0x10 }
  - { offset: 0x1818B1, size: 0x8, addend: 0x0, symName: __ZThn48_N9Steinberg3Vst3mda18LoudnessController9terminateEv, symObjAddr: 0x460, symBinAddr: 0x23230, symSize: 0x10 }
  - { offset: 0x181912, size: 0x8, addend: 0x0, symName: __ZN9Steinberg3Vst3mda18LoudnessController21getParamStringByValueEjdPDs, symObjAddr: 0x470, symBinAddr: 0x23240, symSize: 0xB0 }
  - { offset: 0x181A44, size: 0x8, addend: 0x0, symName: __ZThn48_N9Steinberg3Vst3mda18LoudnessController21getParamStringByValueEjdPDs, symObjAddr: 0x520, symBinAddr: 0x232F0, symSize: 0xB0 }
  - { offset: 0x181B11, size: 0x8, addend: 0x0, symName: __ZN9Steinberg3Vst3mda18LoudnessController21getParamValueByStringEjPDsRd, symObjAddr: 0x5D0, symBinAddr: 0x233A0, symSize: 0x10 }
  - { offset: 0x181B7C, size: 0x8, addend: 0x0, symName: __ZThn48_N9Steinberg3Vst3mda18LoudnessController21getParamValueByStringEjPDsRd, symObjAddr: 0x5E0, symBinAddr: 0x233B0, symSize: 0x10 }
  - { offset: 0x183A1A, size: 0x8, addend: 0x0, symName: __ZN9Steinberg3Vst3mda17LoudnessProcessorC2Ev, symObjAddr: 0x0, symBinAddr: 0x233C0, symSize: 0xD0 }
  - { offset: 0x183A69, size: 0x8, addend: 0x0, symName: __ZN9Steinberg3Vst3mdaL8loudnessE, symObjAddr: 0x1250, symBinAddr: 0x67F90, symSize: 0x0 }
  - { offset: 0x1841AE, size: 0x8, addend: 0x0, symName: __ZN9Steinberg3Vst3mda18LoudnessController3uidE, symObjAddr: 0x1240, symBinAddr: 0x67F80, symSize: 0x0 }
  - { offset: 0x185D0C, size: 0x8, addend: 0x0, symName: __ZN9Steinberg3Vst3mda17LoudnessProcessorC2Ev, symObjAddr: 0x0, symBinAddr: 0x233C0, symSize: 0xD0 }
  - { offset: 0x185F6C, size: 0x8, addend: 0x0, symName: __ZN9Steinberg3Vst3mda17LoudnessProcessorC1Ev, symObjAddr: 0x150, symBinAddr: 0x23490, symSize: 0x130 }
  - { offset: 0x186149, size: 0x8, addend: 0x0, symName: __ZN9Steinberg3Vst3mda17LoudnessProcessorD1Ev, symObjAddr: 0x300, symBinAddr: 0x235C0, symSize: 0x80 }
  - { offset: 0x1862EB, size: 0x8, addend: 0x0, symName: __ZN9Steinberg3Vst3mda17LoudnessProcessorD0Ev, symObjAddr: 0x380, symBinAddr: 0x23640, symSize: 0x90 }
  - { offset: 0x186542, size: 0x8, addend: 0x0, symName: __ZN9Steinberg3Vst3mda17LoudnessProcessor10initializeEPNS_8FUnknownE, symObjAddr: 0x410, symBinAddr: 0x236D0, symSize: 0x110 }
  - { offset: 0x1866EA, size: 0x8, addend: 0x0, symName: __ZThn16_N9Steinberg3Vst3mda17LoudnessProcessor10initializeEPNS_8FUnknownE, symObjAddr: 0x520, symBinAddr: 0x237E0, symSize: 0x10 }
  - { offset: 0x186715, size: 0x8, addend: 0x0, symName: __ZThn48_N9Steinberg3Vst3mda17LoudnessProcessor10initializeEPNS_8FUnknownE, symObjAddr: 0x530, symBinAddr: 0x237F0, symSize: 0x10 }
  - { offset: 0x186740, size: 0x8, addend: 0x0, symName: __ZN9Steinberg3Vst3mda17LoudnessProcessor9terminateEv, symObjAddr: 0x540, symBinAddr: 0x23800, symSize: 0x10 }
  - { offset: 0x186775, size: 0x8, addend: 0x0, symName: __ZThn16_N9Steinberg3Vst3mda17LoudnessProcessor9terminateEv, symObjAddr: 0x550, symBinAddr: 0x23810, symSize: 0x10 }
  - { offset: 0x1867A6, size: 0x8, addend: 0x0, symName: __ZThn48_N9Steinberg3Vst3mda17LoudnessProcessor9terminateEv, symObjAddr: 0x560, symBinAddr: 0x23820, symSize: 0x10 }
  - { offset: 0x1867D7, size: 0x8, addend: 0x0, symName: __ZN9Steinberg3Vst3mda17LoudnessProcessor9setActiveEh, symObjAddr: 0x570, symBinAddr: 0x23830, symSize: 0x20 }
  - { offset: 0x186820, size: 0x8, addend: 0x0, symName: __ZThn48_N9Steinberg3Vst3mda17LoudnessProcessor9setActiveEh, symObjAddr: 0x590, symBinAddr: 0x23850, symSize: 0x20 }
  - { offset: 0x186855, size: 0x8, addend: 0x0, symName: __ZN9Steinberg3Vst3mda17LoudnessProcessor12doProcessingERNS0_11ProcessDataE, symObjAddr: 0x5B0, symBinAddr: 0x23870, symSize: 0x310 }
  - { offset: 0x18699F, size: 0x8, addend: 0x0, symName: __ZN9Steinberg3Vst3mda17LoudnessProcessor11recalculateEv, symObjAddr: 0x8C0, symBinAddr: 0x23B80, symSize: 0x150 }
  - { offset: 0x186A30, size: 0x8, addend: 0x0, symName: __ZN9Steinberg3Vst3mda17LoudnessProcessor12checkSilenceERNS0_11ProcessDataE, symObjAddr: 0xC40, symBinAddr: 0x23CD0, symSize: 0x10 }
  - { offset: 0x186A5C, size: 0x8, addend: 0x0, symName: __ZNK9Steinberg3Vst3mda17LoudnessProcessor15getVst2UniqueIdEv, symObjAddr: 0xCA0, symBinAddr: 0x23CE0, symSize: 0x10 }
  - { offset: 0x1888AE, size: 0x8, addend: 0x0, symName: __ZN9Steinberg3Vst3mda19MultiBandControllerC2Ev, symObjAddr: 0x0, symBinAddr: 0x23CF0, symSize: 0x70 }
  - { offset: 0x1929FF, size: 0x8, addend: 0x0, symName: __ZN9Steinberg3Vst3mda19MultiBandControllerC2Ev, symObjAddr: 0x0, symBinAddr: 0x23CF0, symSize: 0x70 }
  - { offset: 0x192A78, size: 0x8, addend: 0x0, symName: __ZN9Steinberg3Vst3mda19MultiBandControllerD1Ev, symObjAddr: 0xF0, symBinAddr: 0x23D60, symSize: 0x10 }
  - { offset: 0x192AEA, size: 0x8, addend: 0x0, symName: __ZN9Steinberg3Vst3mda19MultiBandControllerD0Ev, symObjAddr: 0x100, symBinAddr: 0x23D70, symSize: 0x20 }
  - { offset: 0x192CD2, size: 0x8, addend: 0x0, symName: __ZN9Steinberg3Vst3mda19MultiBandController10initializeEPNS_8FUnknownE, symObjAddr: 0x120, symBinAddr: 0x23D90, symSize: 0xAF0 }
  - { offset: 0x1940EE, size: 0x8, addend: 0x0, symName: __ZThn16_N9Steinberg3Vst3mda19MultiBandController10initializeEPNS_8FUnknownE, symObjAddr: 0xC10, symBinAddr: 0x24880, symSize: 0x10 }
  - { offset: 0x194119, size: 0x8, addend: 0x0, symName: __ZThn48_N9Steinberg3Vst3mda19MultiBandController10initializeEPNS_8FUnknownE, symObjAddr: 0xC20, symBinAddr: 0x24890, symSize: 0x10 }
  - { offset: 0x194144, size: 0x8, addend: 0x0, symName: __ZN9Steinberg3Vst3mda19MultiBandController9terminateEv, symObjAddr: 0xC30, symBinAddr: 0x248A0, symSize: 0x10 }
  - { offset: 0x194179, size: 0x8, addend: 0x0, symName: __ZThn16_N9Steinberg3Vst3mda19MultiBandController9terminateEv, symObjAddr: 0xC40, symBinAddr: 0x248B0, symSize: 0x10 }
  - { offset: 0x1941AA, size: 0x8, addend: 0x0, symName: __ZThn48_N9Steinberg3Vst3mda19MultiBandController9terminateEv, symObjAddr: 0xC50, symBinAddr: 0x248C0, symSize: 0x10 }
  - { offset: 0x19420B, size: 0x8, addend: 0x0, symName: __ZN9Steinberg3Vst3mda19MultiBandController21getParamStringByValueEjdPDs, symObjAddr: 0xC60, symBinAddr: 0x248D0, symSize: 0x200 }
  - { offset: 0x1943A2, size: 0x8, addend: 0x0, symName: __ZThn48_N9Steinberg3Vst3mda19MultiBandController21getParamStringByValueEjdPDs, symObjAddr: 0xE60, symBinAddr: 0x24AD0, symSize: 0x10 }
  - { offset: 0x1943DB, size: 0x8, addend: 0x0, symName: __ZN9Steinberg3Vst3mda19MultiBandController21getParamValueByStringEjPDsRd, symObjAddr: 0xE70, symBinAddr: 0x24AE0, symSize: 0x10 }
  - { offset: 0x194446, size: 0x8, addend: 0x0, symName: __ZThn48_N9Steinberg3Vst3mda19MultiBandController21getParamValueByStringEjPDsRd, symObjAddr: 0xE80, symBinAddr: 0x24AF0, symSize: 0x10 }
  - { offset: 0x1962E4, size: 0x8, addend: 0x0, symName: __ZN9Steinberg3Vst3mda18MultiBandProcessorC2Ev, symObjAddr: 0x0, symBinAddr: 0x24B00, symSize: 0xD0 }
  - { offset: 0x196AF5, size: 0x8, addend: 0x0, symName: __ZN9Steinberg3Vst3mda19MultiBandController3uidE, symObjAddr: 0x15F0, symBinAddr: 0x68120, symSize: 0x0 }
  - { offset: 0x198619, size: 0x8, addend: 0x0, symName: __ZN9Steinberg3Vst3mda18MultiBandProcessorC2Ev, symObjAddr: 0x0, symBinAddr: 0x24B00, symSize: 0xD0 }
  - { offset: 0x198879, size: 0x8, addend: 0x0, symName: __ZN9Steinberg3Vst3mda18MultiBandProcessorC1Ev, symObjAddr: 0x150, symBinAddr: 0x24BD0, symSize: 0x130 }
  - { offset: 0x198A56, size: 0x8, addend: 0x0, symName: __ZN9Steinberg3Vst3mda18MultiBandProcessorD1Ev, symObjAddr: 0x300, symBinAddr: 0x24D00, symSize: 0x80 }
  - { offset: 0x198BF8, size: 0x8, addend: 0x0, symName: __ZN9Steinberg3Vst3mda18MultiBandProcessorD0Ev, symObjAddr: 0x380, symBinAddr: 0x24D80, symSize: 0x90 }
  - { offset: 0x198E4F, size: 0x8, addend: 0x0, symName: __ZN9Steinberg3Vst3mda18MultiBandProcessor10initializeEPNS_8FUnknownE, symObjAddr: 0x410, symBinAddr: 0x24E10, symSize: 0x180 }
  - { offset: 0x198FF7, size: 0x8, addend: 0x0, symName: __ZThn16_N9Steinberg3Vst3mda18MultiBandProcessor10initializeEPNS_8FUnknownE, symObjAddr: 0x590, symBinAddr: 0x24F90, symSize: 0x10 }
  - { offset: 0x199022, size: 0x8, addend: 0x0, symName: __ZThn48_N9Steinberg3Vst3mda18MultiBandProcessor10initializeEPNS_8FUnknownE, symObjAddr: 0x5A0, symBinAddr: 0x24FA0, symSize: 0x10 }
  - { offset: 0x19904D, size: 0x8, addend: 0x0, symName: __ZN9Steinberg3Vst3mda18MultiBandProcessor9terminateEv, symObjAddr: 0x5B0, symBinAddr: 0x24FB0, symSize: 0x10 }
  - { offset: 0x199082, size: 0x8, addend: 0x0, symName: __ZThn16_N9Steinberg3Vst3mda18MultiBandProcessor9terminateEv, symObjAddr: 0x5C0, symBinAddr: 0x24FC0, symSize: 0x10 }
  - { offset: 0x1990B3, size: 0x8, addend: 0x0, symName: __ZThn48_N9Steinberg3Vst3mda18MultiBandProcessor9terminateEv, symObjAddr: 0x5D0, symBinAddr: 0x24FD0, symSize: 0x10 }
  - { offset: 0x1990E4, size: 0x8, addend: 0x0, symName: __ZN9Steinberg3Vst3mda18MultiBandProcessor9setActiveEh, symObjAddr: 0x5E0, symBinAddr: 0x24FE0, symSize: 0x10 }
  - { offset: 0x19912B, size: 0x8, addend: 0x0, symName: __ZThn48_N9Steinberg3Vst3mda18MultiBandProcessor9setActiveEh, symObjAddr: 0x5F0, symBinAddr: 0x24FF0, symSize: 0x10 }
  - { offset: 0x19915C, size: 0x8, addend: 0x0, symName: __ZN9Steinberg3Vst3mda18MultiBandProcessor12doProcessingERNS0_11ProcessDataE, symObjAddr: 0x600, symBinAddr: 0x25000, symSize: 0x350 }
  - { offset: 0x1993CC, size: 0x8, addend: 0x0, symName: __ZN9Steinberg3Vst3mda18MultiBandProcessor11recalculateEv, symObjAddr: 0x950, symBinAddr: 0x25350, symSize: 0x420 }
  - { offset: 0x199418, size: 0x8, addend: 0x0, symName: __ZNK9Steinberg3Vst3mda18MultiBandProcessor15getVst2UniqueIdEv, symObjAddr: 0xFF0, symBinAddr: 0x25770, symSize: 0x10 }
  - { offset: 0x19B26A, size: 0x8, addend: 0x0, symName: __ZN9Steinberg3Vst3mda19OverdriveControllerC2Ev, symObjAddr: 0x0, symBinAddr: 0x25780, symSize: 0x70 }
  - { offset: 0x1A5389, size: 0x8, addend: 0x0, symName: __ZN9Steinberg3Vst3mda19OverdriveControllerC2Ev, symObjAddr: 0x0, symBinAddr: 0x25780, symSize: 0x70 }
  - { offset: 0x1A5402, size: 0x8, addend: 0x0, symName: __ZN9Steinberg3Vst3mda19OverdriveControllerD1Ev, symObjAddr: 0xF0, symBinAddr: 0x257F0, symSize: 0x10 }
  - { offset: 0x1A5473, size: 0x8, addend: 0x0, symName: __ZN9Steinberg3Vst3mda19OverdriveControllerD0Ev, symObjAddr: 0x100, symBinAddr: 0x25800, symSize: 0x20 }
  - { offset: 0x1A559F, size: 0x8, addend: 0x0, symName: __ZN9Steinberg3Vst3mda19OverdriveController10initializeEPNS_8FUnknownE, symObjAddr: 0x120, symBinAddr: 0x25820, symSize: 0x2D0 }
  - { offset: 0x1A59F0, size: 0x8, addend: 0x0, symName: __ZThn16_N9Steinberg3Vst3mda19OverdriveController10initializeEPNS_8FUnknownE, symObjAddr: 0x3F0, symBinAddr: 0x25AF0, symSize: 0x10 }
  - { offset: 0x1A5A1B, size: 0x8, addend: 0x0, symName: __ZThn48_N9Steinberg3Vst3mda19OverdriveController10initializeEPNS_8FUnknownE, symObjAddr: 0x400, symBinAddr: 0x25B00, symSize: 0x10 }
  - { offset: 0x1A5A46, size: 0x8, addend: 0x0, symName: __ZN9Steinberg3Vst3mda19OverdriveController9terminateEv, symObjAddr: 0x410, symBinAddr: 0x25B10, symSize: 0x10 }
  - { offset: 0x1A5A7B, size: 0x8, addend: 0x0, symName: __ZThn16_N9Steinberg3Vst3mda19OverdriveController9terminateEv, symObjAddr: 0x420, symBinAddr: 0x25B20, symSize: 0x10 }
  - { offset: 0x1A5AAC, size: 0x8, addend: 0x0, symName: __ZThn48_N9Steinberg3Vst3mda19OverdriveController9terminateEv, symObjAddr: 0x430, symBinAddr: 0x25B30, symSize: 0x10 }
  - { offset: 0x1A5ADD, size: 0x8, addend: 0x0, symName: __ZN9Steinberg3Vst3mda19OverdriveController21getParamStringByValueEjdPDs, symObjAddr: 0x440, symBinAddr: 0x25B40, symSize: 0x10 }
  - { offset: 0x1A5B48, size: 0x8, addend: 0x0, symName: __ZThn48_N9Steinberg3Vst3mda19OverdriveController21getParamStringByValueEjdPDs, symObjAddr: 0x450, symBinAddr: 0x25B50, symSize: 0x10 }
  - { offset: 0x1A5B8E, size: 0x8, addend: 0x0, symName: __ZN9Steinberg3Vst3mda19OverdriveController21getParamValueByStringEjPDsRd, symObjAddr: 0x460, symBinAddr: 0x25B60, symSize: 0x10 }
  - { offset: 0x1A5BF9, size: 0x8, addend: 0x0, symName: __ZThn48_N9Steinberg3Vst3mda19OverdriveController21getParamValueByStringEjPDsRd, symObjAddr: 0x470, symBinAddr: 0x25B70, symSize: 0x10 }
  - { offset: 0x1A7A92, size: 0x8, addend: 0x0, symName: __ZN9Steinberg3Vst3mda18OverdriveProcessorC2Ev, symObjAddr: 0x0, symBinAddr: 0x25B80, symSize: 0xD0 }
  - { offset: 0x1A818B, size: 0x8, addend: 0x0, symName: __ZN9Steinberg3Vst3mda19OverdriveController3uidE, symObjAddr: 0xF00, symBinAddr: 0x68190, symSize: 0x0 }
  - { offset: 0x1A9CF4, size: 0x8, addend: 0x0, symName: __ZN9Steinberg3Vst3mda18OverdriveProcessorC2Ev, symObjAddr: 0x0, symBinAddr: 0x25B80, symSize: 0xD0 }
  - { offset: 0x1A9F54, size: 0x8, addend: 0x0, symName: __ZN9Steinberg3Vst3mda18OverdriveProcessorC1Ev, symObjAddr: 0x150, symBinAddr: 0x25C50, symSize: 0x130 }
  - { offset: 0x1AA131, size: 0x8, addend: 0x0, symName: __ZN9Steinberg3Vst3mda18OverdriveProcessorD1Ev, symObjAddr: 0x300, symBinAddr: 0x25D80, symSize: 0x80 }
  - { offset: 0x1AA2D3, size: 0x8, addend: 0x0, symName: __ZN9Steinberg3Vst3mda18OverdriveProcessorD0Ev, symObjAddr: 0x380, symBinAddr: 0x25E00, symSize: 0x90 }
  - { offset: 0x1AA52A, size: 0x8, addend: 0x0, symName: __ZN9Steinberg3Vst3mda18OverdriveProcessor10initializeEPNS_8FUnknownE, symObjAddr: 0x410, symBinAddr: 0x25E90, symSize: 0x100 }
  - { offset: 0x1AA6D2, size: 0x8, addend: 0x0, symName: __ZThn16_N9Steinberg3Vst3mda18OverdriveProcessor10initializeEPNS_8FUnknownE, symObjAddr: 0x510, symBinAddr: 0x25F90, symSize: 0x10 }
  - { offset: 0x1AA6FD, size: 0x8, addend: 0x0, symName: __ZThn48_N9Steinberg3Vst3mda18OverdriveProcessor10initializeEPNS_8FUnknownE, symObjAddr: 0x520, symBinAddr: 0x25FA0, symSize: 0x10 }
  - { offset: 0x1AA728, size: 0x8, addend: 0x0, symName: __ZN9Steinberg3Vst3mda18OverdriveProcessor9terminateEv, symObjAddr: 0x530, symBinAddr: 0x25FB0, symSize: 0x10 }
  - { offset: 0x1AA75D, size: 0x8, addend: 0x0, symName: __ZThn16_N9Steinberg3Vst3mda18OverdriveProcessor9terminateEv, symObjAddr: 0x540, symBinAddr: 0x25FC0, symSize: 0x10 }
  - { offset: 0x1AA78E, size: 0x8, addend: 0x0, symName: __ZThn48_N9Steinberg3Vst3mda18OverdriveProcessor9terminateEv, symObjAddr: 0x550, symBinAddr: 0x25FD0, symSize: 0x10 }
  - { offset: 0x1AA7BF, size: 0x8, addend: 0x0, symName: __ZN9Steinberg3Vst3mda18OverdriveProcessor9setActiveEh, symObjAddr: 0x560, symBinAddr: 0x25FE0, symSize: 0x10 }
  - { offset: 0x1AA806, size: 0x8, addend: 0x0, symName: __ZThn48_N9Steinberg3Vst3mda18OverdriveProcessor9setActiveEh, symObjAddr: 0x570, symBinAddr: 0x25FF0, symSize: 0x10 }
  - { offset: 0x1AA837, size: 0x8, addend: 0x0, symName: __ZN9Steinberg3Vst3mda18OverdriveProcessor12doProcessingERNS0_11ProcessDataE, symObjAddr: 0x580, symBinAddr: 0x26000, symSize: 0x150 }
  - { offset: 0x1AA9D7, size: 0x8, addend: 0x0, symName: __ZN9Steinberg3Vst3mda18OverdriveProcessor11recalculateEv, symObjAddr: 0x6D0, symBinAddr: 0x26150, symSize: 0x60 }
  - { offset: 0x1AAA3B, size: 0x8, addend: 0x0, symName: __ZNK9Steinberg3Vst3mda18OverdriveProcessor15getVst2UniqueIdEv, symObjAddr: 0x9B0, symBinAddr: 0x261B0, symSize: 0x10 }
  - { offset: 0x1AC88D, size: 0x8, addend: 0x0, symName: __ZN9Steinberg3Vst3mda13BaseParameterC2EPKDsS4_idiii, symObjAddr: 0x0, symBinAddr: 0x261C0, symSize: 0xD0 }
  - { offset: 0x1ACBC6, size: 0x8, addend: 0x0, symName: __ZN9Steinberg3Vst3mda13BaseParameterC2EPKDsS4_idiii, symObjAddr: 0x0, symBinAddr: 0x261C0, symSize: 0xD0 }
  - { offset: 0x1ACD5F, size: 0x8, addend: 0x0, symName: __ZN9Steinberg3Vst3mda13BaseParameterC1EPKDsS4_idiii, symObjAddr: 0xD0, symBinAddr: 0x26290, symSize: 0xD0 }
  - { offset: 0x1ACEDA, size: 0x8, addend: 0x0, symName: __ZNK9Steinberg3Vst3mda13BaseParameter10fromStringEPKDsRd, symObjAddr: 0x1A0, symBinAddr: 0x26360, symSize: 0x90 }
  - { offset: 0x1ACFA8, size: 0x8, addend: 0x0, symName: __ZN9Steinberg3Vst3mda13BaseParameter13setNormalizedEd, symObjAddr: 0x230, symBinAddr: 0x263F0, symSize: 0x10 }
  - { offset: 0x1ACFDF, size: 0x8, addend: 0x0, symName: __ZN9Steinberg3Vst3mda16IndexedParameterC2EPKDsS4_idiii, symObjAddr: 0x240, symBinAddr: 0x26400, symSize: 0x1A0 }
  - { offset: 0x1AD184, size: 0x8, addend: 0x0, symName: __ZN9Steinberg3Vst3mda16IndexedParameterC1EPKDsS4_idiii, symObjAddr: 0x3E0, symBinAddr: 0x265A0, symSize: 0x10 }
  - { offset: 0x1AD262, size: 0x8, addend: 0x0, symName: __ZN9Steinberg3Vst3mda16IndexedParameterD2Ev, symObjAddr: 0x3F0, symBinAddr: 0x265B0, symSize: 0x40 }
  - { offset: 0x1AD2C0, size: 0x8, addend: 0x0, symName: __ZN9Steinberg3Vst3mda16IndexedParameterD1Ev, symObjAddr: 0x430, symBinAddr: 0x265F0, symSize: 0x40 }
  - { offset: 0x1AD337, size: 0x8, addend: 0x0, symName: __ZN9Steinberg3Vst3mda16IndexedParameterD0Ev, symObjAddr: 0x470, symBinAddr: 0x26630, symSize: 0x40 }
  - { offset: 0x1AD3C5, size: 0x8, addend: 0x0, symName: __ZNK9Steinberg3Vst3mda16IndexedParameter7toPlainEd, symObjAddr: 0x4B0, symBinAddr: 0x26670, symSize: 0x30 }
  - { offset: 0x1AD415, size: 0x8, addend: 0x0, symName: __ZNK9Steinberg3Vst3mda16IndexedParameter12toNormalizedEd, symObjAddr: 0x4E0, symBinAddr: 0x266A0, symSize: 0x20 }
  - { offset: 0x1AD45E, size: 0x8, addend: 0x0, symName: __ZNK9Steinberg3Vst3mda16IndexedParameter8toStringEdPDs, symObjAddr: 0x500, symBinAddr: 0x266C0, symSize: 0x40 }
  - { offset: 0x1AD51F, size: 0x8, addend: 0x0, symName: __ZNK9Steinberg3Vst3mda16IndexedParameter10fromStringEPKDsRd, symObjAddr: 0x540, symBinAddr: 0x26700, symSize: 0x120 }
  - { offset: 0x1AD649, size: 0x8, addend: 0x0, symName: __ZN9Steinberg3Vst3mda16IndexedParameter14setIndexStringEiPKDs, symObjAddr: 0x660, symBinAddr: 0x26820, symSize: 0x30 }
  - { offset: 0x1AD6C1, size: 0x8, addend: 0x0, symName: __ZN9Steinberg3Vst3mda15ScaledParameterC2EPKDsS4_idiiddbi, symObjAddr: 0x690, symBinAddr: 0x26850, symSize: 0x110 }
  - { offset: 0x1AD8D2, size: 0x8, addend: 0x0, symName: __ZN9Steinberg3Vst3mda15ScaledParameterC1EPKDsS4_idiiddbi, symObjAddr: 0x7A0, symBinAddr: 0x26960, symSize: 0x110 }
  - { offset: 0x1ADACE, size: 0x8, addend: 0x0, symName: __ZNK9Steinberg3Vst3mda15ScaledParameter7toPlainEd, symObjAddr: 0x8B0, symBinAddr: 0x26A70, symSize: 0x30 }
  - { offset: 0x1ADB02, size: 0x8, addend: 0x0, symName: __ZNK9Steinberg3Vst3mda15ScaledParameter12toNormalizedEd, symObjAddr: 0x8E0, symBinAddr: 0x26AA0, symSize: 0x30 }
  - { offset: 0x1ADB36, size: 0x8, addend: 0x0, symName: __ZNK9Steinberg3Vst3mda15ScaledParameter8toStringEdPDs, symObjAddr: 0x910, symBinAddr: 0x26AD0, symSize: 0x60 }
  - { offset: 0x1ADBFD, size: 0x8, addend: 0x0, symName: __ZNK9Steinberg3Vst3mda15ScaledParameter10fromStringEPKDsRd, symObjAddr: 0x970, symBinAddr: 0x26B30, symSize: 0x80 }
  - { offset: 0x1ADCCB, size: 0x8, addend: 0x0, symName: __ZN9Steinberg3Vst3mda13BaseParameterD1Ev, symObjAddr: 0xA00, symBinAddr: 0x26BB0, symSize: 0x10 }
  - { offset: 0x1ADD20, size: 0x8, addend: 0x0, symName: __ZN9Steinberg3Vst3mda13BaseParameterD0Ev, symObjAddr: 0xA10, symBinAddr: 0x26BC0, symSize: 0x20 }
  - { offset: 0x1ADD83, size: 0x8, addend: 0x0, symName: __ZNK9Steinberg3Vst9Parameter3isAEv, symObjAddr: 0xA30, symBinAddr: 0x26BE0, symSize: 0x10 }
  - { offset: 0x1ADDA6, size: 0x8, addend: 0x0, symName: __ZNK9Steinberg3Vst9Parameter3isAEPKc, symObjAddr: 0xA40, symBinAddr: 0x26BF0, symSize: 0x10 }
  - { offset: 0x1ADE3E, size: 0x8, addend: 0x0, symName: __ZNK9Steinberg3Vst9Parameter8isTypeOfEPKcb, symObjAddr: 0xA50, symBinAddr: 0x26C00, symSize: 0x50 }
  - { offset: 0x1ADE84, size: 0x8, addend: 0x0, symName: __ZNK9Steinberg3Vst9Parameter8isTypeOfEPKcb, symObjAddr: 0xA50, symBinAddr: 0x26C00, symSize: 0x50 }
  - { offset: 0x1ADF26, size: 0x8, addend: 0x0, symName: __ZNK9Steinberg3Vst9Parameter7getInfoEv, symObjAddr: 0xAC0, symBinAddr: 0x26C50, symSize: 0x10 }
  - { offset: 0x1ADF49, size: 0x8, addend: 0x0, symName: __ZN9Steinberg3Vst9Parameter7getInfoEv, symObjAddr: 0xAD0, symBinAddr: 0x26C60, symSize: 0x10 }
  - { offset: 0x1ADF6C, size: 0x8, addend: 0x0, symName: __ZN9Steinberg3Vst9Parameter9setUnitIDEi, symObjAddr: 0xAE0, symBinAddr: 0x26C70, symSize: 0x10 }
  - { offset: 0x1ADF9C, size: 0x8, addend: 0x0, symName: __ZN9Steinberg3Vst9Parameter9getUnitIDEv, symObjAddr: 0xAF0, symBinAddr: 0x26C80, symSize: 0x10 }
  - { offset: 0x1ADFBF, size: 0x8, addend: 0x0, symName: __ZNK9Steinberg3Vst9Parameter12getPrecisionEv, symObjAddr: 0xB00, symBinAddr: 0x26C90, symSize: 0x10 }
  - { offset: 0x1ADFE2, size: 0x8, addend: 0x0, symName: __ZN9Steinberg3Vst9Parameter12setPrecisionEi, symObjAddr: 0xB10, symBinAddr: 0x26CA0, symSize: 0x10 }
  - { offset: 0x1AE022, size: 0x8, addend: 0x0, symName: __ZN9Steinberg3Vst3mda15ScaledParameterD1Ev, symObjAddr: 0xB20, symBinAddr: 0x26CB0, symSize: 0x10 }
  - { offset: 0x1AE093, size: 0x8, addend: 0x0, symName: __ZN9Steinberg3Vst3mda15ScaledParameterD0Ev, symObjAddr: 0xB30, symBinAddr: 0x26CC0, symSize: 0x1C }
  - { offset: 0x1B0AFB, size: 0x8, addend: 0x0, symName: __ZN9Steinberg3Vst3mda15PianoControllerC2Ev, symObjAddr: 0x0, symBinAddr: 0x26CE0, symSize: 0x70 }
  - { offset: 0x1BACD1, size: 0x8, addend: 0x0, symName: __ZN9Steinberg3Vst3mda15PianoControllerC2Ev, symObjAddr: 0x0, symBinAddr: 0x26CE0, symSize: 0x70 }
  - { offset: 0x1BAD4A, size: 0x8, addend: 0x0, symName: __ZN9Steinberg3Vst3mda15PianoControllerD1Ev, symObjAddr: 0xF0, symBinAddr: 0x26D50, symSize: 0x10 }
  - { offset: 0x1BADBB, size: 0x8, addend: 0x0, symName: __ZN9Steinberg3Vst3mda15PianoControllerD0Ev, symObjAddr: 0x100, symBinAddr: 0x26D60, symSize: 0x20 }
  - { offset: 0x1BAF48, size: 0x8, addend: 0x0, symName: __ZN9Steinberg3Vst3mda15PianoController10initializeEPNS_8FUnknownE, symObjAddr: 0x120, symBinAddr: 0x26D80, symSize: 0xEA0 }
  - { offset: 0x1BC8EE, size: 0x8, addend: 0x0, symName: __ZThn16_N9Steinberg3Vst3mda15PianoController10initializeEPNS_8FUnknownE, symObjAddr: 0xFC0, symBinAddr: 0x27C20, symSize: 0x10 }
  - { offset: 0x1BC919, size: 0x8, addend: 0x0, symName: __ZThn48_N9Steinberg3Vst3mda15PianoController10initializeEPNS_8FUnknownE, symObjAddr: 0xFD0, symBinAddr: 0x27C30, symSize: 0x10 }
  - { offset: 0x1BC944, size: 0x8, addend: 0x0, symName: __ZN9Steinberg3Vst3mda15PianoController9terminateEv, symObjAddr: 0xFE0, symBinAddr: 0x27C40, symSize: 0x10 }
  - { offset: 0x1BC979, size: 0x8, addend: 0x0, symName: __ZThn16_N9Steinberg3Vst3mda15PianoController9terminateEv, symObjAddr: 0xFF0, symBinAddr: 0x27C50, symSize: 0x10 }
  - { offset: 0x1BC9AA, size: 0x8, addend: 0x0, symName: __ZThn48_N9Steinberg3Vst3mda15PianoController9terminateEv, symObjAddr: 0x1000, symBinAddr: 0x27C60, symSize: 0x10 }
  - { offset: 0x1BC9F4, size: 0x8, addend: 0x0, symName: __ZN9Steinberg3Vst3mda15PianoController18setParamNormalizedEjd, symObjAddr: 0x1010, symBinAddr: 0x27C70, symSize: 0x1B0 }
  - { offset: 0x1BCACA, size: 0x8, addend: 0x0, symName: __ZThn48_N9Steinberg3Vst3mda15PianoController18setParamNormalizedEjd, symObjAddr: 0x11C0, symBinAddr: 0x27E20, symSize: 0x10 }
  - { offset: 0x1BCAFC, size: 0x8, addend: 0x0, symName: __ZN9Steinberg3Vst3mda15PianoController21getParamStringByValueEjdPDs, symObjAddr: 0x11D0, symBinAddr: 0x27E30, symSize: 0x10 }
  - { offset: 0x1BCB67, size: 0x8, addend: 0x0, symName: __ZThn48_N9Steinberg3Vst3mda15PianoController21getParamStringByValueEjdPDs, symObjAddr: 0x11E0, symBinAddr: 0x27E40, symSize: 0x10 }
  - { offset: 0x1BCBAD, size: 0x8, addend: 0x0, symName: __ZN9Steinberg3Vst3mda15PianoController21getParamValueByStringEjPDsRd, symObjAddr: 0x11F0, symBinAddr: 0x27E50, symSize: 0x10 }
  - { offset: 0x1BCC18, size: 0x8, addend: 0x0, symName: __ZThn48_N9Steinberg3Vst3mda15PianoController21getParamValueByStringEjPDsRd, symObjAddr: 0x1200, symBinAddr: 0x27E60, symSize: 0x10 }
  - { offset: 0x1BEAA3, size: 0x8, addend: 0x0, symName: __ZN9Steinberg3Vst3mda14PianoProcessorC2Ev, symObjAddr: 0x0, symBinAddr: 0x27E70, symSize: 0xF0 }
  - { offset: 0x1BEABD, size: 0x8, addend: 0x0, symName: _pianoData, symObjAddr: 0x2720, symBinAddr: 0x15B8B0, symSize: 0x0 }
  - { offset: 0x1BEAFE, size: 0x8, addend: 0x0, symName: __ZN9Steinberg3Vst3mda14PianoProcessor13programParamsE, symObjAddr: 0x120C00, symBinAddr: 0x279D90, symSize: 0x0 }
  - { offset: 0x1C17B6, size: 0x8, addend: 0x0, symName: __ZN9Steinberg3Vst3mda15PianoController3uidE, symObjAddr: 0x1210F0, symBinAddr: 0x68400, symSize: 0x0 }
  - { offset: 0x1C1856, size: 0x8, addend: 0x0, symName: __ZN9Steinberg3Vst3mda14PianoProcessorC2Ev, symObjAddr: 0x0, symBinAddr: 0x27E70, symSize: 0xF0 }
  - { offset: 0x1C1AF4, size: 0x8, addend: 0x0, symName: __ZN9Steinberg3Vst3mda14PianoProcessorC1Ev, symObjAddr: 0x170, symBinAddr: 0x27F60, symSize: 0x150 }
  - { offset: 0x1C1D0F, size: 0x8, addend: 0x0, symName: __ZN9Steinberg3Vst3mda14PianoProcessorD1Ev, symObjAddr: 0x340, symBinAddr: 0x280B0, symSize: 0x80 }
  - { offset: 0x1C1EB1, size: 0x8, addend: 0x0, symName: __ZN9Steinberg3Vst3mda14PianoProcessorD0Ev, symObjAddr: 0x3C0, symBinAddr: 0x28130, symSize: 0x90 }
  - { offset: 0x1C2108, size: 0x8, addend: 0x0, symName: __ZN9Steinberg3Vst3mda14PianoProcessor10initializeEPNS_8FUnknownE, symObjAddr: 0x450, symBinAddr: 0x281C0, symSize: 0x7F0 }
  - { offset: 0x1C22EC, size: 0x8, addend: 0x0, symName: __ZThn16_N9Steinberg3Vst3mda14PianoProcessor10initializeEPNS_8FUnknownE, symObjAddr: 0xC40, symBinAddr: 0x289B0, symSize: 0x10 }
  - { offset: 0x1C2317, size: 0x8, addend: 0x0, symName: __ZThn48_N9Steinberg3Vst3mda14PianoProcessor10initializeEPNS_8FUnknownE, symObjAddr: 0xC50, symBinAddr: 0x289C0, symSize: 0x10 }
  - { offset: 0x1C2342, size: 0x8, addend: 0x0, symName: __ZN9Steinberg3Vst3mda14PianoProcessor9terminateEv, symObjAddr: 0xC60, symBinAddr: 0x289D0, symSize: 0x40 }
  - { offset: 0x1C2379, size: 0x8, addend: 0x0, symName: __ZThn16_N9Steinberg3Vst3mda14PianoProcessor9terminateEv, symObjAddr: 0xCA0, symBinAddr: 0x28A10, symSize: 0x40 }
  - { offset: 0x1C23A5, size: 0x8, addend: 0x0, symName: __ZThn48_N9Steinberg3Vst3mda14PianoProcessor9terminateEv, symObjAddr: 0xCE0, symBinAddr: 0x28A50, symSize: 0x40 }
  - { offset: 0x1C2426, size: 0x8, addend: 0x0, symName: __ZN9Steinberg3Vst3mda14PianoProcessor9setActiveEh, symObjAddr: 0xD20, symBinAddr: 0x28A90, symSize: 0x1E0 }
  - { offset: 0x1C24C0, size: 0x8, addend: 0x0, symName: __ZN9Steinberg3Vst3mda14PianoProcessor11allNotesOffEv, symObjAddr: 0xF00, symBinAddr: 0x28C70, symSize: 0x160 }
  - { offset: 0x1C2519, size: 0x8, addend: 0x0, symName: __ZThn48_N9Steinberg3Vst3mda14PianoProcessor9setActiveEh, symObjAddr: 0x1060, symBinAddr: 0x28DD0, symSize: 0x200 }
  - { offset: 0x1C25C4, size: 0x8, addend: 0x0, symName: __ZN9Steinberg3Vst3mda14PianoProcessor12setParameterEjdi, symObjAddr: 0x1260, symBinAddr: 0x28FD0, symSize: 0x1F0 }
  - { offset: 0x1C26AA, size: 0x8, addend: 0x0, symName: __ZN9Steinberg3Vst3mda14PianoProcessor17setCurrentProgramEj, symObjAddr: 0x1450, symBinAddr: 0x291C0, symSize: 0x10 }
  - { offset: 0x1C26DC, size: 0x8, addend: 0x0, symName: __ZN9Steinberg3Vst3mda14PianoProcessor27setCurrentProgramNormalizedEd, symObjAddr: 0x1460, symBinAddr: 0x291D0, symSize: 0x30 }
  - { offset: 0x1C2784, size: 0x8, addend: 0x0, symName: __ZN9Steinberg3Vst3mda14PianoProcessor12doProcessingERNS0_11ProcessDataE, symObjAddr: 0x1490, symBinAddr: 0x29200, symSize: 0x470 }
  - { offset: 0x1C28F6, size: 0x8, addend: 0x0, symName: __ZN9Steinberg3Vst3mda14PianoProcessor9noteEventERKNS0_5EventE, symObjAddr: 0x1900, symBinAddr: 0x29670, symSize: 0x560 }
  - { offset: 0x1C2A3B, size: 0x8, addend: 0x0, symName: __ZN9Steinberg3Vst3mda14PianoProcessor10preProcessEv, symObjAddr: 0x1E60, symBinAddr: 0x29BD0, symSize: 0x30 }
  - { offset: 0x1C2AA1, size: 0x8, addend: 0x0, symName: __ZN9Steinberg3Vst3mda14PianoProcessor12processEventERKNS0_5EventE, symObjAddr: 0x1E90, symBinAddr: 0x29C00, symSize: 0x90 }
  - { offset: 0x1C2B1C, size: 0x8, addend: 0x0, symName: __ZN9Steinberg3Vst3mda14PianoProcessor11recalculateEv, symObjAddr: 0x1F20, symBinAddr: 0x29C90, symSize: 0x160 }
  - { offset: 0x1C2B58, size: 0x8, addend: 0x0, symName: __ZNK9Steinberg3Vst3mda14PianoProcessor10hasProgramEv, symObjAddr: 0x2290, symBinAddr: 0x29DF0, symSize: 0x10 }
  - { offset: 0x1C2B7B, size: 0x8, addend: 0x0, symName: __ZNK9Steinberg3Vst3mda14PianoProcessor17getCurrentProgramEv, symObjAddr: 0x22A0, symBinAddr: 0x29E00, symSize: 0x10 }
  - { offset: 0x1C2B9E, size: 0x8, addend: 0x0, symName: __ZNK9Steinberg3Vst3mda14PianoProcessor14getNumProgramsEv, symObjAddr: 0x22B0, symBinAddr: 0x29E10, symSize: 0x10 }
  - { offset: 0x1C2BC1, size: 0x8, addend: 0x0, symName: __ZNK9Steinberg3Vst3mda14PianoProcessor15getVst2UniqueIdEv, symObjAddr: 0x22C0, symBinAddr: 0x29E20, symSize: 0x10 }
  - { offset: 0x1C4A28, size: 0x8, addend: 0x0, symName: __ZN9Steinberg3Vst3mda18RePsychoControllerC2Ev, symObjAddr: 0x0, symBinAddr: 0x29E30, symSize: 0x70 }
  - { offset: 0x1CEB47, size: 0x8, addend: 0x0, symName: __ZN9Steinberg3Vst3mda18RePsychoControllerC2Ev, symObjAddr: 0x0, symBinAddr: 0x29E30, symSize: 0x70 }
  - { offset: 0x1CEBC0, size: 0x8, addend: 0x0, symName: __ZN9Steinberg3Vst3mda18RePsychoControllerD1Ev, symObjAddr: 0xF0, symBinAddr: 0x29EA0, symSize: 0x10 }
  - { offset: 0x1CEC31, size: 0x8, addend: 0x0, symName: __ZN9Steinberg3Vst3mda18RePsychoControllerD0Ev, symObjAddr: 0x100, symBinAddr: 0x29EB0, symSize: 0x20 }
  - { offset: 0x1CED5D, size: 0x8, addend: 0x0, symName: __ZN9Steinberg3Vst3mda18RePsychoController10initializeEPNS_8FUnknownE, symObjAddr: 0x120, symBinAddr: 0x29ED0, symSize: 0x5C0 }
  - { offset: 0x1CF6EE, size: 0x8, addend: 0x0, symName: __ZThn16_N9Steinberg3Vst3mda18RePsychoController10initializeEPNS_8FUnknownE, symObjAddr: 0x6E0, symBinAddr: 0x2A490, symSize: 0x10 }
  - { offset: 0x1CF719, size: 0x8, addend: 0x0, symName: __ZThn48_N9Steinberg3Vst3mda18RePsychoController10initializeEPNS_8FUnknownE, symObjAddr: 0x6F0, symBinAddr: 0x2A4A0, symSize: 0x10 }
  - { offset: 0x1CF744, size: 0x8, addend: 0x0, symName: __ZN9Steinberg3Vst3mda18RePsychoController9terminateEv, symObjAddr: 0x700, symBinAddr: 0x2A4B0, symSize: 0x10 }
  - { offset: 0x1CF779, size: 0x8, addend: 0x0, symName: __ZThn16_N9Steinberg3Vst3mda18RePsychoController9terminateEv, symObjAddr: 0x710, symBinAddr: 0x2A4C0, symSize: 0x10 }
  - { offset: 0x1CF7AA, size: 0x8, addend: 0x0, symName: __ZThn48_N9Steinberg3Vst3mda18RePsychoController9terminateEv, symObjAddr: 0x720, symBinAddr: 0x2A4D0, symSize: 0x10 }
  - { offset: 0x1CF810, size: 0x8, addend: 0x0, symName: __ZN9Steinberg3Vst3mda18RePsychoController21getParamStringByValueEjdPDs, symObjAddr: 0x730, symBinAddr: 0x2A4E0, symSize: 0xA0 }
  - { offset: 0x1CF92C, size: 0x8, addend: 0x0, symName: __ZThn48_N9Steinberg3Vst3mda18RePsychoController21getParamStringByValueEjdPDs, symObjAddr: 0x7D0, symBinAddr: 0x2A580, symSize: 0xB0 }
  - { offset: 0x1CF9EF, size: 0x8, addend: 0x0, symName: __ZN9Steinberg3Vst3mda18RePsychoController21getParamValueByStringEjPDsRd, symObjAddr: 0x880, symBinAddr: 0x2A630, symSize: 0x10 }
  - { offset: 0x1CFA5A, size: 0x8, addend: 0x0, symName: __ZThn48_N9Steinberg3Vst3mda18RePsychoController21getParamValueByStringEjPDsRd, symObjAddr: 0x890, symBinAddr: 0x2A640, symSize: 0x10 }
  - { offset: 0x1D18F3, size: 0x8, addend: 0x0, symName: __ZN9Steinberg3Vst3mda17RePsychoProcessorC2Ev, symObjAddr: 0x0, symBinAddr: 0x2A650, symSize: 0xD0 }
  - { offset: 0x1D2078, size: 0x8, addend: 0x0, symName: __ZN9Steinberg3Vst3mda18RePsychoController3uidE, symObjAddr: 0x14E0, symBinAddr: 0x684E0, symSize: 0x0 }
  - { offset: 0x1D3B7F, size: 0x8, addend: 0x0, symName: __ZN9Steinberg3Vst3mda17RePsychoProcessorC2Ev, symObjAddr: 0x0, symBinAddr: 0x2A650, symSize: 0xD0 }
  - { offset: 0x1D3DDF, size: 0x8, addend: 0x0, symName: __ZN9Steinberg3Vst3mda17RePsychoProcessorC1Ev, symObjAddr: 0x150, symBinAddr: 0x2A720, symSize: 0x130 }
  - { offset: 0x1D3FBC, size: 0x8, addend: 0x0, symName: __ZN9Steinberg3Vst3mda17RePsychoProcessorD1Ev, symObjAddr: 0x300, symBinAddr: 0x2A850, symSize: 0x80 }
  - { offset: 0x1D415E, size: 0x8, addend: 0x0, symName: __ZN9Steinberg3Vst3mda17RePsychoProcessorD0Ev, symObjAddr: 0x380, symBinAddr: 0x2A8D0, symSize: 0x90 }
  - { offset: 0x1D43B5, size: 0x8, addend: 0x0, symName: __ZN9Steinberg3Vst3mda17RePsychoProcessor10initializeEPNS_8FUnknownE, symObjAddr: 0x410, symBinAddr: 0x2A960, symSize: 0x160 }
  - { offset: 0x1D455D, size: 0x8, addend: 0x0, symName: __ZThn16_N9Steinberg3Vst3mda17RePsychoProcessor10initializeEPNS_8FUnknownE, symObjAddr: 0x570, symBinAddr: 0x2AAC0, symSize: 0x10 }
  - { offset: 0x1D4588, size: 0x8, addend: 0x0, symName: __ZThn48_N9Steinberg3Vst3mda17RePsychoProcessor10initializeEPNS_8FUnknownE, symObjAddr: 0x580, symBinAddr: 0x2AAD0, symSize: 0x10 }
  - { offset: 0x1D45B3, size: 0x8, addend: 0x0, symName: __ZN9Steinberg3Vst3mda17RePsychoProcessor9terminateEv, symObjAddr: 0x590, symBinAddr: 0x2AAE0, symSize: 0x50 }
  - { offset: 0x1D45EA, size: 0x8, addend: 0x0, symName: __ZThn16_N9Steinberg3Vst3mda17RePsychoProcessor9terminateEv, symObjAddr: 0x5E0, symBinAddr: 0x2AB30, symSize: 0x50 }
  - { offset: 0x1D4616, size: 0x8, addend: 0x0, symName: __ZThn48_N9Steinberg3Vst3mda17RePsychoProcessor9terminateEv, symObjAddr: 0x630, symBinAddr: 0x2AB80, symSize: 0x50 }
  - { offset: 0x1D4642, size: 0x8, addend: 0x0, symName: __ZN9Steinberg3Vst3mda17RePsychoProcessor9setActiveEh, symObjAddr: 0x680, symBinAddr: 0x2ABD0, symSize: 0x50 }
  - { offset: 0x1D468D, size: 0x8, addend: 0x0, symName: __ZThn48_N9Steinberg3Vst3mda17RePsychoProcessor9setActiveEh, symObjAddr: 0x6D0, symBinAddr: 0x2AC20, symSize: 0x60 }
  - { offset: 0x1D46C2, size: 0x8, addend: 0x0, symName: __ZN9Steinberg3Vst3mda17RePsychoProcessor12doProcessingERNS0_11ProcessDataE, symObjAddr: 0x730, symBinAddr: 0x2AC80, symSize: 0x430 }
  - { offset: 0x1D4858, size: 0x8, addend: 0x0, symName: __ZN9Steinberg3Vst3mda17RePsychoProcessor11recalculateEv, symObjAddr: 0xB60, symBinAddr: 0x2B0B0, symSize: 0x140 }
  - { offset: 0x1D4895, size: 0x8, addend: 0x0, symName: __ZNK9Steinberg3Vst3mda17RePsychoProcessor15getVst2UniqueIdEv, symObjAddr: 0xF20, symBinAddr: 0x2B1F0, symSize: 0x10 }
  - { offset: 0x1D66E7, size: 0x8, addend: 0x0, symName: __ZN9Steinberg3Vst3mda19RezFilterControllerC2Ev, symObjAddr: 0x0, symBinAddr: 0x2B200, symSize: 0x70 }
  - { offset: 0x1E084B, size: 0x8, addend: 0x0, symName: __ZN9Steinberg3Vst3mda19RezFilterControllerC2Ev, symObjAddr: 0x0, symBinAddr: 0x2B200, symSize: 0x70 }
  - { offset: 0x1E08C4, size: 0x8, addend: 0x0, symName: __ZN9Steinberg3Vst3mda19RezFilterControllerD1Ev, symObjAddr: 0xF0, symBinAddr: 0x2B270, symSize: 0x10 }
  - { offset: 0x1E0936, size: 0x8, addend: 0x0, symName: __ZN9Steinberg3Vst3mda19RezFilterControllerD0Ev, symObjAddr: 0x100, symBinAddr: 0x2B280, symSize: 0x20 }
  - { offset: 0x1E0A61, size: 0x8, addend: 0x0, symName: __ZN9Steinberg3Vst3mda19RezFilterController10initializeEPNS_8FUnknownE, symObjAddr: 0x120, symBinAddr: 0x2B2A0, symSize: 0x7E0 }
  - { offset: 0x1E17C9, size: 0x8, addend: 0x0, symName: __ZThn16_N9Steinberg3Vst3mda19RezFilterController10initializeEPNS_8FUnknownE, symObjAddr: 0x900, symBinAddr: 0x2BA80, symSize: 0x10 }
  - { offset: 0x1E17F4, size: 0x8, addend: 0x0, symName: __ZThn48_N9Steinberg3Vst3mda19RezFilterController10initializeEPNS_8FUnknownE, symObjAddr: 0x910, symBinAddr: 0x2BA90, symSize: 0x10 }
  - { offset: 0x1E181F, size: 0x8, addend: 0x0, symName: __ZN9Steinberg3Vst3mda19RezFilterController9terminateEv, symObjAddr: 0x920, symBinAddr: 0x2BAA0, symSize: 0x10 }
  - { offset: 0x1E1854, size: 0x8, addend: 0x0, symName: __ZThn16_N9Steinberg3Vst3mda19RezFilterController9terminateEv, symObjAddr: 0x930, symBinAddr: 0x2BAB0, symSize: 0x10 }
  - { offset: 0x1E1885, size: 0x8, addend: 0x0, symName: __ZThn48_N9Steinberg3Vst3mda19RezFilterController9terminateEv, symObjAddr: 0x940, symBinAddr: 0x2BAC0, symSize: 0x10 }
  - { offset: 0x1E18EB, size: 0x8, addend: 0x0, symName: __ZN9Steinberg3Vst3mda19RezFilterController21getParamStringByValueEjdPDs, symObjAddr: 0x950, symBinAddr: 0x2BAD0, symSize: 0x1D0 }
  - { offset: 0x1E1A57, size: 0x8, addend: 0x0, symName: __ZThn48_N9Steinberg3Vst3mda19RezFilterController21getParamStringByValueEjdPDs, symObjAddr: 0xB20, symBinAddr: 0x2BCA0, symSize: 0x10 }
  - { offset: 0x1E1A90, size: 0x8, addend: 0x0, symName: __ZN9Steinberg3Vst3mda19RezFilterController21getParamValueByStringEjPDsRd, symObjAddr: 0xB30, symBinAddr: 0x2BCB0, symSize: 0x30 }
  - { offset: 0x1E1AFB, size: 0x8, addend: 0x0, symName: __ZThn48_N9Steinberg3Vst3mda19RezFilterController21getParamValueByStringEjPDsRd, symObjAddr: 0xB60, symBinAddr: 0x2BCE0, symSize: 0x30 }
  - { offset: 0x1E398F, size: 0x8, addend: 0x0, symName: __ZN9Steinberg3Vst3mda18RezFilterProcessorC2Ev, symObjAddr: 0x0, symBinAddr: 0x2BD10, symSize: 0xD0 }
  - { offset: 0x1E4168, size: 0x8, addend: 0x0, symName: __ZN9Steinberg3Vst3mda19RezFilterController3uidE, symObjAddr: 0x18C0, symBinAddr: 0x685C0, symSize: 0x0 }
  - { offset: 0x1E5CF9, size: 0x8, addend: 0x0, symName: __ZN9Steinberg3Vst3mda18RezFilterProcessorC2Ev, symObjAddr: 0x0, symBinAddr: 0x2BD10, symSize: 0xD0 }
  - { offset: 0x1E5F59, size: 0x8, addend: 0x0, symName: __ZN9Steinberg3Vst3mda18RezFilterProcessorC1Ev, symObjAddr: 0x150, symBinAddr: 0x2BDE0, symSize: 0x130 }
  - { offset: 0x1E6136, size: 0x8, addend: 0x0, symName: __ZN9Steinberg3Vst3mda18RezFilterProcessorD1Ev, symObjAddr: 0x300, symBinAddr: 0x2BF10, symSize: 0x80 }
  - { offset: 0x1E62D8, size: 0x8, addend: 0x0, symName: __ZN9Steinberg3Vst3mda18RezFilterProcessorD0Ev, symObjAddr: 0x380, symBinAddr: 0x2BF90, symSize: 0x90 }
  - { offset: 0x1E652F, size: 0x8, addend: 0x0, symName: __ZN9Steinberg3Vst3mda18RezFilterProcessor10initializeEPNS_8FUnknownE, symObjAddr: 0x410, symBinAddr: 0x2C020, symSize: 0x130 }
  - { offset: 0x1E66D7, size: 0x8, addend: 0x0, symName: __ZThn16_N9Steinberg3Vst3mda18RezFilterProcessor10initializeEPNS_8FUnknownE, symObjAddr: 0x540, symBinAddr: 0x2C150, symSize: 0x10 }
  - { offset: 0x1E6702, size: 0x8, addend: 0x0, symName: __ZThn48_N9Steinberg3Vst3mda18RezFilterProcessor10initializeEPNS_8FUnknownE, symObjAddr: 0x550, symBinAddr: 0x2C160, symSize: 0x10 }
  - { offset: 0x1E672D, size: 0x8, addend: 0x0, symName: __ZN9Steinberg3Vst3mda18RezFilterProcessor9terminateEv, symObjAddr: 0x560, symBinAddr: 0x2C170, symSize: 0x10 }
  - { offset: 0x1E6762, size: 0x8, addend: 0x0, symName: __ZThn16_N9Steinberg3Vst3mda18RezFilterProcessor9terminateEv, symObjAddr: 0x570, symBinAddr: 0x2C180, symSize: 0x10 }
  - { offset: 0x1E6793, size: 0x8, addend: 0x0, symName: __ZThn48_N9Steinberg3Vst3mda18RezFilterProcessor9terminateEv, symObjAddr: 0x580, symBinAddr: 0x2C190, symSize: 0x10 }
  - { offset: 0x1E67C4, size: 0x8, addend: 0x0, symName: __ZN9Steinberg3Vst3mda18RezFilterProcessor9setActiveEh, symObjAddr: 0x590, symBinAddr: 0x2C1A0, symSize: 0x30 }
  - { offset: 0x1E680D, size: 0x8, addend: 0x0, symName: __ZThn48_N9Steinberg3Vst3mda18RezFilterProcessor9setActiveEh, symObjAddr: 0x5C0, symBinAddr: 0x2C1D0, symSize: 0x30 }
  - { offset: 0x1E6842, size: 0x8, addend: 0x0, symName: __ZN9Steinberg3Vst3mda18RezFilterProcessor12doProcessingERNS0_11ProcessDataE, symObjAddr: 0x5F0, symBinAddr: 0x2C200, symSize: 0x7C0 }
  - { offset: 0x1E6AD2, size: 0x8, addend: 0x0, symName: __ZN9Steinberg3Vst3mda18RezFilterProcessor11recalculateEv, symObjAddr: 0xDB0, symBinAddr: 0x2C9C0, symSize: 0x270 }
  - { offset: 0x1E6B84, size: 0x8, addend: 0x0, symName: __ZNK9Steinberg3Vst3mda18RezFilterProcessor15getVst2UniqueIdEv, symObjAddr: 0x12A0, symBinAddr: 0x2CC30, symSize: 0x10 }
  - { offset: 0x1E89CA, size: 0x8, addend: 0x0, symName: __ZN9Steinberg3Vst3mda17RingModControllerC2Ev, symObjAddr: 0x0, symBinAddr: 0x2CC40, symSize: 0x70 }
  - { offset: 0x1F2AE9, size: 0x8, addend: 0x0, symName: __ZN9Steinberg3Vst3mda17RingModControllerC2Ev, symObjAddr: 0x0, symBinAddr: 0x2CC40, symSize: 0x70 }
  - { offset: 0x1F2B62, size: 0x8, addend: 0x0, symName: __ZN9Steinberg3Vst3mda17RingModControllerD1Ev, symObjAddr: 0xF0, symBinAddr: 0x2CCB0, symSize: 0x10 }
  - { offset: 0x1F2BD4, size: 0x8, addend: 0x0, symName: __ZN9Steinberg3Vst3mda17RingModControllerD0Ev, symObjAddr: 0x100, symBinAddr: 0x2CCC0, symSize: 0x20 }
  - { offset: 0x1F2CFF, size: 0x8, addend: 0x0, symName: __ZN9Steinberg3Vst3mda17RingModController10initializeEPNS_8FUnknownE, symObjAddr: 0x120, symBinAddr: 0x2CCE0, symSize: 0x2A0 }
  - { offset: 0x1F3149, size: 0x8, addend: 0x0, symName: __ZThn16_N9Steinberg3Vst3mda17RingModController10initializeEPNS_8FUnknownE, symObjAddr: 0x3C0, symBinAddr: 0x2CF80, symSize: 0x10 }
  - { offset: 0x1F3174, size: 0x8, addend: 0x0, symName: __ZThn48_N9Steinberg3Vst3mda17RingModController10initializeEPNS_8FUnknownE, symObjAddr: 0x3D0, symBinAddr: 0x2CF90, symSize: 0x10 }
  - { offset: 0x1F319F, size: 0x8, addend: 0x0, symName: __ZN9Steinberg3Vst3mda17RingModController9terminateEv, symObjAddr: 0x3E0, symBinAddr: 0x2CFA0, symSize: 0x10 }
  - { offset: 0x1F31D4, size: 0x8, addend: 0x0, symName: __ZThn16_N9Steinberg3Vst3mda17RingModController9terminateEv, symObjAddr: 0x3F0, symBinAddr: 0x2CFB0, symSize: 0x10 }
  - { offset: 0x1F3205, size: 0x8, addend: 0x0, symName: __ZThn48_N9Steinberg3Vst3mda17RingModController9terminateEv, symObjAddr: 0x400, symBinAddr: 0x2CFC0, symSize: 0x10 }
  - { offset: 0x1F326B, size: 0x8, addend: 0x0, symName: __ZN9Steinberg3Vst3mda17RingModController21getParamStringByValueEjdPDs, symObjAddr: 0x410, symBinAddr: 0x2CFD0, symSize: 0x90 }
  - { offset: 0x1F335F, size: 0x8, addend: 0x0, symName: __ZThn48_N9Steinberg3Vst3mda17RingModController21getParamStringByValueEjdPDs, symObjAddr: 0x4A0, symBinAddr: 0x2D060, symSize: 0x90 }
  - { offset: 0x1F3409, size: 0x8, addend: 0x0, symName: __ZN9Steinberg3Vst3mda17RingModController21getParamValueByStringEjPDsRd, symObjAddr: 0x530, symBinAddr: 0x2D0F0, symSize: 0x20 }
  - { offset: 0x1F3474, size: 0x8, addend: 0x0, symName: __ZThn48_N9Steinberg3Vst3mda17RingModController21getParamValueByStringEjPDsRd, symObjAddr: 0x550, symBinAddr: 0x2D110, symSize: 0x20 }
  - { offset: 0x1F5308, size: 0x8, addend: 0x0, symName: __ZN9Steinberg3Vst3mda16RingModProcessorC2Ev, symObjAddr: 0x0, symBinAddr: 0x2D130, symSize: 0xD0 }
  - { offset: 0x1F5A1D, size: 0x8, addend: 0x0, symName: __ZN9Steinberg3Vst3mda17RingModController3uidE, symObjAddr: 0xEF0, symBinAddr: 0x68640, symSize: 0x0 }
  - { offset: 0x1F7569, size: 0x8, addend: 0x0, symName: __ZN9Steinberg3Vst3mda16RingModProcessorC2Ev, symObjAddr: 0x0, symBinAddr: 0x2D130, symSize: 0xD0 }
  - { offset: 0x1F77C9, size: 0x8, addend: 0x0, symName: __ZN9Steinberg3Vst3mda16RingModProcessorC1Ev, symObjAddr: 0x150, symBinAddr: 0x2D200, symSize: 0x130 }
  - { offset: 0x1F79A6, size: 0x8, addend: 0x0, symName: __ZN9Steinberg3Vst3mda16RingModProcessorD1Ev, symObjAddr: 0x300, symBinAddr: 0x2D330, symSize: 0x80 }
  - { offset: 0x1F7B48, size: 0x8, addend: 0x0, symName: __ZN9Steinberg3Vst3mda16RingModProcessorD0Ev, symObjAddr: 0x380, symBinAddr: 0x2D3B0, symSize: 0x90 }
  - { offset: 0x1F7D9F, size: 0x8, addend: 0x0, symName: __ZN9Steinberg3Vst3mda16RingModProcessor10initializeEPNS_8FUnknownE, symObjAddr: 0x410, symBinAddr: 0x2D440, symSize: 0x120 }
  - { offset: 0x1F7F47, size: 0x8, addend: 0x0, symName: __ZThn16_N9Steinberg3Vst3mda16RingModProcessor10initializeEPNS_8FUnknownE, symObjAddr: 0x530, symBinAddr: 0x2D560, symSize: 0x10 }
  - { offset: 0x1F7F72, size: 0x8, addend: 0x0, symName: __ZThn48_N9Steinberg3Vst3mda16RingModProcessor10initializeEPNS_8FUnknownE, symObjAddr: 0x540, symBinAddr: 0x2D570, symSize: 0x10 }
  - { offset: 0x1F7F9D, size: 0x8, addend: 0x0, symName: __ZN9Steinberg3Vst3mda16RingModProcessor9terminateEv, symObjAddr: 0x550, symBinAddr: 0x2D580, symSize: 0x10 }
  - { offset: 0x1F7FD2, size: 0x8, addend: 0x0, symName: __ZThn16_N9Steinberg3Vst3mda16RingModProcessor9terminateEv, symObjAddr: 0x560, symBinAddr: 0x2D590, symSize: 0x10 }
  - { offset: 0x1F8003, size: 0x8, addend: 0x0, symName: __ZThn48_N9Steinberg3Vst3mda16RingModProcessor9terminateEv, symObjAddr: 0x570, symBinAddr: 0x2D5A0, symSize: 0x10 }
  - { offset: 0x1F8034, size: 0x8, addend: 0x0, symName: __ZN9Steinberg3Vst3mda16RingModProcessor9setActiveEh, symObjAddr: 0x580, symBinAddr: 0x2D5B0, symSize: 0x10 }
  - { offset: 0x1F807B, size: 0x8, addend: 0x0, symName: __ZThn48_N9Steinberg3Vst3mda16RingModProcessor9setActiveEh, symObjAddr: 0x590, symBinAddr: 0x2D5C0, symSize: 0x10 }
  - { offset: 0x1F80AC, size: 0x8, addend: 0x0, symName: __ZN9Steinberg3Vst3mda16RingModProcessor12doProcessingERNS0_11ProcessDataE, symObjAddr: 0x5A0, symBinAddr: 0x2D5D0, symSize: 0x130 }
  - { offset: 0x1F820F, size: 0x8, addend: 0x0, symName: __ZN9Steinberg3Vst3mda16RingModProcessor11recalculateEv, symObjAddr: 0x6D0, symBinAddr: 0x2D700, symSize: 0x70 }
  - { offset: 0x1F824A, size: 0x8, addend: 0x0, symName: __ZNK9Steinberg3Vst3mda16RingModProcessor15getVst2UniqueIdEv, symObjAddr: 0x9C0, symBinAddr: 0x2D770, symSize: 0x10 }
  - { offset: 0x1FA09C, size: 0x8, addend: 0x0, symName: __ZN9Steinberg3Vst3mda18RoundPanControllerC2Ev, symObjAddr: 0x0, symBinAddr: 0x2D780, symSize: 0x70 }
  - { offset: 0x2041BB, size: 0x8, addend: 0x0, symName: __ZN9Steinberg3Vst3mda18RoundPanControllerC2Ev, symObjAddr: 0x0, symBinAddr: 0x2D780, symSize: 0x70 }
  - { offset: 0x204234, size: 0x8, addend: 0x0, symName: __ZN9Steinberg3Vst3mda18RoundPanControllerD1Ev, symObjAddr: 0xF0, symBinAddr: 0x2D7F0, symSize: 0x10 }
  - { offset: 0x2042A5, size: 0x8, addend: 0x0, symName: __ZN9Steinberg3Vst3mda18RoundPanControllerD0Ev, symObjAddr: 0x100, symBinAddr: 0x2D800, symSize: 0x20 }
  - { offset: 0x2043D1, size: 0x8, addend: 0x0, symName: __ZN9Steinberg3Vst3mda18RoundPanController10initializeEPNS_8FUnknownE, symObjAddr: 0x120, symBinAddr: 0x2D820, symSize: 0x1E0 }
  - { offset: 0x2046CB, size: 0x8, addend: 0x0, symName: __ZThn16_N9Steinberg3Vst3mda18RoundPanController10initializeEPNS_8FUnknownE, symObjAddr: 0x300, symBinAddr: 0x2DA00, symSize: 0x10 }
  - { offset: 0x2046F6, size: 0x8, addend: 0x0, symName: __ZThn48_N9Steinberg3Vst3mda18RoundPanController10initializeEPNS_8FUnknownE, symObjAddr: 0x310, symBinAddr: 0x2DA10, symSize: 0x10 }
  - { offset: 0x204721, size: 0x8, addend: 0x0, symName: __ZN9Steinberg3Vst3mda18RoundPanController9terminateEv, symObjAddr: 0x320, symBinAddr: 0x2DA20, symSize: 0x10 }
  - { offset: 0x204756, size: 0x8, addend: 0x0, symName: __ZThn16_N9Steinberg3Vst3mda18RoundPanController9terminateEv, symObjAddr: 0x330, symBinAddr: 0x2DA30, symSize: 0x10 }
  - { offset: 0x204787, size: 0x8, addend: 0x0, symName: __ZThn48_N9Steinberg3Vst3mda18RoundPanController9terminateEv, symObjAddr: 0x340, symBinAddr: 0x2DA40, symSize: 0x10 }
  - { offset: 0x204806, size: 0x8, addend: 0x0, symName: __ZN9Steinberg3Vst3mda18RoundPanController21getParamStringByValueEjdPDs, symObjAddr: 0x350, symBinAddr: 0x2DA50, symSize: 0xE0 }
  - { offset: 0x204942, size: 0x8, addend: 0x0, symName: __ZThn48_N9Steinberg3Vst3mda18RoundPanController21getParamStringByValueEjdPDs, symObjAddr: 0x430, symBinAddr: 0x2DB30, symSize: 0xE0 }
  - { offset: 0x204A25, size: 0x8, addend: 0x0, symName: __ZN9Steinberg3Vst3mda18RoundPanController21getParamValueByStringEjPDsRd, symObjAddr: 0x510, symBinAddr: 0x2DC10, symSize: 0x20 }
  - { offset: 0x204A90, size: 0x8, addend: 0x0, symName: __ZThn48_N9Steinberg3Vst3mda18RoundPanController21getParamValueByStringEjPDsRd, symObjAddr: 0x530, symBinAddr: 0x2DC30, symSize: 0x20 }
  - { offset: 0x20692A, size: 0x8, addend: 0x0, symName: __ZN9Steinberg3Vst3mda17RoundPanProcessorC2Ev, symObjAddr: 0x0, symBinAddr: 0x2DC50, symSize: 0xD0 }
  - { offset: 0x207007, size: 0x8, addend: 0x0, symName: __ZN9Steinberg3Vst3mda18RoundPanController3uidE, symObjAddr: 0x1200, symBinAddr: 0x68740, symSize: 0x0 }
  - { offset: 0x208B2B, size: 0x8, addend: 0x0, symName: __ZN9Steinberg3Vst3mda17RoundPanProcessorC2Ev, symObjAddr: 0x0, symBinAddr: 0x2DC50, symSize: 0xD0 }
  - { offset: 0x208D8B, size: 0x8, addend: 0x0, symName: __ZN9Steinberg3Vst3mda17RoundPanProcessorC1Ev, symObjAddr: 0x150, symBinAddr: 0x2DD20, symSize: 0x130 }
  - { offset: 0x208F68, size: 0x8, addend: 0x0, symName: __ZN9Steinberg3Vst3mda17RoundPanProcessorD1Ev, symObjAddr: 0x300, symBinAddr: 0x2DE50, symSize: 0x80 }
  - { offset: 0x20910A, size: 0x8, addend: 0x0, symName: __ZN9Steinberg3Vst3mda17RoundPanProcessorD0Ev, symObjAddr: 0x380, symBinAddr: 0x2DED0, symSize: 0x90 }
  - { offset: 0x209361, size: 0x8, addend: 0x0, symName: __ZN9Steinberg3Vst3mda17RoundPanProcessor10initializeEPNS_8FUnknownE, symObjAddr: 0x410, symBinAddr: 0x2DF60, symSize: 0x100 }
  - { offset: 0x209509, size: 0x8, addend: 0x0, symName: __ZThn16_N9Steinberg3Vst3mda17RoundPanProcessor10initializeEPNS_8FUnknownE, symObjAddr: 0x510, symBinAddr: 0x2E060, symSize: 0x10 }
  - { offset: 0x209534, size: 0x8, addend: 0x0, symName: __ZThn48_N9Steinberg3Vst3mda17RoundPanProcessor10initializeEPNS_8FUnknownE, symObjAddr: 0x520, symBinAddr: 0x2E070, symSize: 0x10 }
  - { offset: 0x20955F, size: 0x8, addend: 0x0, symName: __ZN9Steinberg3Vst3mda17RoundPanProcessor9terminateEv, symObjAddr: 0x530, symBinAddr: 0x2E080, symSize: 0x10 }
  - { offset: 0x209594, size: 0x8, addend: 0x0, symName: __ZThn16_N9Steinberg3Vst3mda17RoundPanProcessor9terminateEv, symObjAddr: 0x540, symBinAddr: 0x2E090, symSize: 0x10 }
  - { offset: 0x2095C5, size: 0x8, addend: 0x0, symName: __ZThn48_N9Steinberg3Vst3mda17RoundPanProcessor9terminateEv, symObjAddr: 0x550, symBinAddr: 0x2E0A0, symSize: 0x10 }
  - { offset: 0x2095F6, size: 0x8, addend: 0x0, symName: __ZN9Steinberg3Vst3mda17RoundPanProcessor9setActiveEh, symObjAddr: 0x560, symBinAddr: 0x2E0B0, symSize: 0x10 }
  - { offset: 0x20963D, size: 0x8, addend: 0x0, symName: __ZThn48_N9Steinberg3Vst3mda17RoundPanProcessor9setActiveEh, symObjAddr: 0x570, symBinAddr: 0x2E0C0, symSize: 0x10 }
  - { offset: 0x20966E, size: 0x8, addend: 0x0, symName: __ZN9Steinberg3Vst3mda17RoundPanProcessor12doProcessingERNS0_11ProcessDataE, symObjAddr: 0x580, symBinAddr: 0x2E0D0, symSize: 0x3D0 }
  - { offset: 0x20978B, size: 0x8, addend: 0x0, symName: __ZN9Steinberg3Vst3mda17RoundPanProcessor11recalculateEv, symObjAddr: 0x950, symBinAddr: 0x2E4A0, symSize: 0x90 }
  - { offset: 0x2097C6, size: 0x8, addend: 0x0, symName: __ZNK9Steinberg3Vst3mda17RoundPanProcessor15getVst2UniqueIdEv, symObjAddr: 0xC60, symBinAddr: 0x2E530, symSize: 0x10 }
  - { offset: 0x20B618, size: 0x8, addend: 0x0, symName: __ZN9Steinberg3Vst3mda17ShepardControllerC2Ev, symObjAddr: 0x0, symBinAddr: 0x2E540, symSize: 0x70 }
  - { offset: 0x215737, size: 0x8, addend: 0x0, symName: __ZN9Steinberg3Vst3mda17ShepardControllerC2Ev, symObjAddr: 0x0, symBinAddr: 0x2E540, symSize: 0x70 }
  - { offset: 0x2157B0, size: 0x8, addend: 0x0, symName: __ZN9Steinberg3Vst3mda17ShepardControllerD1Ev, symObjAddr: 0xF0, symBinAddr: 0x2E5B0, symSize: 0x10 }
  - { offset: 0x215821, size: 0x8, addend: 0x0, symName: __ZN9Steinberg3Vst3mda17ShepardControllerD0Ev, symObjAddr: 0x100, symBinAddr: 0x2E5C0, symSize: 0x20 }
  - { offset: 0x2159AE, size: 0x8, addend: 0x0, symName: __ZN9Steinberg3Vst3mda17ShepardController10initializeEPNS_8FUnknownE, symObjAddr: 0x120, symBinAddr: 0x2E5E0, symSize: 0x390 }
  - { offset: 0x216006, size: 0x8, addend: 0x0, symName: __ZThn16_N9Steinberg3Vst3mda17ShepardController10initializeEPNS_8FUnknownE, symObjAddr: 0x4B0, symBinAddr: 0x2E970, symSize: 0x10 }
  - { offset: 0x216031, size: 0x8, addend: 0x0, symName: __ZThn48_N9Steinberg3Vst3mda17ShepardController10initializeEPNS_8FUnknownE, symObjAddr: 0x4C0, symBinAddr: 0x2E980, symSize: 0x10 }
  - { offset: 0x21605C, size: 0x8, addend: 0x0, symName: __ZN9Steinberg3Vst3mda17ShepardController9terminateEv, symObjAddr: 0x4D0, symBinAddr: 0x2E990, symSize: 0x10 }
  - { offset: 0x216091, size: 0x8, addend: 0x0, symName: __ZThn16_N9Steinberg3Vst3mda17ShepardController9terminateEv, symObjAddr: 0x4E0, symBinAddr: 0x2E9A0, symSize: 0x10 }
  - { offset: 0x2160C2, size: 0x8, addend: 0x0, symName: __ZThn48_N9Steinberg3Vst3mda17ShepardController9terminateEv, symObjAddr: 0x4F0, symBinAddr: 0x2E9B0, symSize: 0x10 }
  - { offset: 0x2160F3, size: 0x8, addend: 0x0, symName: __ZN9Steinberg3Vst3mda17ShepardController21getParamStringByValueEjdPDs, symObjAddr: 0x500, symBinAddr: 0x2E9C0, symSize: 0x10 }
  - { offset: 0x21615E, size: 0x8, addend: 0x0, symName: __ZThn48_N9Steinberg3Vst3mda17ShepardController21getParamStringByValueEjdPDs, symObjAddr: 0x510, symBinAddr: 0x2E9D0, symSize: 0x10 }
  - { offset: 0x2161A4, size: 0x8, addend: 0x0, symName: __ZN9Steinberg3Vst3mda17ShepardController21getParamValueByStringEjPDsRd, symObjAddr: 0x520, symBinAddr: 0x2E9E0, symSize: 0x10 }
  - { offset: 0x21620F, size: 0x8, addend: 0x0, symName: __ZThn48_N9Steinberg3Vst3mda17ShepardController21getParamValueByStringEjPDsRd, symObjAddr: 0x530, symBinAddr: 0x2E9F0, symSize: 0x10 }
  - { offset: 0x2180AD, size: 0x8, addend: 0x0, symName: __ZN9Steinberg3Vst3mda16ShepardProcessorC2Ev, symObjAddr: 0x0, symBinAddr: 0x2EA00, symSize: 0xD0 }
  - { offset: 0x2187FA, size: 0x8, addend: 0x0, symName: __ZN9Steinberg3Vst3mda17ShepardController3uidE, symObjAddr: 0x1C40, symBinAddr: 0x68890, symSize: 0x0 }
  - { offset: 0x21A346, size: 0x8, addend: 0x0, symName: __ZN9Steinberg3Vst3mda16ShepardProcessorC2Ev, symObjAddr: 0x0, symBinAddr: 0x2EA00, symSize: 0xD0 }
  - { offset: 0x21A5A6, size: 0x8, addend: 0x0, symName: __ZN9Steinberg3Vst3mda16ShepardProcessorC1Ev, symObjAddr: 0x150, symBinAddr: 0x2EAD0, symSize: 0x130 }
  - { offset: 0x21A783, size: 0x8, addend: 0x0, symName: __ZN9Steinberg3Vst3mda16ShepardProcessorD1Ev, symObjAddr: 0x300, symBinAddr: 0x2EC00, symSize: 0x80 }
  - { offset: 0x21A925, size: 0x8, addend: 0x0, symName: __ZN9Steinberg3Vst3mda16ShepardProcessorD0Ev, symObjAddr: 0x380, symBinAddr: 0x2EC80, symSize: 0x90 }
  - { offset: 0x21AB7C, size: 0x8, addend: 0x0, symName: __ZN9Steinberg3Vst3mda16ShepardProcessor10initializeEPNS_8FUnknownE, symObjAddr: 0x410, symBinAddr: 0x2ED10, symSize: 0x9D0 }
  - { offset: 0x21AD84, size: 0x8, addend: 0x0, symName: __ZThn16_N9Steinberg3Vst3mda16ShepardProcessor10initializeEPNS_8FUnknownE, symObjAddr: 0xDE0, symBinAddr: 0x2F6E0, symSize: 0x10 }
  - { offset: 0x21ADAF, size: 0x8, addend: 0x0, symName: __ZThn48_N9Steinberg3Vst3mda16ShepardProcessor10initializeEPNS_8FUnknownE, symObjAddr: 0xDF0, symBinAddr: 0x2F6F0, symSize: 0x10 }
  - { offset: 0x21ADDA, size: 0x8, addend: 0x0, symName: __ZN9Steinberg3Vst3mda16ShepardProcessor9terminateEv, symObjAddr: 0xE00, symBinAddr: 0x2F700, symSize: 0x50 }
  - { offset: 0x21AE11, size: 0x8, addend: 0x0, symName: __ZThn16_N9Steinberg3Vst3mda16ShepardProcessor9terminateEv, symObjAddr: 0xE50, symBinAddr: 0x2F750, symSize: 0x50 }
  - { offset: 0x21AE3D, size: 0x8, addend: 0x0, symName: __ZThn48_N9Steinberg3Vst3mda16ShepardProcessor9terminateEv, symObjAddr: 0xEA0, symBinAddr: 0x2F7A0, symSize: 0x50 }
  - { offset: 0x21AE69, size: 0x8, addend: 0x0, symName: __ZN9Steinberg3Vst3mda16ShepardProcessor9setActiveEh, symObjAddr: 0xEF0, symBinAddr: 0x2F7F0, symSize: 0x10 }
  - { offset: 0x21AEB0, size: 0x8, addend: 0x0, symName: __ZThn48_N9Steinberg3Vst3mda16ShepardProcessor9setActiveEh, symObjAddr: 0xF00, symBinAddr: 0x2F800, symSize: 0x10 }
  - { offset: 0x21AEE1, size: 0x8, addend: 0x0, symName: __ZN9Steinberg3Vst3mda16ShepardProcessor12doProcessingERNS0_11ProcessDataE, symObjAddr: 0xF10, symBinAddr: 0x2F810, symSize: 0x390 }
  - { offset: 0x21B002, size: 0x8, addend: 0x0, symName: __ZN9Steinberg3Vst3mda16ShepardProcessor11recalculateEv, symObjAddr: 0x12A0, symBinAddr: 0x2FBA0, symSize: 0xB0 }
  - { offset: 0x21B066, size: 0x8, addend: 0x0, symName: __ZNK9Steinberg3Vst3mda16ShepardProcessor15getVst2UniqueIdEv, symObjAddr: 0x15D0, symBinAddr: 0x2FC50, symSize: 0x10 }
  - { offset: 0x21CEB8, size: 0x8, addend: 0x0, symName: __ZN9Steinberg3Vst3mda19SpecMeterControllerC2Ev, symObjAddr: 0x0, symBinAddr: 0x2FC60, symSize: 0x70 }
  - { offset: 0x226FB8, size: 0x8, addend: 0x0, symName: __ZN9Steinberg3Vst3mda19SpecMeterControllerC2Ev, symObjAddr: 0x0, symBinAddr: 0x2FC60, symSize: 0x70 }
  - { offset: 0x227031, size: 0x8, addend: 0x0, symName: __ZN9Steinberg3Vst3mda19SpecMeterControllerD1Ev, symObjAddr: 0xF0, symBinAddr: 0x2FCD0, symSize: 0x10 }
  - { offset: 0x2270A2, size: 0x8, addend: 0x0, symName: __ZN9Steinberg3Vst3mda19SpecMeterControllerD0Ev, symObjAddr: 0x100, symBinAddr: 0x2FCE0, symSize: 0x20 }
  - { offset: 0x2271CE, size: 0x8, addend: 0x0, symName: __ZN9Steinberg3Vst3mda19SpecMeterController10initializeEPNS_8FUnknownE, symObjAddr: 0x120, symBinAddr: 0x2FD00, symSize: 0x10A0 }
  - { offset: 0x228920, size: 0x8, addend: 0x0, symName: __ZThn16_N9Steinberg3Vst3mda19SpecMeterController10initializeEPNS_8FUnknownE, symObjAddr: 0x11C0, symBinAddr: 0x30DA0, symSize: 0x10 }
  - { offset: 0x22894B, size: 0x8, addend: 0x0, symName: __ZThn48_N9Steinberg3Vst3mda19SpecMeterController10initializeEPNS_8FUnknownE, symObjAddr: 0x11D0, symBinAddr: 0x30DB0, symSize: 0x10 }
  - { offset: 0x22A7C9, size: 0x8, addend: 0x0, symName: __ZN9Steinberg3Vst3mda18SpecMeterProcessorC2Ev, symObjAddr: 0x0, symBinAddr: 0x30DC0, symSize: 0xC0 }
  - { offset: 0x22B027, size: 0x8, addend: 0x0, symName: __ZN9Steinberg3Vst3mda19SpecMeterController3uidE, symObjAddr: 0x2580, symBinAddr: 0x68980, symSize: 0x0 }
  - { offset: 0x22CB74, size: 0x8, addend: 0x0, symName: __ZN9Steinberg3Vst3mda18SpecMeterProcessorC2Ev, symObjAddr: 0x0, symBinAddr: 0x30DC0, symSize: 0xC0 }
  - { offset: 0x22CDD5, size: 0x8, addend: 0x0, symName: __ZN9Steinberg3Vst3mda18SpecMeterProcessorC1Ev, symObjAddr: 0x140, symBinAddr: 0x30E80, symSize: 0x120 }
  - { offset: 0x22CFB1, size: 0x8, addend: 0x0, symName: __ZN9Steinberg3Vst3mda18SpecMeterProcessorD1Ev, symObjAddr: 0x2E0, symBinAddr: 0x30FA0, symSize: 0x80 }
  - { offset: 0x22D153, size: 0x8, addend: 0x0, symName: __ZN9Steinberg3Vst3mda18SpecMeterProcessorD0Ev, symObjAddr: 0x360, symBinAddr: 0x31020, symSize: 0x90 }
  - { offset: 0x22D3AA, size: 0x8, addend: 0x0, symName: __ZN9Steinberg3Vst3mda18SpecMeterProcessor10initializeEPNS_8FUnknownE, symObjAddr: 0x3F0, symBinAddr: 0x310B0, symSize: 0x110 }
  - { offset: 0x22D552, size: 0x8, addend: 0x0, symName: __ZThn16_N9Steinberg3Vst3mda18SpecMeterProcessor10initializeEPNS_8FUnknownE, symObjAddr: 0x500, symBinAddr: 0x311C0, symSize: 0x10 }
  - { offset: 0x22D57D, size: 0x8, addend: 0x0, symName: __ZThn48_N9Steinberg3Vst3mda18SpecMeterProcessor10initializeEPNS_8FUnknownE, symObjAddr: 0x510, symBinAddr: 0x311D0, symSize: 0x10 }
  - { offset: 0x22D5A8, size: 0x8, addend: 0x0, symName: __ZN9Steinberg3Vst3mda18SpecMeterProcessor9terminateEv, symObjAddr: 0x520, symBinAddr: 0x311E0, symSize: 0x10 }
  - { offset: 0x22D5DD, size: 0x8, addend: 0x0, symName: __ZThn16_N9Steinberg3Vst3mda18SpecMeterProcessor9terminateEv, symObjAddr: 0x530, symBinAddr: 0x311F0, symSize: 0x10 }
  - { offset: 0x22D60E, size: 0x8, addend: 0x0, symName: __ZThn48_N9Steinberg3Vst3mda18SpecMeterProcessor9terminateEv, symObjAddr: 0x540, symBinAddr: 0x31200, symSize: 0x10 }
  - { offset: 0x22D63F, size: 0x8, addend: 0x0, symName: __ZN9Steinberg3Vst3mda18SpecMeterProcessor9setActiveEh, symObjAddr: 0x550, symBinAddr: 0x31210, symSize: 0x220 }
  - { offset: 0x22D6C8, size: 0x8, addend: 0x0, symName: __ZThn48_N9Steinberg3Vst3mda18SpecMeterProcessor9setActiveEh, symObjAddr: 0x770, symBinAddr: 0x31430, symSize: 0x110 }
  - { offset: 0x22D745, size: 0x8, addend: 0x0, symName: __ZN9Steinberg3Vst3mda18SpecMeterProcessor16bypassProcessingERNS0_11ProcessDataE, symObjAddr: 0x880, symBinAddr: 0x31540, symSize: 0x6A0 }
  - { offset: 0x22D8EB, size: 0x8, addend: 0x0, symName: __ZN9Steinberg3Vst3mda18SpecMeterProcessor20sendParameterChangesEPNS0_17IParameterChangesEi, symObjAddr: 0xF20, symBinAddr: 0x31BE0, symSize: 0x5D0 }
  - { offset: 0x22DEA2, size: 0x8, addend: 0x0, symName: __ZN9Steinberg3Vst3mda18SpecMeterProcessor12doProcessingERNS0_11ProcessDataE, symObjAddr: 0x14F0, symBinAddr: 0x321B0, symSize: 0x770 }
  - { offset: 0x22E076, size: 0x8, addend: 0x0, symName: __ZN9Steinberg3Vst3mda18SpecMeterProcessor11recalculateEv, symObjAddr: 0x1E90, symBinAddr: 0x32920, symSize: 0x10 }
  - { offset: 0x22E099, size: 0x8, addend: 0x0, symName: __ZNK9Steinberg3Vst3mda18SpecMeterProcessor15getVst2UniqueIdEv, symObjAddr: 0x1EF0, symBinAddr: 0x32930, symSize: 0x10 }
  - { offset: 0x22FEEB, size: 0x8, addend: 0x0, symName: __ZN9Steinberg3Vst3mda18SplitterControllerC2Ev, symObjAddr: 0x0, symBinAddr: 0x32940, symSize: 0x70 }
  - { offset: 0x23A032, size: 0x8, addend: 0x0, symName: __ZN9Steinberg3Vst3mda18SplitterControllerC2Ev, symObjAddr: 0x0, symBinAddr: 0x32940, symSize: 0x70 }
  - { offset: 0x23A0AB, size: 0x8, addend: 0x0, symName: __ZN9Steinberg3Vst3mda18SplitterControllerD1Ev, symObjAddr: 0xF0, symBinAddr: 0x329B0, symSize: 0x10 }
  - { offset: 0x23A11D, size: 0x8, addend: 0x0, symName: __ZN9Steinberg3Vst3mda18SplitterControllerD0Ev, symObjAddr: 0x100, symBinAddr: 0x329C0, symSize: 0x20 }
  - { offset: 0x23A2A9, size: 0x8, addend: 0x0, symName: __ZN9Steinberg3Vst3mda18SplitterController10initializeEPNS_8FUnknownE, symObjAddr: 0x120, symBinAddr: 0x329E0, symSize: 0x750 }
  - { offset: 0x23B0DB, size: 0x8, addend: 0x0, symName: __ZThn16_N9Steinberg3Vst3mda18SplitterController10initializeEPNS_8FUnknownE, symObjAddr: 0x870, symBinAddr: 0x33130, symSize: 0x10 }
  - { offset: 0x23B106, size: 0x8, addend: 0x0, symName: __ZThn48_N9Steinberg3Vst3mda18SplitterController10initializeEPNS_8FUnknownE, symObjAddr: 0x880, symBinAddr: 0x33140, symSize: 0x10 }
  - { offset: 0x23B131, size: 0x8, addend: 0x0, symName: __ZN9Steinberg3Vst3mda18SplitterController9terminateEv, symObjAddr: 0x890, symBinAddr: 0x33150, symSize: 0x10 }
  - { offset: 0x23B166, size: 0x8, addend: 0x0, symName: __ZThn16_N9Steinberg3Vst3mda18SplitterController9terminateEv, symObjAddr: 0x8A0, symBinAddr: 0x33160, symSize: 0x10 }
  - { offset: 0x23B197, size: 0x8, addend: 0x0, symName: __ZThn48_N9Steinberg3Vst3mda18SplitterController9terminateEv, symObjAddr: 0x8B0, symBinAddr: 0x33170, symSize: 0x10 }
  - { offset: 0x23B1F8, size: 0x8, addend: 0x0, symName: __ZN9Steinberg3Vst3mda18SplitterController21getParamStringByValueEjdPDs, symObjAddr: 0x8C0, symBinAddr: 0x33180, symSize: 0xA0 }
  - { offset: 0x23B30F, size: 0x8, addend: 0x0, symName: __ZThn48_N9Steinberg3Vst3mda18SplitterController21getParamStringByValueEjdPDs, symObjAddr: 0x960, symBinAddr: 0x33220, symSize: 0xB0 }
  - { offset: 0x23B3CD, size: 0x8, addend: 0x0, symName: __ZN9Steinberg3Vst3mda18SplitterController21getParamValueByStringEjPDsRd, symObjAddr: 0xA10, symBinAddr: 0x332D0, symSize: 0x10 }
  - { offset: 0x23B438, size: 0x8, addend: 0x0, symName: __ZThn48_N9Steinberg3Vst3mda18SplitterController21getParamValueByStringEjPDsRd, symObjAddr: 0xA20, symBinAddr: 0x332E0, symSize: 0x10 }
  - { offset: 0x23D2D6, size: 0x8, addend: 0x0, symName: __ZN9Steinberg3Vst3mda17SplitterProcessorC2Ev, symObjAddr: 0x0, symBinAddr: 0x332F0, symSize: 0xD0 }
  - { offset: 0x23DAA1, size: 0x8, addend: 0x0, symName: __ZN9Steinberg3Vst3mda18SplitterController3uidE, symObjAddr: 0x13A0, symBinAddr: 0x68A30, symSize: 0x0 }
  - { offset: 0x23F5ED, size: 0x8, addend: 0x0, symName: __ZN9Steinberg3Vst3mda17SplitterProcessorC2Ev, symObjAddr: 0x0, symBinAddr: 0x332F0, symSize: 0xD0 }
  - { offset: 0x23F84D, size: 0x8, addend: 0x0, symName: __ZN9Steinberg3Vst3mda17SplitterProcessorC1Ev, symObjAddr: 0x150, symBinAddr: 0x333C0, symSize: 0x130 }
  - { offset: 0x23FA2A, size: 0x8, addend: 0x0, symName: __ZN9Steinberg3Vst3mda17SplitterProcessorD1Ev, symObjAddr: 0x300, symBinAddr: 0x334F0, symSize: 0x80 }
  - { offset: 0x23FBCC, size: 0x8, addend: 0x0, symName: __ZN9Steinberg3Vst3mda17SplitterProcessorD0Ev, symObjAddr: 0x380, symBinAddr: 0x33570, symSize: 0x90 }
  - { offset: 0x23FE23, size: 0x8, addend: 0x0, symName: __ZN9Steinberg3Vst3mda17SplitterProcessor10initializeEPNS_8FUnknownE, symObjAddr: 0x410, symBinAddr: 0x33600, symSize: 0x120 }
  - { offset: 0x23FFCB, size: 0x8, addend: 0x0, symName: __ZThn16_N9Steinberg3Vst3mda17SplitterProcessor10initializeEPNS_8FUnknownE, symObjAddr: 0x530, symBinAddr: 0x33720, symSize: 0x10 }
  - { offset: 0x23FFF6, size: 0x8, addend: 0x0, symName: __ZThn48_N9Steinberg3Vst3mda17SplitterProcessor10initializeEPNS_8FUnknownE, symObjAddr: 0x540, symBinAddr: 0x33730, symSize: 0x10 }
  - { offset: 0x240021, size: 0x8, addend: 0x0, symName: __ZN9Steinberg3Vst3mda17SplitterProcessor9terminateEv, symObjAddr: 0x550, symBinAddr: 0x33740, symSize: 0x10 }
  - { offset: 0x240056, size: 0x8, addend: 0x0, symName: __ZThn16_N9Steinberg3Vst3mda17SplitterProcessor9terminateEv, symObjAddr: 0x560, symBinAddr: 0x33750, symSize: 0x10 }
  - { offset: 0x240087, size: 0x8, addend: 0x0, symName: __ZThn48_N9Steinberg3Vst3mda17SplitterProcessor9terminateEv, symObjAddr: 0x570, symBinAddr: 0x33760, symSize: 0x10 }
  - { offset: 0x2400B8, size: 0x8, addend: 0x0, symName: __ZN9Steinberg3Vst3mda17SplitterProcessor9setActiveEh, symObjAddr: 0x580, symBinAddr: 0x33770, symSize: 0x30 }
  - { offset: 0x240101, size: 0x8, addend: 0x0, symName: __ZThn48_N9Steinberg3Vst3mda17SplitterProcessor9setActiveEh, symObjAddr: 0x5B0, symBinAddr: 0x337A0, symSize: 0x30 }
  - { offset: 0x240136, size: 0x8, addend: 0x0, symName: __ZN9Steinberg3Vst3mda17SplitterProcessor12doProcessingERNS0_11ProcessDataE, symObjAddr: 0x5E0, symBinAddr: 0x337D0, symSize: 0x260 }
  - { offset: 0x240324, size: 0x8, addend: 0x0, symName: __ZN9Steinberg3Vst3mda17SplitterProcessor11recalculateEv, symObjAddr: 0x840, symBinAddr: 0x33A30, symSize: 0x2F0 }
  - { offset: 0x2403E5, size: 0x8, addend: 0x0, symName: __ZNK9Steinberg3Vst3mda17SplitterProcessor15getVst2UniqueIdEv, symObjAddr: 0xDB0, symBinAddr: 0x33D20, symSize: 0x10 }
  - { offset: 0x242237, size: 0x8, addend: 0x0, symName: __ZN9Steinberg3Vst3mda16StereoControllerC2Ev, symObjAddr: 0x0, symBinAddr: 0x33D30, symSize: 0x70 }
  - { offset: 0x24C407, size: 0x8, addend: 0x0, symName: __ZN9Steinberg3Vst3mda16StereoControllerC2Ev, symObjAddr: 0x0, symBinAddr: 0x33D30, symSize: 0x70 }
  - { offset: 0x24C480, size: 0x8, addend: 0x0, symName: __ZN9Steinberg3Vst3mda16StereoControllerD1Ev, symObjAddr: 0xF0, symBinAddr: 0x33DA0, symSize: 0x10 }
  - { offset: 0x24C4F2, size: 0x8, addend: 0x0, symName: __ZN9Steinberg3Vst3mda16StereoControllerD0Ev, symObjAddr: 0x100, symBinAddr: 0x33DB0, symSize: 0x20 }
  - { offset: 0x24C61D, size: 0x8, addend: 0x0, symName: __ZN9Steinberg3Vst3mda16StereoController10initializeEPNS_8FUnknownE, symObjAddr: 0x120, symBinAddr: 0x33DD0, symSize: 0x3F0 }
  - { offset: 0x24CCF2, size: 0x8, addend: 0x0, symName: __ZThn16_N9Steinberg3Vst3mda16StereoController10initializeEPNS_8FUnknownE, symObjAddr: 0x510, symBinAddr: 0x341C0, symSize: 0x10 }
  - { offset: 0x24CD1D, size: 0x8, addend: 0x0, symName: __ZThn48_N9Steinberg3Vst3mda16StereoController10initializeEPNS_8FUnknownE, symObjAddr: 0x520, symBinAddr: 0x341D0, symSize: 0x10 }
  - { offset: 0x24CD48, size: 0x8, addend: 0x0, symName: __ZN9Steinberg3Vst3mda16StereoController9terminateEv, symObjAddr: 0x530, symBinAddr: 0x341E0, symSize: 0x10 }
  - { offset: 0x24CD7D, size: 0x8, addend: 0x0, symName: __ZThn16_N9Steinberg3Vst3mda16StereoController9terminateEv, symObjAddr: 0x540, symBinAddr: 0x341F0, symSize: 0x10 }
  - { offset: 0x24CDAE, size: 0x8, addend: 0x0, symName: __ZThn48_N9Steinberg3Vst3mda16StereoController9terminateEv, symObjAddr: 0x550, symBinAddr: 0x34200, symSize: 0x10 }
  - { offset: 0x24CE14, size: 0x8, addend: 0x0, symName: __ZN9Steinberg3Vst3mda16StereoController21getParamStringByValueEjdPDs, symObjAddr: 0x560, symBinAddr: 0x34210, symSize: 0x100 }
  - { offset: 0x24CF95, size: 0x8, addend: 0x0, symName: __ZThn48_N9Steinberg3Vst3mda16StereoController21getParamStringByValueEjdPDs, symObjAddr: 0x660, symBinAddr: 0x34310, symSize: 0x10 }
  - { offset: 0x24CFCE, size: 0x8, addend: 0x0, symName: __ZN9Steinberg3Vst3mda16StereoController21getParamValueByStringEjPDsRd, symObjAddr: 0x670, symBinAddr: 0x34320, symSize: 0x20 }
  - { offset: 0x24D039, size: 0x8, addend: 0x0, symName: __ZThn48_N9Steinberg3Vst3mda16StereoController21getParamValueByStringEjPDsRd, symObjAddr: 0x690, symBinAddr: 0x34340, symSize: 0x30 }
  - { offset: 0x24EED3, size: 0x8, addend: 0x0, symName: __ZN9Steinberg3Vst3mda15StereoProcessorC2Ev, symObjAddr: 0x0, symBinAddr: 0x34370, symSize: 0xD0 }
  - { offset: 0x24F62E, size: 0x8, addend: 0x0, symName: __ZN9Steinberg3Vst3mda16StereoController3uidE, symObjAddr: 0x1320, symBinAddr: 0x68AD0, symSize: 0x0 }
  - { offset: 0x251197, size: 0x8, addend: 0x0, symName: __ZN9Steinberg3Vst3mda15StereoProcessorC2Ev, symObjAddr: 0x0, symBinAddr: 0x34370, symSize: 0xD0 }
  - { offset: 0x2513F7, size: 0x8, addend: 0x0, symName: __ZN9Steinberg3Vst3mda15StereoProcessorC1Ev, symObjAddr: 0x150, symBinAddr: 0x34440, symSize: 0x130 }
  - { offset: 0x2515D4, size: 0x8, addend: 0x0, symName: __ZN9Steinberg3Vst3mda15StereoProcessorD1Ev, symObjAddr: 0x300, symBinAddr: 0x34570, symSize: 0x80 }
  - { offset: 0x251776, size: 0x8, addend: 0x0, symName: __ZN9Steinberg3Vst3mda15StereoProcessorD0Ev, symObjAddr: 0x380, symBinAddr: 0x345F0, symSize: 0x90 }
  - { offset: 0x2519CD, size: 0x8, addend: 0x0, symName: __ZN9Steinberg3Vst3mda15StereoProcessor10initializeEPNS_8FUnknownE, symObjAddr: 0x410, symBinAddr: 0x34680, symSize: 0x150 }
  - { offset: 0x251B75, size: 0x8, addend: 0x0, symName: __ZThn16_N9Steinberg3Vst3mda15StereoProcessor10initializeEPNS_8FUnknownE, symObjAddr: 0x560, symBinAddr: 0x347D0, symSize: 0x10 }
  - { offset: 0x251BA0, size: 0x8, addend: 0x0, symName: __ZThn48_N9Steinberg3Vst3mda15StereoProcessor10initializeEPNS_8FUnknownE, symObjAddr: 0x570, symBinAddr: 0x347E0, symSize: 0x10 }
  - { offset: 0x251BCB, size: 0x8, addend: 0x0, symName: __ZN9Steinberg3Vst3mda15StereoProcessor9terminateEv, symObjAddr: 0x580, symBinAddr: 0x347F0, symSize: 0x40 }
  - { offset: 0x251C02, size: 0x8, addend: 0x0, symName: __ZThn16_N9Steinberg3Vst3mda15StereoProcessor9terminateEv, symObjAddr: 0x5C0, symBinAddr: 0x34830, symSize: 0x40 }
  - { offset: 0x251C2E, size: 0x8, addend: 0x0, symName: __ZThn48_N9Steinberg3Vst3mda15StereoProcessor9terminateEv, symObjAddr: 0x600, symBinAddr: 0x34870, symSize: 0x40 }
  - { offset: 0x251C5A, size: 0x8, addend: 0x0, symName: __ZN9Steinberg3Vst3mda15StereoProcessor9setActiveEh, symObjAddr: 0x640, symBinAddr: 0x348B0, symSize: 0x10 }
  - { offset: 0x251CA1, size: 0x8, addend: 0x0, symName: __ZThn48_N9Steinberg3Vst3mda15StereoProcessor9setActiveEh, symObjAddr: 0x650, symBinAddr: 0x348C0, symSize: 0x10 }
  - { offset: 0x251CD2, size: 0x8, addend: 0x0, symName: __ZN9Steinberg3Vst3mda15StereoProcessor12doProcessingERNS0_11ProcessDataE, symObjAddr: 0x660, symBinAddr: 0x348D0, symSize: 0x2C0 }
  - { offset: 0x251E86, size: 0x8, addend: 0x0, symName: __ZN9Steinberg3Vst3mda15StereoProcessor11recalculateEv, symObjAddr: 0x920, symBinAddr: 0x34B90, symSize: 0x1B0 }
  - { offset: 0x251EC3, size: 0x8, addend: 0x0, symName: __ZNK9Steinberg3Vst3mda15StereoProcessor15getVst2UniqueIdEv, symObjAddr: 0xD50, symBinAddr: 0x34D40, symSize: 0x10 }
  - { offset: 0x253D15, size: 0x8, addend: 0x0, symName: __ZN9Steinberg3Vst3mda18SubSynthControllerC2Ev, symObjAddr: 0x0, symBinAddr: 0x34D50, symSize: 0x70 }
  - { offset: 0x25DE34, size: 0x8, addend: 0x0, symName: __ZN9Steinberg3Vst3mda18SubSynthControllerC2Ev, symObjAddr: 0x0, symBinAddr: 0x34D50, symSize: 0x70 }
  - { offset: 0x25DEAD, size: 0x8, addend: 0x0, symName: __ZN9Steinberg3Vst3mda18SubSynthControllerD1Ev, symObjAddr: 0xF0, symBinAddr: 0x34DC0, symSize: 0x10 }
  - { offset: 0x25DF1F, size: 0x8, addend: 0x0, symName: __ZN9Steinberg3Vst3mda18SubSynthControllerD0Ev, symObjAddr: 0x100, symBinAddr: 0x34DD0, symSize: 0x20 }
  - { offset: 0x25E0AB, size: 0x8, addend: 0x0, symName: __ZN9Steinberg3Vst3mda18SubSynthController10initializeEPNS_8FUnknownE, symObjAddr: 0x120, symBinAddr: 0x34DF0, symSize: 0x5F0 }
  - { offset: 0x25EB8F, size: 0x8, addend: 0x0, symName: __ZThn16_N9Steinberg3Vst3mda18SubSynthController10initializeEPNS_8FUnknownE, symObjAddr: 0x710, symBinAddr: 0x353E0, symSize: 0x10 }
  - { offset: 0x25EBBA, size: 0x8, addend: 0x0, symName: __ZThn48_N9Steinberg3Vst3mda18SubSynthController10initializeEPNS_8FUnknownE, symObjAddr: 0x720, symBinAddr: 0x353F0, symSize: 0x10 }
  - { offset: 0x25EBE5, size: 0x8, addend: 0x0, symName: __ZN9Steinberg3Vst3mda18SubSynthController9terminateEv, symObjAddr: 0x730, symBinAddr: 0x35400, symSize: 0x10 }
  - { offset: 0x25EC1A, size: 0x8, addend: 0x0, symName: __ZThn16_N9Steinberg3Vst3mda18SubSynthController9terminateEv, symObjAddr: 0x740, symBinAddr: 0x35410, symSize: 0x10 }
  - { offset: 0x25EC4B, size: 0x8, addend: 0x0, symName: __ZThn48_N9Steinberg3Vst3mda18SubSynthController9terminateEv, symObjAddr: 0x750, symBinAddr: 0x35420, symSize: 0x10 }
  - { offset: 0x25ECC5, size: 0x8, addend: 0x0, symName: __ZN9Steinberg3Vst3mda18SubSynthController21getParamStringByValueEjdPDs, symObjAddr: 0x760, symBinAddr: 0x35430, symSize: 0x100 }
  - { offset: 0x25EDCC, size: 0x8, addend: 0x0, symName: __ZThn48_N9Steinberg3Vst3mda18SubSynthController21getParamStringByValueEjdPDs, symObjAddr: 0x860, symBinAddr: 0x35530, symSize: 0x10 }
  - { offset: 0x25EE05, size: 0x8, addend: 0x0, symName: __ZN9Steinberg3Vst3mda18SubSynthController21getParamValueByStringEjPDsRd, symObjAddr: 0x870, symBinAddr: 0x35540, symSize: 0x20 }
  - { offset: 0x25EE70, size: 0x8, addend: 0x0, symName: __ZThn48_N9Steinberg3Vst3mda18SubSynthController21getParamValueByStringEjPDsRd, symObjAddr: 0x890, symBinAddr: 0x35560, symSize: 0x20 }
  - { offset: 0x260D0F, size: 0x8, addend: 0x0, symName: __ZN9Steinberg3Vst3mda17SubSynthProcessorC2Ev, symObjAddr: 0x0, symBinAddr: 0x35580, symSize: 0xD0 }
  - { offset: 0x2614BE, size: 0x8, addend: 0x0, symName: __ZN9Steinberg3Vst3mda18SubSynthController3uidE, symObjAddr: 0x1780, symBinAddr: 0x68B90, symSize: 0x0 }
  - { offset: 0x263027, size: 0x8, addend: 0x0, symName: __ZN9Steinberg3Vst3mda17SubSynthProcessorC2Ev, symObjAddr: 0x0, symBinAddr: 0x35580, symSize: 0xD0 }
  - { offset: 0x263287, size: 0x8, addend: 0x0, symName: __ZN9Steinberg3Vst3mda17SubSynthProcessorC1Ev, symObjAddr: 0x150, symBinAddr: 0x35650, symSize: 0x130 }
  - { offset: 0x263464, size: 0x8, addend: 0x0, symName: __ZN9Steinberg3Vst3mda17SubSynthProcessorD1Ev, symObjAddr: 0x300, symBinAddr: 0x35780, symSize: 0x80 }
  - { offset: 0x263606, size: 0x8, addend: 0x0, symName: __ZN9Steinberg3Vst3mda17SubSynthProcessorD0Ev, symObjAddr: 0x380, symBinAddr: 0x35800, symSize: 0x90 }
  - { offset: 0x26385D, size: 0x8, addend: 0x0, symName: __ZN9Steinberg3Vst3mda17SubSynthProcessor10initializeEPNS_8FUnknownE, symObjAddr: 0x410, symBinAddr: 0x35890, symSize: 0x100 }
  - { offset: 0x2639F2, size: 0x8, addend: 0x0, symName: __ZThn16_N9Steinberg3Vst3mda17SubSynthProcessor10initializeEPNS_8FUnknownE, symObjAddr: 0x510, symBinAddr: 0x35990, symSize: 0x10 }
  - { offset: 0x263A1D, size: 0x8, addend: 0x0, symName: __ZThn48_N9Steinberg3Vst3mda17SubSynthProcessor10initializeEPNS_8FUnknownE, symObjAddr: 0x520, symBinAddr: 0x359A0, symSize: 0x10 }
  - { offset: 0x263A48, size: 0x8, addend: 0x0, symName: __ZN9Steinberg3Vst3mda17SubSynthProcessor9terminateEv, symObjAddr: 0x530, symBinAddr: 0x359B0, symSize: 0x10 }
  - { offset: 0x263A7D, size: 0x8, addend: 0x0, symName: __ZThn16_N9Steinberg3Vst3mda17SubSynthProcessor9terminateEv, symObjAddr: 0x540, symBinAddr: 0x359C0, symSize: 0x10 }
  - { offset: 0x263AAE, size: 0x8, addend: 0x0, symName: __ZThn48_N9Steinberg3Vst3mda17SubSynthProcessor9terminateEv, symObjAddr: 0x550, symBinAddr: 0x359D0, symSize: 0x10 }
  - { offset: 0x263ADF, size: 0x8, addend: 0x0, symName: __ZN9Steinberg3Vst3mda17SubSynthProcessor9setActiveEh, symObjAddr: 0x560, symBinAddr: 0x359E0, symSize: 0x50 }
  - { offset: 0x263B3D, size: 0x8, addend: 0x0, symName: __ZThn48_N9Steinberg3Vst3mda17SubSynthProcessor9setActiveEh, symObjAddr: 0x5B0, symBinAddr: 0x35A30, symSize: 0x50 }
  - { offset: 0x263B8C, size: 0x8, addend: 0x0, symName: __ZN9Steinberg3Vst3mda17SubSynthProcessor12doProcessingERNS0_11ProcessDataE, symObjAddr: 0x600, symBinAddr: 0x35A80, symSize: 0x7E0 }
  - { offset: 0x263DA4, size: 0x8, addend: 0x0, symName: __ZN9Steinberg3Vst3mda17SubSynthProcessor11recalculateEv, symObjAddr: 0xDE0, symBinAddr: 0x36260, symSize: 0x140 }
  - { offset: 0x263DE1, size: 0x8, addend: 0x0, symName: __ZNK9Steinberg3Vst3mda17SubSynthProcessor15getVst2UniqueIdEv, symObjAddr: 0x11A0, symBinAddr: 0x363A0, symSize: 0x10 }
  - { offset: 0x265C33, size: 0x8, addend: 0x0, symName: __ZN9Steinberg3Vst3mda17TalkBoxControllerC2Ev, symObjAddr: 0x0, symBinAddr: 0x363B0, symSize: 0x70 }
  - { offset: 0x26FD52, size: 0x8, addend: 0x0, symName: __ZN9Steinberg3Vst3mda17TalkBoxControllerC2Ev, symObjAddr: 0x0, symBinAddr: 0x363B0, symSize: 0x70 }
  - { offset: 0x26FDCB, size: 0x8, addend: 0x0, symName: __ZN9Steinberg3Vst3mda17TalkBoxControllerD1Ev, symObjAddr: 0xF0, symBinAddr: 0x36420, symSize: 0x10 }
  - { offset: 0x26FE3C, size: 0x8, addend: 0x0, symName: __ZN9Steinberg3Vst3mda17TalkBoxControllerD0Ev, symObjAddr: 0x100, symBinAddr: 0x36430, symSize: 0x20 }
  - { offset: 0x26FFC9, size: 0x8, addend: 0x0, symName: __ZN9Steinberg3Vst3mda17TalkBoxController10initializeEPNS_8FUnknownE, symObjAddr: 0x120, symBinAddr: 0x36450, symSize: 0x3B0 }
  - { offset: 0x2706C3, size: 0x8, addend: 0x0, symName: __ZThn16_N9Steinberg3Vst3mda17TalkBoxController10initializeEPNS_8FUnknownE, symObjAddr: 0x4D0, symBinAddr: 0x36800, symSize: 0x10 }
  - { offset: 0x2706EE, size: 0x8, addend: 0x0, symName: __ZThn48_N9Steinberg3Vst3mda17TalkBoxController10initializeEPNS_8FUnknownE, symObjAddr: 0x4E0, symBinAddr: 0x36810, symSize: 0x10 }
  - { offset: 0x270719, size: 0x8, addend: 0x0, symName: __ZN9Steinberg3Vst3mda17TalkBoxController9terminateEv, symObjAddr: 0x4F0, symBinAddr: 0x36820, symSize: 0x10 }
  - { offset: 0x27074E, size: 0x8, addend: 0x0, symName: __ZThn16_N9Steinberg3Vst3mda17TalkBoxController9terminateEv, symObjAddr: 0x500, symBinAddr: 0x36830, symSize: 0x10 }
  - { offset: 0x27077F, size: 0x8, addend: 0x0, symName: __ZThn48_N9Steinberg3Vst3mda17TalkBoxController9terminateEv, symObjAddr: 0x510, symBinAddr: 0x36840, symSize: 0x10 }
  - { offset: 0x2707B0, size: 0x8, addend: 0x0, symName: __ZN9Steinberg3Vst3mda17TalkBoxController21getParamStringByValueEjdPDs, symObjAddr: 0x520, symBinAddr: 0x36850, symSize: 0x10 }
  - { offset: 0x27081B, size: 0x8, addend: 0x0, symName: __ZThn48_N9Steinberg3Vst3mda17TalkBoxController21getParamStringByValueEjdPDs, symObjAddr: 0x530, symBinAddr: 0x36860, symSize: 0x10 }
  - { offset: 0x270861, size: 0x8, addend: 0x0, symName: __ZN9Steinberg3Vst3mda17TalkBoxController21getParamValueByStringEjPDsRd, symObjAddr: 0x540, symBinAddr: 0x36870, symSize: 0x10 }
  - { offset: 0x2708CC, size: 0x8, addend: 0x0, symName: __ZThn48_N9Steinberg3Vst3mda17TalkBoxController21getParamValueByStringEjPDsRd, symObjAddr: 0x550, symBinAddr: 0x36880, symSize: 0x10 }
  - { offset: 0x27276A, size: 0x8, addend: 0x0, symName: __ZN9Steinberg3Vst3mda16TalkBoxProcessorC2Ev, symObjAddr: 0x0, symBinAddr: 0x36890, symSize: 0xD0 }
  - { offset: 0x272FD6, size: 0x8, addend: 0x0, symName: __ZN9Steinberg3Vst3mda17TalkBoxController3uidE, symObjAddr: 0x2430, symBinAddr: 0x68C60, symSize: 0x0 }
  - { offset: 0x274B34, size: 0x8, addend: 0x0, symName: __ZN9Steinberg3Vst3mda16TalkBoxProcessorC2Ev, symObjAddr: 0x0, symBinAddr: 0x36890, symSize: 0xD0 }
  - { offset: 0x274D94, size: 0x8, addend: 0x0, symName: __ZN9Steinberg3Vst3mda16TalkBoxProcessorC1Ev, symObjAddr: 0x150, symBinAddr: 0x36960, symSize: 0x130 }
  - { offset: 0x274F71, size: 0x8, addend: 0x0, symName: __ZN9Steinberg3Vst3mda16TalkBoxProcessorD1Ev, symObjAddr: 0x300, symBinAddr: 0x36A90, symSize: 0x80 }
  - { offset: 0x275113, size: 0x8, addend: 0x0, symName: __ZN9Steinberg3Vst3mda16TalkBoxProcessorD0Ev, symObjAddr: 0x380, symBinAddr: 0x36B10, symSize: 0x90 }
  - { offset: 0x27536A, size: 0x8, addend: 0x0, symName: __ZN9Steinberg3Vst3mda16TalkBoxProcessor10initializeEPNS_8FUnknownE, symObjAddr: 0x410, symBinAddr: 0x36BA0, symSize: 0x240 }
  - { offset: 0x2755A7, size: 0x8, addend: 0x0, symName: __ZThn16_N9Steinberg3Vst3mda16TalkBoxProcessor10initializeEPNS_8FUnknownE, symObjAddr: 0x650, symBinAddr: 0x36DE0, symSize: 0x10 }
  - { offset: 0x2755D2, size: 0x8, addend: 0x0, symName: __ZThn48_N9Steinberg3Vst3mda16TalkBoxProcessor10initializeEPNS_8FUnknownE, symObjAddr: 0x660, symBinAddr: 0x36DF0, symSize: 0x10 }
  - { offset: 0x2755FD, size: 0x8, addend: 0x0, symName: __ZN9Steinberg3Vst3mda16TalkBoxProcessor9terminateEv, symObjAddr: 0x670, symBinAddr: 0x36E00, symSize: 0x90 }
  - { offset: 0x275624, size: 0x8, addend: 0x0, symName: __ZThn16_N9Steinberg3Vst3mda16TalkBoxProcessor9terminateEv, symObjAddr: 0x700, symBinAddr: 0x36E90, symSize: 0x10 }
  - { offset: 0x275648, size: 0x8, addend: 0x0, symName: __ZThn48_N9Steinberg3Vst3mda16TalkBoxProcessor9terminateEv, symObjAddr: 0x710, symBinAddr: 0x36EA0, symSize: 0x10 }
  - { offset: 0x27566C, size: 0x8, addend: 0x0, symName: __ZN9Steinberg3Vst3mda16TalkBoxProcessor9setActiveEh, symObjAddr: 0x720, symBinAddr: 0x36EB0, symSize: 0xA0 }
  - { offset: 0x2756CA, size: 0x8, addend: 0x0, symName: __ZThn48_N9Steinberg3Vst3mda16TalkBoxProcessor9setActiveEh, symObjAddr: 0x7C0, symBinAddr: 0x36F50, symSize: 0xB0 }
  - { offset: 0x275719, size: 0x8, addend: 0x0, symName: __ZN9Steinberg3Vst3mda16TalkBoxProcessor12doProcessingERNS0_11ProcessDataE, symObjAddr: 0x870, symBinAddr: 0x37000, symSize: 0x580 }
  - { offset: 0x2758F5, size: 0x8, addend: 0x0, symName: __ZN9Steinberg3Vst3mda16TalkBoxProcessor3lpcEPfS3_ii, symObjAddr: 0xDF0, symBinAddr: 0x37580, symSize: 0x660 }
  - { offset: 0x275A0C, size: 0x8, addend: 0x0, symName: __ZN9Steinberg3Vst3mda16TalkBoxProcessor10lpc_durbinEPfiS3_S3_, symObjAddr: 0x1680, symBinAddr: 0x37E10, symSize: 0x540 }
  - { offset: 0x275B15, size: 0x8, addend: 0x0, symName: __ZN9Steinberg3Vst3mda16TalkBoxProcessor11recalculateEv, symObjAddr: 0x1450, symBinAddr: 0x37BE0, symSize: 0x230 }
  - { offset: 0x275BD0, size: 0x8, addend: 0x0, symName: __ZNK9Steinberg3Vst3mda16TalkBoxProcessor15getVst2UniqueIdEv, symObjAddr: 0x1E40, symBinAddr: 0x38350, symSize: 0x10 }
  - { offset: 0x277A79, size: 0x8, addend: 0x0, symName: __ZN9Steinberg3Vst3mda12_GLOBAL__N_19noteNamesE, symObjAddr: 0x38F8, symBinAddr: 0x804E0, symSize: 0x0 }
  - { offset: 0x277B9A, size: 0x8, addend: 0x0, symName: __ZN9Steinberg3Vst3mda12_GLOBAL__N_120fillISOFreqParameterERKNS_4IPtrINS1_16IndexedParameterEEE, symObjAddr: 0x17E0, symBinAddr: 0x39AA0, symSize: 0x900 }
  - { offset: 0x2870D1, size: 0x8, addend: 0x0, symName: __ZN9Steinberg3Vst3mda18TestToneControllerC2Ev, symObjAddr: 0x0, symBinAddr: 0x38360, symSize: 0xA0 }
  - { offset: 0x28724D, size: 0x8, addend: 0x0, symName: __ZN9Steinberg3Vst3mda18TestToneControllerD2Ev, symObjAddr: 0x140, symBinAddr: 0x38400, symSize: 0x200 }
  - { offset: 0x2874FC, size: 0x8, addend: 0x0, symName: __ZN9Steinberg3Vst3mda18TestToneControllerD1Ev, symObjAddr: 0x340, symBinAddr: 0x38600, symSize: 0x10 }
  - { offset: 0x28754A, size: 0x8, addend: 0x0, symName: __ZN9Steinberg3Vst3mda18TestToneControllerD0Ev, symObjAddr: 0x350, symBinAddr: 0x38610, symSize: 0x20 }
  - { offset: 0x2876CD, size: 0x8, addend: 0x0, symName: __ZN9Steinberg3Vst3mda18TestToneController10initializeEPNS_8FUnknownE, symObjAddr: 0x370, symBinAddr: 0x38630, symSize: 0x8B0 }
  - { offset: 0x28878B, size: 0x8, addend: 0x0, symName: __ZN9Steinberg3Vst3mda18TestToneController18createF1ParametersEv, symObjAddr: 0xC20, symBinAddr: 0x38EE0, symSize: 0x730 }
  - { offset: 0x289F6C, size: 0x8, addend: 0x0, symName: __ZN9Steinberg3Vst3mda18TestToneController18createF2ParametersEv, symObjAddr: 0x1350, symBinAddr: 0x39610, symSize: 0x390 }
  - { offset: 0x28AAB6, size: 0x8, addend: 0x0, symName: __ZNKSt3__112basic_stringIcNS_11char_traitsIcEENS_9allocatorIcEEE20__throw_length_errorB8ne180100Ev, symObjAddr: 0x2AC0, symBinAddr: 0x3AA00, symSize: 0x10 }
  - { offset: 0x28AD69, size: 0x8, addend: 0x0, symName: __ZN9Steinberg4IPtrINS_3Vst3mda12_GLOBAL__N_117FineTuneParameterEED1Ev, symObjAddr: 0x2110, symBinAddr: 0x3A3D0, symSize: 0x30 }
  - { offset: 0x28ADAB, size: 0x8, addend: 0x0, symName: __ZN9Steinberg4IPtrINS_3Vst3mda12_GLOBAL__N_113CentParameterEED1Ev, symObjAddr: 0x20E0, symBinAddr: 0x3A3A0, symSize: 0x30 }
  - { offset: 0x28ADEC, size: 0x8, addend: 0x0, symName: __ZThn16_N9Steinberg3Vst3mda18TestToneController10initializeEPNS_8FUnknownE, symObjAddr: 0x16E0, symBinAddr: 0x399A0, symSize: 0x10 }
  - { offset: 0x28AE17, size: 0x8, addend: 0x0, symName: __ZThn48_N9Steinberg3Vst3mda18TestToneController10initializeEPNS_8FUnknownE, symObjAddr: 0x16F0, symBinAddr: 0x399B0, symSize: 0x10 }
  - { offset: 0x28AE42, size: 0x8, addend: 0x0, symName: __ZN9Steinberg3Vst3mda18TestToneController9terminateEv, symObjAddr: 0x1700, symBinAddr: 0x399C0, symSize: 0x40 }
  - { offset: 0x28AEBE, size: 0x8, addend: 0x0, symName: __ZThn16_N9Steinberg3Vst3mda18TestToneController9terminateEv, symObjAddr: 0x1740, symBinAddr: 0x39A00, symSize: 0x50 }
  - { offset: 0x28AF36, size: 0x8, addend: 0x0, symName: __ZThn48_N9Steinberg3Vst3mda18TestToneController9terminateEv, symObjAddr: 0x1790, symBinAddr: 0x39A50, symSize: 0x50 }
  - { offset: 0x28B0C5, size: 0x8, addend: 0x0, symName: __ZN9Steinberg3Vst3mda18TestToneController6updateEPNS_8FUnknownEi, symObjAddr: 0x2140, symBinAddr: 0x3A400, symSize: 0x480 }
  - { offset: 0x28B9E5, size: 0x8, addend: 0x0, symName: __ZN9Steinberg3Vst3mda14ProxyParameter13setNormalizedEd, symObjAddr: 0x25C0, symBinAddr: 0x3A880, symSize: 0x40 }
  - { offset: 0x28BAA3, size: 0x8, addend: 0x0, symName: __ZN9Steinberg3Vst3mda18TestToneController21getParamStringByValueEjdPDs, symObjAddr: 0x2600, symBinAddr: 0x3A8C0, symSize: 0x90 }
  - { offset: 0x28BBA1, size: 0x8, addend: 0x0, symName: __ZThn48_N9Steinberg3Vst3mda18TestToneController21getParamStringByValueEjdPDs, symObjAddr: 0x2690, symBinAddr: 0x3A950, symSize: 0x90 }
  - { offset: 0x28BC4D, size: 0x8, addend: 0x0, symName: __ZN9Steinberg3Vst3mda18TestToneController21getParamValueByStringEjPDsRd, symObjAddr: 0x2720, symBinAddr: 0x3A9E0, symSize: 0x10 }
  - { offset: 0x28BCC0, size: 0x8, addend: 0x0, symName: __ZThn48_N9Steinberg3Vst3mda18TestToneController21getParamValueByStringEjPDsRd, symObjAddr: 0x2730, symBinAddr: 0x3A9F0, symSize: 0x10 }
  - { offset: 0x28BDDC, size: 0x8, addend: 0x0, symName: __ZN9Steinberg3Vst3mda14ProxyParameterD1Ev, symObjAddr: 0x2B60, symBinAddr: 0x3AA10, symSize: 0x40 }
  - { offset: 0x28BE6F, size: 0x8, addend: 0x0, symName: __ZN9Steinberg3Vst3mda14ProxyParameterD0Ev, symObjAddr: 0x2BA0, symBinAddr: 0x3AA50, symSize: 0x50 }
  - { offset: 0x28BF02, size: 0x8, addend: 0x0, symName: __ZNK9Steinberg3Vst3mda14ProxyParameter7getInfoEv, symObjAddr: 0x2C60, symBinAddr: 0x3AAA0, symSize: 0x20 }
  - { offset: 0x28BF52, size: 0x8, addend: 0x0, symName: __ZN9Steinberg3Vst3mda14ProxyParameter7getInfoEv, symObjAddr: 0x2C80, symBinAddr: 0x3AAC0, symSize: 0x20 }
  - { offset: 0x28BFA2, size: 0x8, addend: 0x0, symName: __ZN9Steinberg3Vst3mda14ProxyParameter9setUnitIDEi, symObjAddr: 0x2CA0, symBinAddr: 0x3AAE0, symSize: 0x20 }
  - { offset: 0x28C006, size: 0x8, addend: 0x0, symName: __ZN9Steinberg3Vst3mda14ProxyParameter9getUnitIDEv, symObjAddr: 0x2CC0, symBinAddr: 0x3AB00, symSize: 0x20 }
  - { offset: 0x28C056, size: 0x8, addend: 0x0, symName: __ZNK9Steinberg3Vst3mda14ProxyParameter8toStringEdPDs, symObjAddr: 0x2CE0, symBinAddr: 0x3AB20, symSize: 0x20 }
  - { offset: 0x28C0CE, size: 0x8, addend: 0x0, symName: __ZNK9Steinberg3Vst3mda14ProxyParameter10fromStringEPKDsRd, symObjAddr: 0x2D00, symBinAddr: 0x3AB40, symSize: 0x20 }
  - { offset: 0x28C146, size: 0x8, addend: 0x0, symName: __ZNK9Steinberg3Vst3mda14ProxyParameter7toPlainEd, symObjAddr: 0x2D20, symBinAddr: 0x3AB60, symSize: 0x20 }
  - { offset: 0x28C1AA, size: 0x8, addend: 0x0, symName: __ZNK9Steinberg3Vst3mda14ProxyParameter12toNormalizedEd, symObjAddr: 0x2D40, symBinAddr: 0x3AB80, symSize: 0x20 }
  - { offset: 0x28C20E, size: 0x8, addend: 0x0, symName: __ZNK9Steinberg3Vst3mda14ProxyParameter12getPrecisionEv, symObjAddr: 0x2D60, symBinAddr: 0x3ABA0, symSize: 0x20 }
  - { offset: 0x28C25E, size: 0x8, addend: 0x0, symName: __ZN9Steinberg3Vst3mda14ProxyParameter12setPrecisionEi, symObjAddr: 0x2D80, symBinAddr: 0x3ABC0, symSize: 0x20 }
  - { offset: 0x28C2F6, size: 0x8, addend: 0x0, symName: __ZN9Steinberg3Vst3mda12_GLOBAL__N_113CentParameterD1Ev, symObjAddr: 0x2DB0, symBinAddr: 0x3ABE0, symSize: 0x10 }
  - { offset: 0x28C367, size: 0x8, addend: 0x0, symName: __ZN9Steinberg3Vst3mda12_GLOBAL__N_113CentParameterD0Ev, symObjAddr: 0x2DC0, symBinAddr: 0x3ABF0, symSize: 0x20 }
  - { offset: 0x28C3E6, size: 0x8, addend: 0x0, symName: __ZNK9Steinberg3Vst14RangeParameter3isAEv, symObjAddr: 0x2DE0, symBinAddr: 0x3AC10, symSize: 0x10 }
  - { offset: 0x28C409, size: 0x8, addend: 0x0, symName: __ZNK9Steinberg3Vst14RangeParameter3isAEPKc, symObjAddr: 0x2DF0, symBinAddr: 0x3AC20, symSize: 0x10 }
  - { offset: 0x28C482, size: 0x8, addend: 0x0, symName: __ZNK9Steinberg3Vst14RangeParameter8isTypeOfEPKcb, symObjAddr: 0x2E00, symBinAddr: 0x3AC30, symSize: 0x70 }
  - { offset: 0x28C4C8, size: 0x8, addend: 0x0, symName: __ZNK9Steinberg3Vst14RangeParameter8isTypeOfEPKcb, symObjAddr: 0x2E00, symBinAddr: 0x3AC30, symSize: 0x70 }
  - { offset: 0x28C5B1, size: 0x8, addend: 0x0, symName: __ZNK9Steinberg3Vst3mda12_GLOBAL__N_113CentParameter7toPlainEd, symObjAddr: 0x2EB0, symBinAddr: 0x3ACA0, symSize: 0x50 }
  - { offset: 0x28C5E1, size: 0x8, addend: 0x0, symName: __ZNK9Steinberg3Vst3mda12_GLOBAL__N_113CentParameter12toNormalizedEd, symObjAddr: 0x2F00, symBinAddr: 0x3ACF0, symSize: 0x40 }
  - { offset: 0x28C611, size: 0x8, addend: 0x0, symName: __ZNK9Steinberg3Vst14RangeParameter6getMinEv, symObjAddr: 0x2F50, symBinAddr: 0x3AD30, symSize: 0x10 }
  - { offset: 0x28C634, size: 0x8, addend: 0x0, symName: __ZN9Steinberg3Vst14RangeParameter6setMinEd, symObjAddr: 0x2F60, symBinAddr: 0x3AD40, symSize: 0x10 }
  - { offset: 0x28C664, size: 0x8, addend: 0x0, symName: __ZNK9Steinberg3Vst14RangeParameter6getMaxEv, symObjAddr: 0x2F70, symBinAddr: 0x3AD50, symSize: 0x10 }
  - { offset: 0x28C687, size: 0x8, addend: 0x0, symName: __ZN9Steinberg3Vst14RangeParameter6setMaxEd, symObjAddr: 0x2F80, symBinAddr: 0x3AD60, symSize: 0x10 }
  - { offset: 0x28C6B7, size: 0x8, addend: 0x0, symName: __ZN9Steinberg3Vst3mda12_GLOBAL__N_117FineTuneParameter6updateEPNS_8FUnknownEi, symObjAddr: 0x2F90, symBinAddr: 0x3AD70, symSize: 0x80 }
  - { offset: 0x28C77C, size: 0x8, addend: 0x0, symName: __ZN9Steinberg3Vst3mda12_GLOBAL__N_117FineTuneParameterD1Ev, symObjAddr: 0x3010, symBinAddr: 0x3ADF0, symSize: 0x60 }
  - { offset: 0x28C85E, size: 0x8, addend: 0x0, symName: __ZN9Steinberg3Vst3mda12_GLOBAL__N_117FineTuneParameterD0Ev, symObjAddr: 0x3070, symBinAddr: 0x3AE50, symSize: 0x60 }
  - { offset: 0x28C93D, size: 0x8, addend: 0x0, symName: __ZNK9Steinberg3Vst3mda12_GLOBAL__N_117FineTuneParameter7toPlainEd, symObjAddr: 0x30D0, symBinAddr: 0x3AEB0, symSize: 0x60 }
  - { offset: 0x28C9E1, size: 0x8, addend: 0x0, symName: __ZNK9Steinberg3Vst3mda12_GLOBAL__N_117FineTuneParameter12toNormalizedEd, symObjAddr: 0x3130, symBinAddr: 0x3AF10, symSize: 0x6 }
  - { offset: 0x28E84B, size: 0x8, addend: 0x0, symName: __ZN9Steinberg3Vst3mda17TestToneProcessorC2Ev, symObjAddr: 0x0, symBinAddr: 0x3AF20, symSize: 0xD0 }
  - { offset: 0x28F03F, size: 0x8, addend: 0x0, symName: __ZN9Steinberg3Vst3mda18TestToneController3uidE, symObjAddr: 0x1900, symBinAddr: 0x68EF0, symSize: 0x0 }
  - { offset: 0x290BB8, size: 0x8, addend: 0x0, symName: __ZN9Steinberg3Vst3mda17TestToneProcessorC2Ev, symObjAddr: 0x0, symBinAddr: 0x3AF20, symSize: 0xD0 }
  - { offset: 0x290E18, size: 0x8, addend: 0x0, symName: __ZN9Steinberg3Vst3mda17TestToneProcessorC1Ev, symObjAddr: 0x150, symBinAddr: 0x3AFF0, symSize: 0x130 }
  - { offset: 0x290FF5, size: 0x8, addend: 0x0, symName: __ZN9Steinberg3Vst3mda17TestToneProcessorD1Ev, symObjAddr: 0x300, symBinAddr: 0x3B120, symSize: 0x80 }
  - { offset: 0x291197, size: 0x8, addend: 0x0, symName: __ZN9Steinberg3Vst3mda17TestToneProcessorD0Ev, symObjAddr: 0x380, symBinAddr: 0x3B1A0, symSize: 0x90 }
  - { offset: 0x29140D, size: 0x8, addend: 0x0, symName: __ZN9Steinberg3Vst3mda17TestToneProcessor10initializeEPNS_8FUnknownE, symObjAddr: 0x410, symBinAddr: 0x3B230, symSize: 0x120 }
  - { offset: 0x2915D7, size: 0x8, addend: 0x0, symName: __ZThn16_N9Steinberg3Vst3mda17TestToneProcessor10initializeEPNS_8FUnknownE, symObjAddr: 0x530, symBinAddr: 0x3B350, symSize: 0x10 }
  - { offset: 0x291602, size: 0x8, addend: 0x0, symName: __ZThn48_N9Steinberg3Vst3mda17TestToneProcessor10initializeEPNS_8FUnknownE, symObjAddr: 0x540, symBinAddr: 0x3B360, symSize: 0x10 }
  - { offset: 0x29162D, size: 0x8, addend: 0x0, symName: __ZN9Steinberg3Vst3mda17TestToneProcessor9terminateEv, symObjAddr: 0x550, symBinAddr: 0x3B370, symSize: 0x10 }
  - { offset: 0x291662, size: 0x8, addend: 0x0, symName: __ZThn16_N9Steinberg3Vst3mda17TestToneProcessor9terminateEv, symObjAddr: 0x560, symBinAddr: 0x3B380, symSize: 0x10 }
  - { offset: 0x291693, size: 0x8, addend: 0x0, symName: __ZThn48_N9Steinberg3Vst3mda17TestToneProcessor9terminateEv, symObjAddr: 0x570, symBinAddr: 0x3B390, symSize: 0x10 }
  - { offset: 0x2916C4, size: 0x8, addend: 0x0, symName: __ZN9Steinberg3Vst3mda17TestToneProcessor9setActiveEh, symObjAddr: 0x580, symBinAddr: 0x3B3A0, symSize: 0x30 }
  - { offset: 0x29170D, size: 0x8, addend: 0x0, symName: __ZThn48_N9Steinberg3Vst3mda17TestToneProcessor9setActiveEh, symObjAddr: 0x5B0, symBinAddr: 0x3B3D0, symSize: 0x30 }
  - { offset: 0x291742, size: 0x8, addend: 0x0, symName: __ZN9Steinberg3Vst3mda17TestToneProcessor12doProcessingERNS0_11ProcessDataE, symObjAddr: 0x5E0, symBinAddr: 0x3B400, symSize: 0x480 }
  - { offset: 0x291A11, size: 0x8, addend: 0x0, symName: __ZN9Steinberg3Vst3mda17TestToneProcessor11recalculateEv, symObjAddr: 0xA60, symBinAddr: 0x3B880, symSize: 0x550 }
  - { offset: 0x291B91, size: 0x8, addend: 0x0, symName: __ZNK9Steinberg3Vst3mda17TestToneProcessor15getVst2UniqueIdEv, symObjAddr: 0x1230, symBinAddr: 0x3BDD0, symSize: 0x10 }
  - { offset: 0x2939D7, size: 0x8, addend: 0x0, symName: __ZN9Steinberg3Vst3mda18ThruZeroControllerC2Ev, symObjAddr: 0x0, symBinAddr: 0x3BDE0, symSize: 0x70 }
  - { offset: 0x29DB1E, size: 0x8, addend: 0x0, symName: __ZN9Steinberg3Vst3mda18ThruZeroControllerC2Ev, symObjAddr: 0x0, symBinAddr: 0x3BDE0, symSize: 0x70 }
  - { offset: 0x29DB97, size: 0x8, addend: 0x0, symName: __ZN9Steinberg3Vst3mda18ThruZeroControllerD1Ev, symObjAddr: 0xF0, symBinAddr: 0x3BE50, symSize: 0x10 }
  - { offset: 0x29DC09, size: 0x8, addend: 0x0, symName: __ZN9Steinberg3Vst3mda18ThruZeroControllerD0Ev, symObjAddr: 0x100, symBinAddr: 0x3BE60, symSize: 0x20 }
  - { offset: 0x29DD34, size: 0x8, addend: 0x0, symName: __ZN9Steinberg3Vst3mda18ThruZeroController10initializeEPNS_8FUnknownE, symObjAddr: 0x120, symBinAddr: 0x3BE80, symSize: 0x420 }
  - { offset: 0x29E41E, size: 0x8, addend: 0x0, symName: __ZThn16_N9Steinberg3Vst3mda18ThruZeroController10initializeEPNS_8FUnknownE, symObjAddr: 0x540, symBinAddr: 0x3C2A0, symSize: 0x10 }
  - { offset: 0x29E449, size: 0x8, addend: 0x0, symName: __ZThn48_N9Steinberg3Vst3mda18ThruZeroController10initializeEPNS_8FUnknownE, symObjAddr: 0x550, symBinAddr: 0x3C2B0, symSize: 0x10 }
  - { offset: 0x29E474, size: 0x8, addend: 0x0, symName: __ZN9Steinberg3Vst3mda18ThruZeroController9terminateEv, symObjAddr: 0x560, symBinAddr: 0x3C2C0, symSize: 0x10 }
  - { offset: 0x29E4A9, size: 0x8, addend: 0x0, symName: __ZThn16_N9Steinberg3Vst3mda18ThruZeroController9terminateEv, symObjAddr: 0x570, symBinAddr: 0x3C2D0, symSize: 0x10 }
  - { offset: 0x29E4DA, size: 0x8, addend: 0x0, symName: __ZThn48_N9Steinberg3Vst3mda18ThruZeroController9terminateEv, symObjAddr: 0x580, symBinAddr: 0x3C2E0, symSize: 0x10 }
  - { offset: 0x29E540, size: 0x8, addend: 0x0, symName: __ZN9Steinberg3Vst3mda18ThruZeroController21getParamStringByValueEjdPDs, symObjAddr: 0x590, symBinAddr: 0x3C2F0, symSize: 0xF0 }
  - { offset: 0x29E654, size: 0x8, addend: 0x0, symName: __ZThn48_N9Steinberg3Vst3mda18ThruZeroController21getParamStringByValueEjdPDs, symObjAddr: 0x680, symBinAddr: 0x3C3E0, symSize: 0x10 }
  - { offset: 0x29E68D, size: 0x8, addend: 0x0, symName: __ZN9Steinberg3Vst3mda18ThruZeroController21getParamValueByStringEjPDsRd, symObjAddr: 0x690, symBinAddr: 0x3C3F0, symSize: 0x10 }
  - { offset: 0x29E6F8, size: 0x8, addend: 0x0, symName: __ZThn48_N9Steinberg3Vst3mda18ThruZeroController21getParamValueByStringEjPDsRd, symObjAddr: 0x6A0, symBinAddr: 0x3C400, symSize: 0x10 }
  - { offset: 0x2A0591, size: 0x8, addend: 0x0, symName: __ZN9Steinberg3Vst3mda17ThruZeroProcessorC2Ev, symObjAddr: 0x0, symBinAddr: 0x3C410, symSize: 0xD0 }
  - { offset: 0x2A0D16, size: 0x8, addend: 0x0, symName: __ZN9Steinberg3Vst3mda18ThruZeroController3uidE, symObjAddr: 0x12A0, symBinAddr: 0x68F90, symSize: 0x0 }
  - { offset: 0x2A2862, size: 0x8, addend: 0x0, symName: __ZN9Steinberg3Vst3mda17ThruZeroProcessorC2Ev, symObjAddr: 0x0, symBinAddr: 0x3C410, symSize: 0xD0 }
  - { offset: 0x2A2AC3, size: 0x8, addend: 0x0, symName: __ZN9Steinberg3Vst3mda17ThruZeroProcessorC1Ev, symObjAddr: 0x150, symBinAddr: 0x3C4E0, symSize: 0x130 }
  - { offset: 0x2A2C9F, size: 0x8, addend: 0x0, symName: __ZN9Steinberg3Vst3mda17ThruZeroProcessorD1Ev, symObjAddr: 0x300, symBinAddr: 0x3C610, symSize: 0x80 }
  - { offset: 0x2A2E41, size: 0x8, addend: 0x0, symName: __ZN9Steinberg3Vst3mda17ThruZeroProcessorD0Ev, symObjAddr: 0x380, symBinAddr: 0x3C690, symSize: 0x90 }
  - { offset: 0x2A3098, size: 0x8, addend: 0x0, symName: __ZN9Steinberg3Vst3mda17ThruZeroProcessor10initializeEPNS_8FUnknownE, symObjAddr: 0x410, symBinAddr: 0x3C720, symSize: 0x180 }
  - { offset: 0x2A3240, size: 0x8, addend: 0x0, symName: __ZThn16_N9Steinberg3Vst3mda17ThruZeroProcessor10initializeEPNS_8FUnknownE, symObjAddr: 0x590, symBinAddr: 0x3C8A0, symSize: 0x10 }
  - { offset: 0x2A326B, size: 0x8, addend: 0x0, symName: __ZThn48_N9Steinberg3Vst3mda17ThruZeroProcessor10initializeEPNS_8FUnknownE, symObjAddr: 0x5A0, symBinAddr: 0x3C8B0, symSize: 0x10 }
  - { offset: 0x2A3296, size: 0x8, addend: 0x0, symName: __ZN9Steinberg3Vst3mda17ThruZeroProcessor9terminateEv, symObjAddr: 0x5B0, symBinAddr: 0x3C8C0, symSize: 0x50 }
  - { offset: 0x2A32CD, size: 0x8, addend: 0x0, symName: __ZThn16_N9Steinberg3Vst3mda17ThruZeroProcessor9terminateEv, symObjAddr: 0x600, symBinAddr: 0x3C910, symSize: 0x50 }
  - { offset: 0x2A32F9, size: 0x8, addend: 0x0, symName: __ZThn48_N9Steinberg3Vst3mda17ThruZeroProcessor9terminateEv, symObjAddr: 0x650, symBinAddr: 0x3C960, symSize: 0x50 }
  - { offset: 0x2A3325, size: 0x8, addend: 0x0, symName: __ZN9Steinberg3Vst3mda17ThruZeroProcessor9setActiveEh, symObjAddr: 0x6A0, symBinAddr: 0x3C9B0, symSize: 0x50 }
  - { offset: 0x2A3370, size: 0x8, addend: 0x0, symName: __ZThn48_N9Steinberg3Vst3mda17ThruZeroProcessor9setActiveEh, symObjAddr: 0x6F0, symBinAddr: 0x3CA00, symSize: 0x50 }
  - { offset: 0x2A33A5, size: 0x8, addend: 0x0, symName: __ZN9Steinberg3Vst3mda17ThruZeroProcessor12doProcessingERNS0_11ProcessDataE, symObjAddr: 0x740, symBinAddr: 0x3CA50, symSize: 0x240 }
  - { offset: 0x2A3538, size: 0x8, addend: 0x0, symName: __ZN9Steinberg3Vst3mda17ThruZeroProcessor11recalculateEv, symObjAddr: 0x980, symBinAddr: 0x3CC90, symSize: 0x110 }
  - { offset: 0x2A359C, size: 0x8, addend: 0x0, symName: __ZNK9Steinberg3Vst3mda17ThruZeroProcessor15getVst2UniqueIdEv, symObjAddr: 0xD10, symBinAddr: 0x3CDA0, symSize: 0x10 }
  - { offset: 0x2A53EE, size: 0x8, addend: 0x0, symName: __ZN9Steinberg3Vst3mda17TrackerControllerC2Ev, symObjAddr: 0x0, symBinAddr: 0x3CDB0, symSize: 0x70 }
  - { offset: 0x2AF50D, size: 0x8, addend: 0x0, symName: __ZN9Steinberg3Vst3mda17TrackerControllerC2Ev, symObjAddr: 0x0, symBinAddr: 0x3CDB0, symSize: 0x70 }
  - { offset: 0x2AF586, size: 0x8, addend: 0x0, symName: __ZN9Steinberg3Vst3mda17TrackerControllerD1Ev, symObjAddr: 0xF0, symBinAddr: 0x3CE20, symSize: 0x10 }
  - { offset: 0x2AF5F7, size: 0x8, addend: 0x0, symName: __ZN9Steinberg3Vst3mda17TrackerControllerD0Ev, symObjAddr: 0x100, symBinAddr: 0x3CE30, symSize: 0x20 }
  - { offset: 0x2AF784, size: 0x8, addend: 0x0, symName: __ZN9Steinberg3Vst3mda17TrackerController10initializeEPNS_8FUnknownE, symObjAddr: 0x120, symBinAddr: 0x3CE50, symSize: 0x830 }
  - { offset: 0x2B05DF, size: 0x8, addend: 0x0, symName: __ZThn16_N9Steinberg3Vst3mda17TrackerController10initializeEPNS_8FUnknownE, symObjAddr: 0x950, symBinAddr: 0x3D680, symSize: 0x10 }
  - { offset: 0x2B060A, size: 0x8, addend: 0x0, symName: __ZThn48_N9Steinberg3Vst3mda17TrackerController10initializeEPNS_8FUnknownE, symObjAddr: 0x960, symBinAddr: 0x3D690, symSize: 0x10 }
  - { offset: 0x2B0635, size: 0x8, addend: 0x0, symName: __ZN9Steinberg3Vst3mda17TrackerController9terminateEv, symObjAddr: 0x970, symBinAddr: 0x3D6A0, symSize: 0x10 }
  - { offset: 0x2B066A, size: 0x8, addend: 0x0, symName: __ZThn16_N9Steinberg3Vst3mda17TrackerController9terminateEv, symObjAddr: 0x980, symBinAddr: 0x3D6B0, symSize: 0x10 }
  - { offset: 0x2B069B, size: 0x8, addend: 0x0, symName: __ZThn48_N9Steinberg3Vst3mda17TrackerController9terminateEv, symObjAddr: 0x990, symBinAddr: 0x3D6C0, symSize: 0x10 }
  - { offset: 0x2B06CC, size: 0x8, addend: 0x0, symName: __ZN9Steinberg3Vst3mda17TrackerController21getParamStringByValueEjdPDs, symObjAddr: 0x9A0, symBinAddr: 0x3D6D0, symSize: 0x10 }
  - { offset: 0x2B0737, size: 0x8, addend: 0x0, symName: __ZThn48_N9Steinberg3Vst3mda17TrackerController21getParamStringByValueEjdPDs, symObjAddr: 0x9B0, symBinAddr: 0x3D6E0, symSize: 0x10 }
  - { offset: 0x2B077D, size: 0x8, addend: 0x0, symName: __ZN9Steinberg3Vst3mda17TrackerController21getParamValueByStringEjPDsRd, symObjAddr: 0x9C0, symBinAddr: 0x3D6F0, symSize: 0x10 }
  - { offset: 0x2B07E8, size: 0x8, addend: 0x0, symName: __ZThn48_N9Steinberg3Vst3mda17TrackerController21getParamValueByStringEjPDsRd, symObjAddr: 0x9D0, symBinAddr: 0x3D700, symSize: 0x10 }
  - { offset: 0x2B2686, size: 0x8, addend: 0x0, symName: __ZN9Steinberg3Vst3mda16TrackerProcessorC2Ev, symObjAddr: 0x0, symBinAddr: 0x3D710, symSize: 0xD0 }
  - { offset: 0x2B2EDC, size: 0x8, addend: 0x0, symName: __ZN9Steinberg3Vst3mda17TrackerController3uidE, symObjAddr: 0x17F0, symBinAddr: 0x69080, symSize: 0x0 }
  - { offset: 0x2B4B16, size: 0x8, addend: 0x0, symName: __ZN9Steinberg3Vst3mda16TrackerProcessorC2Ev, symObjAddr: 0x0, symBinAddr: 0x3D710, symSize: 0xD0 }
  - { offset: 0x2B4D76, size: 0x8, addend: 0x0, symName: __ZN9Steinberg3Vst3mda16TrackerProcessorC1Ev, symObjAddr: 0x150, symBinAddr: 0x3D7E0, symSize: 0x130 }
  - { offset: 0x2B4F53, size: 0x8, addend: 0x0, symName: __ZN9Steinberg3Vst3mda16TrackerProcessorD1Ev, symObjAddr: 0x300, symBinAddr: 0x3D910, symSize: 0x80 }
  - { offset: 0x2B50F5, size: 0x8, addend: 0x0, symName: __ZN9Steinberg3Vst3mda16TrackerProcessorD0Ev, symObjAddr: 0x380, symBinAddr: 0x3D990, symSize: 0x90 }
  - { offset: 0x2B534C, size: 0x8, addend: 0x0, symName: __ZN9Steinberg3Vst3mda16TrackerProcessor10initializeEPNS_8FUnknownE, symObjAddr: 0x410, symBinAddr: 0x3DA20, symSize: 0x130 }
  - { offset: 0x2B54F4, size: 0x8, addend: 0x0, symName: __ZThn16_N9Steinberg3Vst3mda16TrackerProcessor10initializeEPNS_8FUnknownE, symObjAddr: 0x540, symBinAddr: 0x3DB50, symSize: 0x10 }
  - { offset: 0x2B551F, size: 0x8, addend: 0x0, symName: __ZThn48_N9Steinberg3Vst3mda16TrackerProcessor10initializeEPNS_8FUnknownE, symObjAddr: 0x550, symBinAddr: 0x3DB60, symSize: 0x10 }
  - { offset: 0x2B554A, size: 0x8, addend: 0x0, symName: __ZN9Steinberg3Vst3mda16TrackerProcessor9terminateEv, symObjAddr: 0x560, symBinAddr: 0x3DB70, symSize: 0x10 }
  - { offset: 0x2B557F, size: 0x8, addend: 0x0, symName: __ZThn16_N9Steinberg3Vst3mda16TrackerProcessor9terminateEv, symObjAddr: 0x570, symBinAddr: 0x3DB80, symSize: 0x10 }
  - { offset: 0x2B55B0, size: 0x8, addend: 0x0, symName: __ZThn48_N9Steinberg3Vst3mda16TrackerProcessor9terminateEv, symObjAddr: 0x580, symBinAddr: 0x3DB90, symSize: 0x10 }
  - { offset: 0x2B55FA, size: 0x8, addend: 0x0, symName: __ZN9Steinberg3Vst3mda16TrackerProcessor9setActiveEh, symObjAddr: 0x590, symBinAddr: 0x3DBA0, symSize: 0x50 }
  - { offset: 0x2B565F, size: 0x8, addend: 0x0, symName: __ZThn48_N9Steinberg3Vst3mda16TrackerProcessor9setActiveEh, symObjAddr: 0x5E0, symBinAddr: 0x3DBF0, symSize: 0x50 }
  - { offset: 0x2B56B2, size: 0x8, addend: 0x0, symName: __ZN9Steinberg3Vst3mda16TrackerProcessor12doProcessingERNS0_11ProcessDataE, symObjAddr: 0x630, symBinAddr: 0x3DC40, symSize: 0x5E0 }
  - { offset: 0x2B59DB, size: 0x8, addend: 0x0, symName: __ZN9Steinberg3Vst3mda16TrackerProcessor10filterFreqEf, symObjAddr: 0xC10, symBinAddr: 0x3E220, symSize: 0x60 }
  - { offset: 0x2B5A84, size: 0x8, addend: 0x0, symName: __ZN9Steinberg3Vst3mda16TrackerProcessor11recalculateEv, symObjAddr: 0xC70, symBinAddr: 0x3E280, symSize: 0x280 }
  - { offset: 0x2B5BB6, size: 0x8, addend: 0x0, symName: __ZNK9Steinberg3Vst3mda16TrackerProcessor15getVst2UniqueIdEv, symObjAddr: 0x1170, symBinAddr: 0x3E500, symSize: 0x10 }
  - { offset: 0x2B7A08, size: 0x8, addend: 0x0, symName: _GetPluginFactory, symObjAddr: 0x0, symBinAddr: 0x3E510, symSize: 0x60 }
  - { offset: 0x2B7A16, size: 0x8, addend: 0x0, symName: _GetPluginFactory, symObjAddr: 0x0, symBinAddr: 0x3E510, symSize: 0x60 }
  - { offset: 0x2B7A3E, size: 0x8, addend: 0x0, symName: __ZZ16GetPluginFactoryE7factory, symObjAddr: 0x7AEA8, symBinAddr: 0x279F18, symSize: 0x0 }
  - { offset: 0x2CED8E, size: 0x8, addend: 0x0, symName: __ZN11FactoryData11factoryInfoE, symObjAddr: 0x96B0, symBinAddr: 0x69250, symSize: 0x0 }
  - { offset: 0x2CEDA2, size: 0x8, addend: 0x0, symName: __ZN11FactoryData10classInfosE, symObjAddr: 0x1BE0, symBinAddr: 0x81C88, symSize: 0x0 }
  - { offset: 0x2CEEEF, size: 0x8, addend: 0x0, symName: __ZN9Steinberg13PluginFactoryI11FactoryDataED1Ev, symObjAddr: 0x60, symBinAddr: 0x3E570, symSize: 0x10 }
  - { offset: 0x2CEF18, size: 0x8, addend: 0x0, symName: __ZN9Steinberg13PluginFactoryI11FactoryDataED0Ev, symObjAddr: 0x70, symBinAddr: 0x3E580, symSize: 0x10 }
  - { offset: 0x2CEF41, size: 0x8, addend: 0x0, symName: __ZN9Steinberg12FUnknownImpl6Detail14NonDestroyable15destroyInstanceEv, symObjAddr: 0x80, symBinAddr: 0x3E590, symSize: 0x10 }
  - { offset: 0x2CF0A4, size: 0x8, addend: 0x0, symName: __ZN9Steinberg12FUnknownImpl14ImplementsImplINS0_6Detail17QueryInterfaceEndINS2_14NonDestroyableEEENS0_8DirectlyIJNS_15IPluginFactory2EEEENS0_10IndirectlyIJNS_14IPluginFactoryEEEEE14queryInterfaceEPKcPPv, symObjAddr: 0x90, symBinAddr: 0x3E5A0, symSize: 0x90 }
  - { offset: 0x2CF1DB, size: 0x8, addend: 0x0, symName: __ZN9Steinberg12FUnknownImpl14ImplementsImplINS0_6Detail17QueryInterfaceEndINS2_14NonDestroyableEEENS0_8DirectlyIJNS_15IPluginFactory2EEEENS0_10IndirectlyIJNS_14IPluginFactoryEEEEE6addRefEv, symObjAddr: 0x120, symBinAddr: 0x3E630, symSize: 0x10 }
  - { offset: 0x2CF1FE, size: 0x8, addend: 0x0, symName: __ZN9Steinberg12FUnknownImpl14ImplementsImplINS0_6Detail17QueryInterfaceEndINS2_14NonDestroyableEEENS0_8DirectlyIJNS_15IPluginFactory2EEEENS0_10IndirectlyIJNS_14IPluginFactoryEEEEE7releaseEv, symObjAddr: 0x130, symBinAddr: 0x3E640, symSize: 0x10 }
  - { offset: 0x2CF221, size: 0x8, addend: 0x0, symName: __ZN9Steinberg13PluginFactoryI11FactoryDataE14getFactoryInfoEPNS_12PFactoryInfoE, symObjAddr: 0x140, symBinAddr: 0x3E650, symSize: 0x30 }
  - { offset: 0x2CF24B, size: 0x8, addend: 0x0, symName: __ZN9Steinberg13PluginFactoryI11FactoryDataE12countClassesEv, symObjAddr: 0x170, symBinAddr: 0x3E680, symSize: 0x10 }
  - { offset: 0x2CF292, size: 0x8, addend: 0x0, symName: __ZN9Steinberg13PluginFactoryI11FactoryDataE12getClassInfoEiPNS_10PClassInfoE, symObjAddr: 0x180, symBinAddr: 0x3E690, symSize: 0xB0 }
  - { offset: 0x2CF387, size: 0x8, addend: 0x0, symName: __ZN9Steinberg13PluginFactoryI11FactoryDataE14createInstanceEPKcS4_PPv, symObjAddr: 0x230, symBinAddr: 0x3E740, symSize: 0xC0 }
  - { offset: 0x2CF46F, size: 0x8, addend: 0x0, symName: __ZN9Steinberg13PluginFactoryI11FactoryDataE13getClassInfo2EiPNS_11PClassInfo2E, symObjAddr: 0x2F0, symBinAddr: 0x3E800, symSize: 0x40 }
  - { offset: 0x2CF4F7, size: 0x8, addend: 0x0, symName: __ZThn8_N9Steinberg12FUnknownImpl14ImplementsImplINS0_6Detail17QueryInterfaceEndINS2_14NonDestroyableEEENS0_8DirectlyIJNS_15IPluginFactory2EEEENS0_10IndirectlyIJNS_14IPluginFactoryEEEEE14queryInterfaceEPKcPPv, symObjAddr: 0x330, symBinAddr: 0x3E840, symSize: 0x90 }
  - { offset: 0x2CF643, size: 0x8, addend: 0x0, symName: __ZThn8_N9Steinberg12FUnknownImpl14ImplementsImplINS0_6Detail17QueryInterfaceEndINS2_14NonDestroyableEEENS0_8DirectlyIJNS_15IPluginFactory2EEEENS0_10IndirectlyIJNS_14IPluginFactoryEEEEE6addRefEv, symObjAddr: 0x3C0, symBinAddr: 0x3E8D0, symSize: 0x10 }
  - { offset: 0x2CF65A, size: 0x8, addend: 0x0, symName: __ZThn8_N9Steinberg12FUnknownImpl14ImplementsImplINS0_6Detail17QueryInterfaceEndINS2_14NonDestroyableEEENS0_8DirectlyIJNS_15IPluginFactory2EEEENS0_10IndirectlyIJNS_14IPluginFactoryEEEEE7releaseEv, symObjAddr: 0x3D0, symBinAddr: 0x3E8E0, symSize: 0x10 }
  - { offset: 0x2CF68F, size: 0x8, addend: 0x0, symName: __ZThn8_N9Steinberg13PluginFactoryI11FactoryDataE14getFactoryInfoEPNS_12PFactoryInfoE, symObjAddr: 0x3E0, symBinAddr: 0x3E8F0, symSize: 0x30 }
  - { offset: 0x2CF6A8, size: 0x8, addend: 0x0, symName: __ZThn8_N9Steinberg13PluginFactoryI11FactoryDataE14getFactoryInfoEPNS_12PFactoryInfoE, symObjAddr: 0x3E0, symBinAddr: 0x3E8F0, symSize: 0x30 }
  - { offset: 0x2CF6CB, size: 0x8, addend: 0x0, symName: __ZThn8_N9Steinberg13PluginFactoryI11FactoryDataE12countClassesEv, symObjAddr: 0x410, symBinAddr: 0x3E920, symSize: 0x10 }
  - { offset: 0x2CF6E0, size: 0x8, addend: 0x0, symName: __ZThn8_N9Steinberg13PluginFactoryI11FactoryDataE12getClassInfoEiPNS_10PClassInfoE, symObjAddr: 0x420, symBinAddr: 0x3E930, symSize: 0x10 }
  - { offset: 0x2CF78B, size: 0x8, addend: 0x0, symName: __ZThn8_N9Steinberg13PluginFactoryI11FactoryDataE14createInstanceEPKcS4_PPv, symObjAddr: 0x430, symBinAddr: 0x3E940, symSize: 0xC0 }
  - { offset: 0x2CF86C, size: 0x8, addend: 0x0, symName: __ZThn8_N9Steinberg13PluginFactoryI11FactoryDataE13getClassInfo2EiPNS_11PClassInfo2E, symObjAddr: 0x4F0, symBinAddr: 0x3EA00, symSize: 0x40 }
  - { offset: 0x2CFBFE, size: 0x8, addend: 0x0, symName: __ZN9Steinberg3Vst3mda17AmbienceProcessor14createInstanceEPv, symObjAddr: 0x530, symBinAddr: 0x3EA40, symSize: 0x40 }
  - { offset: 0x2D02F3, size: 0x8, addend: 0x0, symName: __ZN9Steinberg3Vst3mda18AmbienceController14createInstanceEPv, symObjAddr: 0x570, symBinAddr: 0x3EA80, symSize: 0x40 }
  - { offset: 0x2D0323, size: 0x8, addend: 0x0, symName: __ZN9Steinberg3Vst3mda17BandistoProcessor14createInstanceEPv, symObjAddr: 0x5B0, symBinAddr: 0x3EAC0, symSize: 0x40 }
  - { offset: 0x2D0349, size: 0x8, addend: 0x0, symName: __ZN9Steinberg3Vst3mda18BandistoController14createInstanceEPv, symObjAddr: 0x5F0, symBinAddr: 0x3EB00, symSize: 0x40 }
  - { offset: 0x2D0379, size: 0x8, addend: 0x0, symName: __ZN9Steinberg3Vst3mda16BeatBoxProcessor14createInstanceEPv, symObjAddr: 0x630, symBinAddr: 0x3EB40, symSize: 0x40 }
  - { offset: 0x2D039F, size: 0x8, addend: 0x0, symName: __ZN9Steinberg3Vst3mda17BeatBoxController14createInstanceEPv, symObjAddr: 0x670, symBinAddr: 0x3EB80, symSize: 0x40 }
  - { offset: 0x2D03CF, size: 0x8, addend: 0x0, symName: __ZN9Steinberg3Vst3mda14ComboProcessor14createInstanceEPv, symObjAddr: 0x6B0, symBinAddr: 0x3EBC0, symSize: 0x40 }
  - { offset: 0x2D03F5, size: 0x8, addend: 0x0, symName: __ZN9Steinberg3Vst3mda15ComboController14createInstanceEPv, symObjAddr: 0x6F0, symBinAddr: 0x3EC00, symSize: 0x40 }
  - { offset: 0x2D0425, size: 0x8, addend: 0x0, symName: __ZN9Steinberg3Vst3mda16DeEsserProcessor14createInstanceEPv, symObjAddr: 0x730, symBinAddr: 0x3EC40, symSize: 0x40 }
  - { offset: 0x2D044B, size: 0x8, addend: 0x0, symName: __ZN9Steinberg3Vst3mda17DeEsserController14createInstanceEPv, symObjAddr: 0x770, symBinAddr: 0x3EC80, symSize: 0x40 }
  - { offset: 0x2D047B, size: 0x8, addend: 0x0, symName: __ZN9Steinberg3Vst3mda16DegradeProcessor14createInstanceEPv, symObjAddr: 0x7B0, symBinAddr: 0x3ECC0, symSize: 0x40 }
  - { offset: 0x2D04A1, size: 0x8, addend: 0x0, symName: __ZN9Steinberg3Vst3mda17DegradeController14createInstanceEPv, symObjAddr: 0x7F0, symBinAddr: 0x3ED00, symSize: 0x40 }
  - { offset: 0x2D04D1, size: 0x8, addend: 0x0, symName: __ZN9Steinberg3Vst3mda14DelayProcessor14createInstanceEPv, symObjAddr: 0x830, symBinAddr: 0x3ED40, symSize: 0x40 }
  - { offset: 0x2D04F7, size: 0x8, addend: 0x0, symName: __ZN9Steinberg3Vst3mda15DelayController14createInstanceEPv, symObjAddr: 0x870, symBinAddr: 0x3ED80, symSize: 0x40 }
  - { offset: 0x2D0527, size: 0x8, addend: 0x0, symName: __ZN9Steinberg3Vst3mda15DetuneProcessor14createInstanceEPv, symObjAddr: 0x8B0, symBinAddr: 0x3EDC0, symSize: 0x40 }
  - { offset: 0x2D054D, size: 0x8, addend: 0x0, symName: __ZN9Steinberg3Vst3mda16DetuneController14createInstanceEPv, symObjAddr: 0x8F0, symBinAddr: 0x3EE00, symSize: 0x40 }
  - { offset: 0x2D057D, size: 0x8, addend: 0x0, symName: __ZN9Steinberg3Vst3mda15DitherProcessor14createInstanceEPv, symObjAddr: 0x930, symBinAddr: 0x3EE40, symSize: 0x40 }
  - { offset: 0x2D05A3, size: 0x8, addend: 0x0, symName: __ZN9Steinberg3Vst3mda16DitherController14createInstanceEPv, symObjAddr: 0x970, symBinAddr: 0x3EE80, symSize: 0x40 }
  - { offset: 0x2D05D3, size: 0x8, addend: 0x0, symName: __ZN9Steinberg3Vst3mda17DubDelayProcessor14createInstanceEPv, symObjAddr: 0x9B0, symBinAddr: 0x3EEC0, symSize: 0x40 }
  - { offset: 0x2D05F9, size: 0x8, addend: 0x0, symName: __ZN9Steinberg3Vst3mda18DubDelayController14createInstanceEPv, symObjAddr: 0x9F0, symBinAddr: 0x3EF00, symSize: 0x40 }
  - { offset: 0x2D06C0, size: 0x8, addend: 0x0, symName: __ZN9Steinberg3Vst3mda13DX10Processor14createInstanceEPv, symObjAddr: 0xA30, symBinAddr: 0x3EF40, symSize: 0x40 }
  - { offset: 0x2D06E6, size: 0x8, addend: 0x0, symName: __ZN9Steinberg3Vst3mda14DX10Controller14createInstanceEPv, symObjAddr: 0xA70, symBinAddr: 0x3EF80, symSize: 0x40 }
  - { offset: 0x2D0716, size: 0x8, addend: 0x0, symName: __ZN9Steinberg3Vst3mda17DynamicsProcessor14createInstanceEPv, symObjAddr: 0xAB0, symBinAddr: 0x3EFC0, symSize: 0x40 }
  - { offset: 0x2D073C, size: 0x8, addend: 0x0, symName: __ZN9Steinberg3Vst3mda18DynamicsController14createInstanceEPv, symObjAddr: 0xAF0, symBinAddr: 0x3F000, symSize: 0x40 }
  - { offset: 0x2D07D6, size: 0x8, addend: 0x0, symName: __ZN9Steinberg3Vst3mda15EPianoProcessor14createInstanceEPv, symObjAddr: 0xB30, symBinAddr: 0x3F040, symSize: 0x40 }
  - { offset: 0x2D07FC, size: 0x8, addend: 0x0, symName: __ZN9Steinberg3Vst3mda16EPianoController14createInstanceEPv, symObjAddr: 0xB70, symBinAddr: 0x3F080, symSize: 0x40 }
  - { offset: 0x2D082C, size: 0x8, addend: 0x0, symName: __ZN9Steinberg3Vst3mda14ImageProcessor14createInstanceEPv, symObjAddr: 0xBB0, symBinAddr: 0x3F0C0, symSize: 0x40 }
  - { offset: 0x2D0852, size: 0x8, addend: 0x0, symName: __ZN9Steinberg3Vst3mda15ImageController14createInstanceEPv, symObjAddr: 0xBF0, symBinAddr: 0x3F100, symSize: 0x40 }
  - { offset: 0x2D08E1, size: 0x8, addend: 0x0, symName: __ZN9Steinberg3Vst3mda13JX10Processor14createInstanceEPv, symObjAddr: 0xC30, symBinAddr: 0x3F140, symSize: 0x40 }
  - { offset: 0x2D0907, size: 0x8, addend: 0x0, symName: __ZN9Steinberg3Vst3mda14JX10Controller14createInstanceEPv, symObjAddr: 0xC70, symBinAddr: 0x3F180, symSize: 0x40 }
  - { offset: 0x2D0937, size: 0x8, addend: 0x0, symName: __ZN9Steinberg3Vst3mda15LeslieProcessor14createInstanceEPv, symObjAddr: 0xCB0, symBinAddr: 0x3F1C0, symSize: 0x40 }
  - { offset: 0x2D095D, size: 0x8, addend: 0x0, symName: __ZN9Steinberg3Vst3mda16LeslieController14createInstanceEPv, symObjAddr: 0xCF0, symBinAddr: 0x3F200, symSize: 0x40 }
  - { offset: 0x2D098D, size: 0x8, addend: 0x0, symName: __ZN9Steinberg3Vst3mda16LimiterProcessor14createInstanceEPv, symObjAddr: 0xD30, symBinAddr: 0x3F240, symSize: 0x40 }
  - { offset: 0x2D09B3, size: 0x8, addend: 0x0, symName: __ZN9Steinberg3Vst3mda17LimiterController14createInstanceEPv, symObjAddr: 0xD70, symBinAddr: 0x3F280, symSize: 0x40 }
  - { offset: 0x2D09E3, size: 0x8, addend: 0x0, symName: __ZN9Steinberg3Vst3mda17LoudnessProcessor14createInstanceEPv, symObjAddr: 0xDB0, symBinAddr: 0x3F2C0, symSize: 0x40 }
  - { offset: 0x2D0A09, size: 0x8, addend: 0x0, symName: __ZN9Steinberg3Vst3mda18LoudnessController14createInstanceEPv, symObjAddr: 0xDF0, symBinAddr: 0x3F300, symSize: 0x40 }
  - { offset: 0x2D0A39, size: 0x8, addend: 0x0, symName: __ZN9Steinberg3Vst3mda18MultiBandProcessor14createInstanceEPv, symObjAddr: 0xE30, symBinAddr: 0x3F340, symSize: 0x40 }
  - { offset: 0x2D0A5F, size: 0x8, addend: 0x0, symName: __ZN9Steinberg3Vst3mda19MultiBandController14createInstanceEPv, symObjAddr: 0xE70, symBinAddr: 0x3F380, symSize: 0x40 }
  - { offset: 0x2D0A8F, size: 0x8, addend: 0x0, symName: __ZN9Steinberg3Vst3mda18OverdriveProcessor14createInstanceEPv, symObjAddr: 0xEB0, symBinAddr: 0x3F3C0, symSize: 0x40 }
  - { offset: 0x2D0AB5, size: 0x8, addend: 0x0, symName: __ZN9Steinberg3Vst3mda19OverdriveController14createInstanceEPv, symObjAddr: 0xEF0, symBinAddr: 0x3F400, symSize: 0x40 }
  - { offset: 0x2D0B39, size: 0x8, addend: 0x0, symName: __ZN9Steinberg3Vst3mda14PianoProcessor14createInstanceEPv, symObjAddr: 0xF30, symBinAddr: 0x3F440, symSize: 0x40 }
  - { offset: 0x2D0B5F, size: 0x8, addend: 0x0, symName: __ZN9Steinberg3Vst3mda15PianoController14createInstanceEPv, symObjAddr: 0xF70, symBinAddr: 0x3F480, symSize: 0x40 }
  - { offset: 0x2D0B8F, size: 0x8, addend: 0x0, symName: __ZN9Steinberg3Vst3mda17RePsychoProcessor14createInstanceEPv, symObjAddr: 0xFB0, symBinAddr: 0x3F4C0, symSize: 0x40 }
  - { offset: 0x2D0BB5, size: 0x8, addend: 0x0, symName: __ZN9Steinberg3Vst3mda18RePsychoController14createInstanceEPv, symObjAddr: 0xFF0, symBinAddr: 0x3F500, symSize: 0x40 }
  - { offset: 0x2D0BE5, size: 0x8, addend: 0x0, symName: __ZN9Steinberg3Vst3mda18RezFilterProcessor14createInstanceEPv, symObjAddr: 0x1030, symBinAddr: 0x3F540, symSize: 0x40 }
  - { offset: 0x2D0C0B, size: 0x8, addend: 0x0, symName: __ZN9Steinberg3Vst3mda19RezFilterController14createInstanceEPv, symObjAddr: 0x1070, symBinAddr: 0x3F580, symSize: 0x40 }
  - { offset: 0x2D0C3B, size: 0x8, addend: 0x0, symName: __ZN9Steinberg3Vst3mda16RingModProcessor14createInstanceEPv, symObjAddr: 0x10B0, symBinAddr: 0x3F5C0, symSize: 0x40 }
  - { offset: 0x2D0C61, size: 0x8, addend: 0x0, symName: __ZN9Steinberg3Vst3mda17RingModController14createInstanceEPv, symObjAddr: 0x10F0, symBinAddr: 0x3F600, symSize: 0x40 }
  - { offset: 0x2D0C91, size: 0x8, addend: 0x0, symName: __ZN9Steinberg3Vst3mda17RoundPanProcessor14createInstanceEPv, symObjAddr: 0x1130, symBinAddr: 0x3F640, symSize: 0x40 }
  - { offset: 0x2D0CB7, size: 0x8, addend: 0x0, symName: __ZN9Steinberg3Vst3mda18RoundPanController14createInstanceEPv, symObjAddr: 0x1170, symBinAddr: 0x3F680, symSize: 0x40 }
  - { offset: 0x2D0CE7, size: 0x8, addend: 0x0, symName: __ZN9Steinberg3Vst3mda16ShepardProcessor14createInstanceEPv, symObjAddr: 0x11B0, symBinAddr: 0x3F6C0, symSize: 0x40 }
  - { offset: 0x2D0D0D, size: 0x8, addend: 0x0, symName: __ZN9Steinberg3Vst3mda17ShepardController14createInstanceEPv, symObjAddr: 0x11F0, symBinAddr: 0x3F700, symSize: 0x40 }
  - { offset: 0x2D0D3D, size: 0x8, addend: 0x0, symName: __ZN9Steinberg3Vst3mda17SplitterProcessor14createInstanceEPv, symObjAddr: 0x1230, symBinAddr: 0x3F740, symSize: 0x40 }
  - { offset: 0x2D0D63, size: 0x8, addend: 0x0, symName: __ZN9Steinberg3Vst3mda18SplitterController14createInstanceEPv, symObjAddr: 0x1270, symBinAddr: 0x3F780, symSize: 0x40 }
  - { offset: 0x2D0D93, size: 0x8, addend: 0x0, symName: __ZN9Steinberg3Vst3mda15StereoProcessor14createInstanceEPv, symObjAddr: 0x12B0, symBinAddr: 0x3F7C0, symSize: 0x40 }
  - { offset: 0x2D0DB9, size: 0x8, addend: 0x0, symName: __ZN9Steinberg3Vst3mda16StereoController14createInstanceEPv, symObjAddr: 0x12F0, symBinAddr: 0x3F800, symSize: 0x40 }
  - { offset: 0x2D0DE9, size: 0x8, addend: 0x0, symName: __ZN9Steinberg3Vst3mda17SubSynthProcessor14createInstanceEPv, symObjAddr: 0x1330, symBinAddr: 0x3F840, symSize: 0x40 }
  - { offset: 0x2D0E0F, size: 0x8, addend: 0x0, symName: __ZN9Steinberg3Vst3mda18SubSynthController14createInstanceEPv, symObjAddr: 0x1370, symBinAddr: 0x3F880, symSize: 0x40 }
  - { offset: 0x2D0E3F, size: 0x8, addend: 0x0, symName: __ZN9Steinberg3Vst3mda16TalkBoxProcessor14createInstanceEPv, symObjAddr: 0x13B0, symBinAddr: 0x3F8C0, symSize: 0x40 }
  - { offset: 0x2D0E65, size: 0x8, addend: 0x0, symName: __ZN9Steinberg3Vst3mda17TalkBoxController14createInstanceEPv, symObjAddr: 0x13F0, symBinAddr: 0x3F900, symSize: 0x40 }
  - { offset: 0x2D0E95, size: 0x8, addend: 0x0, symName: __ZN9Steinberg3Vst3mda17TestToneProcessor14createInstanceEPv, symObjAddr: 0x1430, symBinAddr: 0x3F940, symSize: 0x40 }
  - { offset: 0x2D0F06, size: 0x8, addend: 0x0, symName: __ZN9Steinberg3Vst3mda18TestToneController14createInstanceEPv, symObjAddr: 0x1470, symBinAddr: 0x3F980, symSize: 0x40 }
  - { offset: 0x2D0F36, size: 0x8, addend: 0x0, symName: __ZN9Steinberg3Vst3mda17ThruZeroProcessor14createInstanceEPv, symObjAddr: 0x14B0, symBinAddr: 0x3F9C0, symSize: 0x40 }
  - { offset: 0x2D0F5C, size: 0x8, addend: 0x0, symName: __ZN9Steinberg3Vst3mda18ThruZeroController14createInstanceEPv, symObjAddr: 0x14F0, symBinAddr: 0x3FA00, symSize: 0x40 }
  - { offset: 0x2D0F8C, size: 0x8, addend: 0x0, symName: __ZN9Steinberg3Vst3mda16TrackerProcessor14createInstanceEPv, symObjAddr: 0x1530, symBinAddr: 0x3FA40, symSize: 0x40 }
  - { offset: 0x2D0FB2, size: 0x8, addend: 0x0, symName: __ZN9Steinberg3Vst3mda17TrackerController14createInstanceEPv, symObjAddr: 0x1570, symBinAddr: 0x3FA80, symSize: 0x40 }
  - { offset: 0x2D1006, size: 0x8, addend: 0x0, symName: __ZN9Steinberg3Vst3mda18SpecMeterProcessor14createInstanceEPv, symObjAddr: 0x15B0, symBinAddr: 0x3FAC0, symSize: 0x40 }
  - { offset: 0x2D102C, size: 0x8, addend: 0x0, symName: __ZN9Steinberg3Vst3mda19SpecMeterController14createInstanceEPv, symObjAddr: 0x15F0, symBinAddr: 0x3FB00, symSize: 0x3B }
  - { offset: 0x2D2EB1, size: 0x8, addend: 0x0, symName: _ghInst, symObjAddr: 0x1A5C0, symBinAddr: 0x279F80, symSize: 0x0 }
  - { offset: 0x2D2EDC, size: 0x8, addend: 0x0, symName: _bundleRefCounter, symObjAddr: 0x1A5C8, symBinAddr: 0x279F88, symSize: 0x0 }
  - { offset: 0x2D2EF9, size: 0x8, addend: 0x0, symName: _moduleHandle, symObjAddr: 0x1A5D0, symBinAddr: 0x279F90, symSize: 0x0 }
  - { offset: 0x2D2F10, size: 0x8, addend: 0x0, symName: _gPath, symObjAddr: 0x1A5E0, symBinAddr: 0x279FA0, symSize: 0x0 }
  - { offset: 0x2D2F41, size: 0x8, addend: 0x0, symName: _gBundleRefs, symObjAddr: 0x1ADE0, symBinAddr: 0x27A7A0, symSize: 0x0 }
  - { offset: 0x2D5A16, size: 0x8, addend: 0x0, symName: __ZNSt3__16vectorIP10__CFBundleNS_9allocatorIS2_EEED1B8ne180100Ev, symObjAddr: 0x0, symBinAddr: 0x3FB40, symSize: 0x20 }
  - { offset: 0x2D5EDE, size: 0x8, addend: 0x0, symName: _bundleEntry, symObjAddr: 0x20, symBinAddr: 0x3FB60, symSize: 0x240 }
  - { offset: 0x2D6424, size: 0x8, addend: 0x0, symName: _bundleExit, symObjAddr: 0x260, symBinAddr: 0x3FDA0, symSize: 0x90 }
  - { offset: 0x2D64CE, size: 0x8, addend: 0x0, symName: __ZNKSt3__16vectorIP10__CFBundleNS_9allocatorIS2_EEE20__throw_length_errorB8ne180100Ev, symObjAddr: 0x2F0, symBinAddr: 0x3FE30, symSize: 0x10 }
  - { offset: 0x2D6523, size: 0x8, addend: 0x0, symName: _bundleExit, symObjAddr: 0x260, symBinAddr: 0x3FDA0, symSize: 0x90 }
...
