---
triple:          'x86_64-apple-darwin'
binary-path:     '/Users/noahlynaugh/Desktop/Coding/Studio_PLND/Digital-Effect-Controller/DEC/VST_Plugin/vst3sdk/build/VST3/Release/remap-paramid.vst3/Contents/MacOS/remap-paramid'
relocations:
  - { offset: 0x44, size: 0x8, addend: 0x0, symName: __ZN9SteinbergL29kTestRemapParamIDProcessorUIDE, symObjAddr: 0x22AA0, symBinAddr: 0x2FEA8, symSize: 0x0 }
  - { offset: 0x365, size: 0x8, addend: 0x0, symName: __ZN9SteinbergL30kTestRemapParamIDControllerUIDE, symObjAddr: 0x22AB8, symBinAddr: 0x2FEC0, symSize: 0x0 }
  - { offset: 0x7468, size: 0x8, addend: 0x0, symName: __ZN9Steinberg3Vst26TestRemapParamIDController20getCompatibleParamIDEPKcjRj, symObjAddr: 0x260, symBinAddr: 0x20F0, symSize: 0x100 }
  - { offset: 0x748D, size: 0x8, addend: 0x0, symName: __ZZN9Steinberg3Vst26TestRemapParamIDController20getCompatibleParamIDEPKcjRjE17AGainProcessorUID, symObjAddr: 0x22AD0, symBinAddr: 0x2FED8, symSize: 0x0 }
  - { offset: 0x754E, size: 0x8, addend: 0x0, symName: __ZN9Steinberg3Vst26TestRemapParamIDController10initializeEPNS_8FUnknownE, symObjAddr: 0x0, symBinAddr: 0x1E90, symSize: 0x80 }
  - { offset: 0x75B2, size: 0x8, addend: 0x0, symName: __ZThn16_N9Steinberg3Vst26TestRemapParamIDController10initializeEPNS_8FUnknownE, symObjAddr: 0x80, symBinAddr: 0x1F10, symSize: 0x80 }
  - { offset: 0x75F7, size: 0x8, addend: 0x0, symName: __ZThn48_N9Steinberg3Vst26TestRemapParamIDController10initializeEPNS_8FUnknownE, symObjAddr: 0x100, symBinAddr: 0x1F90, symSize: 0x80 }
  - { offset: 0x763C, size: 0x8, addend: 0x0, symName: __ZN9Steinberg3Vst26TestRemapParamIDController17setComponentStateEPNS_8IBStreamE, symObjAddr: 0x180, symBinAddr: 0x2010, symSize: 0xD0 }
  - { offset: 0x76CF, size: 0x8, addend: 0x0, symName: __ZThn48_N9Steinberg3Vst26TestRemapParamIDController17setComponentStateEPNS_8IBStreamE, symObjAddr: 0x250, symBinAddr: 0x20E0, symSize: 0x10 }
  - { offset: 0x773E, size: 0x8, addend: 0x0, symName: __ZThn112_N9Steinberg3Vst26TestRemapParamIDController20getCompatibleParamIDEPKcjRj, symObjAddr: 0x360, symBinAddr: 0x21F0, symSize: 0x10 }
  - { offset: 0x77D0, size: 0x8, addend: 0x0, symName: __ZN9Steinberg3Vst26TestRemapParamIDController14queryInterfaceEPKcPPv, symObjAddr: 0x370, symBinAddr: 0x2200, symSize: 0xF0 }
  - { offset: 0x79EE, size: 0x8, addend: 0x0, symName: __ZN9Steinberg3Vst26TestRemapParamIDController6addRefEv, symObjAddr: 0x460, symBinAddr: 0x22F0, symSize: 0x10 }
  - { offset: 0x7A6D, size: 0x8, addend: 0x0, symName: __ZN9Steinberg3Vst26TestRemapParamIDController7releaseEv, symObjAddr: 0x470, symBinAddr: 0x2300, symSize: 0x10 }
  - { offset: 0x7AC4, size: 0x8, addend: 0x0, symName: __ZN9Steinberg7FObject6updateEPNS_8FUnknownEi, symObjAddr: 0x480, symBinAddr: 0x2310, symSize: 0x10 }
  - { offset: 0x7B99, size: 0x8, addend: 0x0, symName: __ZN9Steinberg3Vst26TestRemapParamIDControllerD1Ev, symObjAddr: 0x490, symBinAddr: 0x2320, symSize: 0xA0 }
  - { offset: 0x7C7C, size: 0x8, addend: 0x0, symName: __ZN9Steinberg3Vst26TestRemapParamIDControllerD0Ev, symObjAddr: 0x530, symBinAddr: 0x23C0, symSize: 0xA0 }
  - { offset: 0x7D55, size: 0x8, addend: 0x0, symName: __ZNK9Steinberg3Vst14EditController3isAEv, symObjAddr: 0x5D0, symBinAddr: 0x2460, symSize: 0x10 }
  - { offset: 0x7D78, size: 0x8, addend: 0x0, symName: __ZNK9Steinberg3Vst14EditController3isAEPKc, symObjAddr: 0x5E0, symBinAddr: 0x2470, symSize: 0x10 }
  - { offset: 0x7E3F, size: 0x8, addend: 0x0, symName: __ZNK9Steinberg3Vst14EditController8isTypeOfEPKcb, symObjAddr: 0x5F0, symBinAddr: 0x2480, symSize: 0x70 }
  - { offset: 0x7E85, size: 0x8, addend: 0x0, symName: __ZNK9Steinberg3Vst14EditController8isTypeOfEPKcb, symObjAddr: 0x5F0, symBinAddr: 0x2480, symSize: 0x70 }
  - { offset: 0x7F84, size: 0x8, addend: 0x0, symName: __ZN9Steinberg7FObject10updateDoneEi, symObjAddr: 0x660, symBinAddr: 0x24F0, symSize: 0x10 }
  - { offset: 0x7FB0, size: 0x8, addend: 0x0, symName: __ZN9Steinberg7FObject15isEqualInstanceEPNS_8FUnknownE, symObjAddr: 0x670, symBinAddr: 0x2500, symSize: 0x10 }
  - { offset: 0x7FE0, size: 0x8, addend: 0x0, symName: __ZN9Steinberg3Vst14EditController10createViewEPKc, symObjAddr: 0x680, symBinAddr: 0x2510, symSize: 0x10 }
  - { offset: 0x800C, size: 0x8, addend: 0x0, symName: __ZN9Steinberg3Vst14EditController11setKnobModeEi, symObjAddr: 0x690, symBinAddr: 0x2520, symSize: 0x20 }
  - { offset: 0x8032, size: 0x8, addend: 0x0, symName: __ZN9Steinberg3Vst14EditController8openHelpEh, symObjAddr: 0x6B0, symBinAddr: 0x2540, symSize: 0x10 }
  - { offset: 0x805E, size: 0x8, addend: 0x0, symName: __ZN9Steinberg3Vst14EditController12openAboutBoxEh, symObjAddr: 0x6C0, symBinAddr: 0x2550, symSize: 0x10 }
  - { offset: 0x808A, size: 0x8, addend: 0x0, symName: __ZN9Steinberg3Vst14EditController15editorDestroyedEPNS0_10EditorViewE, symObjAddr: 0x6D0, symBinAddr: 0x2560, symSize: 0x10 }
  - { offset: 0x80B6, size: 0x8, addend: 0x0, symName: __ZN9Steinberg3Vst14EditController14editorAttachedEPNS0_10EditorViewE, symObjAddr: 0x6E0, symBinAddr: 0x2570, symSize: 0x10 }
  - { offset: 0x80E2, size: 0x8, addend: 0x0, symName: __ZN9Steinberg3Vst14EditController13editorRemovedEPNS0_10EditorViewE, symObjAddr: 0x6F0, symBinAddr: 0x2580, symSize: 0x10 }
  - { offset: 0x810E, size: 0x8, addend: 0x0, symName: __ZN9Steinberg3Vst14EditController18getParameterObjectEj, symObjAddr: 0x700, symBinAddr: 0x2590, symSize: 0x10 }
  - { offset: 0x8140, size: 0x8, addend: 0x0, symName: __ZThn16_N9Steinberg3Vst26TestRemapParamIDController14queryInterfaceEPKcPPv, symObjAddr: 0x710, symBinAddr: 0x25A0, symSize: 0x10 }
  - { offset: 0x8186, size: 0x8, addend: 0x0, symName: __ZThn16_N9Steinberg3Vst26TestRemapParamIDController6addRefEv, symObjAddr: 0x720, symBinAddr: 0x25B0, symSize: 0x10 }
  - { offset: 0x8203, size: 0x8, addend: 0x0, symName: __ZThn16_N9Steinberg3Vst26TestRemapParamIDController7releaseEv, symObjAddr: 0x730, symBinAddr: 0x25C0, symSize: 0x10 }
  - { offset: 0x826C, size: 0x8, addend: 0x0, symName: __ZThn24_N9Steinberg3Vst26TestRemapParamIDController14queryInterfaceEPKcPPv, symObjAddr: 0x740, symBinAddr: 0x25D0, symSize: 0x10 }
  - { offset: 0x829E, size: 0x8, addend: 0x0, symName: __ZThn24_N9Steinberg3Vst26TestRemapParamIDController6addRefEv, symObjAddr: 0x750, symBinAddr: 0x25E0, symSize: 0x10 }
  - { offset: 0x8307, size: 0x8, addend: 0x0, symName: __ZThn24_N9Steinberg3Vst26TestRemapParamIDController7releaseEv, symObjAddr: 0x760, symBinAddr: 0x25F0, symSize: 0x10 }
  - { offset: 0x8370, size: 0x8, addend: 0x0, symName: __ZThn48_N9Steinberg3Vst26TestRemapParamIDController14queryInterfaceEPKcPPv, symObjAddr: 0x770, symBinAddr: 0x2600, symSize: 0x10 }
  - { offset: 0x83A2, size: 0x8, addend: 0x0, symName: __ZThn48_N9Steinberg3Vst26TestRemapParamIDController6addRefEv, symObjAddr: 0x780, symBinAddr: 0x2610, symSize: 0x10 }
  - { offset: 0x840B, size: 0x8, addend: 0x0, symName: __ZThn48_N9Steinberg3Vst26TestRemapParamIDController7releaseEv, symObjAddr: 0x790, symBinAddr: 0x2620, symSize: 0x10 }
  - { offset: 0x8474, size: 0x8, addend: 0x0, symName: __ZThn48_N9Steinberg3Vst14EditController10createViewEPKc, symObjAddr: 0x7A0, symBinAddr: 0x2630, symSize: 0x10 }
  - { offset: 0x8489, size: 0x8, addend: 0x0, symName: __ZThn56_N9Steinberg3Vst26TestRemapParamIDController14queryInterfaceEPKcPPv, symObjAddr: 0x7B0, symBinAddr: 0x2640, symSize: 0x10 }
  - { offset: 0x84BB, size: 0x8, addend: 0x0, symName: __ZThn56_N9Steinberg3Vst26TestRemapParamIDController6addRefEv, symObjAddr: 0x7C0, symBinAddr: 0x2650, symSize: 0x10 }
  - { offset: 0x8524, size: 0x8, addend: 0x0, symName: __ZThn56_N9Steinberg3Vst26TestRemapParamIDController7releaseEv, symObjAddr: 0x7D0, symBinAddr: 0x2660, symSize: 0x10 }
  - { offset: 0x85AC, size: 0x8, addend: 0x0, symName: __ZThn56_N9Steinberg3Vst14EditController11setKnobModeEi, symObjAddr: 0x7E0, symBinAddr: 0x2670, symSize: 0x20 }
  - { offset: 0x85E6, size: 0x8, addend: 0x0, symName: __ZThn56_N9Steinberg3Vst14EditController8openHelpEh, symObjAddr: 0x800, symBinAddr: 0x2690, symSize: 0x10 }
  - { offset: 0x85FB, size: 0x8, addend: 0x0, symName: __ZThn56_N9Steinberg3Vst14EditController12openAboutBoxEh, symObjAddr: 0x810, symBinAddr: 0x26A0, symSize: 0x10 }
  - { offset: 0x8610, size: 0x8, addend: 0x0, symName: __ZThn112_N9Steinberg3Vst26TestRemapParamIDController14queryInterfaceEPKcPPv, symObjAddr: 0x820, symBinAddr: 0x26B0, symSize: 0x10 }
  - { offset: 0x8642, size: 0x8, addend: 0x0, symName: __ZThn112_N9Steinberg3Vst26TestRemapParamIDController6addRefEv, symObjAddr: 0x830, symBinAddr: 0x26C0, symSize: 0x10 }
  - { offset: 0x86AB, size: 0x8, addend: 0x0, symName: __ZThn112_N9Steinberg3Vst26TestRemapParamIDController7releaseEv, symObjAddr: 0x840, symBinAddr: 0x26D0, symSize: 0x10 }
  - { offset: 0xAAA3, size: 0x8, addend: 0x0, symName: __ZN9SteinbergL29kTestRemapParamIDProcessorUIDE, symObjAddr: 0x2FC70, symBinAddr: 0x2FEF8, symSize: 0x0 }
  - { offset: 0xAABC, size: 0x8, addend: 0x0, symName: __ZN9SteinbergL30kTestRemapParamIDControllerUIDE, symObjAddr: 0x2FC88, symBinAddr: 0x2FF10, symSize: 0x0 }
  - { offset: 0xC2B0, size: 0x8, addend: 0x0, symName: _GetPluginFactory, symObjAddr: 0x0, symBinAddr: 0x2740, symSize: 0x410 }
  - { offset: 0xC2D5, size: 0x8, addend: 0x0, symName: __ZZ16GetPluginFactoryE11factoryInfo, symObjAddr: 0xE98, symBinAddr: 0x2FCD8, symSize: 0x0 }
  - { offset: 0xC2EA, size: 0x8, addend: 0x0, symName: __ZZ16GetPluginFactoryE14componentClass, symObjAddr: 0x2FCA0, symBinAddr: 0x2FF28, symSize: 0x0 }
  - { offset: 0xC2FF, size: 0x8, addend: 0x0, symName: __ZZ16GetPluginFactoryE14componentClass_0, symObjAddr: 0x2FE60, symBinAddr: 0x300E8, symSize: 0x0 }
  - { offset: 0xC5AD, size: 0x8, addend: 0x0, symName: __ZN9Steinberg11PClassInfo2C2EPKciS2_S2_iS2_S2_S2_S2_, symObjAddr: 0x4D0, symBinAddr: 0x2C10, symSize: 0x92B }
  - { offset: 0x10815, size: 0x8, addend: 0x0, symName: __ZN9Steinberg3Vst25TestRemapParamIDProcessor14createInstanceEPv, symObjAddr: 0x410, symBinAddr: 0x2B50, symSize: 0x40 }
  - { offset: 0x1086B, size: 0x8, addend: 0x0, symName: __ZN9Steinberg3Vst26TestRemapParamIDController14createInstanceEPv, symObjAddr: 0x450, symBinAddr: 0x2B90, symSize: 0x80 }
  - { offset: 0x126C6, size: 0x8, addend: 0x0, symName: __ZN9SteinbergL29kTestRemapParamIDProcessorUIDE, symObjAddr: 0x27140, symBinAddr: 0x302A8, symSize: 0x0 }
  - { offset: 0x126DF, size: 0x8, addend: 0x0, symName: __ZN9SteinbergL30kTestRemapParamIDControllerUIDE, symObjAddr: 0x27158, symBinAddr: 0x302C0, symSize: 0x0 }
  - { offset: 0x1759E, size: 0x8, addend: 0x0, symName: __ZN9Steinberg3Vst25TestRemapParamIDProcessorC2Ev, symObjAddr: 0x0, symBinAddr: 0x3590, symSize: 0x90 }
  - { offset: 0x17615, size: 0x8, addend: 0x0, symName: __ZN9Steinberg3Vst9ComponentD2Ev, symObjAddr: 0xFF0, symBinAddr: 0x4550, symSize: 0x1F0 }
  - { offset: 0x17C6C, size: 0x8, addend: 0x0, symName: __ZN9Steinberg3Vst25TestRemapParamIDProcessorC1Ev, symObjAddr: 0x90, symBinAddr: 0x3620, symSize: 0x90 }
  - { offset: 0x17D02, size: 0x8, addend: 0x0, symName: __ZN9Steinberg3Vst25TestRemapParamIDProcessorD2Ev, symObjAddr: 0x120, symBinAddr: 0x36B0, symSize: 0x10 }
  - { offset: 0x17D6C, size: 0x8, addend: 0x0, symName: __ZN9Steinberg3Vst25TestRemapParamIDProcessorD1Ev, symObjAddr: 0x130, symBinAddr: 0x36C0, symSize: 0x10 }
  - { offset: 0x17DF3, size: 0x8, addend: 0x0, symName: __ZN9Steinberg3Vst25TestRemapParamIDProcessorD0Ev, symObjAddr: 0x140, symBinAddr: 0x36D0, symSize: 0x20 }
  - { offset: 0x17E87, size: 0x8, addend: 0x0, symName: __ZN9Steinberg3Vst25TestRemapParamIDProcessor10initializeEPNS_8FUnknownE, symObjAddr: 0x160, symBinAddr: 0x36F0, symSize: 0x60 }
  - { offset: 0x17EE6, size: 0x8, addend: 0x0, symName: __ZThn16_N9Steinberg3Vst25TestRemapParamIDProcessor10initializeEPNS_8FUnknownE, symObjAddr: 0x1C0, symBinAddr: 0x3750, symSize: 0x60 }
  - { offset: 0x17F29, size: 0x8, addend: 0x0, symName: __ZThn48_N9Steinberg3Vst25TestRemapParamIDProcessor10initializeEPNS_8FUnknownE, symObjAddr: 0x220, symBinAddr: 0x37B0, symSize: 0x60 }
  - { offset: 0x180C2, size: 0x8, addend: 0x0, symName: __ZN9Steinberg3Vst25TestRemapParamIDProcessor7processERNS0_11ProcessDataE, symObjAddr: 0x280, symBinAddr: 0x3810, symSize: 0x680 }
  - { offset: 0x1840B, size: 0x8, addend: 0x0, symName: __ZThn272_N9Steinberg3Vst25TestRemapParamIDProcessor7processERNS0_11ProcessDataE, symObjAddr: 0x900, symBinAddr: 0x3E90, symSize: 0x20 }
  - { offset: 0x18436, size: 0x8, addend: 0x0, symName: __ZN9Steinberg3Vst25TestRemapParamIDProcessor18setBusArrangementsEPyiS2_i, symObjAddr: 0x920, symBinAddr: 0x3EB0, symSize: 0x90 }
  - { offset: 0x18505, size: 0x8, addend: 0x0, symName: __ZThn272_N9Steinberg3Vst25TestRemapParamIDProcessor18setBusArrangementsEPyiS2_i, symObjAddr: 0x9B0, symBinAddr: 0x3F40, symSize: 0xA0 }
  - { offset: 0x1858F, size: 0x8, addend: 0x0, symName: __ZN9Steinberg3Vst25TestRemapParamIDProcessor20canProcessSampleSizeEi, symObjAddr: 0xA50, symBinAddr: 0x3FE0, symSize: 0x10 }
  - { offset: 0x185D5, size: 0x8, addend: 0x0, symName: __ZThn272_N9Steinberg3Vst25TestRemapParamIDProcessor20canProcessSampleSizeEi, symObjAddr: 0xA60, symBinAddr: 0x3FF0, symSize: 0x10 }
  - { offset: 0x18606, size: 0x8, addend: 0x0, symName: __ZN9Steinberg3Vst25TestRemapParamIDProcessor8setStateEPNS_8IBStreamE, symObjAddr: 0xA70, symBinAddr: 0x4000, symSize: 0xA0 }
  - { offset: 0x186A5, size: 0x8, addend: 0x0, symName: __ZThn48_N9Steinberg3Vst25TestRemapParamIDProcessor8setStateEPNS_8IBStreamE, symObjAddr: 0xB10, symBinAddr: 0x40A0, symSize: 0xA0 }
  - { offset: 0x186FB, size: 0x8, addend: 0x0, symName: __ZN9Steinberg3Vst25TestRemapParamIDProcessor8getStateEPNS_8IBStreamE, symObjAddr: 0xBB0, symBinAddr: 0x4140, symSize: 0x60 }
  - { offset: 0x1875E, size: 0x8, addend: 0x0, symName: __ZThn48_N9Steinberg3Vst25TestRemapParamIDProcessor8getStateEPNS_8IBStreamE, symObjAddr: 0xC10, symBinAddr: 0x41A0, symSize: 0x60 }
  - { offset: 0x187FC, size: 0x8, addend: 0x0, symName: __ZN9Steinberg3Vst11AudioEffect14queryInterfaceEPKcPPv, symObjAddr: 0xC70, symBinAddr: 0x4200, symSize: 0xF0 }
  - { offset: 0x18A1A, size: 0x8, addend: 0x0, symName: __ZN9Steinberg3Vst11AudioEffect6addRefEv, symObjAddr: 0xD60, symBinAddr: 0x42F0, symSize: 0x10 }
  - { offset: 0x18A99, size: 0x8, addend: 0x0, symName: __ZN9Steinberg3Vst11AudioEffect7releaseEv, symObjAddr: 0xD70, symBinAddr: 0x4300, symSize: 0x10 }
  - { offset: 0x18AF0, size: 0x8, addend: 0x0, symName: __ZNK9Steinberg3Vst11AudioEffect3isAEv, symObjAddr: 0xD90, symBinAddr: 0x4310, symSize: 0x10 }
  - { offset: 0x18B13, size: 0x8, addend: 0x0, symName: __ZNK9Steinberg3Vst11AudioEffect3isAEPKc, symObjAddr: 0xDA0, symBinAddr: 0x4320, symSize: 0x10 }
  - { offset: 0x18C09, size: 0x8, addend: 0x0, symName: __ZNK9Steinberg3Vst11AudioEffect8isTypeOfEPKcb, symObjAddr: 0xDB0, symBinAddr: 0x4330, symSize: 0x90 }
  - { offset: 0x18DAB, size: 0x8, addend: 0x0, symName: __ZN9Steinberg3Vst11AudioEffect17getLatencySamplesEv, symObjAddr: 0xE60, symBinAddr: 0x43C0, symSize: 0x10 }
  - { offset: 0x18DCE, size: 0x8, addend: 0x0, symName: __ZN9Steinberg3Vst11AudioEffect14getTailSamplesEv, symObjAddr: 0xE70, symBinAddr: 0x43D0, symSize: 0x10 }
  - { offset: 0x18DF1, size: 0x8, addend: 0x0, symName: __ZThn16_N9Steinberg3Vst11AudioEffect14queryInterfaceEPKcPPv, symObjAddr: 0xE80, symBinAddr: 0x43E0, symSize: 0x10 }
  - { offset: 0x18E37, size: 0x8, addend: 0x0, symName: __ZThn16_N9Steinberg3Vst11AudioEffect6addRefEv, symObjAddr: 0xE90, symBinAddr: 0x43F0, symSize: 0x10 }
  - { offset: 0x18EB4, size: 0x8, addend: 0x0, symName: __ZThn16_N9Steinberg3Vst11AudioEffect7releaseEv, symObjAddr: 0xEA0, symBinAddr: 0x4400, symSize: 0x10 }
  - { offset: 0x18F1D, size: 0x8, addend: 0x0, symName: __ZThn24_N9Steinberg3Vst11AudioEffect14queryInterfaceEPKcPPv, symObjAddr: 0xEB0, symBinAddr: 0x4410, symSize: 0x10 }
  - { offset: 0x18F4F, size: 0x8, addend: 0x0, symName: __ZThn24_N9Steinberg3Vst11AudioEffect6addRefEv, symObjAddr: 0xEC0, symBinAddr: 0x4420, symSize: 0x10 }
  - { offset: 0x18FB8, size: 0x8, addend: 0x0, symName: __ZThn24_N9Steinberg3Vst11AudioEffect7releaseEv, symObjAddr: 0xED0, symBinAddr: 0x4430, symSize: 0x10 }
  - { offset: 0x19021, size: 0x8, addend: 0x0, symName: __ZThn48_N9Steinberg3Vst11AudioEffect14queryInterfaceEPKcPPv, symObjAddr: 0xEE0, symBinAddr: 0x4440, symSize: 0x10 }
  - { offset: 0x19053, size: 0x8, addend: 0x0, symName: __ZThn48_N9Steinberg3Vst11AudioEffect6addRefEv, symObjAddr: 0xEF0, symBinAddr: 0x4450, symSize: 0x10 }
  - { offset: 0x190BC, size: 0x8, addend: 0x0, symName: __ZThn48_N9Steinberg3Vst11AudioEffect7releaseEv, symObjAddr: 0xF00, symBinAddr: 0x4460, symSize: 0x10 }
  - { offset: 0x19125, size: 0x8, addend: 0x0, symName: __ZThn272_N9Steinberg3Vst11AudioEffect14queryInterfaceEPKcPPv, symObjAddr: 0xF10, symBinAddr: 0x4470, symSize: 0x20 }
  - { offset: 0x19157, size: 0x8, addend: 0x0, symName: __ZThn272_N9Steinberg3Vst11AudioEffect6addRefEv, symObjAddr: 0xF30, symBinAddr: 0x4490, symSize: 0x20 }
  - { offset: 0x191C0, size: 0x8, addend: 0x0, symName: __ZThn272_N9Steinberg3Vst11AudioEffect7releaseEv, symObjAddr: 0xF50, symBinAddr: 0x44B0, symSize: 0x20 }
  - { offset: 0x19229, size: 0x8, addend: 0x0, symName: __ZThn272_N9Steinberg3Vst11AudioEffect17getLatencySamplesEv, symObjAddr: 0xF70, symBinAddr: 0x44D0, symSize: 0x10 }
  - { offset: 0x1923E, size: 0x8, addend: 0x0, symName: __ZThn272_N9Steinberg3Vst11AudioEffect14getTailSamplesEv, symObjAddr: 0xF80, symBinAddr: 0x44E0, symSize: 0x10 }
  - { offset: 0x19253, size: 0x8, addend: 0x0, symName: __ZThn280_N9Steinberg3Vst11AudioEffect14queryInterfaceEPKcPPv, symObjAddr: 0xF90, symBinAddr: 0x44F0, symSize: 0x20 }
  - { offset: 0x19285, size: 0x8, addend: 0x0, symName: __ZThn280_N9Steinberg3Vst11AudioEffect6addRefEv, symObjAddr: 0xFB0, symBinAddr: 0x4510, symSize: 0x20 }
  - { offset: 0x192EE, size: 0x8, addend: 0x0, symName: __ZThn280_N9Steinberg3Vst11AudioEffect7releaseEv, symObjAddr: 0xFD0, symBinAddr: 0x4530, symSize: 0x20 }
  - { offset: 0x1B2A0, size: 0x8, addend: 0x0, symName: _ghInst, symObjAddr: 0x1A5C0, symBinAddr: 0x30330, symSize: 0x0 }
  - { offset: 0x1B2CB, size: 0x8, addend: 0x0, symName: _bundleRefCounter, symObjAddr: 0x1A5C8, symBinAddr: 0x30338, symSize: 0x0 }
  - { offset: 0x1B2E8, size: 0x8, addend: 0x0, symName: _moduleHandle, symObjAddr: 0x1A5D0, symBinAddr: 0x30340, symSize: 0x0 }
  - { offset: 0x1B2FF, size: 0x8, addend: 0x0, symName: _gPath, symObjAddr: 0x1A5E0, symBinAddr: 0x30350, symSize: 0x0 }
  - { offset: 0x1B331, size: 0x8, addend: 0x0, symName: _gBundleRefs, symObjAddr: 0x1ADE0, symBinAddr: 0x30B50, symSize: 0x0 }
  - { offset: 0x1F414, size: 0x8, addend: 0x0, symName: __ZNSt3__120__throw_length_errorB8ne180100EPKc, symObjAddr: 0x300, symBinAddr: 0x4A90, symSize: 0x50 }
  - { offset: 0x20208, size: 0x8, addend: 0x0, symName: __ZSt28__throw_bad_array_new_lengthB8ne180100v, symObjAddr: 0x380, symBinAddr: 0x4B10, symSize: 0x31 }
  - { offset: 0x20676, size: 0x8, addend: 0x0, symName: __ZNSt3__16vectorIP10__CFBundleNS_9allocatorIS2_EEED1B8ne180100Ev, symObjAddr: 0x0, symBinAddr: 0x4790, symSize: 0x20 }
  - { offset: 0x20B34, size: 0x8, addend: 0x0, symName: _bundleEntry, symObjAddr: 0x20, symBinAddr: 0x47B0, symSize: 0x240 }
  - { offset: 0x2107B, size: 0x8, addend: 0x0, symName: _bundleExit, symObjAddr: 0x260, symBinAddr: 0x49F0, symSize: 0x90 }
  - { offset: 0x21124, size: 0x8, addend: 0x0, symName: __ZNKSt3__16vectorIP10__CFBundleNS_9allocatorIS2_EEE20__throw_length_errorB8ne180100Ev, symObjAddr: 0x2F0, symBinAddr: 0x4A80, symSize: 0x10 }
  - { offset: 0x2114D, size: 0x8, addend: 0x0, symName: __ZNSt3__120__throw_length_errorB8ne180100EPKc, symObjAddr: 0x300, symBinAddr: 0x4A90, symSize: 0x50 }
  - { offset: 0x21178, size: 0x8, addend: 0x0, symName: _bundleExit, symObjAddr: 0x260, symBinAddr: 0x49F0, symSize: 0x90 }
  - { offset: 0x21233, size: 0x8, addend: 0x0, symName: __ZNSt12length_errorC1B8ne180100EPKc, symObjAddr: 0x350, symBinAddr: 0x4AE0, symSize: 0x30 }
...
