---
triple:          'arm64-apple-darwin'
binary-path:     '/Users/noahlynaugh/Desktop/Coding/Studio_PLND/Digital-Effect-Controller/DEC/VST_Plugin/vst3sdk/build/VST3/Release/again-sample-accurate.vst3/Contents/MacOS/again-sample-accurate'
relocations:
  - { offset: 0x4E, size: 0x8, addend: 0x0, symName: __MergedGlobals, symObjAddr: 0x23540, symBinAddr: 0x3C488, symSize: 0x0 }
  - { offset: 0x67, size: 0x8, addend: 0x0, symName: __MergedGlobals, symObjAddr: 0x23540, symBinAddr: 0x3C488, symSize: 0x0 }
  - { offset: 0x10C, size: 0x8, addend: 0x0, symName: __ZN9Steinberg3Vst19AgainSampleAccurate24createControllerInstanceEPv, symObjAddr: 0x2C4, symBinAddr: 0x40AC, symSize: 0x68 }
  - { offset: 0x73FE, size: 0x8, addend: 0x0, symName: __ZN9Steinberg3Vst19AgainSampleAccurate10Controller10initializeEPNS_8FUnknownE, symObjAddr: 0x0, symBinAddr: 0x3DE8, symSize: 0x9C }
  - { offset: 0x7461, size: 0x8, addend: 0x0, symName: __ZThn16_N9Steinberg3Vst19AgainSampleAccurate10Controller10initializeEPNS_8FUnknownE, symObjAddr: 0x9C, symBinAddr: 0x3E84, symSize: 0xA0 }
  - { offset: 0x749E, size: 0x8, addend: 0x0, symName: __ZThn48_N9Steinberg3Vst19AgainSampleAccurate10Controller10initializeEPNS_8FUnknownE, symObjAddr: 0x13C, symBinAddr: 0x3F24, symSize: 0xA0 }
  - { offset: 0x74DB, size: 0x8, addend: 0x0, symName: __ZN9Steinberg3Vst19AgainSampleAccurate10Controller9terminateEv, symObjAddr: 0x1DC, symBinAddr: 0x3FC4, symSize: 0x4 }
  - { offset: 0x750F, size: 0x8, addend: 0x0, symName: __ZThn16_N9Steinberg3Vst19AgainSampleAccurate10Controller9terminateEv, symObjAddr: 0x1E0, symBinAddr: 0x3FC8, symSize: 0x8 }
  - { offset: 0x7540, size: 0x8, addend: 0x0, symName: __ZThn48_N9Steinberg3Vst19AgainSampleAccurate10Controller9terminateEv, symObjAddr: 0x1E8, symBinAddr: 0x3FD0, symSize: 0x8 }
  - { offset: 0x7571, size: 0x8, addend: 0x0, symName: __ZN9Steinberg3Vst19AgainSampleAccurate10Controller17setComponentStateEPNS_8IBStreamE, symObjAddr: 0x1F0, symBinAddr: 0x3FD8, symSize: 0xCC }
  - { offset: 0x761E, size: 0x8, addend: 0x0, symName: __ZThn48_N9Steinberg3Vst19AgainSampleAccurate10Controller17setComponentStateEPNS_8IBStreamE, symObjAddr: 0x2BC, symBinAddr: 0x40A4, symSize: 0x8 }
  - { offset: 0x76AC, size: 0x8, addend: 0x0, symName: __ZN9Steinberg3Vst14EditController14queryInterfaceEPKcPPv, symObjAddr: 0x32C, symBinAddr: 0x4114, symSize: 0xFC }
  - { offset: 0x77FA, size: 0x8, addend: 0x0, symName: __ZN9Steinberg3Vst14EditController6addRefEv, symObjAddr: 0x428, symBinAddr: 0x4210, symSize: 0x4 }
  - { offset: 0x781C, size: 0x8, addend: 0x0, symName: __ZN9Steinberg3Vst14EditController6addRefEv, symObjAddr: 0x428, symBinAddr: 0x4210, symSize: 0x4 }
  - { offset: 0x7849, size: 0x8, addend: 0x0, symName: __ZN9Steinberg3Vst14EditController7releaseEv, symObjAddr: 0x42C, symBinAddr: 0x4214, symSize: 0x4 }
  - { offset: 0x786B, size: 0x8, addend: 0x0, symName: __ZN9Steinberg3Vst14EditController7releaseEv, symObjAddr: 0x42C, symBinAddr: 0x4214, symSize: 0x4 }
  - { offset: 0x7884, size: 0x8, addend: 0x0, symName: __ZN9Steinberg7FObject6updateEPNS_8FUnknownEi, symObjAddr: 0x430, symBinAddr: 0x4218, symSize: 0x4 }
  - { offset: 0x795B, size: 0x8, addend: 0x0, symName: __ZN9Steinberg3Vst19AgainSampleAccurate10ControllerD1Ev, symObjAddr: 0x434, symBinAddr: 0x421C, symSize: 0x88 }
  - { offset: 0x7A40, size: 0x8, addend: 0x0, symName: __ZN9Steinberg3Vst19AgainSampleAccurate10ControllerD0Ev, symObjAddr: 0x4BC, symBinAddr: 0x42A4, symSize: 0x8C }
  - { offset: 0x7B1B, size: 0x8, addend: 0x0, symName: __ZNK9Steinberg3Vst14EditController3isAEv, symObjAddr: 0x548, symBinAddr: 0x4330, symSize: 0xC }
  - { offset: 0x7B40, size: 0x8, addend: 0x0, symName: __ZNK9Steinberg3Vst14EditController3isAEPKc, symObjAddr: 0x554, symBinAddr: 0x433C, symSize: 0x10 }
  - { offset: 0x7C07, size: 0x8, addend: 0x0, symName: __ZNK9Steinberg3Vst14EditController8isTypeOfEPKcb, symObjAddr: 0x564, symBinAddr: 0x434C, symSize: 0x8C }
  - { offset: 0x7C4D, size: 0x8, addend: 0x0, symName: __ZNK9Steinberg3Vst14EditController8isTypeOfEPKcb, symObjAddr: 0x564, symBinAddr: 0x434C, symSize: 0x8C }
  - { offset: 0x7D4C, size: 0x8, addend: 0x0, symName: __ZN9Steinberg7FObject10updateDoneEi, symObjAddr: 0x5F0, symBinAddr: 0x43D8, symSize: 0x4 }
  - { offset: 0x7D78, size: 0x8, addend: 0x0, symName: __ZN9Steinberg7FObject15isEqualInstanceEPNS_8FUnknownE, symObjAddr: 0x5F4, symBinAddr: 0x43DC, symSize: 0xC }
  - { offset: 0x7DAA, size: 0x8, addend: 0x0, symName: __ZN9Steinberg3Vst14EditController10createViewEPKc, symObjAddr: 0x600, symBinAddr: 0x43E8, symSize: 0x8 }
  - { offset: 0x7DD8, size: 0x8, addend: 0x0, symName: __ZN9Steinberg3Vst14EditController11setKnobModeEi, symObjAddr: 0x608, symBinAddr: 0x43F0, symSize: 0x14 }
  - { offset: 0x7E00, size: 0x8, addend: 0x0, symName: __ZN9Steinberg3Vst14EditController8openHelpEh, symObjAddr: 0x61C, symBinAddr: 0x4404, symSize: 0x8 }
  - { offset: 0x7E2E, size: 0x8, addend: 0x0, symName: __ZN9Steinberg3Vst14EditController12openAboutBoxEh, symObjAddr: 0x624, symBinAddr: 0x440C, symSize: 0x8 }
  - { offset: 0x7E5C, size: 0x8, addend: 0x0, symName: __ZN9Steinberg3Vst14EditController15editorDestroyedEPNS0_10EditorViewE, symObjAddr: 0x62C, symBinAddr: 0x4414, symSize: 0x4 }
  - { offset: 0x7E88, size: 0x8, addend: 0x0, symName: __ZN9Steinberg3Vst14EditController14editorAttachedEPNS0_10EditorViewE, symObjAddr: 0x630, symBinAddr: 0x4418, symSize: 0x4 }
  - { offset: 0x7EB4, size: 0x8, addend: 0x0, symName: __ZN9Steinberg3Vst14EditController13editorRemovedEPNS0_10EditorViewE, symObjAddr: 0x634, symBinAddr: 0x441C, symSize: 0x4 }
  - { offset: 0x7EE0, size: 0x8, addend: 0x0, symName: __ZN9Steinberg3Vst14EditController18getParameterObjectEj, symObjAddr: 0x638, symBinAddr: 0x4420, symSize: 0x8 }
  - { offset: 0x7F3C, size: 0x8, addend: 0x0, symName: __ZThn16_N9Steinberg3Vst14EditController14queryInterfaceEPKcPPv, symObjAddr: 0x640, symBinAddr: 0x4428, symSize: 0x148 }
  - { offset: 0x80AC, size: 0x8, addend: 0x0, symName: __ZThn16_N9Steinberg3Vst14EditController6addRefEv, symObjAddr: 0x788, symBinAddr: 0x4570, symSize: 0x8 }
  - { offset: 0x810D, size: 0x8, addend: 0x0, symName: __ZThn16_N9Steinberg3Vst14EditController7releaseEv, symObjAddr: 0x790, symBinAddr: 0x4578, symSize: 0x8 }
  - { offset: 0x815A, size: 0x8, addend: 0x0, symName: __ZThn24_N9Steinberg3Vst14EditController14queryInterfaceEPKcPPv, symObjAddr: 0x798, symBinAddr: 0x4580, symSize: 0x148 }
  - { offset: 0x82B6, size: 0x8, addend: 0x0, symName: __ZThn24_N9Steinberg3Vst14EditController6addRefEv, symObjAddr: 0x8E0, symBinAddr: 0x46C8, symSize: 0x8 }
  - { offset: 0x8303, size: 0x8, addend: 0x0, symName: __ZThn24_N9Steinberg3Vst14EditController7releaseEv, symObjAddr: 0x8E8, symBinAddr: 0x46D0, symSize: 0x8 }
  - { offset: 0x8350, size: 0x8, addend: 0x0, symName: __ZThn48_N9Steinberg3Vst14EditController14queryInterfaceEPKcPPv, symObjAddr: 0x8F0, symBinAddr: 0x46D8, symSize: 0x148 }
  - { offset: 0x84AC, size: 0x8, addend: 0x0, symName: __ZThn48_N9Steinberg3Vst14EditController6addRefEv, symObjAddr: 0xA38, symBinAddr: 0x4820, symSize: 0x8 }
  - { offset: 0x84F9, size: 0x8, addend: 0x0, symName: __ZThn48_N9Steinberg3Vst14EditController7releaseEv, symObjAddr: 0xA40, symBinAddr: 0x4828, symSize: 0x8 }
  - { offset: 0x8546, size: 0x8, addend: 0x0, symName: __ZThn48_N9Steinberg3Vst14EditController10createViewEPKc, symObjAddr: 0xA48, symBinAddr: 0x4830, symSize: 0x8 }
  - { offset: 0x855B, size: 0x8, addend: 0x0, symName: __ZThn56_N9Steinberg3Vst14EditController14queryInterfaceEPKcPPv, symObjAddr: 0xA50, symBinAddr: 0x4838, symSize: 0x148 }
  - { offset: 0x86B7, size: 0x8, addend: 0x0, symName: __ZThn56_N9Steinberg3Vst14EditController6addRefEv, symObjAddr: 0xB98, symBinAddr: 0x4980, symSize: 0x8 }
  - { offset: 0x8704, size: 0x8, addend: 0x0, symName: __ZThn56_N9Steinberg3Vst14EditController7releaseEv, symObjAddr: 0xBA0, symBinAddr: 0x4988, symSize: 0x8 }
  - { offset: 0x8770, size: 0x8, addend: 0x0, symName: __ZThn56_N9Steinberg3Vst14EditController11setKnobModeEi, symObjAddr: 0xBA8, symBinAddr: 0x4990, symSize: 0x14 }
  - { offset: 0x8789, size: 0x8, addend: 0x0, symName: __ZThn56_N9Steinberg3Vst14EditController11setKnobModeEi, symObjAddr: 0xBA8, symBinAddr: 0x4990, symSize: 0x14 }
  - { offset: 0x87AA, size: 0x8, addend: 0x0, symName: __ZThn56_N9Steinberg3Vst14EditController8openHelpEh, symObjAddr: 0xBBC, symBinAddr: 0x49A4, symSize: 0x8 }
  - { offset: 0x87BF, size: 0x8, addend: 0x0, symName: __ZThn56_N9Steinberg3Vst14EditController12openAboutBoxEh, symObjAddr: 0xBC4, symBinAddr: 0x49AC, symSize: 0x8 }
  - { offset: 0xAB2F, size: 0x8, addend: 0x0, symName: __MergedGlobals, symObjAddr: 0xB900, symBinAddr: 0x3C4B8, symSize: 0x0 }
  - { offset: 0xAB4A, size: 0x8, addend: 0x0, symName: __MergedGlobals, symObjAddr: 0xB900, symBinAddr: 0x3C4B8, symSize: 0x0 }
  - { offset: 0xAB6B, size: 0x8, addend: 0x0, symName: __MergedGlobals, symObjAddr: 0xB900, symBinAddr: 0x3C4B8, symSize: 0x0 }
  - { offset: 0xAB86, size: 0x8, addend: 0x0, symName: __MergedGlobals, symObjAddr: 0xB900, symBinAddr: 0x3C4B8, symSize: 0x0 }
  - { offset: 0xAF3B, size: 0x8, addend: 0x0, symName: _GetPluginFactory, symObjAddr: 0x0, symBinAddr: 0x4A24, symSize: 0xAB4 }
  - { offset: 0xAF61, size: 0x8, addend: 0x0, symName: __ZZ16GetPluginFactoryE11factoryInfo, symObjAddr: 0x1128, symBinAddr: 0x3C2B8, symSize: 0x0 }
  - { offset: 0xAF77, size: 0x8, addend: 0x0, symName: __MergedGlobals, symObjAddr: 0xB900, symBinAddr: 0x3C4B8, symSize: 0x0 }
  - { offset: 0xAF90, size: 0x8, addend: 0x0, symName: __MergedGlobals, symObjAddr: 0xB900, symBinAddr: 0x3C4B8, symSize: 0x0 }
  - { offset: 0xAFA9, size: 0x8, addend: 0x0, symName: __MergedGlobals, symObjAddr: 0xB900, symBinAddr: 0x3C4B8, symSize: 0x0 }
  - { offset: 0xAFC2, size: 0x8, addend: 0x0, symName: __MergedGlobals, symObjAddr: 0xB900, symBinAddr: 0x3C4B8, symSize: 0x0 }
  - { offset: 0xAFDB, size: 0x8, addend: 0x0, symName: __MergedGlobals, symObjAddr: 0xB900, symBinAddr: 0x3C4B8, symSize: 0x0 }
  - { offset: 0xB4C3, size: 0x8, addend: 0x0, symName: __ZN9Steinberg11PClassInfo2C2EPKciS2_S2_iS2_S2_S2_S2_, symObjAddr: 0xAB4, symBinAddr: 0x54D8, symSize: 0x574 }
  - { offset: 0xE105, size: 0x8, addend: 0x0, symName: __MergedGlobals, symObjAddr: 0x4B180, symBinAddr: 0x3CDD8, symSize: 0x0 }
  - { offset: 0xE11E, size: 0x8, addend: 0x0, symName: __MergedGlobals, symObjAddr: 0x4B180, symBinAddr: 0x3CDD8, symSize: 0x0 }
  - { offset: 0xE2DB, size: 0x8, addend: 0x0, symName: __ZN9Steinberg3Vst19AgainSampleAccurate23createProcessorInstanceEPv, symObjAddr: 0xE64, symBinAddr: 0x696C, symSize: 0xF0 }
  - { offset: 0x18AB9, size: 0x8, addend: 0x0, symName: __ZNSt3__120__throw_length_errorB8ne180100EPKc, symObjAddr: 0x14EC, symBinAddr: 0x6FD0, symSize: 0x50 }
  - { offset: 0x19951, size: 0x8, addend: 0x0, symName: __ZSt28__throw_bad_array_new_lengthB8ne180100v, symObjAddr: 0x1560, symBinAddr: 0x7044, symSize: 0x28 }
  - { offset: 0x1A370, size: 0x8, addend: 0x0, symName: __ZN9Steinberg3Vst19AgainSampleAccurate9ProcessorC2Ev, symObjAddr: 0x0, symBinAddr: 0x5B08, symSize: 0xCC }
  - { offset: 0x1A55A, size: 0x8, addend: 0x0, symName: __ZN9Steinberg3Vst11RTTransferTINSt3__16vectorINS2_4pairIjdEENS2_9allocatorIS5_EEEENS2_14default_deleteIS8_EEE8clear_uiEv, symObjAddr: 0x324, symBinAddr: 0x5E2C, symSize: 0xBC }
  - { offset: 0x1AC22, size: 0x8, addend: 0x0, symName: __ZN9Steinberg3Vst9ComponentD2Ev, symObjAddr: 0x12FC, symBinAddr: 0x6DF0, symSize: 0x1CC }
  - { offset: 0x1B307, size: 0x8, addend: 0x0, symName: __ZN9Steinberg3Vst19AgainSampleAccurate9ProcessorC1Ev, symObjAddr: 0xCC, symBinAddr: 0x5BD4, symSize: 0xCC }
  - { offset: 0x1B507, size: 0x8, addend: 0x0, symName: __ZN9Steinberg3Vst19AgainSampleAccurate9Processor10initializeEPNS_8FUnknownE, symObjAddr: 0x198, symBinAddr: 0x5CA0, symSize: 0x74 }
  - { offset: 0x1B565, size: 0x8, addend: 0x0, symName: __ZThn16_N9Steinberg3Vst19AgainSampleAccurate9Processor10initializeEPNS_8FUnknownE, symObjAddr: 0x20C, symBinAddr: 0x5D14, symSize: 0x78 }
  - { offset: 0x1B5A2, size: 0x8, addend: 0x0, symName: __ZThn48_N9Steinberg3Vst19AgainSampleAccurate9Processor10initializeEPNS_8FUnknownE, symObjAddr: 0x284, symBinAddr: 0x5D8C, symSize: 0x78 }
  - { offset: 0x1B5DF, size: 0x8, addend: 0x0, symName: __ZN9Steinberg3Vst19AgainSampleAccurate9Processor9terminateEv, symObjAddr: 0x2FC, symBinAddr: 0x5E04, symSize: 0x28 }
  - { offset: 0x1B80B, size: 0x8, addend: 0x0, symName: __ZThn16_N9Steinberg3Vst19AgainSampleAccurate9Processor9terminateEv, symObjAddr: 0x3E0, symBinAddr: 0x5EE8, symSize: 0x28 }
  - { offset: 0x1B84C, size: 0x8, addend: 0x0, symName: __ZThn48_N9Steinberg3Vst19AgainSampleAccurate9Processor9terminateEv, symObjAddr: 0x408, symBinAddr: 0x5F10, symSize: 0x28 }
  - { offset: 0x1BE6C, size: 0x8, addend: 0x0, symName: __ZN9Steinberg3Vst19AgainSampleAccurate9Processor8setStateEPNS_8IBStreamE, symObjAddr: 0x430, symBinAddr: 0x5F38, symSize: 0x29C }
  - { offset: 0x1C9DF, size: 0x8, addend: 0x0, symName: __ZNKSt3__16vectorINS_4pairIjdEENS_9allocatorIS2_EEE20__throw_length_errorB8ne180100Ev, symObjAddr: 0x14D8, symBinAddr: 0x6FBC, symSize: 0x14 }
  - { offset: 0x1CA08, size: 0x8, addend: 0x0, symName: __ZNSt3__120__throw_length_errorB8ne180100EPKc, symObjAddr: 0x14EC, symBinAddr: 0x6FD0, symSize: 0x50 }
  - { offset: 0x1CA12, size: 0x8, addend: 0x0, symName: __ZNSt3__110unique_ptrINS_6vectorINS_4pairIjdEENS_9allocatorIS3_EEEENS_14default_deleteIS6_EEED1B8ne180100Ev, symObjAddr: 0x6CC, symBinAddr: 0x61D4, symSize: 0x44 }
  - { offset: 0x1CBE1, size: 0x8, addend: 0x0, symName: __ZThn48_N9Steinberg3Vst19AgainSampleAccurate9Processor8setStateEPNS_8IBStreamE, symObjAddr: 0x710, symBinAddr: 0x6218, symSize: 0x8 }
  - { offset: 0x1CC21, size: 0x8, addend: 0x0, symName: __ZN9Steinberg3Vst19AgainSampleAccurate9Processor8getStateEPNS_8IBStreamE, symObjAddr: 0x718, symBinAddr: 0x6220, symSize: 0x7C }
  - { offset: 0x1CD2A, size: 0x8, addend: 0x0, symName: __ZThn48_N9Steinberg3Vst19AgainSampleAccurate9Processor8getStateEPNS_8IBStreamE, symObjAddr: 0x794, symBinAddr: 0x629C, symSize: 0x7C }
  - { offset: 0x1CD43, size: 0x8, addend: 0x0, symName: __ZThn48_N9Steinberg3Vst19AgainSampleAccurate9Processor8getStateEPNS_8IBStreamE, symObjAddr: 0x794, symBinAddr: 0x629C, symSize: 0x7C }
  - { offset: 0x1CDF9, size: 0x8, addend: 0x0, symName: __ZN9Steinberg3Vst19AgainSampleAccurate9Processor18setBusArrangementsEPyiS3_i, symObjAddr: 0x810, symBinAddr: 0x6318, symSize: 0xEC }
  - { offset: 0x1CF0B, size: 0x8, addend: 0x0, symName: __ZThn272_N9Steinberg3Vst19AgainSampleAccurate9Processor18setBusArrangementsEPyiS3_i, symObjAddr: 0x8FC, symBinAddr: 0x6404, symSize: 0xE0 }
  - { offset: 0x1CFD3, size: 0x8, addend: 0x0, symName: __ZN9Steinberg3Vst19AgainSampleAccurate9Processor20canProcessSampleSizeEi, symObjAddr: 0x9DC, symBinAddr: 0x64E4, symSize: 0xC }
  - { offset: 0x1D018, size: 0x8, addend: 0x0, symName: __ZThn272_N9Steinberg3Vst19AgainSampleAccurate9Processor20canProcessSampleSizeEi, symObjAddr: 0x9E8, symBinAddr: 0x64F0, symSize: 0xC }
  - { offset: 0x1D031, size: 0x8, addend: 0x0, symName: __ZThn272_N9Steinberg3Vst19AgainSampleAccurate9Processor20canProcessSampleSizeEi, symObjAddr: 0x9E8, symBinAddr: 0x64F0, symSize: 0xC }
  - { offset: 0x1D0CB, size: 0x8, addend: 0x0, symName: __ZN9Steinberg3Vst19AgainSampleAccurate9Processor22handleParameterChangesEPNS0_17IParameterChangesE, symObjAddr: 0x9F4, symBinAddr: 0x64FC, symSize: 0x170 }
  - { offset: 0x1D21D, size: 0x8, addend: 0x0, symName: __ZN9Steinberg3Vst19AgainSampleAccurate9Processor7processERNS0_11ProcessDataE, symObjAddr: 0xB64, symBinAddr: 0x666C, symSize: 0x2E4 }
  - { offset: 0x1DAA9, size: 0x8, addend: 0x0, symName: __ZN9Steinberg3Vst17ProcessDataSlicer7processILNS0_19SymbolicSampleSizesE1EZNS0_19AgainSampleAccurate9Processor7processILS3_1EEEvRNS0_11ProcessDataEEUlS8_E_EEvS8_T0_, symObjAddr: 0x1CE4, symBinAddr: 0x77C8, symSize: 0x24C }
  - { offset: 0x1DCC3, size: 0x8, addend: 0x0, symName: __ZN9Steinberg3Vst17ProcessDataSlicer7processILNS0_19SymbolicSampleSizesE0EZNS0_19AgainSampleAccurate9Processor7processILS3_0EEEvRNS0_11ProcessDataEEUlS8_E_EEvS8_T0_, symObjAddr: 0x1588, symBinAddr: 0x706C, symSize: 0x24C }
  - { offset: 0x1DEDD, size: 0x8, addend: 0x0, symName: __ZThn272_N9Steinberg3Vst19AgainSampleAccurate9Processor7processERNS0_11ProcessDataE, symObjAddr: 0xE48, symBinAddr: 0x6950, symSize: 0x1C }
  - { offset: 0x1DF7A, size: 0x8, addend: 0x0, symName: __ZN9Steinberg3Vst11AudioEffect14queryInterfaceEPKcPPv, symObjAddr: 0xF54, symBinAddr: 0x6A5C, symSize: 0x184 }
  - { offset: 0x1E177, size: 0x8, addend: 0x0, symName: __ZN9Steinberg3Vst11AudioEffect6addRefEv, symObjAddr: 0x10D8, symBinAddr: 0x6BE0, symSize: 0x4 }
  - { offset: 0x1E199, size: 0x8, addend: 0x0, symName: __ZN9Steinberg3Vst11AudioEffect6addRefEv, symObjAddr: 0x10D8, symBinAddr: 0x6BE0, symSize: 0x4 }
  - { offset: 0x1E1B4, size: 0x8, addend: 0x0, symName: __ZN9Steinberg3Vst11AudioEffect6addRefEv, symObjAddr: 0x10D8, symBinAddr: 0x6BE0, symSize: 0x4 }
  - { offset: 0x1E1F6, size: 0x8, addend: 0x0, symName: __ZN9Steinberg3Vst11AudioEffect7releaseEv, symObjAddr: 0x10DC, symBinAddr: 0x6BE4, symSize: 0x4 }
  - { offset: 0x1E218, size: 0x8, addend: 0x0, symName: __ZN9Steinberg3Vst11AudioEffect7releaseEv, symObjAddr: 0x10DC, symBinAddr: 0x6BE4, symSize: 0x4 }
  - { offset: 0x1E233, size: 0x8, addend: 0x0, symName: __ZN9Steinberg3Vst11AudioEffect7releaseEv, symObjAddr: 0x10DC, symBinAddr: 0x6BE4, symSize: 0x4 }
  - { offset: 0x1E267, size: 0x8, addend: 0x0, symName: __ZN9Steinberg3Vst19AgainSampleAccurate9ProcessorD1Ev, symObjAddr: 0x10E4, symBinAddr: 0x6BE8, symSize: 0x58 }
  - { offset: 0x1E326, size: 0x8, addend: 0x0, symName: __ZN9Steinberg3Vst19AgainSampleAccurate9ProcessorD0Ev, symObjAddr: 0x113C, symBinAddr: 0x6C40, symSize: 0x5C }
  - { offset: 0x1E3E7, size: 0x8, addend: 0x0, symName: __ZNK9Steinberg3Vst11AudioEffect3isAEv, symObjAddr: 0x1198, symBinAddr: 0x6C9C, symSize: 0xC }
  - { offset: 0x1E40C, size: 0x8, addend: 0x0, symName: __ZNK9Steinberg3Vst11AudioEffect3isAEPKc, symObjAddr: 0x11A4, symBinAddr: 0x6CA8, symSize: 0x10 }
  - { offset: 0x1E502, size: 0x8, addend: 0x0, symName: __ZNK9Steinberg3Vst11AudioEffect8isTypeOfEPKcb, symObjAddr: 0x11B4, symBinAddr: 0x6CB8, symSize: 0xA0 }
  - { offset: 0x1E548, size: 0x8, addend: 0x0, symName: __ZNK9Steinberg3Vst11AudioEffect8isTypeOfEPKcb, symObjAddr: 0x11B4, symBinAddr: 0x6CB8, symSize: 0xA0 }
  - { offset: 0x1E6A4, size: 0x8, addend: 0x0, symName: __ZN9Steinberg3Vst11AudioEffect17getLatencySamplesEv, symObjAddr: 0x1264, symBinAddr: 0x6D58, symSize: 0x8 }
  - { offset: 0x1E6C9, size: 0x8, addend: 0x0, symName: __ZN9Steinberg3Vst11AudioEffect14getTailSamplesEv, symObjAddr: 0x126C, symBinAddr: 0x6D60, symSize: 0x8 }
  - { offset: 0x1E6EE, size: 0x8, addend: 0x0, symName: __ZThn16_N9Steinberg3Vst11AudioEffect14queryInterfaceEPKcPPv, symObjAddr: 0x1274, symBinAddr: 0x6D68, symSize: 0x8 }
  - { offset: 0x1E734, size: 0x8, addend: 0x0, symName: __ZThn16_N9Steinberg3Vst11AudioEffect6addRefEv, symObjAddr: 0x127C, symBinAddr: 0x6D70, symSize: 0x8 }
  - { offset: 0x1E7B1, size: 0x8, addend: 0x0, symName: __ZThn16_N9Steinberg3Vst11AudioEffect7releaseEv, symObjAddr: 0x1284, symBinAddr: 0x6D78, symSize: 0x8 }
  - { offset: 0x1E81A, size: 0x8, addend: 0x0, symName: __ZThn24_N9Steinberg3Vst11AudioEffect14queryInterfaceEPKcPPv, symObjAddr: 0x128C, symBinAddr: 0x6D80, symSize: 0x8 }
  - { offset: 0x1E84C, size: 0x8, addend: 0x0, symName: __ZThn24_N9Steinberg3Vst11AudioEffect6addRefEv, symObjAddr: 0x1294, symBinAddr: 0x6D88, symSize: 0x8 }
  - { offset: 0x1E8B5, size: 0x8, addend: 0x0, symName: __ZThn24_N9Steinberg3Vst11AudioEffect7releaseEv, symObjAddr: 0x129C, symBinAddr: 0x6D90, symSize: 0x8 }
  - { offset: 0x1E91E, size: 0x8, addend: 0x0, symName: __ZThn48_N9Steinberg3Vst11AudioEffect14queryInterfaceEPKcPPv, symObjAddr: 0x12A4, symBinAddr: 0x6D98, symSize: 0x8 }
  - { offset: 0x1E950, size: 0x8, addend: 0x0, symName: __ZThn48_N9Steinberg3Vst11AudioEffect6addRefEv, symObjAddr: 0x12AC, symBinAddr: 0x6DA0, symSize: 0x8 }
  - { offset: 0x1E9B9, size: 0x8, addend: 0x0, symName: __ZThn48_N9Steinberg3Vst11AudioEffect7releaseEv, symObjAddr: 0x12B4, symBinAddr: 0x6DA8, symSize: 0x8 }
  - { offset: 0x1EA22, size: 0x8, addend: 0x0, symName: __ZThn272_N9Steinberg3Vst11AudioEffect14queryInterfaceEPKcPPv, symObjAddr: 0x12BC, symBinAddr: 0x6DB0, symSize: 0x8 }
  - { offset: 0x1EA54, size: 0x8, addend: 0x0, symName: __ZThn272_N9Steinberg3Vst11AudioEffect6addRefEv, symObjAddr: 0x12C4, symBinAddr: 0x6DB8, symSize: 0x8 }
  - { offset: 0x1EABD, size: 0x8, addend: 0x0, symName: __ZThn272_N9Steinberg3Vst11AudioEffect7releaseEv, symObjAddr: 0x12CC, symBinAddr: 0x6DC0, symSize: 0x8 }
  - { offset: 0x1EB26, size: 0x8, addend: 0x0, symName: __ZThn272_N9Steinberg3Vst11AudioEffect17getLatencySamplesEv, symObjAddr: 0x12D4, symBinAddr: 0x6DC8, symSize: 0x8 }
  - { offset: 0x1EB3B, size: 0x8, addend: 0x0, symName: __ZThn272_N9Steinberg3Vst11AudioEffect14getTailSamplesEv, symObjAddr: 0x12DC, symBinAddr: 0x6DD0, symSize: 0x8 }
  - { offset: 0x1EB50, size: 0x8, addend: 0x0, symName: __ZThn280_N9Steinberg3Vst11AudioEffect14queryInterfaceEPKcPPv, symObjAddr: 0x12E4, symBinAddr: 0x6DD8, symSize: 0x8 }
  - { offset: 0x1EB82, size: 0x8, addend: 0x0, symName: __ZThn280_N9Steinberg3Vst11AudioEffect6addRefEv, symObjAddr: 0x12EC, symBinAddr: 0x6DE0, symSize: 0x8 }
  - { offset: 0x1EBEB, size: 0x8, addend: 0x0, symName: __ZThn280_N9Steinberg3Vst11AudioEffect7releaseEv, symObjAddr: 0x12F4, symBinAddr: 0x6DE8, symSize: 0x8 }
  - { offset: 0x1EDDE, size: 0x8, addend: 0x0, symName: __ZNSt12length_errorC1B8ne180100EPKc, symObjAddr: 0x153C, symBinAddr: 0x7020, symSize: 0x24 }
  - { offset: 0x1EED7, size: 0x8, addend: 0x0, symName: __ZZN9Steinberg3Vst19AgainSampleAccurate9Processor7processILNS0_19SymbolicSampleSizesE0EEEvRNS0_11ProcessDataEENKUlS6_E_clES6_, symObjAddr: 0x17D4, symBinAddr: 0x72B8, symSize: 0x510 }
  - { offset: 0x1F227, size: 0x8, addend: 0x0, symName: __ZZN9Steinberg3Vst19AgainSampleAccurate9Processor7processILNS0_19SymbolicSampleSizesE1EEEvRNS0_11ProcessDataEENKUlS6_E_clES6_, symObjAddr: 0x1F30, symBinAddr: 0x7A14, symSize: 0x598 }
  - { offset: 0x212BE, size: 0x8, addend: 0x0, symName: __MergedGlobals, symObjAddr: 0x4B140, symBinAddr: 0x3CE08, symSize: 0x0 }
  - { offset: 0x212D7, size: 0x8, addend: 0x0, symName: __MergedGlobals, symObjAddr: 0x4B140, symBinAddr: 0x3CE08, symSize: 0x0 }
  - { offset: 0x214A9, size: 0x8, addend: 0x0, symName: __ZN9Steinberg3Vst8Tutorial23createProcessorInstanceEPv, symObjAddr: 0xBA4, symBinAddr: 0x8BB0, symSize: 0x40 }
  - { offset: 0x2155A, size: 0x8, addend: 0x0, symName: __ZN9Steinberg3Vst8Tutorial24createControllerInstanceEPv, symObjAddr: 0xE38, symBinAddr: 0x8E44, symSize: 0x68 }
  - { offset: 0x294CC, size: 0x8, addend: 0x0, symName: __ZN9Steinberg3Vst8Tutorial8MyEffectC2Ev, symObjAddr: 0x0, symBinAddr: 0x800C, symSize: 0xB4 }
  - { offset: 0x29646, size: 0x8, addend: 0x0, symName: __ZN9Steinberg3Vst11RTTransferTINS0_8Tutorial10StateModelENSt3__114default_deleteIS3_EEED1Ev, symObjAddr: 0xB4, symBinAddr: 0x80C0, symSize: 0x7C }
  - { offset: 0x29FA9, size: 0x8, addend: 0x0, symName: __ZN9Steinberg3Vst8Tutorial8MyEffectC1Ev, symObjAddr: 0x130, symBinAddr: 0x813C, symSize: 0xAC }
  - { offset: 0x2A1AC, size: 0x8, addend: 0x0, symName: __ZN9Steinberg3Vst8Tutorial8MyEffectC1Ev.cold.1, symObjAddr: 0x2908, symBinAddr: 0x32E80, symSize: 0x6C }
  - { offset: 0x2A4F9, size: 0x8, addend: 0x0, symName: __ZN9Steinberg3Vst8Tutorial8MyEffect10initializeEPNS_8FUnknownE, symObjAddr: 0x1DC, symBinAddr: 0x81E8, symSize: 0x74 }
  - { offset: 0x2A557, size: 0x8, addend: 0x0, symName: __ZThn16_N9Steinberg3Vst8Tutorial8MyEffect10initializeEPNS_8FUnknownE, symObjAddr: 0x250, symBinAddr: 0x825C, symSize: 0x78 }
  - { offset: 0x2A594, size: 0x8, addend: 0x0, symName: __ZThn48_N9Steinberg3Vst8Tutorial8MyEffect10initializeEPNS_8FUnknownE, symObjAddr: 0x2C8, symBinAddr: 0x82D4, symSize: 0x78 }
  - { offset: 0x2A5D1, size: 0x8, addend: 0x0, symName: __ZN9Steinberg3Vst8Tutorial8MyEffect9terminateEv, symObjAddr: 0x340, symBinAddr: 0x834C, symSize: 0x80 }
  - { offset: 0x2A968, size: 0x8, addend: 0x0, symName: __ZThn16_N9Steinberg3Vst8Tutorial8MyEffect9terminateEv, symObjAddr: 0x3C0, symBinAddr: 0x83CC, symSize: 0x80 }
  - { offset: 0x2ACF4, size: 0x8, addend: 0x0, symName: __ZThn48_N9Steinberg3Vst8Tutorial8MyEffect9terminateEv, symObjAddr: 0x440, symBinAddr: 0x844C, symSize: 0x80 }
  - { offset: 0x2B11D, size: 0x8, addend: 0x0, symName: __ZN9Steinberg3Vst8Tutorial8MyEffect8setStateEPNS_8IBStreamE, symObjAddr: 0x4C0, symBinAddr: 0x84CC, symSize: 0x134 }
  - { offset: 0x2B6F1, size: 0x8, addend: 0x0, symName: __ZThn48_N9Steinberg3Vst8Tutorial8MyEffect8setStateEPNS_8IBStreamE, symObjAddr: 0x5F4, symBinAddr: 0x8600, symSize: 0x8 }
  - { offset: 0x2B736, size: 0x8, addend: 0x0, symName: __ZN9Steinberg3Vst8Tutorial8MyEffect8getStateEPNS_8IBStreamE, symObjAddr: 0x5FC, symBinAddr: 0x8608, symSize: 0x4C }
  - { offset: 0x2B7BC, size: 0x8, addend: 0x0, symName: __ZThn48_N9Steinberg3Vst8Tutorial8MyEffect8getStateEPNS_8IBStreamE, symObjAddr: 0x648, symBinAddr: 0x8654, symSize: 0x4C }
  - { offset: 0x2B7D5, size: 0x8, addend: 0x0, symName: __ZThn48_N9Steinberg3Vst8Tutorial8MyEffect8getStateEPNS_8IBStreamE, symObjAddr: 0x648, symBinAddr: 0x8654, symSize: 0x4C }
  - { offset: 0x2B840, size: 0x8, addend: 0x0, symName: __ZN9Steinberg3Vst8Tutorial8MyEffect18setBusArrangementsEPyiS3_i, symObjAddr: 0x694, symBinAddr: 0x86A0, symSize: 0xEC }
  - { offset: 0x2B952, size: 0x8, addend: 0x0, symName: __ZThn272_N9Steinberg3Vst8Tutorial8MyEffect18setBusArrangementsEPyiS3_i, symObjAddr: 0x780, symBinAddr: 0x878C, symSize: 0xE0 }
  - { offset: 0x2BA1A, size: 0x8, addend: 0x0, symName: __ZN9Steinberg3Vst8Tutorial8MyEffect20canProcessSampleSizeEi, symObjAddr: 0x860, symBinAddr: 0x886C, symSize: 0xC }
  - { offset: 0x2BA5F, size: 0x8, addend: 0x0, symName: __ZThn272_N9Steinberg3Vst8Tutorial8MyEffect20canProcessSampleSizeEi, symObjAddr: 0x86C, symBinAddr: 0x8878, symSize: 0xC }
  - { offset: 0x2BA78, size: 0x8, addend: 0x0, symName: __ZThn272_N9Steinberg3Vst8Tutorial8MyEffect20canProcessSampleSizeEi, symObjAddr: 0x86C, symBinAddr: 0x8878, symSize: 0xC }
  - { offset: 0x2BB12, size: 0x8, addend: 0x0, symName: __ZN9Steinberg3Vst8Tutorial8MyEffect22handleParameterChangesEPNS0_17IParameterChangesE, symObjAddr: 0x878, symBinAddr: 0x8884, symSize: 0x160 }
  - { offset: 0x2BC70, size: 0x8, addend: 0x0, symName: __ZN9Steinberg3Vst8Tutorial8MyEffect7processERNS0_11ProcessDataE, symObjAddr: 0x9D8, symBinAddr: 0x89E4, symSize: 0x1B0 }
  - { offset: 0x2C37D, size: 0x8, addend: 0x0, symName: __ZN9Steinberg3Vst17ProcessDataSlicer7processILNS0_19SymbolicSampleSizesE1EZNS0_8Tutorial8MyEffect7processILS3_1EEEvRNS0_11ProcessDataEEUlS8_E_EEvS8_T0_, symObjAddr: 0x2354, symBinAddr: 0x9718, symSize: 0x24C }
  - { offset: 0x2C597, size: 0x8, addend: 0x0, symName: __ZN9Steinberg3Vst17ProcessDataSlicer7processILNS0_19SymbolicSampleSizesE0EZNS0_8Tutorial8MyEffect7processILS3_0EEEvRNS0_11ProcessDataEEUlS8_E_EEvS8_T0_, symObjAddr: 0x1D58, symBinAddr: 0x911C, symSize: 0x24C }
  - { offset: 0x2C7B1, size: 0x8, addend: 0x0, symName: __ZThn272_N9Steinberg3Vst8Tutorial8MyEffect7processERNS0_11ProcessDataE, symObjAddr: 0xB88, symBinAddr: 0x8B94, symSize: 0x1C }
  - { offset: 0x2CA48, size: 0x8, addend: 0x0, symName: __ZN9Steinberg3Vst8Tutorial10Controller10initializeEPNS_8FUnknownE, symObjAddr: 0xBE4, symBinAddr: 0x8BF0, symSize: 0x6C }
  - { offset: 0x2CAAD, size: 0x8, addend: 0x0, symName: __ZThn16_N9Steinberg3Vst8Tutorial10Controller10initializeEPNS_8FUnknownE, symObjAddr: 0xC50, symBinAddr: 0x8C5C, symSize: 0x70 }
  - { offset: 0x2CAEA, size: 0x8, addend: 0x0, symName: __ZThn48_N9Steinberg3Vst8Tutorial10Controller10initializeEPNS_8FUnknownE, symObjAddr: 0xCC0, symBinAddr: 0x8CCC, symSize: 0x70 }
  - { offset: 0x2CB27, size: 0x8, addend: 0x0, symName: __ZN9Steinberg3Vst8Tutorial10Controller17setComponentStateEPNS_8IBStreamE, symObjAddr: 0xD30, symBinAddr: 0x8D3C, symSize: 0x84 }
  - { offset: 0x2CBCB, size: 0x8, addend: 0x0, symName: __ZThn48_N9Steinberg3Vst8Tutorial10Controller17setComponentStateEPNS_8IBStreamE, symObjAddr: 0xDB4, symBinAddr: 0x8DC0, symSize: 0x84 }
  - { offset: 0x2CBE5, size: 0x8, addend: 0x0, symName: __ZThn48_N9Steinberg3Vst8Tutorial10Controller17setComponentStateEPNS_8IBStreamE, symObjAddr: 0xDB4, symBinAddr: 0x8DC0, symSize: 0x84 }
  - { offset: 0x2CC78, size: 0x8, addend: 0x0, symName: __ZN9Steinberg3Vst8Tutorial8MyEffectD1Ev, symObjAddr: 0x1030, symBinAddr: 0x8EAC, symSize: 0xAC }
  - { offset: 0x2D09C, size: 0x8, addend: 0x0, symName: __ZN9Steinberg3Vst8Tutorial8MyEffectD0Ev, symObjAddr: 0x10DC, symBinAddr: 0x8F58, symSize: 0xB0 }
  - { offset: 0x2D586, size: 0x8, addend: 0x0, symName: __ZN9Steinberg3Vst8Tutorial10ControllerD1Ev, symObjAddr: 0x13F4, symBinAddr: 0x9008, symSize: 0x88 }
  - { offset: 0x2D66B, size: 0x8, addend: 0x0, symName: __ZN9Steinberg3Vst8Tutorial10ControllerD0Ev, symObjAddr: 0x147C, symBinAddr: 0x9090, symSize: 0x8C }
  - { offset: 0x2D949, size: 0x8, addend: 0x0, symName: __ZZN9Steinberg3Vst8Tutorial8MyEffect7processILNS0_19SymbolicSampleSizesE0EEEvRNS0_11ProcessDataEENKUlS6_E_clES6_, symObjAddr: 0x1FA4, symBinAddr: 0x9368, symSize: 0x3B0 }
  - { offset: 0x2DB53, size: 0x8, addend: 0x0, symName: __ZZN9Steinberg3Vst8Tutorial8MyEffect7processILNS0_19SymbolicSampleSizesE1EEEvRNS0_11ProcessDataEENKUlS6_E_clES6_, symObjAddr: 0x25A0, symBinAddr: 0x9964, symSize: 0x368 }
  - { offset: 0x2DCD3, size: 0x8, addend: 0x0, symName: _OUTLINED_FUNCTION_0, symObjAddr: 0x2974, symBinAddr: 0x9CCC, symSize: 0x10 }
  - { offset: 0x2FAA1, size: 0x8, addend: 0x0, symName: _ghInst, symObjAddr: 0x19DF0, symBinAddr: 0x3CEF0, symSize: 0x0 }
  - { offset: 0x2FACC, size: 0x8, addend: 0x0, symName: _bundleRefCounter, symObjAddr: 0x19DF8, symBinAddr: 0x3CEF8, symSize: 0x0 }
  - { offset: 0x2FAE9, size: 0x8, addend: 0x0, symName: _moduleHandle, symObjAddr: 0x19E00, symBinAddr: 0x3CF00, symSize: 0x0 }
  - { offset: 0x2FB00, size: 0x8, addend: 0x0, symName: _gPath, symObjAddr: 0x19E08, symBinAddr: 0x3CF08, symSize: 0x0 }
  - { offset: 0x2FB32, size: 0x8, addend: 0x0, symName: _gBundleRefs, symObjAddr: 0x1A608, symBinAddr: 0x3D708, symSize: 0x0 }
  - { offset: 0x325A7, size: 0x8, addend: 0x0, symName: __ZNSt3__16vectorIP10__CFBundleNS_9allocatorIS2_EEED1B8ne180100Ev, symObjAddr: 0x0, symBinAddr: 0x9D3C, symSize: 0x30 }
  - { offset: 0x32A37, size: 0x8, addend: 0x0, symName: _bundleEntry, symObjAddr: 0x30, symBinAddr: 0x9D6C, symSize: 0x220 }
  - { offset: 0x32E3F, size: 0x8, addend: 0x0, symName: _bundleExit, symObjAddr: 0x250, symBinAddr: 0x9F8C, symSize: 0x8C }
  - { offset: 0x32F2C, size: 0x8, addend: 0x0, symName: _bundleExit, symObjAddr: 0x250, symBinAddr: 0x9F8C, symSize: 0x8C }
  - { offset: 0x34E62, size: 0x8, addend: 0x0, symName: __ZN9Steinberg3Vst12_GLOBAL__N_122InitStateTransferTestsE, symObjAddr: 0x695C0, symBinAddr: 0x3CE38, symSize: 0x0 }
  - { offset: 0x34E76, size: 0x8, addend: 0x0, symName: __ZN9Steinberg3Vst12_GLOBAL__N_123RaceConditionTestObject10numDeletesE, symObjAddr: 0x695C4, symBinAddr: 0x3CE3C, symSize: 0x0 }
  - { offset: 0x34F35, size: 0x8, addend: 0x0, symName: __ZN9Steinberg3Vst12_GLOBAL__N_122CustomDeleterCallCountE, symObjAddr: 0x695C8, symBinAddr: 0x3CE40, symSize: 0x0 }
  - { offset: 0x3C45C, size: 0x8, addend: 0x0, symName: __ZNSt3__114__thread_proxyB8ne180100INS_5tupleIJNS_10unique_ptrINS_15__thread_structENS_14default_deleteIS3_EEEEZN9Steinberg3Vst12_GLOBAL__N_123RaceConditionTestObject4testEPNS7_11ITestResultEEUlvE_EEEEEPvSF_, symObjAddr: 0xD08, symBinAddr: 0xAC78, symSize: 0x104 }
  - { offset: 0x3F66E, size: 0x8, addend: 0x0, symName: '__ZNSt3__110__function6__funcIN9Steinberg3Vst12_GLOBAL__N_13$_0ENS_9allocatorIS5_EEFvvEED1Ev', symObjAddr: 0x0, symBinAddr: 0xA03C, symSize: 0x4 }
  - { offset: 0x3F698, size: 0x8, addend: 0x0, symName: '__ZNSt3__110__function6__funcIN9Steinberg3Vst12_GLOBAL__N_13$_0ENS_9allocatorIS5_EEFvvEED0Ev', symObjAddr: 0x4, symBinAddr: 0xA040, symSize: 0x4 }
  - { offset: 0x3F774, size: 0x8, addend: 0x0, symName: '__ZNKSt3__110__function6__funcIN9Steinberg3Vst12_GLOBAL__N_13$_0ENS_9allocatorIS5_EEFvvEE7__cloneEv', symObjAddr: 0x8, symBinAddr: 0xA044, symSize: 0x24 }
  - { offset: 0x3F8C3, size: 0x8, addend: 0x0, symName: '__ZNKSt3__110__function6__funcIN9Steinberg3Vst12_GLOBAL__N_13$_0ENS_9allocatorIS5_EEFvvEE7__cloneEPNS0_6__baseIS8_EE', symObjAddr: 0x2C, symBinAddr: 0xA068, symSize: 0x10 }
  - { offset: 0x3F8F9, size: 0x8, addend: 0x0, symName: '__ZNKSt3__110__function6__funcIN9Steinberg3Vst12_GLOBAL__N_13$_0ENS_9allocatorIS5_EEFvvEE7__cloneEPNS0_6__baseIS8_EE', symObjAddr: 0x2C, symBinAddr: 0xA068, symSize: 0x10 }
  - { offset: 0x3F916, size: 0x8, addend: 0x0, symName: '__ZNKSt3__110__function6__funcIN9Steinberg3Vst12_GLOBAL__N_13$_0ENS_9allocatorIS5_EEFvvEE7__cloneEPNS0_6__baseIS8_EE', symObjAddr: 0x2C, symBinAddr: 0xA068, symSize: 0x10 }
  - { offset: 0x3F932, size: 0x8, addend: 0x0, symName: '__ZNSt3__110__function6__funcIN9Steinberg3Vst12_GLOBAL__N_13$_0ENS_9allocatorIS5_EEFvvEE7destroyEv', symObjAddr: 0x3C, symBinAddr: 0xA078, symSize: 0x4 }
  - { offset: 0x3F980, size: 0x8, addend: 0x0, symName: '__ZNSt3__110__function6__funcIN9Steinberg3Vst12_GLOBAL__N_13$_0ENS_9allocatorIS5_EEFvvEE18destroy_deallocateEv', symObjAddr: 0x40, symBinAddr: 0xA07C, symSize: 0x4 }
  - { offset: 0x3F9B6, size: 0x8, addend: 0x0, symName: '__ZNSt3__110__function6__funcIN9Steinberg3Vst12_GLOBAL__N_13$_0ENS_9allocatorIS5_EEFvvEE18destroy_deallocateEv', symObjAddr: 0x40, symBinAddr: 0xA07C, symSize: 0x4 }
  - { offset: 0x3F9D9, size: 0x8, addend: 0x0, symName: '__ZNSt3__110__function6__funcIN9Steinberg3Vst12_GLOBAL__N_13$_0ENS_9allocatorIS5_EEFvvEE18destroy_deallocateEv', symObjAddr: 0x40, symBinAddr: 0xA07C, symSize: 0x4 }
  - { offset: 0x3FA06, size: 0x8, addend: 0x0, symName: '__ZNSt3__110__function6__funcIN9Steinberg3Vst12_GLOBAL__N_13$_0ENS_9allocatorIS5_EEFvvEE18destroy_deallocateEv', symObjAddr: 0x40, symBinAddr: 0xA07C, symSize: 0x4 }
  - { offset: 0x3FA2D, size: 0x8, addend: 0x0, symName: '__ZNSt3__110__function6__funcIN9Steinberg3Vst12_GLOBAL__N_13$_0ENS_9allocatorIS5_EEFvvEE18destroy_deallocateEv', symObjAddr: 0x40, symBinAddr: 0xA07C, symSize: 0x4 }
  - { offset: 0x400C4, size: 0x8, addend: 0x0, symName: '__ZNSt3__110__function6__funcIN9Steinberg3Vst12_GLOBAL__N_13$_0ENS_9allocatorIS5_EEFvvEEclEv', symObjAddr: 0x44, symBinAddr: 0xA080, symSize: 0x1BC }
  - { offset: 0x407AC, size: 0x8, addend: 0x0, symName: '__ZNKSt3__110__function6__funcIN9Steinberg3Vst12_GLOBAL__N_13$_0ENS_9allocatorIS5_EEFvvEE6targetERKSt9type_info', symObjAddr: 0x200, symBinAddr: 0xA23C, symSize: 0x6C }
  - { offset: 0x4085F, size: 0x8, addend: 0x0, symName: '__ZNKSt3__110__function6__funcIN9Steinberg3Vst12_GLOBAL__N_13$_0ENS_9allocatorIS5_EEFvvEE11target_typeEv', symObjAddr: 0x26C, symBinAddr: 0xA2A8, symSize: 0xC }
  - { offset: 0x40883, size: 0x8, addend: 0x0, symName: '__ZNSt3__110__function6__funcIZNK9Steinberg3Vst12_GLOBAL__N_13$_0clEvEUlPNS2_11ITestResultEE_NS_9allocatorIS8_EEFbS7_EED1Ev', symObjAddr: 0x288, symBinAddr: 0xA2B4, symSize: 0x4 }
  - { offset: 0x408AD, size: 0x8, addend: 0x0, symName: '__ZNSt3__110__function6__funcIZNK9Steinberg3Vst12_GLOBAL__N_13$_0clEvEUlPNS2_11ITestResultEE_NS_9allocatorIS8_EEFbS7_EED0Ev', symObjAddr: 0x28C, symBinAddr: 0xA2B8, symSize: 0x4 }
  - { offset: 0x40961, size: 0x8, addend: 0x0, symName: '__ZNKSt3__110__function6__funcIZNK9Steinberg3Vst12_GLOBAL__N_13$_0clEvEUlPNS2_11ITestResultEE_NS_9allocatorIS8_EEFbS7_EE7__cloneEv', symObjAddr: 0x290, symBinAddr: 0xA2BC, symSize: 0x24 }
  - { offset: 0x40AB0, size: 0x8, addend: 0x0, symName: '__ZNKSt3__110__function6__funcIZNK9Steinberg3Vst12_GLOBAL__N_13$_0clEvEUlPNS2_11ITestResultEE_NS_9allocatorIS8_EEFbS7_EE7__cloneEPNS0_6__baseISB_EE', symObjAddr: 0x2B4, symBinAddr: 0xA2E0, symSize: 0x10 }
  - { offset: 0x40AE6, size: 0x8, addend: 0x0, symName: '__ZNKSt3__110__function6__funcIZNK9Steinberg3Vst12_GLOBAL__N_13$_0clEvEUlPNS2_11ITestResultEE_NS_9allocatorIS8_EEFbS7_EE7__cloneEPNS0_6__baseISB_EE', symObjAddr: 0x2B4, symBinAddr: 0xA2E0, symSize: 0x10 }
  - { offset: 0x40B03, size: 0x8, addend: 0x0, symName: '__ZNKSt3__110__function6__funcIZNK9Steinberg3Vst12_GLOBAL__N_13$_0clEvEUlPNS2_11ITestResultEE_NS_9allocatorIS8_EEFbS7_EE7__cloneEPNS0_6__baseISB_EE', symObjAddr: 0x2B4, symBinAddr: 0xA2E0, symSize: 0x10 }
  - { offset: 0x40B1F, size: 0x8, addend: 0x0, symName: '__ZNSt3__110__function6__funcIZNK9Steinberg3Vst12_GLOBAL__N_13$_0clEvEUlPNS2_11ITestResultEE_NS_9allocatorIS8_EEFbS7_EE7destroyEv', symObjAddr: 0x2C4, symBinAddr: 0xA2F0, symSize: 0x4 }
  - { offset: 0x40B6D, size: 0x8, addend: 0x0, symName: '__ZNSt3__110__function6__funcIZNK9Steinberg3Vst12_GLOBAL__N_13$_0clEvEUlPNS2_11ITestResultEE_NS_9allocatorIS8_EEFbS7_EE18destroy_deallocateEv', symObjAddr: 0x2C8, symBinAddr: 0xA2F4, symSize: 0x4 }
  - { offset: 0x40BA3, size: 0x8, addend: 0x0, symName: '__ZNSt3__110__function6__funcIZNK9Steinberg3Vst12_GLOBAL__N_13$_0clEvEUlPNS2_11ITestResultEE_NS_9allocatorIS8_EEFbS7_EE18destroy_deallocateEv', symObjAddr: 0x2C8, symBinAddr: 0xA2F4, symSize: 0x4 }
  - { offset: 0x40BC6, size: 0x8, addend: 0x0, symName: '__ZNSt3__110__function6__funcIZNK9Steinberg3Vst12_GLOBAL__N_13$_0clEvEUlPNS2_11ITestResultEE_NS_9allocatorIS8_EEFbS7_EE18destroy_deallocateEv', symObjAddr: 0x2C8, symBinAddr: 0xA2F4, symSize: 0x4 }
  - { offset: 0x40BF3, size: 0x8, addend: 0x0, symName: '__ZNSt3__110__function6__funcIZNK9Steinberg3Vst12_GLOBAL__N_13$_0clEvEUlPNS2_11ITestResultEE_NS_9allocatorIS8_EEFbS7_EE18destroy_deallocateEv', symObjAddr: 0x2C8, symBinAddr: 0xA2F4, symSize: 0x4 }
  - { offset: 0x40C1A, size: 0x8, addend: 0x0, symName: '__ZNSt3__110__function6__funcIZNK9Steinberg3Vst12_GLOBAL__N_13$_0clEvEUlPNS2_11ITestResultEE_NS_9allocatorIS8_EEFbS7_EE18destroy_deallocateEv', symObjAddr: 0x2C8, symBinAddr: 0xA2F4, symSize: 0x4 }
  - { offset: 0x4148A, size: 0x8, addend: 0x0, symName: '__ZNSt3__110__function6__funcIZNK9Steinberg3Vst12_GLOBAL__N_13$_0clEvEUlPNS2_11ITestResultEE_NS_9allocatorIS8_EEFbS7_EEclEOS7_', symObjAddr: 0x2CC, symBinAddr: 0xA2F8, symSize: 0x2C0 }
  - { offset: 0x430E6, size: 0x8, addend: 0x0, symName: '__ZNKSt3__110__function6__funcIZNK9Steinberg3Vst12_GLOBAL__N_13$_0clEvEUlPNS2_11ITestResultEE_NS_9allocatorIS8_EEFbS7_EE6targetERKSt9type_info', symObjAddr: 0x58C, symBinAddr: 0xA5B8, symSize: 0x6C }
  - { offset: 0x43182, size: 0x8, addend: 0x0, symName: '__ZNKSt3__110__function6__funcIZNK9Steinberg3Vst12_GLOBAL__N_13$_0clEvEUlPNS2_11ITestResultEE_NS_9allocatorIS8_EEFbS7_EE11target_typeEv', symObjAddr: 0x5F8, symBinAddr: 0xA624, symSize: 0xC }
  - { offset: 0x431DB, size: 0x8, addend: 0x0, symName: '__ZNSt3__110__function6__funcIZNK9Steinberg3Vst12_GLOBAL__N_13$_0clEvEUlPNS2_11ITestResultEE0_NS_9allocatorIS8_EEFbS7_EED1Ev', symObjAddr: 0x6C0, symBinAddr: 0xA630, symSize: 0x4 }
  - { offset: 0x43205, size: 0x8, addend: 0x0, symName: '__ZNSt3__110__function6__funcIZNK9Steinberg3Vst12_GLOBAL__N_13$_0clEvEUlPNS2_11ITestResultEE0_NS_9allocatorIS8_EEFbS7_EED0Ev', symObjAddr: 0x6C4, symBinAddr: 0xA634, symSize: 0x4 }
  - { offset: 0x432B9, size: 0x8, addend: 0x0, symName: '__ZNKSt3__110__function6__funcIZNK9Steinberg3Vst12_GLOBAL__N_13$_0clEvEUlPNS2_11ITestResultEE0_NS_9allocatorIS8_EEFbS7_EE7__cloneEv', symObjAddr: 0x6C8, symBinAddr: 0xA638, symSize: 0x24 }
  - { offset: 0x43408, size: 0x8, addend: 0x0, symName: '__ZNKSt3__110__function6__funcIZNK9Steinberg3Vst12_GLOBAL__N_13$_0clEvEUlPNS2_11ITestResultEE0_NS_9allocatorIS8_EEFbS7_EE7__cloneEPNS0_6__baseISB_EE', symObjAddr: 0x6EC, symBinAddr: 0xA65C, symSize: 0x10 }
  - { offset: 0x4343E, size: 0x8, addend: 0x0, symName: '__ZNKSt3__110__function6__funcIZNK9Steinberg3Vst12_GLOBAL__N_13$_0clEvEUlPNS2_11ITestResultEE0_NS_9allocatorIS8_EEFbS7_EE7__cloneEPNS0_6__baseISB_EE', symObjAddr: 0x6EC, symBinAddr: 0xA65C, symSize: 0x10 }
  - { offset: 0x4345B, size: 0x8, addend: 0x0, symName: '__ZNKSt3__110__function6__funcIZNK9Steinberg3Vst12_GLOBAL__N_13$_0clEvEUlPNS2_11ITestResultEE0_NS_9allocatorIS8_EEFbS7_EE7__cloneEPNS0_6__baseISB_EE', symObjAddr: 0x6EC, symBinAddr: 0xA65C, symSize: 0x10 }
  - { offset: 0x43477, size: 0x8, addend: 0x0, symName: '__ZNSt3__110__function6__funcIZNK9Steinberg3Vst12_GLOBAL__N_13$_0clEvEUlPNS2_11ITestResultEE0_NS_9allocatorIS8_EEFbS7_EE7destroyEv', symObjAddr: 0x6FC, symBinAddr: 0xA66C, symSize: 0x4 }
  - { offset: 0x434C5, size: 0x8, addend: 0x0, symName: '__ZNSt3__110__function6__funcIZNK9Steinberg3Vst12_GLOBAL__N_13$_0clEvEUlPNS2_11ITestResultEE0_NS_9allocatorIS8_EEFbS7_EE18destroy_deallocateEv', symObjAddr: 0x700, symBinAddr: 0xA670, symSize: 0x4 }
  - { offset: 0x434FB, size: 0x8, addend: 0x0, symName: '__ZNSt3__110__function6__funcIZNK9Steinberg3Vst12_GLOBAL__N_13$_0clEvEUlPNS2_11ITestResultEE0_NS_9allocatorIS8_EEFbS7_EE18destroy_deallocateEv', symObjAddr: 0x700, symBinAddr: 0xA670, symSize: 0x4 }
  - { offset: 0x4351E, size: 0x8, addend: 0x0, symName: '__ZNSt3__110__function6__funcIZNK9Steinberg3Vst12_GLOBAL__N_13$_0clEvEUlPNS2_11ITestResultEE0_NS_9allocatorIS8_EEFbS7_EE18destroy_deallocateEv', symObjAddr: 0x700, symBinAddr: 0xA670, symSize: 0x4 }
  - { offset: 0x4354B, size: 0x8, addend: 0x0, symName: '__ZNSt3__110__function6__funcIZNK9Steinberg3Vst12_GLOBAL__N_13$_0clEvEUlPNS2_11ITestResultEE0_NS_9allocatorIS8_EEFbS7_EE18destroy_deallocateEv', symObjAddr: 0x700, symBinAddr: 0xA670, symSize: 0x4 }
  - { offset: 0x43572, size: 0x8, addend: 0x0, symName: '__ZNSt3__110__function6__funcIZNK9Steinberg3Vst12_GLOBAL__N_13$_0clEvEUlPNS2_11ITestResultEE0_NS_9allocatorIS8_EEFbS7_EE18destroy_deallocateEv', symObjAddr: 0x700, symBinAddr: 0xA670, symSize: 0x4 }
  - { offset: 0x440C6, size: 0x8, addend: 0x0, symName: '__ZNSt3__110__function6__funcIZNK9Steinberg3Vst12_GLOBAL__N_13$_0clEvEUlPNS2_11ITestResultEE0_NS_9allocatorIS8_EEFbS7_EEclEOS7_', symObjAddr: 0x704, symBinAddr: 0xA674, symSize: 0x58C }
  - { offset: 0x46521, size: 0x8, addend: 0x0, symName: '__ZNKSt3__110__function6__funcIZNK9Steinberg3Vst12_GLOBAL__N_13$_0clEvEUlPNS2_11ITestResultEE0_NS_9allocatorIS8_EEFbS7_EE6targetERKSt9type_info', symObjAddr: 0xC90, symBinAddr: 0xAC00, symSize: 0x6C }
  - { offset: 0x465BD, size: 0x8, addend: 0x0, symName: '__ZNKSt3__110__function6__funcIZNK9Steinberg3Vst12_GLOBAL__N_13$_0clEvEUlPNS2_11ITestResultEE0_NS_9allocatorIS8_EEFbS7_EE11target_typeEv', symObjAddr: 0xCFC, symBinAddr: 0xAC6C, symSize: 0xC }
  - { offset: 0x468D6, size: 0x8, addend: 0x0, symName: __ZNSt3__110unique_ptrINS_5tupleIJNS0_INS_15__thread_structENS_14default_deleteIS2_EEEEZN9Steinberg3Vst12_GLOBAL__N_123RaceConditionTestObject4testEPNS6_11ITestResultEEUlvE_EEENS3_ISD_EEED1B8ne180100Ev, symObjAddr: 0xE0C, symBinAddr: 0xAD7C, symSize: 0x48 }
  - { offset: 0x46A7D, size: 0x8, addend: 0x0, symName: '__ZNSt3__110__function6__funcIZNK9Steinberg3Vst12_GLOBAL__N_13$_0clEvEUlPNS2_11ITestResultEE1_NS_9allocatorIS8_EEFbS7_EED1Ev', symObjAddr: 0xE54, symBinAddr: 0xADC4, symSize: 0x4 }
  - { offset: 0x46AA7, size: 0x8, addend: 0x0, symName: '__ZNSt3__110__function6__funcIZNK9Steinberg3Vst12_GLOBAL__N_13$_0clEvEUlPNS2_11ITestResultEE1_NS_9allocatorIS8_EEFbS7_EED0Ev', symObjAddr: 0xE58, symBinAddr: 0xADC8, symSize: 0x4 }
  - { offset: 0x46B5B, size: 0x8, addend: 0x0, symName: '__ZNKSt3__110__function6__funcIZNK9Steinberg3Vst12_GLOBAL__N_13$_0clEvEUlPNS2_11ITestResultEE1_NS_9allocatorIS8_EEFbS7_EE7__cloneEv', symObjAddr: 0xE5C, symBinAddr: 0xADCC, symSize: 0x24 }
  - { offset: 0x46CAA, size: 0x8, addend: 0x0, symName: '__ZNKSt3__110__function6__funcIZNK9Steinberg3Vst12_GLOBAL__N_13$_0clEvEUlPNS2_11ITestResultEE1_NS_9allocatorIS8_EEFbS7_EE7__cloneEPNS0_6__baseISB_EE', symObjAddr: 0xE80, symBinAddr: 0xADF0, symSize: 0x10 }
  - { offset: 0x46CE0, size: 0x8, addend: 0x0, symName: '__ZNKSt3__110__function6__funcIZNK9Steinberg3Vst12_GLOBAL__N_13$_0clEvEUlPNS2_11ITestResultEE1_NS_9allocatorIS8_EEFbS7_EE7__cloneEPNS0_6__baseISB_EE', symObjAddr: 0xE80, symBinAddr: 0xADF0, symSize: 0x10 }
  - { offset: 0x46CFD, size: 0x8, addend: 0x0, symName: '__ZNKSt3__110__function6__funcIZNK9Steinberg3Vst12_GLOBAL__N_13$_0clEvEUlPNS2_11ITestResultEE1_NS_9allocatorIS8_EEFbS7_EE7__cloneEPNS0_6__baseISB_EE', symObjAddr: 0xE80, symBinAddr: 0xADF0, symSize: 0x10 }
  - { offset: 0x46D19, size: 0x8, addend: 0x0, symName: '__ZNSt3__110__function6__funcIZNK9Steinberg3Vst12_GLOBAL__N_13$_0clEvEUlPNS2_11ITestResultEE1_NS_9allocatorIS8_EEFbS7_EE7destroyEv', symObjAddr: 0xE90, symBinAddr: 0xAE00, symSize: 0x4 }
  - { offset: 0x46D67, size: 0x8, addend: 0x0, symName: '__ZNSt3__110__function6__funcIZNK9Steinberg3Vst12_GLOBAL__N_13$_0clEvEUlPNS2_11ITestResultEE1_NS_9allocatorIS8_EEFbS7_EE18destroy_deallocateEv', symObjAddr: 0xE94, symBinAddr: 0xAE04, symSize: 0x4 }
  - { offset: 0x46D9D, size: 0x8, addend: 0x0, symName: '__ZNSt3__110__function6__funcIZNK9Steinberg3Vst12_GLOBAL__N_13$_0clEvEUlPNS2_11ITestResultEE1_NS_9allocatorIS8_EEFbS7_EE18destroy_deallocateEv', symObjAddr: 0xE94, symBinAddr: 0xAE04, symSize: 0x4 }
  - { offset: 0x46DC0, size: 0x8, addend: 0x0, symName: '__ZNSt3__110__function6__funcIZNK9Steinberg3Vst12_GLOBAL__N_13$_0clEvEUlPNS2_11ITestResultEE1_NS_9allocatorIS8_EEFbS7_EE18destroy_deallocateEv', symObjAddr: 0xE94, symBinAddr: 0xAE04, symSize: 0x4 }
  - { offset: 0x46DED, size: 0x8, addend: 0x0, symName: '__ZNSt3__110__function6__funcIZNK9Steinberg3Vst12_GLOBAL__N_13$_0clEvEUlPNS2_11ITestResultEE1_NS_9allocatorIS8_EEFbS7_EE18destroy_deallocateEv', symObjAddr: 0xE94, symBinAddr: 0xAE04, symSize: 0x4 }
  - { offset: 0x46E14, size: 0x8, addend: 0x0, symName: '__ZNSt3__110__function6__funcIZNK9Steinberg3Vst12_GLOBAL__N_13$_0clEvEUlPNS2_11ITestResultEE1_NS_9allocatorIS8_EEFbS7_EE18destroy_deallocateEv', symObjAddr: 0xE94, symBinAddr: 0xAE04, symSize: 0x4 }
  - { offset: 0x4702E, size: 0x8, addend: 0x0, symName: '__ZNSt3__110__function6__funcIZNK9Steinberg3Vst12_GLOBAL__N_13$_0clEvEUlPNS2_11ITestResultEE1_NS_9allocatorIS8_EEFbS7_EEclEOS7_', symObjAddr: 0xE98, symBinAddr: 0xAE08, symSize: 0x23C }
  - { offset: 0x4826C, size: 0x8, addend: 0x0, symName: '__ZNSt3__110__function6__funcIZNK9Steinberg3Vst12_GLOBAL__N_13$_0clEvEUlPNS2_11ITestResultEE1_NS_9allocatorIS8_EEFbS7_EEclEOS7_.cold.1', symObjAddr: 0x114C, symBinAddr: 0x32EEC, symSize: 0x98 }
  - { offset: 0x48753, size: 0x8, addend: 0x0, symName: '__ZNKSt3__110__function6__funcIZNK9Steinberg3Vst12_GLOBAL__N_13$_0clEvEUlPNS2_11ITestResultEE1_NS_9allocatorIS8_EEFbS7_EE6targetERKSt9type_info', symObjAddr: 0x10D4, symBinAddr: 0xB044, symSize: 0x6C }
  - { offset: 0x487EF, size: 0x8, addend: 0x0, symName: '__ZNKSt3__110__function6__funcIZNK9Steinberg3Vst12_GLOBAL__N_13$_0clEvEUlPNS2_11ITestResultEE1_NS_9allocatorIS8_EEFbS7_EE11target_typeEv', symObjAddr: 0x1140, symBinAddr: 0xB0B0, symSize: 0xC }
  - { offset: 0x4A866, size: 0x8, addend: 0x0, symName: __ZN9Steinberg3VstL9InitTestsE, symObjAddr: 0x5D064, symBinAddr: 0x3CE44, symSize: 0x0 }
  - { offset: 0x52A4B, size: 0x8, addend: 0x0, symName: '__ZNSt3__110__function6__funcIN9Steinberg3Vst3$_0ENS_9allocatorIS4_EEFvvEED1Ev', symObjAddr: 0x0, symBinAddr: 0xB198, symSize: 0x4 }
  - { offset: 0x52A75, size: 0x8, addend: 0x0, symName: '__ZNSt3__110__function6__funcIN9Steinberg3Vst3$_0ENS_9allocatorIS4_EEFvvEED0Ev', symObjAddr: 0x4, symBinAddr: 0xB19C, symSize: 0x4 }
  - { offset: 0x52B51, size: 0x8, addend: 0x0, symName: '__ZNKSt3__110__function6__funcIN9Steinberg3Vst3$_0ENS_9allocatorIS4_EEFvvEE7__cloneEv', symObjAddr: 0x8, symBinAddr: 0xB1A0, symSize: 0x24 }
  - { offset: 0x52CA0, size: 0x8, addend: 0x0, symName: '__ZNKSt3__110__function6__funcIN9Steinberg3Vst3$_0ENS_9allocatorIS4_EEFvvEE7__cloneEPNS0_6__baseIS7_EE', symObjAddr: 0x2C, symBinAddr: 0xB1C4, symSize: 0x10 }
  - { offset: 0x52CD6, size: 0x8, addend: 0x0, symName: '__ZNKSt3__110__function6__funcIN9Steinberg3Vst3$_0ENS_9allocatorIS4_EEFvvEE7__cloneEPNS0_6__baseIS7_EE', symObjAddr: 0x2C, symBinAddr: 0xB1C4, symSize: 0x10 }
  - { offset: 0x52CF3, size: 0x8, addend: 0x0, symName: '__ZNKSt3__110__function6__funcIN9Steinberg3Vst3$_0ENS_9allocatorIS4_EEFvvEE7__cloneEPNS0_6__baseIS7_EE', symObjAddr: 0x2C, symBinAddr: 0xB1C4, symSize: 0x10 }
  - { offset: 0x52D0F, size: 0x8, addend: 0x0, symName: '__ZNSt3__110__function6__funcIN9Steinberg3Vst3$_0ENS_9allocatorIS4_EEFvvEE7destroyEv', symObjAddr: 0x3C, symBinAddr: 0xB1D4, symSize: 0x4 }
  - { offset: 0x52D5D, size: 0x8, addend: 0x0, symName: '__ZNSt3__110__function6__funcIN9Steinberg3Vst3$_0ENS_9allocatorIS4_EEFvvEE18destroy_deallocateEv', symObjAddr: 0x40, symBinAddr: 0xB1D8, symSize: 0x4 }
  - { offset: 0x52D93, size: 0x8, addend: 0x0, symName: '__ZNSt3__110__function6__funcIN9Steinberg3Vst3$_0ENS_9allocatorIS4_EEFvvEE18destroy_deallocateEv', symObjAddr: 0x40, symBinAddr: 0xB1D8, symSize: 0x4 }
  - { offset: 0x52DB6, size: 0x8, addend: 0x0, symName: '__ZNSt3__110__function6__funcIN9Steinberg3Vst3$_0ENS_9allocatorIS4_EEFvvEE18destroy_deallocateEv', symObjAddr: 0x40, symBinAddr: 0xB1D8, symSize: 0x4 }
  - { offset: 0x52DE3, size: 0x8, addend: 0x0, symName: '__ZNSt3__110__function6__funcIN9Steinberg3Vst3$_0ENS_9allocatorIS4_EEFvvEE18destroy_deallocateEv', symObjAddr: 0x40, symBinAddr: 0xB1D8, symSize: 0x4 }
  - { offset: 0x52E0A, size: 0x8, addend: 0x0, symName: '__ZNSt3__110__function6__funcIN9Steinberg3Vst3$_0ENS_9allocatorIS4_EEFvvEE18destroy_deallocateEv', symObjAddr: 0x40, symBinAddr: 0xB1D8, symSize: 0x4 }
  - { offset: 0x53A11, size: 0x8, addend: 0x0, symName: '__ZNSt3__110__function6__funcIN9Steinberg3Vst3$_0ENS_9allocatorIS4_EEFvvEEclEv', symObjAddr: 0x44, symBinAddr: 0xB1DC, symSize: 0x30C }
  - { offset: 0x546E4, size: 0x8, addend: 0x0, symName: '__ZNKSt3__110__function6__funcIN9Steinberg3Vst3$_0ENS_9allocatorIS4_EEFvvEE6targetERKSt9type_info', symObjAddr: 0x350, symBinAddr: 0xB4E8, symSize: 0x6C }
  - { offset: 0x54797, size: 0x8, addend: 0x0, symName: '__ZNKSt3__110__function6__funcIN9Steinberg3Vst3$_0ENS_9allocatorIS4_EEFvvEE11target_typeEv', symObjAddr: 0x3BC, symBinAddr: 0xB554, symSize: 0xC }
  - { offset: 0x547BB, size: 0x8, addend: 0x0, symName: '__ZNSt3__110__function6__funcIZNK9Steinberg3Vst3$_0clEvEUlPNS2_11ITestResultEE_NS_9allocatorIS7_EEFbS6_EED1Ev', symObjAddr: 0x3D8, symBinAddr: 0xB560, symSize: 0x4 }
  - { offset: 0x547E5, size: 0x8, addend: 0x0, symName: '__ZNSt3__110__function6__funcIZNK9Steinberg3Vst3$_0clEvEUlPNS2_11ITestResultEE_NS_9allocatorIS7_EEFbS6_EED0Ev', symObjAddr: 0x3DC, symBinAddr: 0xB564, symSize: 0x4 }
  - { offset: 0x54899, size: 0x8, addend: 0x0, symName: '__ZNKSt3__110__function6__funcIZNK9Steinberg3Vst3$_0clEvEUlPNS2_11ITestResultEE_NS_9allocatorIS7_EEFbS6_EE7__cloneEv', symObjAddr: 0x3E0, symBinAddr: 0xB568, symSize: 0x24 }
  - { offset: 0x549E8, size: 0x8, addend: 0x0, symName: '__ZNKSt3__110__function6__funcIZNK9Steinberg3Vst3$_0clEvEUlPNS2_11ITestResultEE_NS_9allocatorIS7_EEFbS6_EE7__cloneEPNS0_6__baseISA_EE', symObjAddr: 0x404, symBinAddr: 0xB58C, symSize: 0x10 }
  - { offset: 0x54A1E, size: 0x8, addend: 0x0, symName: '__ZNKSt3__110__function6__funcIZNK9Steinberg3Vst3$_0clEvEUlPNS2_11ITestResultEE_NS_9allocatorIS7_EEFbS6_EE7__cloneEPNS0_6__baseISA_EE', symObjAddr: 0x404, symBinAddr: 0xB58C, symSize: 0x10 }
  - { offset: 0x54A3B, size: 0x8, addend: 0x0, symName: '__ZNKSt3__110__function6__funcIZNK9Steinberg3Vst3$_0clEvEUlPNS2_11ITestResultEE_NS_9allocatorIS7_EEFbS6_EE7__cloneEPNS0_6__baseISA_EE', symObjAddr: 0x404, symBinAddr: 0xB58C, symSize: 0x10 }
  - { offset: 0x54A57, size: 0x8, addend: 0x0, symName: '__ZNSt3__110__function6__funcIZNK9Steinberg3Vst3$_0clEvEUlPNS2_11ITestResultEE_NS_9allocatorIS7_EEFbS6_EE7destroyEv', symObjAddr: 0x414, symBinAddr: 0xB59C, symSize: 0x4 }
  - { offset: 0x54AA5, size: 0x8, addend: 0x0, symName: '__ZNSt3__110__function6__funcIZNK9Steinberg3Vst3$_0clEvEUlPNS2_11ITestResultEE_NS_9allocatorIS7_EEFbS6_EE18destroy_deallocateEv', symObjAddr: 0x418, symBinAddr: 0xB5A0, symSize: 0x4 }
  - { offset: 0x54ADB, size: 0x8, addend: 0x0, symName: '__ZNSt3__110__function6__funcIZNK9Steinberg3Vst3$_0clEvEUlPNS2_11ITestResultEE_NS_9allocatorIS7_EEFbS6_EE18destroy_deallocateEv', symObjAddr: 0x418, symBinAddr: 0xB5A0, symSize: 0x4 }
  - { offset: 0x54AFE, size: 0x8, addend: 0x0, symName: '__ZNSt3__110__function6__funcIZNK9Steinberg3Vst3$_0clEvEUlPNS2_11ITestResultEE_NS_9allocatorIS7_EEFbS6_EE18destroy_deallocateEv', symObjAddr: 0x418, symBinAddr: 0xB5A0, symSize: 0x4 }
  - { offset: 0x54B2B, size: 0x8, addend: 0x0, symName: '__ZNSt3__110__function6__funcIZNK9Steinberg3Vst3$_0clEvEUlPNS2_11ITestResultEE_NS_9allocatorIS7_EEFbS6_EE18destroy_deallocateEv', symObjAddr: 0x418, symBinAddr: 0xB5A0, symSize: 0x4 }
  - { offset: 0x54B52, size: 0x8, addend: 0x0, symName: '__ZNSt3__110__function6__funcIZNK9Steinberg3Vst3$_0clEvEUlPNS2_11ITestResultEE_NS_9allocatorIS7_EEFbS6_EE18destroy_deallocateEv', symObjAddr: 0x418, symBinAddr: 0xB5A0, symSize: 0x4 }
  - { offset: 0x54E39, size: 0x8, addend: 0x0, symName: '__ZNSt3__110__function6__funcIZNK9Steinberg3Vst3$_0clEvEUlPNS2_11ITestResultEE_NS_9allocatorIS7_EEFbS6_EEclEOS6_', symObjAddr: 0x41C, symBinAddr: 0xB5A4, symSize: 0x374 }
  - { offset: 0x551B5, size: 0x8, addend: 0x0, symName: '__ZNKSt3__110__function6__funcIZNK9Steinberg3Vst3$_0clEvEUlPNS2_11ITestResultEE_NS_9allocatorIS7_EEFbS6_EE6targetERKSt9type_info', symObjAddr: 0x790, symBinAddr: 0xB918, symSize: 0x6C }
  - { offset: 0x55251, size: 0x8, addend: 0x0, symName: '__ZNKSt3__110__function6__funcIZNK9Steinberg3Vst3$_0clEvEUlPNS2_11ITestResultEE_NS_9allocatorIS7_EEFbS6_EE11target_typeEv', symObjAddr: 0x7FC, symBinAddr: 0xB984, symSize: 0xC }
  - { offset: 0x55275, size: 0x8, addend: 0x0, symName: '__ZNSt3__110__function6__funcIZNK9Steinberg3Vst3$_0clEvEUlPNS2_11ITestResultEE0_NS_9allocatorIS7_EEFbS6_EED1Ev', symObjAddr: 0x808, symBinAddr: 0xB990, symSize: 0x4 }
  - { offset: 0x5529F, size: 0x8, addend: 0x0, symName: '__ZNSt3__110__function6__funcIZNK9Steinberg3Vst3$_0clEvEUlPNS2_11ITestResultEE0_NS_9allocatorIS7_EEFbS6_EED0Ev', symObjAddr: 0x80C, symBinAddr: 0xB994, symSize: 0x4 }
  - { offset: 0x55353, size: 0x8, addend: 0x0, symName: '__ZNKSt3__110__function6__funcIZNK9Steinberg3Vst3$_0clEvEUlPNS2_11ITestResultEE0_NS_9allocatorIS7_EEFbS6_EE7__cloneEv', symObjAddr: 0x810, symBinAddr: 0xB998, symSize: 0x24 }
  - { offset: 0x554A2, size: 0x8, addend: 0x0, symName: '__ZNKSt3__110__function6__funcIZNK9Steinberg3Vst3$_0clEvEUlPNS2_11ITestResultEE0_NS_9allocatorIS7_EEFbS6_EE7__cloneEPNS0_6__baseISA_EE', symObjAddr: 0x834, symBinAddr: 0xB9BC, symSize: 0x10 }
  - { offset: 0x554D8, size: 0x8, addend: 0x0, symName: '__ZNKSt3__110__function6__funcIZNK9Steinberg3Vst3$_0clEvEUlPNS2_11ITestResultEE0_NS_9allocatorIS7_EEFbS6_EE7__cloneEPNS0_6__baseISA_EE', symObjAddr: 0x834, symBinAddr: 0xB9BC, symSize: 0x10 }
  - { offset: 0x554F5, size: 0x8, addend: 0x0, symName: '__ZNKSt3__110__function6__funcIZNK9Steinberg3Vst3$_0clEvEUlPNS2_11ITestResultEE0_NS_9allocatorIS7_EEFbS6_EE7__cloneEPNS0_6__baseISA_EE', symObjAddr: 0x834, symBinAddr: 0xB9BC, symSize: 0x10 }
  - { offset: 0x55511, size: 0x8, addend: 0x0, symName: '__ZNSt3__110__function6__funcIZNK9Steinberg3Vst3$_0clEvEUlPNS2_11ITestResultEE0_NS_9allocatorIS7_EEFbS6_EE7destroyEv', symObjAddr: 0x844, symBinAddr: 0xB9CC, symSize: 0x4 }
  - { offset: 0x5555F, size: 0x8, addend: 0x0, symName: '__ZNSt3__110__function6__funcIZNK9Steinberg3Vst3$_0clEvEUlPNS2_11ITestResultEE0_NS_9allocatorIS7_EEFbS6_EE18destroy_deallocateEv', symObjAddr: 0x848, symBinAddr: 0xB9D0, symSize: 0x4 }
  - { offset: 0x55595, size: 0x8, addend: 0x0, symName: '__ZNSt3__110__function6__funcIZNK9Steinberg3Vst3$_0clEvEUlPNS2_11ITestResultEE0_NS_9allocatorIS7_EEFbS6_EE18destroy_deallocateEv', symObjAddr: 0x848, symBinAddr: 0xB9D0, symSize: 0x4 }
  - { offset: 0x555B8, size: 0x8, addend: 0x0, symName: '__ZNSt3__110__function6__funcIZNK9Steinberg3Vst3$_0clEvEUlPNS2_11ITestResultEE0_NS_9allocatorIS7_EEFbS6_EE18destroy_deallocateEv', symObjAddr: 0x848, symBinAddr: 0xB9D0, symSize: 0x4 }
  - { offset: 0x555E5, size: 0x8, addend: 0x0, symName: '__ZNSt3__110__function6__funcIZNK9Steinberg3Vst3$_0clEvEUlPNS2_11ITestResultEE0_NS_9allocatorIS7_EEFbS6_EE18destroy_deallocateEv', symObjAddr: 0x848, symBinAddr: 0xB9D0, symSize: 0x4 }
  - { offset: 0x5560C, size: 0x8, addend: 0x0, symName: '__ZNSt3__110__function6__funcIZNK9Steinberg3Vst3$_0clEvEUlPNS2_11ITestResultEE0_NS_9allocatorIS7_EEFbS6_EE18destroy_deallocateEv', symObjAddr: 0x848, symBinAddr: 0xB9D0, symSize: 0x4 }
  - { offset: 0x556DF, size: 0x8, addend: 0x0, symName: '__ZNSt3__110__function6__funcIZNK9Steinberg3Vst3$_0clEvEUlPNS2_11ITestResultEE0_NS_9allocatorIS7_EEFbS6_EEclEOS6_', symObjAddr: 0x84C, symBinAddr: 0xB9D4, symSize: 0x450 }
  - { offset: 0x55B48, size: 0x8, addend: 0x0, symName: '__ZNKSt3__110__function6__funcIZNK9Steinberg3Vst3$_0clEvEUlPNS2_11ITestResultEE0_NS_9allocatorIS7_EEFbS6_EE6targetERKSt9type_info', symObjAddr: 0xC9C, symBinAddr: 0xBE24, symSize: 0x6C }
  - { offset: 0x55BE4, size: 0x8, addend: 0x0, symName: '__ZNKSt3__110__function6__funcIZNK9Steinberg3Vst3$_0clEvEUlPNS2_11ITestResultEE0_NS_9allocatorIS7_EEFbS6_EE11target_typeEv', symObjAddr: 0xD08, symBinAddr: 0xBE90, symSize: 0xC }
  - { offset: 0x55C08, size: 0x8, addend: 0x0, symName: '__ZNSt3__110__function6__funcIZNK9Steinberg3Vst3$_0clEvEUlPNS2_11ITestResultEE1_NS_9allocatorIS7_EEFbS6_EED1Ev', symObjAddr: 0xD14, symBinAddr: 0xBE9C, symSize: 0x4 }
  - { offset: 0x55C32, size: 0x8, addend: 0x0, symName: '__ZNSt3__110__function6__funcIZNK9Steinberg3Vst3$_0clEvEUlPNS2_11ITestResultEE1_NS_9allocatorIS7_EEFbS6_EED0Ev', symObjAddr: 0xD18, symBinAddr: 0xBEA0, symSize: 0x4 }
  - { offset: 0x55CE6, size: 0x8, addend: 0x0, symName: '__ZNKSt3__110__function6__funcIZNK9Steinberg3Vst3$_0clEvEUlPNS2_11ITestResultEE1_NS_9allocatorIS7_EEFbS6_EE7__cloneEv', symObjAddr: 0xD1C, symBinAddr: 0xBEA4, symSize: 0x24 }
  - { offset: 0x55E35, size: 0x8, addend: 0x0, symName: '__ZNKSt3__110__function6__funcIZNK9Steinberg3Vst3$_0clEvEUlPNS2_11ITestResultEE1_NS_9allocatorIS7_EEFbS6_EE7__cloneEPNS0_6__baseISA_EE', symObjAddr: 0xD40, symBinAddr: 0xBEC8, symSize: 0x10 }
  - { offset: 0x55E6B, size: 0x8, addend: 0x0, symName: '__ZNKSt3__110__function6__funcIZNK9Steinberg3Vst3$_0clEvEUlPNS2_11ITestResultEE1_NS_9allocatorIS7_EEFbS6_EE7__cloneEPNS0_6__baseISA_EE', symObjAddr: 0xD40, symBinAddr: 0xBEC8, symSize: 0x10 }
  - { offset: 0x55E88, size: 0x8, addend: 0x0, symName: '__ZNKSt3__110__function6__funcIZNK9Steinberg3Vst3$_0clEvEUlPNS2_11ITestResultEE1_NS_9allocatorIS7_EEFbS6_EE7__cloneEPNS0_6__baseISA_EE', symObjAddr: 0xD40, symBinAddr: 0xBEC8, symSize: 0x10 }
  - { offset: 0x55EA4, size: 0x8, addend: 0x0, symName: '__ZNSt3__110__function6__funcIZNK9Steinberg3Vst3$_0clEvEUlPNS2_11ITestResultEE1_NS_9allocatorIS7_EEFbS6_EE7destroyEv', symObjAddr: 0xD50, symBinAddr: 0xBED8, symSize: 0x4 }
  - { offset: 0x55EF2, size: 0x8, addend: 0x0, symName: '__ZNSt3__110__function6__funcIZNK9Steinberg3Vst3$_0clEvEUlPNS2_11ITestResultEE1_NS_9allocatorIS7_EEFbS6_EE18destroy_deallocateEv', symObjAddr: 0xD54, symBinAddr: 0xBEDC, symSize: 0x4 }
  - { offset: 0x55F28, size: 0x8, addend: 0x0, symName: '__ZNSt3__110__function6__funcIZNK9Steinberg3Vst3$_0clEvEUlPNS2_11ITestResultEE1_NS_9allocatorIS7_EEFbS6_EE18destroy_deallocateEv', symObjAddr: 0xD54, symBinAddr: 0xBEDC, symSize: 0x4 }
  - { offset: 0x55F4B, size: 0x8, addend: 0x0, symName: '__ZNSt3__110__function6__funcIZNK9Steinberg3Vst3$_0clEvEUlPNS2_11ITestResultEE1_NS_9allocatorIS7_EEFbS6_EE18destroy_deallocateEv', symObjAddr: 0xD54, symBinAddr: 0xBEDC, symSize: 0x4 }
  - { offset: 0x55F78, size: 0x8, addend: 0x0, symName: '__ZNSt3__110__function6__funcIZNK9Steinberg3Vst3$_0clEvEUlPNS2_11ITestResultEE1_NS_9allocatorIS7_EEFbS6_EE18destroy_deallocateEv', symObjAddr: 0xD54, symBinAddr: 0xBEDC, symSize: 0x4 }
  - { offset: 0x55F9F, size: 0x8, addend: 0x0, symName: '__ZNSt3__110__function6__funcIZNK9Steinberg3Vst3$_0clEvEUlPNS2_11ITestResultEE1_NS_9allocatorIS7_EEFbS6_EE18destroy_deallocateEv', symObjAddr: 0xD54, symBinAddr: 0xBEDC, symSize: 0x4 }
  - { offset: 0x56072, size: 0x8, addend: 0x0, symName: '__ZNSt3__110__function6__funcIZNK9Steinberg3Vst3$_0clEvEUlPNS2_11ITestResultEE1_NS_9allocatorIS7_EEFbS6_EEclEOS6_', symObjAddr: 0xD58, symBinAddr: 0xBEE0, symSize: 0x298 }
  - { offset: 0x56302, size: 0x8, addend: 0x0, symName: '__ZNKSt3__110__function6__funcIZNK9Steinberg3Vst3$_0clEvEUlPNS2_11ITestResultEE1_NS_9allocatorIS7_EEFbS6_EE6targetERKSt9type_info', symObjAddr: 0xFF0, symBinAddr: 0xC178, symSize: 0x6C }
  - { offset: 0x5639E, size: 0x8, addend: 0x0, symName: '__ZNKSt3__110__function6__funcIZNK9Steinberg3Vst3$_0clEvEUlPNS2_11ITestResultEE1_NS_9allocatorIS7_EEFbS6_EE11target_typeEv', symObjAddr: 0x105C, symBinAddr: 0xC1E4, symSize: 0xC }
  - { offset: 0x563C2, size: 0x8, addend: 0x0, symName: '__ZNSt3__110__function6__funcIZNK9Steinberg3Vst3$_0clEvEUlPNS2_11ITestResultEE2_NS_9allocatorIS7_EEFbS6_EED1Ev', symObjAddr: 0x1068, symBinAddr: 0xC1F0, symSize: 0x4 }
  - { offset: 0x563EC, size: 0x8, addend: 0x0, symName: '__ZNSt3__110__function6__funcIZNK9Steinberg3Vst3$_0clEvEUlPNS2_11ITestResultEE2_NS_9allocatorIS7_EEFbS6_EED0Ev', symObjAddr: 0x106C, symBinAddr: 0xC1F4, symSize: 0x4 }
  - { offset: 0x564A0, size: 0x8, addend: 0x0, symName: '__ZNKSt3__110__function6__funcIZNK9Steinberg3Vst3$_0clEvEUlPNS2_11ITestResultEE2_NS_9allocatorIS7_EEFbS6_EE7__cloneEv', symObjAddr: 0x1070, symBinAddr: 0xC1F8, symSize: 0x24 }
  - { offset: 0x565EF, size: 0x8, addend: 0x0, symName: '__ZNKSt3__110__function6__funcIZNK9Steinberg3Vst3$_0clEvEUlPNS2_11ITestResultEE2_NS_9allocatorIS7_EEFbS6_EE7__cloneEPNS0_6__baseISA_EE', symObjAddr: 0x1094, symBinAddr: 0xC21C, symSize: 0x10 }
  - { offset: 0x56625, size: 0x8, addend: 0x0, symName: '__ZNKSt3__110__function6__funcIZNK9Steinberg3Vst3$_0clEvEUlPNS2_11ITestResultEE2_NS_9allocatorIS7_EEFbS6_EE7__cloneEPNS0_6__baseISA_EE', symObjAddr: 0x1094, symBinAddr: 0xC21C, symSize: 0x10 }
  - { offset: 0x56642, size: 0x8, addend: 0x0, symName: '__ZNKSt3__110__function6__funcIZNK9Steinberg3Vst3$_0clEvEUlPNS2_11ITestResultEE2_NS_9allocatorIS7_EEFbS6_EE7__cloneEPNS0_6__baseISA_EE', symObjAddr: 0x1094, symBinAddr: 0xC21C, symSize: 0x10 }
  - { offset: 0x5665E, size: 0x8, addend: 0x0, symName: '__ZNSt3__110__function6__funcIZNK9Steinberg3Vst3$_0clEvEUlPNS2_11ITestResultEE2_NS_9allocatorIS7_EEFbS6_EE7destroyEv', symObjAddr: 0x10A4, symBinAddr: 0xC22C, symSize: 0x4 }
  - { offset: 0x566AC, size: 0x8, addend: 0x0, symName: '__ZNSt3__110__function6__funcIZNK9Steinberg3Vst3$_0clEvEUlPNS2_11ITestResultEE2_NS_9allocatorIS7_EEFbS6_EE18destroy_deallocateEv', symObjAddr: 0x10A8, symBinAddr: 0xC230, symSize: 0x4 }
  - { offset: 0x566E2, size: 0x8, addend: 0x0, symName: '__ZNSt3__110__function6__funcIZNK9Steinberg3Vst3$_0clEvEUlPNS2_11ITestResultEE2_NS_9allocatorIS7_EEFbS6_EE18destroy_deallocateEv', symObjAddr: 0x10A8, symBinAddr: 0xC230, symSize: 0x4 }
  - { offset: 0x56705, size: 0x8, addend: 0x0, symName: '__ZNSt3__110__function6__funcIZNK9Steinberg3Vst3$_0clEvEUlPNS2_11ITestResultEE2_NS_9allocatorIS7_EEFbS6_EE18destroy_deallocateEv', symObjAddr: 0x10A8, symBinAddr: 0xC230, symSize: 0x4 }
  - { offset: 0x56732, size: 0x8, addend: 0x0, symName: '__ZNSt3__110__function6__funcIZNK9Steinberg3Vst3$_0clEvEUlPNS2_11ITestResultEE2_NS_9allocatorIS7_EEFbS6_EE18destroy_deallocateEv', symObjAddr: 0x10A8, symBinAddr: 0xC230, symSize: 0x4 }
  - { offset: 0x56759, size: 0x8, addend: 0x0, symName: '__ZNSt3__110__function6__funcIZNK9Steinberg3Vst3$_0clEvEUlPNS2_11ITestResultEE2_NS_9allocatorIS7_EEFbS6_EE18destroy_deallocateEv', symObjAddr: 0x10A8, symBinAddr: 0xC230, symSize: 0x4 }
  - { offset: 0x5682C, size: 0x8, addend: 0x0, symName: '__ZNSt3__110__function6__funcIZNK9Steinberg3Vst3$_0clEvEUlPNS2_11ITestResultEE2_NS_9allocatorIS7_EEFbS6_EEclEOS6_', symObjAddr: 0x10AC, symBinAddr: 0xC234, symSize: 0x1AC }
  - { offset: 0x56A26, size: 0x8, addend: 0x0, symName: '__ZNKSt3__110__function6__funcIZNK9Steinberg3Vst3$_0clEvEUlPNS2_11ITestResultEE2_NS_9allocatorIS7_EEFbS6_EE6targetERKSt9type_info', symObjAddr: 0x1258, symBinAddr: 0xC3E0, symSize: 0x6C }
  - { offset: 0x56AC2, size: 0x8, addend: 0x0, symName: '__ZNKSt3__110__function6__funcIZNK9Steinberg3Vst3$_0clEvEUlPNS2_11ITestResultEE2_NS_9allocatorIS7_EEFbS6_EE11target_typeEv', symObjAddr: 0x12C4, symBinAddr: 0xC44C, symSize: 0xC }
  - { offset: 0x56AE6, size: 0x8, addend: 0x0, symName: '__ZNSt3__110__function6__funcIZNK9Steinberg3Vst3$_0clEvEUlPNS2_11ITestResultEE3_NS_9allocatorIS7_EEFbS6_EED1Ev', symObjAddr: 0x12D0, symBinAddr: 0xC458, symSize: 0x4 }
  - { offset: 0x56B10, size: 0x8, addend: 0x0, symName: '__ZNSt3__110__function6__funcIZNK9Steinberg3Vst3$_0clEvEUlPNS2_11ITestResultEE3_NS_9allocatorIS7_EEFbS6_EED0Ev', symObjAddr: 0x12D4, symBinAddr: 0xC45C, symSize: 0x4 }
  - { offset: 0x56BC4, size: 0x8, addend: 0x0, symName: '__ZNKSt3__110__function6__funcIZNK9Steinberg3Vst3$_0clEvEUlPNS2_11ITestResultEE3_NS_9allocatorIS7_EEFbS6_EE7__cloneEv', symObjAddr: 0x12D8, symBinAddr: 0xC460, symSize: 0x24 }
  - { offset: 0x56D13, size: 0x8, addend: 0x0, symName: '__ZNKSt3__110__function6__funcIZNK9Steinberg3Vst3$_0clEvEUlPNS2_11ITestResultEE3_NS_9allocatorIS7_EEFbS6_EE7__cloneEPNS0_6__baseISA_EE', symObjAddr: 0x12FC, symBinAddr: 0xC484, symSize: 0x10 }
  - { offset: 0x56D49, size: 0x8, addend: 0x0, symName: '__ZNKSt3__110__function6__funcIZNK9Steinberg3Vst3$_0clEvEUlPNS2_11ITestResultEE3_NS_9allocatorIS7_EEFbS6_EE7__cloneEPNS0_6__baseISA_EE', symObjAddr: 0x12FC, symBinAddr: 0xC484, symSize: 0x10 }
  - { offset: 0x56D66, size: 0x8, addend: 0x0, symName: '__ZNKSt3__110__function6__funcIZNK9Steinberg3Vst3$_0clEvEUlPNS2_11ITestResultEE3_NS_9allocatorIS7_EEFbS6_EE7__cloneEPNS0_6__baseISA_EE', symObjAddr: 0x12FC, symBinAddr: 0xC484, symSize: 0x10 }
  - { offset: 0x56D82, size: 0x8, addend: 0x0, symName: '__ZNSt3__110__function6__funcIZNK9Steinberg3Vst3$_0clEvEUlPNS2_11ITestResultEE3_NS_9allocatorIS7_EEFbS6_EE7destroyEv', symObjAddr: 0x130C, symBinAddr: 0xC494, symSize: 0x4 }
  - { offset: 0x56DD0, size: 0x8, addend: 0x0, symName: '__ZNSt3__110__function6__funcIZNK9Steinberg3Vst3$_0clEvEUlPNS2_11ITestResultEE3_NS_9allocatorIS7_EEFbS6_EE18destroy_deallocateEv', symObjAddr: 0x1310, symBinAddr: 0xC498, symSize: 0x4 }
  - { offset: 0x56E06, size: 0x8, addend: 0x0, symName: '__ZNSt3__110__function6__funcIZNK9Steinberg3Vst3$_0clEvEUlPNS2_11ITestResultEE3_NS_9allocatorIS7_EEFbS6_EE18destroy_deallocateEv', symObjAddr: 0x1310, symBinAddr: 0xC498, symSize: 0x4 }
  - { offset: 0x56E29, size: 0x8, addend: 0x0, symName: '__ZNSt3__110__function6__funcIZNK9Steinberg3Vst3$_0clEvEUlPNS2_11ITestResultEE3_NS_9allocatorIS7_EEFbS6_EE18destroy_deallocateEv', symObjAddr: 0x1310, symBinAddr: 0xC498, symSize: 0x4 }
  - { offset: 0x56E56, size: 0x8, addend: 0x0, symName: '__ZNSt3__110__function6__funcIZNK9Steinberg3Vst3$_0clEvEUlPNS2_11ITestResultEE3_NS_9allocatorIS7_EEFbS6_EE18destroy_deallocateEv', symObjAddr: 0x1310, symBinAddr: 0xC498, symSize: 0x4 }
  - { offset: 0x56E7D, size: 0x8, addend: 0x0, symName: '__ZNSt3__110__function6__funcIZNK9Steinberg3Vst3$_0clEvEUlPNS2_11ITestResultEE3_NS_9allocatorIS7_EEFbS6_EE18destroy_deallocateEv', symObjAddr: 0x1310, symBinAddr: 0xC498, symSize: 0x4 }
  - { offset: 0x570F0, size: 0x8, addend: 0x0, symName: '__ZNSt3__110__function6__funcIZNK9Steinberg3Vst3$_0clEvEUlPNS2_11ITestResultEE3_NS_9allocatorIS7_EEFbS6_EEclEOS6_', symObjAddr: 0x1314, symBinAddr: 0xC49C, symSize: 0x3B4 }
  - { offset: 0x574B9, size: 0x8, addend: 0x0, symName: '__ZNKSt3__110__function6__funcIZNK9Steinberg3Vst3$_0clEvEUlPNS2_11ITestResultEE3_NS_9allocatorIS7_EEFbS6_EE6targetERKSt9type_info', symObjAddr: 0x16C8, symBinAddr: 0xC850, symSize: 0x6C }
  - { offset: 0x57555, size: 0x8, addend: 0x0, symName: '__ZNKSt3__110__function6__funcIZNK9Steinberg3Vst3$_0clEvEUlPNS2_11ITestResultEE3_NS_9allocatorIS7_EEFbS6_EE11target_typeEv', symObjAddr: 0x1734, symBinAddr: 0xC8BC, symSize: 0xC }
  - { offset: 0x57579, size: 0x8, addend: 0x0, symName: '__ZNSt3__110__function6__funcIZNK9Steinberg3Vst3$_0clEvEUlPNS2_11ITestResultEE4_NS_9allocatorIS7_EEFbS6_EED1Ev', symObjAddr: 0x1740, symBinAddr: 0xC8C8, symSize: 0x4 }
  - { offset: 0x575A3, size: 0x8, addend: 0x0, symName: '__ZNSt3__110__function6__funcIZNK9Steinberg3Vst3$_0clEvEUlPNS2_11ITestResultEE4_NS_9allocatorIS7_EEFbS6_EED0Ev', symObjAddr: 0x1744, symBinAddr: 0xC8CC, symSize: 0x4 }
  - { offset: 0x57657, size: 0x8, addend: 0x0, symName: '__ZNKSt3__110__function6__funcIZNK9Steinberg3Vst3$_0clEvEUlPNS2_11ITestResultEE4_NS_9allocatorIS7_EEFbS6_EE7__cloneEv', symObjAddr: 0x1748, symBinAddr: 0xC8D0, symSize: 0x24 }
  - { offset: 0x577A6, size: 0x8, addend: 0x0, symName: '__ZNKSt3__110__function6__funcIZNK9Steinberg3Vst3$_0clEvEUlPNS2_11ITestResultEE4_NS_9allocatorIS7_EEFbS6_EE7__cloneEPNS0_6__baseISA_EE', symObjAddr: 0x176C, symBinAddr: 0xC8F4, symSize: 0x10 }
  - { offset: 0x577DC, size: 0x8, addend: 0x0, symName: '__ZNKSt3__110__function6__funcIZNK9Steinberg3Vst3$_0clEvEUlPNS2_11ITestResultEE4_NS_9allocatorIS7_EEFbS6_EE7__cloneEPNS0_6__baseISA_EE', symObjAddr: 0x176C, symBinAddr: 0xC8F4, symSize: 0x10 }
  - { offset: 0x577F9, size: 0x8, addend: 0x0, symName: '__ZNKSt3__110__function6__funcIZNK9Steinberg3Vst3$_0clEvEUlPNS2_11ITestResultEE4_NS_9allocatorIS7_EEFbS6_EE7__cloneEPNS0_6__baseISA_EE', symObjAddr: 0x176C, symBinAddr: 0xC8F4, symSize: 0x10 }
  - { offset: 0x57815, size: 0x8, addend: 0x0, symName: '__ZNSt3__110__function6__funcIZNK9Steinberg3Vst3$_0clEvEUlPNS2_11ITestResultEE4_NS_9allocatorIS7_EEFbS6_EE7destroyEv', symObjAddr: 0x177C, symBinAddr: 0xC904, symSize: 0x4 }
  - { offset: 0x57863, size: 0x8, addend: 0x0, symName: '__ZNSt3__110__function6__funcIZNK9Steinberg3Vst3$_0clEvEUlPNS2_11ITestResultEE4_NS_9allocatorIS7_EEFbS6_EE18destroy_deallocateEv', symObjAddr: 0x1780, symBinAddr: 0xC908, symSize: 0x4 }
  - { offset: 0x57899, size: 0x8, addend: 0x0, symName: '__ZNSt3__110__function6__funcIZNK9Steinberg3Vst3$_0clEvEUlPNS2_11ITestResultEE4_NS_9allocatorIS7_EEFbS6_EE18destroy_deallocateEv', symObjAddr: 0x1780, symBinAddr: 0xC908, symSize: 0x4 }
  - { offset: 0x578BC, size: 0x8, addend: 0x0, symName: '__ZNSt3__110__function6__funcIZNK9Steinberg3Vst3$_0clEvEUlPNS2_11ITestResultEE4_NS_9allocatorIS7_EEFbS6_EE18destroy_deallocateEv', symObjAddr: 0x1780, symBinAddr: 0xC908, symSize: 0x4 }
  - { offset: 0x578E9, size: 0x8, addend: 0x0, symName: '__ZNSt3__110__function6__funcIZNK9Steinberg3Vst3$_0clEvEUlPNS2_11ITestResultEE4_NS_9allocatorIS7_EEFbS6_EE18destroy_deallocateEv', symObjAddr: 0x1780, symBinAddr: 0xC908, symSize: 0x4 }
  - { offset: 0x57910, size: 0x8, addend: 0x0, symName: '__ZNSt3__110__function6__funcIZNK9Steinberg3Vst3$_0clEvEUlPNS2_11ITestResultEE4_NS_9allocatorIS7_EEFbS6_EE18destroy_deallocateEv', symObjAddr: 0x1780, symBinAddr: 0xC908, symSize: 0x4 }
  - { offset: 0x5793A, size: 0x8, addend: 0x0, symName: '__ZNSt3__110__function6__funcIZNK9Steinberg3Vst3$_0clEvEUlPNS2_11ITestResultEE4_NS_9allocatorIS7_EEFbS6_EEclEOS6_', symObjAddr: 0x1784, symBinAddr: 0xC90C, symSize: 0x8 }
  - { offset: 0x5796B, size: 0x8, addend: 0x0, symName: '__ZNKSt3__110__function6__funcIZNK9Steinberg3Vst3$_0clEvEUlPNS2_11ITestResultEE4_NS_9allocatorIS7_EEFbS6_EE6targetERKSt9type_info', symObjAddr: 0x178C, symBinAddr: 0xC914, symSize: 0x6C }
  - { offset: 0x57A07, size: 0x8, addend: 0x0, symName: '__ZNKSt3__110__function6__funcIZNK9Steinberg3Vst3$_0clEvEUlPNS2_11ITestResultEE4_NS_9allocatorIS7_EEFbS6_EE11target_typeEv', symObjAddr: 0x17F8, symBinAddr: 0xC980, symSize: 0xC }
...
